 Pos_PID_xpc

 Timestamp is 58539efb (Fri Dec 16 02:59:55 2016)

 Preferred load address is 10000000

 Start         Length     Name                   Class
 0001:00000000 000407c0H .text$mn                CODE
 0002:00000000 00000104H .CRT$XCA                DATA
 0002:00000104 00000104H .CRT$XCZ                DATA
 0002:00000208 00000104H .CRT$XIA                DATA
 0002:0000030c 00000113H .CRT$XIC                DATA
 0002:00000420 00000104H .CRT$XIZ                DATA
 0002:00000524 00000104H .CRT$XPA                DATA
 0002:00000628 00000109H .CRT$XPX                DATA
 0002:00000734 00000104H .CRT$XPXA               DATA
 0002:00000838 00000104H .CRT$XPZ                DATA
 0002:0000093c 00000104H .CRT$XTA                DATA
 0002:00000a40 00000104H .CRT$XTZ                DATA
 0002:00000b50 0000dab6H .rdata                  DATA
 0002:0000e608 000001a8H .rdata$debug            DATA
 0002:0000e7b0 0000010eH .rdata$sxdata           DATA
 0002:0000e8c0 00000104H .rtc$IAA                DATA
 0002:0000e9c4 00000104H .rtc$IZZ                DATA
 0002:0000eac8 00000104H .rtc$TAA                DATA
 0002:0000ebcc 00000104H .rtc$TZZ                DATA
 0002:0000ecd0 00000991H .xdata$x                DATA
 0002:0000f670 00000214H .edata                  DATA
 0003:00000000 0000313aH .data                   DATA
 0003:00003140 000172a4H .bss                    DATA
 0004:00000000 000001b0H .idata$5                DATA
 0004:000001b0 00000014H .idata$2                DATA
 0004:000001c4 00000014H .idata$3                DATA
 0004:000001d8 000001b0H .idata$4                DATA
 0004:00000388 0000076bH .idata$6                DATA

  Address         Publics by Value              Rva+Base       Lib:Object

 0000:00000000       ___guard_fids_table        00000000     <absolute>
 0000:00000000       ___guard_fids_count        00000000     <absolute>
 0000:00000000       ___guard_flags             00000000     <absolute>
 0000:00000000       __except_list              00000000     <absolute>
 0000:00000003       ___safe_se_handler_count   00000003     <absolute>
 0000:00000000       ___ImageBase               10000000     <linker-defined>
 0001:00000380       _MdlInitialize             10001380 f   Pos_PID.obj
 0001:00000390       _MdlInitializeSampleTimes  10001390 f   Pos_PID.obj
 0001:000003a0       _MdlInitializeSizes        100013a0 f   Pos_PID.obj
 0001:000003b0       _MdlOutputs                100013b0 f   Pos_PID.obj
 0001:000003c0       _MdlStart                  100013c0 f   Pos_PID.obj
 0001:000003d0       _MdlTerminate              100013d0 f   Pos_PID.obj
 0001:000003e0       _MdlUpdate                 100013e0 f   Pos_PID.obj
 0001:000003f0       _Pos_PID                   100013f0 f   Pos_PID.obj
 0001:00002390       _Pos_PID_derivatives       10003390 f   Pos_PID.obj
 0001:00002400       _Pos_PID_initialize        10003400 f   Pos_PID.obj
 0001:000035f0       _Pos_PID_output            100045f0 f   Pos_PID.obj
 0001:00003ff0       _Pos_PID_terminate         10004ff0 f   Pos_PID.obj
 0001:000040a0       _Pos_PID_update            100050a0 f   Pos_PID.obj
 0001:00004170       _rt_ODECreateIntegrationData 10005170 f   Pos_PID.obj
 0001:00004180       _rt_ODEDestroyIntegrationData 10005180 f   Pos_PID.obj
 0001:00004190       _rt_ODEUpdateContinuousStates 10005190 f   Pos_PID.obj
 0001:00004790       _Pos_PID_GetCAPIStaticMap  10005790 f   Pos_PID_capi.obj
 0001:000047a0       _Pos_PID_InitializeDataMapInfo 100057a0 f   Pos_PID_capi.obj
 0001:00004830       _TgtConnBackgroundTask     10005830 f   Pos_PID_tgtconn.obj
 0001:00004840       _TgtConnInit               10005840 f   Pos_PID_tgtconn.obj
 0001:00004860       _TgtConnPostStep           10005860 f   Pos_PID_tgtconn.obj
 0001:00004870       _TgtConnPreStep            10005870 f   Pos_PID_tgtconn.obj
 0001:00004880       _TgtConnTerm               10005880 f   Pos_PID_tgtconn.obj
 0001:00004890       _rtGetInf                  10005890 f   rtGetInf.obj
 0001:000048c0       _rtGetInfF                 100058c0 f   rtGetInf.obj
 0001:000048e0       _rtGetMinusInf             100058e0 f   rtGetInf.obj
 0001:00004910       _rtGetMinusInfF            10005910 f   rtGetInf.obj
 0001:00004930       _rtGetNaN                  10005930 f   rtGetNaN.obj
 0001:00004960       _rtGetNaNF                 10005960 f   rtGetNaN.obj
 0001:00005290       _rt_CreateLogVar           10006290 f   rt_logging.obj
 0001:00005320       _rt_CreateLogVarWithConvert 10006320 f   rt_logging.obj
 0001:00005ca0       _rt_CreateStructLogVar     10006ca0 f   rt_logging.obj
 0001:00006a10       _rt_GetMxIdFromDTypeId     10007a10 f   rt_logging.obj
 0001:00006a40       _rt_GetMxIdFromDTypeIdForRSim 10007a40 f   rt_logging.obj
 0001:00009380       _rt_StartDataLogging       1000a380 f   rt_logging.obj
 0001:00009840       _rt_StartDataLoggingWithStartTime 1000a840 f   rt_logging.obj
 0001:0000a1a0       _rt_StopDataLogging        1000b1a0 f   rt_logging.obj
 0001:0000a1c0       _rt_StopDataLoggingImpl    1000b1c0 f   rt_logging.obj
 0001:0000a4e0       _rt_UpdateLogVar           1000b4e0 f   rt_logging.obj
 0001:0000b8a0       _rt_UpdateStructLogVar     1000c8a0 f   rt_logging.obj
 0001:0000b930       _rt_UpdateTXXFYLogVars     1000c930 f   rt_logging.obj
 0001:0000bc70       _rt_UpdateTXYLogVars       1000cc70 f   rt_logging.obj
 0001:0000bec0       _rt_CleanUpForStateLogWithMMI 1000cec0 f   rt_logging_mmi.obj
 0001:0000bfd0       _rt_FillStateSigInfoFromMMI 1000cfd0 f   rt_logging_mmi.obj
 0001:0000c380       _rt_mxCreateCharMatrixFromStrings 1000d380 f   rt_matrx.obj
 0001:0000c4d0       _rt_mxCreateDoubleMatrix   1000d4d0 f   rt_matrx.obj
 0001:0000c530       _rt_mxCreateNumericArray   1000d530 f   rt_matrx.obj
 0001:0000c5b0       _rt_mxCreateString         1000d5b0 f   rt_matrx.obj
 0001:0000c640       _rt_mxDuplicateArray       1000d640 f   rt_matrx.obj
 0001:0000c6a0       _rt_mxGetDimensions        1000d6a0 f   rt_matrx.obj
 0001:0000c6e0       _rt_mxGetEps               1000d6e0 f   rt_matrx.obj
 0001:0000c6f0       _rt_mxGetString            1000d6f0 f   rt_matrx.obj
 0001:0000c770       _rtIsInf                   1000d770 f   rt_nonfinite.obj
 0001:0000c7b0       _rtIsInfF                  1000d7b0 f   rt_nonfinite.obj
 0001:0000c7f0       _rtIsNaN                   1000d7f0 f   rt_nonfinite.obj
 0001:0000c810       _rtIsNaNF                  1000d810 f   rt_nonfinite.obj
 0001:0000c830       _rt_InitInfAndNaN          1000d830 f   rt_nonfinite.obj
 0001:0000c890       _rtPrintfNoOp              1000d890 f   rt_printf.obj
 0001:0000c8a0       _rtwCAPI_CountSysRan       1000d8a0 f   rtw_modelmap_utils.obj
 0001:0000c940       _rtwCAPI_EncodePath        1000d940 f   rtw_modelmap_utils.obj
 0001:0000ca30       _rtwCAPI_FillSysRan        1000da30 f   rtw_modelmap_utils.obj
 0001:0000cb20       _rtwCAPI_FreeFullPaths     1000db20 f   rtw_modelmap_utils.obj
 0001:0000cbb0       _rtwCAPI_GetFullStateBlockPath 1000dbb0 f   rtw_modelmap_utils.obj
 0001:0000cd60       _rtwCAPI_GetNumContStateRecords 1000dd60 f   rtw_modelmap_utils.obj
 0001:0000ce20       _rtwCAPI_GetNumSigLogRecords 1000de20 f   rtw_modelmap_utils.obj
 0001:0000ce70       _rtwCAPI_GetNumSigLogRecordsForRTWLogging 1000de70 f   rtw_modelmap_utils.obj
 0001:0000cf00       _rtwCAPI_GetNumStateRecords 1000df00 f   rtw_modelmap_utils.obj
 0001:0000cf50       _rtwCAPI_GetNumStateRecordsForRTWLogging 1000df50 f   rtw_modelmap_utils.obj
 0001:0000cfe0       _rtwCAPI_GetSigAddrFromMap 1000dfe0 f   rtw_modelmap_utils.obj
 0001:0000d0a0       _rtwCAPI_GetSigLogRecordInfo 1000e0a0 f   rtw_modelmap_utils.obj
 0001:0000d4d0       _rtwCAPI_GetStateRecordInfo 1000e4d0 f   rtw_modelmap_utils.obj
 0001:0000d980       _rtwCAPI_GetStateWidth     1000e980 f   rtw_modelmap_utils.obj
 0001:0000d9e0       _rtwCAPI_HasStates         1000e9e0 f   rtw_modelmap_utils.obj
 0001:0000da50       _rtwCAPI_UpdateFullPaths   1000ea50 f   rtw_modelmap_utils.obj
 0001:0000dc30       _DllMain@12                1000ec30 f   xpctarget.obj
 0001:0000dc40       _Pos_PID_ChangeStepSize    1000ec40 f   xpctarget.obj
 0001:0000dcb0       _SLRTSetErrorStatus        1000ecb0 f   xpctarget.obj
 0001:0000dcd0       _changeStepSize            1000ecd0 f   xpctarget.obj
 0001:0000dd40       _getDLMVersion             1000ed40 f   xpctarget.obj
 0001:0000dd50       _getRefMdlPath             1000ed50 f   xpctarget.obj
 0001:0000ddd0       _getRefMdlSignalNumber     1000edd0 f   xpctarget.obj
 0001:0000de80       _getrlmdlinfo              1000ee80 f   xpctarget.obj
 0001:0000e060       _updateDiscreteEvents      1000f060 f   xpctarget.obj
 0001:0000e070       _getNumRef                 1000f070 f   appmappingData.obj
 0001:0000e080       _encconteccnt328mpci       1000f080 f   encconteccnt328mpci.obj
 0001:0000f720       _dipci8255                 10010720 f   dipci8255.obj
 0001:000102c0       _dopci8255                 100112c0 f   dopci8255.obj
 0001:000115c0       _dacbpcidda0x12            100125c0 f   dacbpcidda0x12.obj
 0001:00012160       _GetPCIDeviceFull          10013160 f   xpcruntime:xpcimports.obj
 0001:00012190       _ShowPCIDevice             10013190 f   xpcruntime:xpcimports.obj
 0001:00012800       _xpcGetPciConfigAtSlot     10013800 f   xpcruntime:xpcimports.obj
 0001:00012a80       _xpcInitProcs              10013a80 f   xpcruntime:xpcimports.obj
 0001:000135e0       _xpceuploadevent           100145e0 f   xpcruntime:xpcimports.obj
 0001:000135e1       __heap_alloc               100145e1 f i LIBCMT:malloc.obj
 0001:0001361e       _malloc                    1001461e f   LIBCMT:malloc.obj
 0001:000136b0       __get_printf_count_output  100146b0 f   LIBCMT:printf.obj
 0001:000136c5       __printf_l                 100146c5 f   LIBCMT:printf.obj
 0001:000136dc       __printf_p                 100146dc f   LIBCMT:printf.obj
 0001:000136f2       __printf_p_l               100146f2 f   LIBCMT:printf.obj
 0001:00013709       __printf_s_l               10014709 f   LIBCMT:printf.obj
 0001:00013720       __set_printf_count_output  10014720 f   LIBCMT:printf.obj
 0001:00013748       _printf                    10014748 f   LIBCMT:printf.obj
 0001:000137f7       _printf_s                  100147f7 f   LIBCMT:printf.obj
 0001:00013810       _memcpy                    10014810 f   LIBCMT:memcpy.obj
 0001:00013e60       _memset                    10014e60 f   LIBCMT:memset.obj
 0001:00013ef0       __fpmath                   10014ef0 f   LIBCMT:fpinit.obj
 0001:00013f07       ___setfflag                10014f07 f   LIBCMT:fpinit.obj
 0001:00013f1a       __cfltcvt_init             10014f1a f   LIBCMT:fpinit.obj
 0001:00013f7a       ___raise_securityfailure   10014f7a f   LIBCMT:gs_report.obj
 0001:00013fb7       ___report_gsfailure        10014fb7 f   LIBCMT:gs_report.obj
 0001:000140b2       ___report_rangecheckfailure 100150b2 f   LIBCMT:gs_report.obj
 0001:000140be       ___report_securityfailure  100150be f   LIBCMT:gs_report.obj
 0001:0001418e       ___report_securityfailureEx 1001518e f   LIBCMT:gs_report.obj
 0001:000142a4       ___copy_path_to_wide_string 100152a4 f   LIBCMT:crt0dat.obj
 0001:00014356       ___copy_to_char            10015356 f   LIBCMT:crt0dat.obj
 0001:0001440b       ___crtCorExitProcess       1001540b f   LIBCMT:crt0dat.obj
 0001:0001443f       ___crtExitProcess          1001543f f   LIBCMT:crt0dat.obj
 0001:00014455       ___freeCrtMemory           10015455 f   LIBCMT:crt0dat.obj
 0001:00014562       __amsg_exit                10015562 f   LIBCMT:crt0dat.obj
 0001:0001457e       __c_exit                   1001557e f   LIBCMT:crt0dat.obj
 0001:0001458d       __cexit                    1001558d f   LIBCMT:crt0dat.obj
 0001:0001459c       __cinit                    1001559c f   LIBCMT:crt0dat.obj
 0001:00014620       __exit                     10015620 f   LIBCMT:crt0dat.obj
 0001:00014634       __exit_app                 10015634 f   LIBCMT:crt0dat.obj
 0001:00014642       __get_pgmptr               10015642 f   LIBCMT:crt0dat.obj
 0001:00014671       __get_wpgmptr              10015671 f   LIBCMT:crt0dat.obj
 0001:000146a0       __init_pointers            100156a0 f   LIBCMT:crt0dat.obj
 0001:0001470e       __initterm_e               1001570e f   LIBCMT:crt0dat.obj
 0001:00014730       __lockexit                 10015730 f   LIBCMT:crt0dat.obj
 0001:00014739       __unlockexit               10015739 f   LIBCMT:crt0dat.obj
 0001:00014871       _exit                      10015871 f   LIBCMT:crt0dat.obj
 0001:00014885       _calloc                    10015885 f   LIBCMT:calloc.obj
 0001:000148c5       _free                      100158c5 f   LIBCMT:free.obj
 0001:000148fd       _realloc                   100158fd f   LIBCMT:realloc.obj
 0001:000149b0       _memmove                   100159b0 f   LIBCMT:memmove.obj
 0001:00015000       _strchr                    10016000 f   LIBCMT:strchr.obj
 0001:0001506e       ___from_strstr_to_strchr   1001606e     LIBCMT:strchr.obj
 0001:00015130       _strncat                   10016130 f   LIBCMT:strncat.obj
 0001:00015270       _strncpy                   10016270 f   LIBCMT:strncpy.obj
 0001:00015394       ___initstdio               10016394 f   LIBCMT:_file.obj
 0001:00015407       ___endstdio                10016407 f   LIBCMT:_file.obj
 0001:0001542e       ___iob_func                1001642e f   LIBCMT:_file.obj
 0001:00015434       __lock_file                10016434 f   LIBCMT:_file.obj
 0001:00015473       __lock_file2               10016473 f   LIBCMT:_file.obj
 0001:000154a3       __unlock_file              100164a3 f   LIBCMT:_file.obj
 0001:000154dd       __unlock_file2             100164dd f   LIBCMT:_file.obj
 0001:0001550a       __fclose_nolock            1001650a f   LIBCMT:fclose.obj
 0001:00015576       _fclose                    10016576 f   LIBCMT:fclose.obj
 0001:000155ed       __fsopen                   100165ed f   LIBCMT:fopen.obj
 0001:000156b1       _fopen                     100166b1 f   LIBCMT:fopen.obj
 0001:000156c6       _fopen_s                   100166c6 f   LIBCMT:fopen.obj
 0001:0001570b       __fprintf_l                1001670b f   LIBCMT:fprintf.obj
 0001:00015725       __fprintf_p                10016725 f   LIBCMT:fprintf.obj
 0001:0001573e       __fprintf_p_l              1001673e f   LIBCMT:fprintf.obj
 0001:00015758       __fprintf_s_l              10016758 f   LIBCMT:fprintf.obj
 0001:00015772       _fprintf                   10016772 f   LIBCMT:fprintf.obj
 0001:00015884       _fprintf_s                 10016884 f   LIBCMT:fprintf.obj
 0001:0001589d       __fread_nolock             1001689d f   LIBCMT:fread.obj
 0001:000158b8       __fread_nolock_s           100168b8 f   LIBCMT:fread.obj
 0001:00015a7d       _fread                     10016a7d f   LIBCMT:fread.obj
 0001:00015a98       _fread_s                   10016a98 f   LIBCMT:fread.obj
 0001:00015b29       __fwrite_nolock            10016b29 f   LIBCMT:fwrite.obj
 0001:00015c82       _fwrite                    10016c82 f   LIBCMT:fwrite.obj
 0001:00015d04       __unlink                   10016d04 f   LIBCMT:unlink.obj
 0001:00015d0d       _remove                    10016d0d f   LIBCMT:unlink.obj
 0001:00015d4f       _rewind                    10016d4f f   LIBCMT:rewind.obj
 0001:00015e0e       __scprintf                 10016e0e f   LIBCMT:sprintf.obj
 0001:00015e21       __scprintf_l               10016e21 f   LIBCMT:sprintf.obj
 0001:00015e38       __scprintf_p               10016e38 f   LIBCMT:sprintf.obj
 0001:00015e4b       __scprintf_p_l             10016e4b f   LIBCMT:sprintf.obj
 0001:00015e62       __snprintf_s               10016e62 f   LIBCMT:sprintf.obj
 0001:00015e81       __snprintf_s_l             10016e81 f   LIBCMT:sprintf.obj
 0001:00015ea1       __sprintf_l                10016ea1 f   LIBCMT:sprintf.obj
 0001:00015ebb       __sprintf_p                10016ebb f   LIBCMT:sprintf.obj
 0001:00015ed7       __sprintf_p_l              10016ed7 f   LIBCMT:sprintf.obj
 0001:00015ef4       __sprintf_s_l              10016ef4 f   LIBCMT:sprintf.obj
 0001:00015f11       _sprintf                   10016f11 f   LIBCMT:sprintf.obj
 0001:00015f95       _sprintf_s                 10016f95 f   LIBCMT:sprintf.obj
 0001:00015fb1       _ldexp                     10016fb1 f   LIBCMT:ldexp.obj
 0001:0001619d       @__security_check_cookie@4 1001719d f   LIBCMT:secchk.obj
 0001:000161b0       __ftoui3                   100171b0 f   LIBCMT:ftol3.obj
 0001:000161bf       __ftoul3                   100171bf f   LIBCMT:ftol3.obj
 0001:000161ce       __ftol3                    100171ce f   LIBCMT:ftol3.obj
 0001:000161db       __ftol3_NaN                100171db f   LIBCMT:ftol3.obj
 0001:000161f3       __ftol3_work               100171f3 f   LIBCMT:ftol3.obj
 0001:00016279       __ftol3_common             10017279 f   LIBCMT:ftol3.obj
 0001:0001633b       __ftol3_arg_error          1001733b f   LIBCMT:ftol3.obj
 0001:0001634d       __ftol3_except             1001734d f   LIBCMT:ftol3.obj
 0001:0001638f       __dtoui3                   1001738f f   LIBCMT:ftol3.obj
 0001:0001639e       __dtoul3                   1001739e f   LIBCMT:ftol3.obj
 0001:000163ad       __dtol3                    100173ad f   LIBCMT:ftol3.obj
 0001:000163ba       __dtol3_NaN                100173ba f   LIBCMT:ftol3.obj
 0001:000163d7       __dtol3_work               100173d7 f   LIBCMT:ftol3.obj
 0001:000164bc       __ultod3                   100174bc f   LIBCMT:ftol3.obj
 0001:0001654d       __ltod3                    1001754d f   LIBCMT:ftol3.obj
 0001:0001657b       ___isa_available_init      1001757b f   LIBCMT:cpu_disp.obj
 0001:000166f4       __invoke_watson_if_error   100176f4 f i LIBCMT:wassert.obj
 0001:00016714       __wassert                  10017714 f   LIBCMT:wassert.obj
 0001:00016db8       __CRT_INIT@12              10017db8 f   LIBCMT:dllcrt0.obj
 0001:00016f2a       __DllMainCRTStartup@12     10017f2a f   LIBCMT:dllcrt0.obj
 0001:0001705b       ___DllXcptFilter           1001805b f   LIBCMT:dllcrt0.obj
 0001:00017080       ?_query_new_handler@@YAP6AHI@ZXZ 10018080 f   LIBCMT:handler.obj
 0001:0001708d       ?_set_new_handler@@YAP6AHI@ZH@Z 1001808d f   LIBCMT:handler.obj
 0001:00017096       ?_set_new_handler@@YAP6AHI@ZP6AHI@Z@Z 10018096 f   LIBCMT:handler.obj
 0001:000170cb       __callnewh                 100180cb f   LIBCMT:handler.obj
 0001:000170f1       __initp_heap_handler       100180f1 f   LIBCMT:handler.obj
 0001:000170fe       __FF_MSGBANNER             100180fe f   LIBCMT:crt0msg.obj
 0001:00017137       __GET_RTERRMSG             10018137 f   LIBCMT:crt0msg.obj
 0001:0001715b       __NMSG_WRITE               1001815b f   LIBCMT:crt0msg.obj
 0001:00017318       ___doserrno                10018318 f   LIBCMT:dosmap.obj
 0001:0001732b       __dosmaperr                1001832b f   LIBCMT:dosmap.obj
 0001:0001734c       __errno                    1001834c f   LIBCMT:dosmap.obj
 0001:0001735f       __get_doserrno             1001835f f   LIBCMT:dosmap.obj
 0001:00017382       __get_errno                10018382 f   LIBCMT:dosmap.obj
 0001:000173a5       __get_errno_from_oserr     100183a5 f   LIBCMT:dosmap.obj
 0001:000173e6       __set_doserrno             100183e6 f   LIBCMT:dosmap.obj
 0001:00017405       __set_errno                10018405 f   LIBCMT:dosmap.obj
 0001:00017424       __get_heap_handle          10018424 f   LIBCMT:heapinit.obj
 0001:0001742a       __heap_init                1001842a f   LIBCMT:heapinit.obj
 0001:0001743f       __heap_term                1001843f f   LIBCMT:heapinit.obj
 0001:00017447       ?_invalid_parameter@@YAXPBG00II@Z 10018447 f   LIBCMT:invarg.obj
 0001:0001744c       ?_invoke_watson@@YAXPBG00II@Z 1001844c f   LIBCMT:invarg.obj
 0001:00017464       __call_reportfault         10018464 f   LIBCMT:invarg.obj
 0001:00017589       __get_invalid_parameter_handler 10018589 f   LIBCMT:invarg.obj
 0001:00017596       __initp_misc_invarg        10018596 f   LIBCMT:invarg.obj
 0001:000175a3       __invalid_parameter        100185a3 f   LIBCMT:invarg.obj
 0001:000175ce       __invalid_parameter_noinfo 100185ce f   LIBCMT:invarg.obj
 0001:000175de       __invalid_parameter_noinfo_noreturn 100185de f   LIBCMT:invarg.obj
 0001:000175f9       __invoke_watson            100185f9 f   LIBCMT:invarg.obj
 0001:00017624       __set_invalid_parameter_handler 10018624 f   LIBCMT:invarg.obj
 0001:00017649       __vprintf_l                10018649 f   LIBCMT:vprintf.obj
 0001:00017664       __vprintf_p                10018664 f   LIBCMT:vprintf.obj
 0001:0001767e       __vprintf_p_l              1001867e f   LIBCMT:vprintf.obj
 0001:00017699       __vprintf_s_l              10018699 f   LIBCMT:vprintf.obj
 0001:000176b4       _vprintf                   100186b4 f   LIBCMT:vprintf.obj
 0001:000176ce       _vprintf_helper            100186ce f   LIBCMT:vprintf.obj
 0001:0001775b       _vprintf_s                 1001875b f   LIBCMT:vprintf.obj
 0001:00017775       __ftbuf                    10018775 f   LIBCMT:_sftbuf.obj
 0001:000177a6       __stbuf                    100187a6 f   LIBCMT:_sftbuf.obj
 0001:0001784c       ??0_LocaleUpdate@@QAE@PAUlocaleinfo_struct@@@Z 1001884c f i LIBCMT:output.obj
 0001:000178d4       ??1_LocaleUpdate@@QAE@XZ   100188d4 f i LIBCMT:output.obj
 0001:000178e2       ?GetLocaleT@_LocaleUpdate@@QAEPAUlocaleinfo_struct@@XZ 100188e2 f i LIBCMT:output.obj
 0001:000178e5       __output_l                 100188e5 f   LIBCMT:output.obj
 0001:00018465       _get_int64_arg             10019465 f i LIBCMT:output.obj
 0001:00018478       _get_int_arg               10019478 f i LIBCMT:output.obj
 0001:00018488       _get_short_arg             10019488 f i LIBCMT:output.obj
 0001:00018590       __SEH_prolog4              10019590 f   LIBCMT:sehprolg4.obj
 0001:000185d5       __SEH_epilog4              100195d5 f   LIBCMT:sehprolg4.obj
 0001:00018630       __except_handler4          10019630 f   LIBCMT:chandler4.obj
 0001:000187c4       __VEC_memset               100197c4 f   LIBCMT:p4_memset.obj
 0001:0001888c       ?strrchr@@YAPADPADH@Z      1001988c f i LIBCMT:cvt.obj
 0001:00018895       __cfltcvt                  10019895 f   LIBCMT:cvt.obj
 0001:000188b6       __cfltcvt_l                100198b6 f   LIBCMT:cvt.obj
 0001:0001893c       __cftoa                    1001993c f   LIBCMT:cvt.obj
 0001:0001895a       __cftoa_l                  1001995a f   LIBCMT:cvt.obj
 0001:00018cb6       __cftoe                    10019cb6 f   LIBCMT:cvt.obj
 0001:00018e25       __cftoe_l                  10019e25 f   LIBCMT:cvt.obj
 0001:00018ef3       __cftof                    10019ef3 f   LIBCMT:cvt.obj
 0001:00018ffa       __cftof_l                  10019ffa f   LIBCMT:cvt.obj
 0001:000190bb       __cftog                    1001a0bb f   LIBCMT:cvt.obj
 0001:000190d9       __cftog_l                  1001a0d9 f   LIBCMT:cvt.obj
 0001:000191d8       __cropzeros                1001a1d8 f   LIBCMT:cvt.obj
 0001:000191e9       __cropzeros_l              1001a1e9 f   LIBCMT:cvt.obj
 0001:00019269       __fassign                  1001a269 f   LIBCMT:cvt.obj
 0001:00019281       __fassign_l                1001a281 f   LIBCMT:cvt.obj
 0001:000192c3       __forcdecpt                1001a2c3 f   LIBCMT:cvt.obj
 0001:000192d4       __forcdecpt_l              1001a2d4 f   LIBCMT:cvt.obj
 0001:00019348       __positive                 1001a348 f   LIBCMT:cvt.obj
 0001:0001938a       __setdefaultprecision      1001a38a f   LIBCMT:fp8.obj
 0001:000193b1       __initp_misc_cfltcvt_tab   1001a3b1 f   LIBCMT:cmiscdat.obj
 0001:000193d0       __crt_debugger_hook        1001a3d0 f   LIBCMT:dbghook.obj
 0001:00019405       ___crtCloseThreadpoolTimer 1001a405 f   LIBCMT:winapisupp.obj
 0001:0001941c       ___crtCloseThreadpoolWait  1001a41c f   LIBCMT:winapisupp.obj
 0001:00019433       ___crtCreateEventExW       1001a433 f   LIBCMT:winapisupp.obj
 0001:0001946e       ___crtCreateSemaphoreExW   1001a46e f   LIBCMT:winapisupp.obj
 0001:000194a8       ___crtCreateSymbolicLinkW  1001a4a8 f   LIBCMT:winapisupp.obj
 0001:000194d1       ___crtCreateThreadpoolTimer 1001a4d1 f   LIBCMT:winapisupp.obj
 0001:000194f2       ___crtCreateThreadpoolWait 1001a4f2 f   LIBCMT:winapisupp.obj
 0001:00019513       ___crtFlsAlloc             1001a513 f   LIBCMT:winapisupp.obj
 0001:00019531       ___crtFlsFree              1001a531 f   LIBCMT:winapisupp.obj
 0001:00019550       ___crtFlsGetValue          1001a550 f   LIBCMT:winapisupp.obj
 0001:0001956f       ___crtFlsSetValue          1001a56f f   LIBCMT:winapisupp.obj
 0001:00019591       ___crtFlushProcessWriteBuffers 1001a591 f   LIBCMT:winapisupp.obj
 0001:000195a1       ___crtFreeLibraryWhenCallbackReturns 1001a5a1 f   LIBCMT:winapisupp.obj
 0001:000195bb       ___crtGetCurrentProcessorNumber 1001a5bb f   LIBCMT:winapisupp.obj
 0001:000195cd       ___crtGetFileInformationByHandleEx 1001a5cd f   LIBCMT:winapisupp.obj
 0001:000195f9       ___crtGetLogicalProcessorInformation 1001a5f9 f   LIBCMT:winapisupp.obj
 0001:0001961f       ___crtGetShowWindowMode    1001a61f f   LIBCMT:winapisupp.obj
 0001:00019642       ___crtGetTickCount64       1001a642 f   LIBCMT:winapisupp.obj
 0001:0001965a       ___crtInitializeCriticalSectionEx 1001a65a f   LIBCMT:winapisupp.obj
 0001:00019688       ___crtIsPackagedApp        1001a688 f   LIBCMT:winapisupp.obj
 0001:000196c8       ___crtLoadWinApiPointers   1001a6c8 f   LIBCMT:winapisupp.obj
 0001:00019953       ___crtSetFileInformationByHandle 1001a953 f   LIBCMT:winapisupp.obj
 0001:0001997f       ___crtSetThreadStackGuarantee 1001a97f f   LIBCMT:winapisupp.obj
 0001:0001999a       ___crtSetThreadpoolTimer   1001a99a f   LIBCMT:winapisupp.obj
 0001:000199ba       ___crtSetThreadpoolWait    1001a9ba f   LIBCMT:winapisupp.obj
 0001:000199d7       ___crtSetUnhandledExceptionFilter 1001a9d7 f   LIBCMT:winapisupp.obj
 0001:000199e5       ___crtSleep                1001a9e5 f   LIBCMT:winapisupp.obj
 0001:000199f3       ___crtTerminateProcess     1001a9f3 f   LIBCMT:winapisupp.obj
 0001:00019a08       ___crtUnhandledException   1001aa08 f   LIBCMT:winapisupp.obj
 0001:00019a1e       ___crtWaitForThreadpoolTimerCallbacks 1001aa1e f   LIBCMT:winapisupp.obj
 0001:00019a38       __RTC_Initialize           1001aa38 f   LIBCMT:initsect.obj
 0001:00019a58       __RTC_Terminate            1001aa58 f   LIBCMT:initsect.obj
 0001:00019a78       __lock                     1001aa78 f   LIBCMT:mlock.obj
 0001:00019aac       __lockerr_exit             1001aaac f   LIBCMT:mlock.obj
 0001:00019acc       __mtdeletelocks            1001aacc f   LIBCMT:mlock.obj
 0001:00019b20       __mtinitlocknum            1001ab20 f   LIBCMT:mlock.obj
 0001:00019bc9       __mtinitlocks              1001abc9 f   LIBCMT:mlock.obj
 0001:00019c02       __unlock                   1001ac02 f   LIBCMT:mlock.obj
 0001:00019c20       __FindPESection            1001ac20 f   LIBCMT:pesect.obj
 0001:00019c70       __IsNonwritableInCurrentImage 1001ac70 f   LIBCMT:pesect.obj
 0001:00019d30       __ValidateImageBase        1001ad30 f   LIBCMT:pesect.obj
 0001:00019d61       ___onexitinit              1001ad61 f   LIBCMT:onexit.obj
 0001:00019d90       __onexit                   1001ad90 f   LIBCMT:onexit.obj
 0001:00019e8c       _atexit                    1001ae8c f   LIBCMT:onexit.obj
 0001:00019ea1       __calloc_crt               1001aea1 f   LIBCMT:crtheap.obj
 0001:00019ee9       __malloc_crt               1001aee9 f   LIBCMT:crtheap.obj
 0001:00019f30       __realloc_crt              1001af30 f   LIBCMT:crtheap.obj
 0001:00019f7a       __recalloc_crt             1001af7a f   LIBCMT:crtheap.obj
 0001:00019fc8       __set_malloc_crt_max_wait  1001afc8 f   LIBCMT:crtheap.obj
 0001:00019fdb       _wait_a_bit                1001afdb f i LIBCMT:crtheap.obj
 0001:00019fff       ?_inconsistency@@YAXXZ     1001afff f   LIBCMT:hooks.obj
 0001:0001a037       ?terminate@@YAXXZ          1001b037 f   LIBCMT:hooks.obj
 0001:0001a06b       ?unexpected@@YAXXZ         1001b06b f   LIBCMT:hooks.obj
 0001:0001a07e       __initp_eh_hooks           1001b07e f   LIBCMT:hooks.obj
 0001:0001a08f       ___getlocaleinfo           1001b08f f   LIBCMT:inithelp.obj
 0001:0001a268       __initp_misc_purevirt      1001b268 f   LIBCMT:inithelp.obj
 0001:0001a275       ___fpecode                 1001b275 f   LIBCMT:winsig.obj
 0001:0001a27e       ___get_sigabrt             1001b27e f   LIBCMT:winsig.obj
 0001:0001a28b       ___pxcptinfoptrs           1001b28b f   LIBCMT:winsig.obj
 0001:0001a294       __initp_misc_winsig        1001b294 f   LIBCMT:winsig.obj
 0001:0001a355       _raise                     1001b355 f   LIBCMT:winsig.obj
 0001:0001a54a       _signal                    1001b54a f   LIBCMT:winsig.obj
 0001:0001a7a1       __initp_misc_rand_s        1001b7a1 f   LIBCMT:rand_s.obj
 0001:0001a7ae       _rand_s                    1001b7ae f   LIBCMT:rand_s.obj
 0001:0001a8b4       ___initmbctable            1001b8b4 f   LIBCMT:mbctype.obj
 0001:0001ab6b       ___updatetmbcinfo          1001bb6b f   LIBCMT:mbctype.obj
 0001:0001ac11       __getmbcp                  1001bc11 f   LIBCMT:mbctype.obj
 0001:0001ac42       __setmbcp                  1001bc42 f   LIBCMT:mbctype.obj
 0001:0001adea       __setmbcp_nolock           1001bdea f   LIBCMT:mbctype.obj
 0001:0001afd5       __calloc_impl              1001bfd5 f   LIBCMT:calloc_impl.obj
 0001:0001b04f       __fcloseall                1001c04f f   LIBCMT:closeall.obj
 0001:0001b0ec       __fflush_nolock            1001c0ec f   LIBCMT:fflush.obj
 0001:0001b132       __flush                    1001c132 f   LIBCMT:fflush.obj
 0001:0001b196       __flushall                 1001c196 f   LIBCMT:fflush.obj
 0001:0001b19f       _fflush                    1001c19f f   LIBCMT:fflush.obj
 0001:0001b2dc       __fileno                   1001c2dc f   LIBCMT:fileno.obj
 0001:0001b300       __close                    1001c300 f   LIBCMT:close.obj
 0001:0001b3db       __close_nolock             1001c3db f   LIBCMT:close.obj
 0001:0001b475       __freebuf                  1001c475 f   LIBCMT:_freebuf.obj
 0001:0001b4a5       __getstream                1001c4a5 f   LIBCMT:stream.obj
 0001:0001b5c4       __openfile                 1001c5c4 f   LIBCMT:_open.obj
 0001:0001b840       __local_unwind4            1001c840 f   LIBCMT:exsup4.obj
 0001:0001b916       __seh_longjmp_unwind4@4    1001c916 f   LIBCMT:exsup4.obj
 0001:0001b932       @_EH4_CallFilterFunc@8     1001c932 f   LIBCMT:exsup4.obj
 0001:0001b949       @_EH4_TransferToHandler@8  1001c949 f   LIBCMT:exsup4.obj
 0001:0001b962       @_EH4_GlobalUnwind2@8      1001c962 f   LIBCMT:exsup4.obj
 0001:0001b97b       @_EH4_LocalUnwind@16       1001c97b f   LIBCMT:exsup4.obj
 0001:0001b992       __vfprintf_l               1001c992 f   LIBCMT:vfprintf.obj
 0001:0001b9b0       __vfprintf_p               1001c9b0 f   LIBCMT:vfprintf.obj
 0001:0001b9cd       __vfprintf_p_l             1001c9cd f   LIBCMT:vfprintf.obj
 0001:0001b9eb       __vfprintf_s_l             1001c9eb f   LIBCMT:vfprintf.obj
 0001:0001ba09       _vfprintf                  1001ca09 f   LIBCMT:vfprintf.obj
 0001:0001ba26       _vfprintf_helper           1001ca26 f   LIBCMT:vfprintf.obj
 0001:0001bb37       _vfprintf_s                1001cb37 f   LIBCMT:vfprintf.obj
 0001:0001bb54       __ioinit                   1001cb54 f   LIBCMT:ioinit.obj
 0001:0001be08       __ioterm                   1001ce08 f   LIBCMT:ioinit.obj
 0001:0001be5a       __filbuf                   1001ce5a f   LIBCMT:_filbuf.obj
 0001:0001bf7b       _memcpy_s                  1001cf7b f   LIBCMT:memcpy_s.obj
 0001:0001bffa       __read                     1001cffa f   LIBCMT:read.obj
 0001:0001c10e       __read_nolock              1001d10e f   LIBCMT:read.obj
 0001:0001c89f       __flsbuf                   1001d89f f   LIBCMT:_flsbuf.obj
 0001:0001c9ee       __write                    1001d9ee f   LIBCMT:write.obj
 0001:0001cadd       __write_nolock             1001dadd f   LIBCMT:write.obj
 0001:0001d342       __wremove                  1001e342 f   LIBCMT:wunlink.obj
 0001:0001d370       __wunlink                  1001e370 f   LIBCMT:wunlink.obj
 0001:0001d379       __lseek                    1001e379 f   LIBCMT:lseek.obj
 0001:0001d468       __lseek_nolock             1001e468 f   LIBCMT:lseek.obj
 0001:0001d50f       __vscprintf                1001e50f f   LIBCMT:vsprintf.obj
 0001:0001d529       __vscprintf_helper         1001e529 f   LIBCMT:vsprintf.obj
 0001:0001d585       __vscprintf_l              1001e585 f   LIBCMT:vsprintf.obj
 0001:0001d5a0       __vscprintf_p              1001e5a0 f   LIBCMT:vsprintf.obj
 0001:0001d5ba       __vscprintf_p_l            1001e5ba f   LIBCMT:vsprintf.obj
 0001:0001d5d5       __vsprintf_l               1001e5d5 f   LIBCMT:vsprintf.obj
 0001:0001d659       _vsprintf                  1001e659 f   LIBCMT:vsprintf.obj
 0001:0001d671       __vsnprintf_c              1001e671 f   LIBCMT:vsnprnc.obj
 0001:0001d698       __vsnprintf_c_l            1001e698 f   LIBCMT:vsnprnc.obj
 0001:0001d6c0       __vsnprintf_helper         1001e6c0 f   LIBCMT:vsnprnc.obj
 0001:0001d78a       __vsnprintf_s              1001e78a f   LIBCMT:vsnprnc.obj
 0001:0001d7a8       __vsnprintf_s_l            1001e7a8 f   LIBCMT:vsnprnc.obj
 0001:0001d8a8       __vsprintf_p               1001e8a8 f   LIBCMT:vsnprnc.obj
 0001:0001d8cf       __vsprintf_p_l             1001e8cf f   LIBCMT:vsnprnc.obj
 0001:0001d8f7       __vsprintf_s_l             1001e8f7 f   LIBCMT:vsnprnc.obj
 0001:0001d96c       _vsprintf_s                1001e96c f   LIBCMT:vsnprnc.obj
 0001:0001d987       __chgsign                  1001e987 f   LIBCMT:ieeemisc.obj
 0001:0001d9b4       __chgsignf                 1001e9b4 f   LIBCMT:ieeemisc.obj
 0001:0001d9d5       __copysign                 1001e9d5 f   LIBCMT:ieeemisc.obj
 0001:0001d9fd       __copysignf                1001e9fd f   LIBCMT:ieeemisc.obj
 0001:0001da19       __finite                   1001ea19 f   LIBCMT:ieeemisc.obj
 0001:0001da31       __fpclass                  1001ea31 f   LIBCMT:ieeemisc.obj
 0001:0001dacd       __isnan                    1001eacd f   LIBCMT:ieeemisc.obj
 0001:0001db00       __logb                     1001eb00 f   LIBCMT:ieeemisc.obj
 0001:0001dbe1       __nextafter                1001ebe1 f   LIBCMT:ieeemisc.obj
 0001:0001de81       __scalb                    1001ee81 f   LIBCMT:ieeemisc.obj
 0001:0001de99       __add_exp                  1001ee99 f   LIBCMT:util.obj
 0001:0001dec8       __decomp                   1001eec8 f   LIBCMT:util.obj
 0001:0001df9a       __get_exp                  1001ef9a f   LIBCMT:util.obj
 0001:0001dfb3       __set_bexp                 1001efb3 f   LIBCMT:util.obj
 0001:0001dfdc       __set_exp                  1001efdc f   LIBCMT:util.obj
 0001:0001e00b       __sptype                   1001f00b f   LIBCMT:util.obj
 0001:0001e066       __errcode                  1001f066 f   LIBCMT:fpexcept.obj
 0001:0001e098       __except1                  1001f098 f   LIBCMT:fpexcept.obj
 0001:0001e160       __except2                  1001f160 f   LIBCMT:fpexcept.obj
 0001:0001e260       __handle_exc               1001f260 f   LIBCMT:fpexcept.obj
 0001:0001e43e       __handle_qnan1             1001f43e f   LIBCMT:fpexcept.obj
 0001:0001e48e       __handle_qnan2             1001f48e f   LIBCMT:fpexcept.obj
 0001:0001e4ee       __raise_exc                1001f4ee f   LIBCMT:fpexcept.obj
 0001:0001e50f       __raise_exc_ex             1001f50f f   LIBCMT:fpexcept.obj
 0001:0001e7f4       __raise_excf               1001f7f4 f   LIBCMT:fpexcept.obj
 0001:0001e815       __set_errno_from_matherr   1001f815 f   LIBCMT:fpexcept.obj
 0001:0001e842       __umatherr                 1001f842 f   LIBCMT:fpexcept.obj
 0001:0001e8e2       ___clrfp_sse2              1001f8e2 f   LIBCMT:fpctrl.obj
 0001:0001e903       ___ctrlfp_sse2             1001f903 f   LIBCMT:fpctrl.obj
 0001:0001e93c       ___fclrf_sse2              1001f93c f   LIBCMT:fpctrl.obj
 0001:0001e959       ___get_fpsr_sse2           1001f959 f   LIBCMT:fpctrl.obj
 0001:0001e975       ___set_fpsr_sse2           1001f975 f   LIBCMT:fpctrl.obj
 0001:0001e9eb       ___set_statfp_sse2         1001f9eb f   LIBCMT:fpctrl.obj
 0001:0001ea04       ___statfp_sse2             1001fa04 f   LIBCMT:fpctrl.obj
 0001:0001ea19       __clrfp                    1001fa19 f   LIBCMT:fpctrl.obj
 0001:0001ea2a       __ctrlfp                   1001fa2a f   LIBCMT:fpctrl.obj
 0001:0001ea55       __set_statfp               1001fa55 f   LIBCMT:fpctrl.obj
 0001:0001eaad       __statfp                   1001faad f   LIBCMT:fpctrl.obj
 0001:0001eabd       _wcscat_s                  1001fabd f   LIBCMT:wcscat_s.obj
 0001:0001eb29       _wcscpy_s                  1001fb29 f   LIBCMT:wcscpy_s.obj
 0001:0001eb85       _wcslen                    1001fb85 f   LIBCMT:wcslen.obj
 0001:0001eb9e       _wcsncat_s                 1001fb9e f   LIBCMT:wcsncat_s.obj
 0001:0001ec6c       __set_abort_behavior       1001fc6c f   LIBCMT:abort.obj
 0001:0001ec8b       _abort                     1001fc8b f   LIBCMT:abort.obj
 0001:0001ecce       ___set_app_type            1001fcce f   LIBCMT:errmode.obj
 0001:0001ecdb       __set_error_mode           1001fcdb f   LIBCMT:errmode.obj
 0001:0001ee37       __i64tow_s                 1001fe37 f   LIBCMT:xtows.obj
 0001:0001ee68       __itow_s                   1001fe68 f   LIBCMT:xtows.obj
 0001:0001ee91       __ltow_s                   1001fe91 f   LIBCMT:xtows.obj
 0001:0001eebb       __ui64tow_s                1001febb f   LIBCMT:xtows.obj
 0001:0001eed6       __ultow_s                  1001fed6 f   LIBCMT:xtows.obj
 0001:0001efe1       _setvbuf                   1001ffe1 f   LIBCMT:setvbuf.obj
 0001:0001f0e7       __fwprintf_l               100200e7 f   LIBCMT:fwprintf.obj
 0001:0001f101       __fwprintf_p               10020101 f   LIBCMT:fwprintf.obj
 0001:0001f11a       __fwprintf_p_l             1002011a f   LIBCMT:fwprintf.obj
 0001:0001f134       __fwprintf_s_l             10020134 f   LIBCMT:fwprintf.obj
 0001:0001f14e       _fwprintf                  1002014e f   LIBCMT:fwprintf.obj
 0001:0001f1e2       _fwprintf_s                100201e2 f   LIBCMT:fwprintf.obj
 0001:0001f1fb       __vsnwprintf_s             100201fb f   LIBCMT:vswprnc.obj
 0001:0001f219       __vsnwprintf_s_l           10020219 f   LIBCMT:vswprnc.obj
 0001:0001f31d       __vswprintf_c              1002031d f   LIBCMT:vswprnc.obj
 0001:0001f344       __vswprintf_c_l            10020344 f   LIBCMT:vswprnc.obj
 0001:0001f36c       __vswprintf_helper         1002036c f   LIBCMT:vswprnc.obj
 0001:0001f467       __vswprintf_p              10020467 f   LIBCMT:vswprnc.obj
 0001:0001f48e       __vswprintf_p_l            1002048e f   LIBCMT:vswprnc.obj
 0001:0001f4b6       __vswprintf_s_l            100204b6 f   LIBCMT:vswprnc.obj
 0001:0001f52d       _vswprintf_s               1002052d f   LIBCMT:vswprnc.obj
 0001:0001f548       ___crtMessageBoxW          10020548 f   LIBCMT:crtmboxw.obj
 0001:0001f72e       ___crtMessageBoxWaitThreadW@4 1002072e f   LIBCMT:crtmboxw.obj
 0001:0001f74c       __XcptFilter               1002074c f   LIBCMT:winxfltr.obj
 0001:0001f8a7       ___CppXcptFilter           100208a7 f   LIBCMT:winxfltr.obj
 0001:0001f8f9       ___get_flsindex            100208f9 f   LIBCMT:tidtable.obj
 0001:0001f8ff       ___threadhandle            100208ff f   LIBCMT:tidtable.obj
 0001:0001f905       ___threadid                10020905 f   LIBCMT:tidtable.obj
 0001:0001f90b       __freefls@4                1002090b f   LIBCMT:tidtable.obj
 0001:0001fa40       __freeptd                  10020a40 f   LIBCMT:tidtable.obj
 0001:0001fa76       __getptd                   10020a76 f   LIBCMT:tidtable.obj
 0001:0001fa8e       __getptd_noexit            10020a8e f   LIBCMT:tidtable.obj
 0001:0001fafd       __initptd                  10020afd f   LIBCMT:tidtable.obj
 0001:0001fbb0       __mtinit                   10020bb0 f   LIBCMT:tidtable.obj
 0001:0001fc26       __mtterm                   10020c26 f   LIBCMT:tidtable.obj
 0001:0001fc43       __set_pgmptr               10020c43 f i LIBCMT:stdargv.obj
 0001:0001fc50       __setargv                  10020c50 f   LIBCMT:stdargv.obj
 0001:0001fe7f       __setenvp                  10020e7f f   LIBCMT:stdenvp.obj
 0001:0001ff60       ___security_init_cookie    10020f60 f   LIBCMT:gs_support.obj
 0001:0001fffc       ___crtGetEnvironmentStringsA 10020ffc f   LIBCMT:a_env.obj
 0001:00020090       _strlen                    10021090 f   LIBCMT:strlen.obj
 0001:0002011b       _wcsncpy_s                 1002111b f   LIBCMT:wcsncpy_s.obj
 0001:000201d9       __output_s_l               100211d9 f   LIBCMT:outputs.obj
 0001:00020e61       __output_p_l               10021e61 f   LIBCMT:outputp.obj
 0001:00022199       __validate_param_reuseA    10023199 f   LIBCMT:outputp.obj
 0001:000222cf       _get_crtdouble_arg         100232cf f i LIBCMT:outputp.obj
 0001:000223ce       __isatty                   100233ce f   LIBCMT:isatty.obj
 0001:00022422       ___addlocaleref            10023422 f   LIBCMT:localref.obj
 0001:000224b7       ___freetlocinfo            100234b7 f   LIBCMT:localref.obj
 0001:00022611       ___removelocaleref         10023611 f   LIBCMT:localref.obj
 0001:000226b1       ___updatetlocinfo          100236b1 f   LIBCMT:localref.obj
 0001:00022731       __updatetlocinfoEx_nolock  10023731 f   LIBCMT:localref.obj
 0001:0002277c       ___iswcsym                 1002377c f i LIBCMT:_wctype.obj
 0001:000227a0       ___iswcsymf                100237a0 f i LIBCMT:_wctype.obj
 0001:000227c4       __isleadbyte_l             100237c4 f i LIBCMT:_wctype.obj
 0001:000227fe       __iswalnum_l               100237fe f i LIBCMT:_wctype.obj
 0001:00022812       __iswalpha_l               10023812 f i LIBCMT:_wctype.obj
 0001:00022826       __iswblank_l               10023826 f i LIBCMT:_wctype.obj
 0001:00022841       __iswcntrl_l               10023841 f i LIBCMT:_wctype.obj
 0001:00022852       __iswcsym_l                10023852 f i LIBCMT:_wctype.obj
 0001:00022876       __iswcsymf_l               10023876 f i LIBCMT:_wctype.obj
 0001:0002289a       __iswdigit_l               1002389a f i LIBCMT:_wctype.obj
 0001:000228ab       __iswgraph_l               100238ab f i LIBCMT:_wctype.obj
 0001:000228bf       __iswlower_l               100238bf f i LIBCMT:_wctype.obj
 0001:000228d0       __iswprint_l               100238d0 f i LIBCMT:_wctype.obj
 0001:000228e4       __iswpunct_l               100238e4 f i LIBCMT:_wctype.obj
 0001:000228f5       __iswspace_l               100238f5 f i LIBCMT:_wctype.obj
 0001:00022906       __iswupper_l               10023906 f i LIBCMT:_wctype.obj
 0001:00022917       __iswxdigit_l              10023917 f i LIBCMT:_wctype.obj
 0001:0002292b       _isleadbyte                1002392b f i LIBCMT:_wctype.obj
 0001:0002293c       _iswalnum                  1002393c f i LIBCMT:_wctype.obj
 0001:00022950       _iswalpha                  10023950 f i LIBCMT:_wctype.obj
 0001:00022964       _iswascii                  10023964 f i LIBCMT:_wctype.obj
 0001:00022976       _iswblank                  10023976 f i LIBCMT:_wctype.obj
 0001:00022991       _iswcntrl                  10023991 f i LIBCMT:_wctype.obj
 0001:000229a2       _iswdigit                  100239a2 f i LIBCMT:_wctype.obj
 0001:000229b3       _iswgraph                  100239b3 f i LIBCMT:_wctype.obj
 0001:000229c7       _iswlower                  100239c7 f i LIBCMT:_wctype.obj
 0001:000229d8       _iswprint                  100239d8 f i LIBCMT:_wctype.obj
 0001:000229ec       _iswpunct                  100239ec f i LIBCMT:_wctype.obj
 0001:000229fd       _iswspace                  100239fd f i LIBCMT:_wctype.obj
 0001:00022a0e       _iswupper                  10023a0e f i LIBCMT:_wctype.obj
 0001:00022a1f       _iswxdigit                 10023a1f f i LIBCMT:_wctype.obj
 0001:00022a33       __wctomb_l                 10023a33 f   LIBCMT:wctomb.obj
 0001:00022a82       __wctomb_s_l               10023a82 f   LIBCMT:wctomb.obj
 0001:00022ba6       _wctomb                    10023ba6 f   LIBCMT:wctomb.obj
 0001:00022bd9       _wctomb_s                  10023bd9 f   LIBCMT:wctomb.obj
 0001:00022c00       __aulldvrm                 10023c00 f   LIBCMT:ulldvrm.obj
 0001:00022c95       ___isascii                 10023c95 f i LIBCMT:_ctype.obj
 0001:00022ca5       ___iscsym                  10023ca5 f i LIBCMT:_ctype.obj
 0001:00022cc5       ___iscsymf                 10023cc5 f i LIBCMT:_ctype.obj
 0001:00022ce2       ___toascii                 10023ce2 f i LIBCMT:_ctype.obj
 0001:00022ced       __isalnum_l                10023ced f i LIBCMT:_ctype.obj
 0001:00022d45       __isalpha_l                10023d45 f i LIBCMT:_ctype.obj
 0001:00022d9d       __isblank_l                10023d9d f i LIBCMT:_ctype.obj
 0001:00022df7       __iscntrl_l                10023df7 f i LIBCMT:_ctype.obj
 0001:00022e49       __iscsym_l                 10023e49 f i LIBCMT:_ctype.obj
 0001:00022e6a       __iscsymf_l                10023e6a f i LIBCMT:_ctype.obj
 0001:00022e8b       __isdigit_l                10023e8b f i LIBCMT:_ctype.obj
 0001:00022edd       __isgraph_l                10023edd f i LIBCMT:_ctype.obj
 0001:00022f35       __islower_l                10023f35 f i LIBCMT:_ctype.obj
 0001:00022f87       __isprint_l                10023f87 f i LIBCMT:_ctype.obj
 0001:00022fdf       __ispunct_l                10023fdf f i LIBCMT:_ctype.obj
 0001:00023031       __isspace_l                10024031 f i LIBCMT:_ctype.obj
 0001:00023083       __isupper_l                10024083 f i LIBCMT:_ctype.obj
 0001:000230d5       __isxdigit_l               100240d5 f i LIBCMT:_ctype.obj
 0001:0002312d       _isalnum                   1002412d f i LIBCMT:_ctype.obj
 0001:0002315a       _isalpha                   1002415a f i LIBCMT:_ctype.obj
 0001:00023187       _isblank                   10024187 f i LIBCMT:_ctype.obj
 0001:000231bc       _iscntrl                   100241bc f i LIBCMT:_ctype.obj
 0001:000231e7       _isdigit                   100241e7 f i LIBCMT:_ctype.obj
 0001:00023212       _isgraph                   10024212 f i LIBCMT:_ctype.obj
 0001:0002323f       _islower                   1002423f f i LIBCMT:_ctype.obj
 0001:0002326a       _isprint                   1002426a f i LIBCMT:_ctype.obj
 0001:00023297       _ispunct                   10024297 f i LIBCMT:_ctype.obj
 0001:000232c2       _isspace                   100242c2 f i LIBCMT:_ctype.obj
 0001:000232ed       _isupper                   100242ed f i LIBCMT:_ctype.obj
 0001:00023318       _isxdigit                  10024318 f i LIBCMT:_ctype.obj
 0001:00023345       __tolower                  10024345 f   LIBCMT:tolower.obj
 0001:00023350       __tolower_l                10024350 f   LIBCMT:tolower.obj
 0001:00023493       _tolower                   10024493 f   LIBCMT:tolower.obj
 0001:000234bf       _strcpy_s                  100244bf f   LIBCMT:strcpy_s.obj
 0001:00023520       _strrchr                   10024520 f   LIBCMT:strrchr.obj
 0001:00023657       __fptostr                  10024657 f   LIBCMT:_fptostr.obj
 0001:00023707       ___crt_atoflt_l            10024707 f   LIBCMT:atodbl.obj
 0001:000237ab       __atodbl                   100247ab f   LIBCMT:atodbl.obj
 0001:000237c0       __atodbl_l                 100247c0 f   LIBCMT:atodbl.obj
 0001:0002384e       __atoflt                   1002484e f   LIBCMT:atodbl.obj
 0001:00023863       __atoflt_l                 10024863 f   LIBCMT:atodbl.obj
 0001:0002387b       __atoldbl                  1002487b f   LIBCMT:atodbl.obj
 0001:00023890       __atoldbl_l                10024890 f   LIBCMT:atodbl.obj
 0001:0002391f       ___dtold                   1002491f f   LIBCMT:cfout.obj
 0001:000239e7       __fltout2                  100249e7 f   LIBCMT:cfout.obj
 0001:00023a80       __alldvrm                  10024a80 f   LIBCMT:lldvrm.obj
 0001:00023b60       __aullshr                  10024b60 f   LIBCMT:ullshr.obj
 0001:00023b7f       __get_output_format        10024b7f f   LIBCMT:outputformat.obj
 0001:00023b85       __set_output_format        10024b85 f   LIBCMT:outputformat.obj
 0001:00023bb7       __controlfp_s              10024bb7 f   LIBCMT:contrlfp.obj
 0001:00023c14       __fptrap                   10024c14 f   LIBCMT:crt0fp.obj
 0001:00023c1d       __msize                    10024c1d f   LIBCMT:msize.obj
 0001:00023c4e       __recalloc                 10024c4e f   LIBCMT:recalloc.obj
 0001:00023cb7       _strncpy_s                 10024cb7 f   LIBCMT:strncpy_s.obj
 0001:00023e3f       __MallocaIsSizeInRange     10024e3f f i LIBCMT:a_loc.obj
 0001:00023e50       __MarkAllocaS              10024e50 f i LIBCMT:a_loc.obj
 0001:00023e64       ___crtGetLocaleInfoA       10024e64 f   LIBCMT:a_loc.obj
 0001:00023e9e       __freea                    10024e9e f i LIBCMT:a_loc.obj
 0001:00023ebc       _GetTableIndexFromLcid     10024ebc f   LIBCMT:winapinls.obj
 0001:00023ef1       _GetTableIndexFromLocaleName 10024ef1 f   LIBCMT:winapinls.obj
 0001:00023f3f       ___crtCompareStringEx      10024f3f f   LIBCMT:winapinls.obj
 0001:00023f8b       ___crtDownlevelLCIDToLocaleName 10024f8b f   LIBCMT:winapinls.obj
 0001:00024007       ___crtDownlevelLocaleNameToLCID 10025007 f   LIBCMT:winapinls.obj
 0001:00024045       ___crtEnumSystemLocalesEx  10025045 f   LIBCMT:winapinls.obj
 0001:00024082       ___crtGetDateFormatEx      10025082 f   LIBCMT:winapinls.obj
 0001:000240cb       ___crtGetLocaleInfoEx      100250cb f   LIBCMT:winapinls.obj
 0001:000240fa       ___crtGetTimeFormatEx      100250fa f   LIBCMT:winapinls.obj
 0001:0002412f       ___crtGetUserDefaultLocaleName 1002512f f   LIBCMT:winapinls.obj
 0001:0002415a       ___crtIsValidLocaleName    1002515a f   LIBCMT:winapinls.obj
 0001:00024185       ___crtLCMapStringEx        10025185 f   LIBCMT:winapinls.obj
 0001:000241d1       ___wcsnicmp_ascii          100251d1 f   LIBCMT:winapinls.obj
 0001:00024463       ___crtLCMapStringA         10025463 f   LIBCMT:a_map.obj
 0001:000245a1       ___crtGetStringTypeA       100255a1 f   LIBCMT:a_str.obj
 0001:000245e1       __commit                   100255e1 f   LIBCMT:commit.obj
 0001:000246ca       ___lock_fhandle            100256ca f   LIBCMT:osfinfo.obj
 0001:00024758       __alloc_osfhnd             10025758 f   LIBCMT:osfinfo.obj
 0001:00024901       __free_osfhnd              10025901 f   LIBCMT:osfinfo.obj
 0001:00024987       __get_osfhandle            10025987 f   LIBCMT:osfinfo.obj
 0001:000249ee       __open_osfhandle           100259ee f   LIBCMT:osfinfo.obj
 0001:00024b04       __set_osfhnd               10025b04 f   LIBCMT:osfinfo.obj
 0001:00024b86       __unlock_fhandle           10025b86 f   LIBCMT:osfinfo.obj
 0001:00024bac       __open                     10025bac f   LIBCMT:open.obj
 0001:00024c5c       __sopen                    10025c5c f   LIBCMT:open.obj
 0001:00024c8f       __sopen_helper             10025c8f f   LIBCMT:open.obj
 0001:00024d58       __sopen_nolock             10025d58 f   LIBCMT:open.obj
 0001:00024da6       __sopen_s                  10025da6 f   LIBCMT:open.obj
 0001:00024dc4       __mbsnbcmp                 10025dc4 f   LIBCMT:mbsnbcmp.obj
 0001:00024ddc       __mbsnbcmp_l               10025ddc f   LIBCMT:mbsnbcmp.obj
 0001:00024ef3       __mbsnbicmp                10025ef3 f   LIBCMT:mbsnbicm.obj
 0001:00024f0b       __mbsnbicmp_l              10025f0b f   LIBCMT:mbsnbicm.obj
 0001:000250d0       __global_unwind2           100260d0 f   LIBCMT:exsup.obj
 0001:00025135       __local_unwind2            10026135 f   LIBCMT:exsup.obj
 0001:000251b9       __abnormal_termination     100261b9 f   LIBCMT:exsup.obj
 0001:000251dc       __NLG_Notify1              100261dc f   LIBCMT:exsup.obj
 0001:000251e5       __NLG_Notify               100261e5 f   LIBCMT:exsup.obj
 0001:000251fc       __NLG_Dispatch2            100261fc     LIBCMT:exsup.obj
 0001:000251fc       __NLG_Dispatch             100261fc     LIBCMT:exsup.obj
 0001:00025204       __NLG_Call                 10026204 f   LIBCMT:exsup.obj
 0001:00025206       __NLG_Return2              10026206     LIBCMT:exsup.obj
 0001:00025207       __getbuf                   10026207 f   LIBCMT:_getbuf.obj
 0001:0002524d       __lseeki64                 1002624d f   LIBCMT:lseeki64.obj
 0001:00025349       __lseeki64_nolock          10026349 f   LIBCMT:lseeki64.obj
 0001:000253bc       __mbtowc_l                 100263bc f   LIBCMT:mbtowc.obj
 0001:000254b1       _mbtowc                    100264b1 f   LIBCMT:mbtowc.obj
 0001:000254c9       __putwch                   100264c9 f   LIBCMT:putwch.obj
 0001:00025515       __putwch_nolock            10026515 f   LIBCMT:putwch.obj
 0001:00025560       __chkstk                   10026560 f   LIBCMT:chkstk.obj
 0001:00025560       __alloca_probe             10026560 f   LIBCMT:chkstk.obj
 0001:0002558b       __matherr                  1002658b f   LIBCMT:matherr.obj
 0001:0002558e       __vfwprintf_l              1002658e f   LIBCMT:vfwprint.obj
 0001:000255ac       __vfwprintf_p              100265ac f   LIBCMT:vfwprint.obj
 0001:000255c9       __vfwprintf_p_l            100265c9 f   LIBCMT:vfwprint.obj
 0001:000255e7       __vfwprintf_s_l            100265e7 f   LIBCMT:vfwprint.obj
 0001:00025605       _vfwprintf                 10026605 f   LIBCMT:vfwprint.obj
 0001:00025622       _vfwprintf_helper          10026622 f   LIBCMT:vfwprint.obj
 0001:000256b5       _vfwprintf_s               100266b5 f   LIBCMT:vfwprint.obj
 0001:000256d2       __woutput_l                100266d2 f   LIBCMT:woutput.obj
 0001:000263b1       __woutput_s_l              100273b1 f   LIBCMT:woutputs.obj
 0001:000270c8       __validate_param_reuseW    100280c8 f   LIBCMT:woutputp.obj
 0001:00027240       __woutput_p_l              10028240 f   LIBCMT:woutputp.obj
 0001:00028669       __ismbbalnum               10029669 f   LIBCMT:ismbbyte.obj
 0001:00028682       __ismbbalnum_l             10029682 f   LIBCMT:ismbbyte.obj
 0001:0002869c       __ismbbalpha               1002969c f   LIBCMT:ismbbyte.obj
 0001:000286b5       __ismbbalpha_l             100296b5 f   LIBCMT:ismbbyte.obj
 0001:000286cf       __ismbbblank               100296cf f   LIBCMT:ismbbyte.obj
 0001:000286f0       __ismbbblank_l             100296f0 f   LIBCMT:ismbbyte.obj
 0001:00028712       __ismbbgraph               10029712 f   LIBCMT:ismbbyte.obj
 0001:0002872b       __ismbbgraph_l             1002972b f   LIBCMT:ismbbyte.obj
 0001:00028745       __ismbbkalnum              10029745 f   LIBCMT:ismbbyte.obj
 0001:0002875b       __ismbbkalnum_l            1002975b f   LIBCMT:ismbbyte.obj
 0001:00028772       __ismbbkana                10029772 f   LIBCMT:ismbbyte.obj
 0001:00028783       __ismbbkana_l              10029783 f   LIBCMT:ismbbyte.obj
 0001:000287cf       __ismbbkprint              100297cf f   LIBCMT:ismbbyte.obj
 0001:000287e5       __ismbbkprint_l            100297e5 f   LIBCMT:ismbbyte.obj
 0001:000287fc       __ismbbkpunct              100297fc f   LIBCMT:ismbbyte.obj
 0001:00028812       __ismbbkpunct_l            10029812 f   LIBCMT:ismbbyte.obj
 0001:00028829       __ismbblead                10029829 f   LIBCMT:ismbbyte.obj
 0001:0002883f       __ismbblead_l              1002983f f   LIBCMT:ismbbyte.obj
 0001:00028856       __ismbbprint               10029856 f   LIBCMT:ismbbyte.obj
 0001:0002886f       __ismbbprint_l             1002986f f   LIBCMT:ismbbyte.obj
 0001:00028889       __ismbbpunct               10029889 f   LIBCMT:ismbbyte.obj
 0001:0002889f       __ismbbpunct_l             1002989f f   LIBCMT:ismbbyte.obj
 0001:000288b6       __ismbbtrail               100298b6 f   LIBCMT:ismbbyte.obj
 0001:000288cc       __ismbbtrail_l             100298cc f   LIBCMT:ismbbyte.obj
 0001:00028b09       __strtol_l                 10029b09 f   LIBCMT:strtol.obj
 0001:00028b24       __strtoul_l                10029b24 f   LIBCMT:strtol.obj
 0001:00028b3f       _strtol                    10029b3f f   LIBCMT:strtol.obj
 0001:00028b69       _strtoul                   10029b69 f   LIBCMT:strtol.obj
 0001:00028b93       ___free_lconv_mon          10029b93 f   LIBCMT:initmon.obj
 0001:00028c8f       ___init_monetary           10029c8f f   LIBCMT:initmon.obj
 0001:00029068       ___free_lconv_num          1002a068 f   LIBCMT:initnum.obj
 0001:000290cf       ___init_numeric            1002a0cf f   LIBCMT:initnum.obj
 0001:0002930d       ___free_lc_time            1002a30d f   LIBCMT:inittime.obj
 0001:0002968d       ___init_time               1002a68d f   LIBCMT:inittime.obj
 0001:00029efc       _localeconv                1002aefc f   LIBCMT:lconv.obj
 0001:00029f22       __iswctype_l               1002af22 f   LIBCMT:iswctype.obj
 0001:00029f34       _is_wctype                 1002af34 f   LIBCMT:iswctype.obj
 0001:00029f3d       _iswctype                  1002af3d f   LIBCMT:iswctype.obj
 0001:00029f93       ____lc_codepage_func       1002af93 f   LIBCMT:initctyp.obj
 0001:00029fb9       ____lc_collate_cp_func     1002afb9 f   LIBCMT:initctyp.obj
 0001:00029fdf       ____lc_locale_name_func    1002afdf f   LIBCMT:initctyp.obj
 0001:0002a007       ____mb_cur_max_func        1002b007 f   LIBCMT:initctyp.obj
 0001:0002a02d       ____mb_cur_max_l_func      1002b02d f   LIBCMT:initctyp.obj
 0001:0002a044       ___init_ctype              1002b044 f   LIBCMT:initctyp.obj
 0001:0002a3dc       ___pctype_func             1002b3dc f   LIBCMT:ctype.obj
 0001:0002a405       ___pwctype_func            1002b405 f   LIBCMT:ctype.obj
 0001:0002a40b       __isctype                  1002b40b f   LIBCMT:isctype.obj
 0001:0002a43a       __isctype_l                1002b43a f   LIBCMT:isctype.obj
 0001:0002a4eb       ___init_dummy              1002b4eb f   LIBCMT:wsetloca.obj
 0001:0002a4ee       __locterm                  1002b4ee f   LIBCMT:wsetloca.obj
 0001:0002a540       ____setlc_active_func      1002b540 f   LIBCMT:wsetloca.obj
 0001:0002a546       ____unguarded_readlc_active_add_func 1002b546 f   LIBCMT:wsetloca.obj
 0001:0002a54c       ___copy_locale_name        1002b54c f   LIBCMT:wsetloca.obj
 0001:0002a5b0       ___create_locale           1002b5b0 f   LIBCMT:wsetloca.obj
 0001:0002a5b9       ___free_locale             1002b5b9 f   LIBCMT:wsetloca.obj
 0001:0002a5be       ___get_current_locale      1002b5be f   LIBCMT:wsetloca.obj
 0001:0002a5c3       ___lc_lctowcs              1002b5c3 f   LIBCMT:wsetloca.obj
 0001:0002a631       ___lc_wcstolc              1002b631 f   LIBCMT:wsetloca.obj
 0001:0002a75d       __configthreadlocale       1002b75d f   LIBCMT:wsetloca.obj
 0001:0002a7e3       __create_locale            1002b7e3 f   LIBCMT:wsetloca.obj
 0001:0002a845       __expandlocale             1002b845 f   LIBCMT:wsetloca.obj
 0001:0002ab3c       __free_locale              1002bb3c f   LIBCMT:wsetloca.obj
 0001:0002abf3       __get_current_locale       1002bbf3 f   LIBCMT:wsetloca.obj
 0001:0002aca2       __wcreate_locale           1002bca2 f   LIBCMT:wsetloca.obj
 0001:0002ad79       __wcscats                  1002bd79 f   LIBCMT:wsetloca.obj
 0001:0002adb8       __wsetlocale               1002bdb8 f   LIBCMT:wsetloca.obj
 0001:0002b6fa       __CopyMan                  1002c6fa f i LIBCMT:intrncvt.obj
 0001:0002b717       __FillZeroMan              1002c717 f i LIBCMT:intrncvt.obj
 0001:0002b726       __IncMan                   1002c726 f i LIBCMT:intrncvt.obj
 0001:0002b788       __IsZeroMan                1002c788 f i LIBCMT:intrncvt.obj
 0001:0002b7a5       __RoundMan                 1002c7a5 f i LIBCMT:intrncvt.obj
 0001:0002b8a6       __ShrMan                   1002c8a6 f i LIBCMT:intrncvt.obj
 0001:0002b934       __ZeroTail                 1002c934 f i LIBCMT:intrncvt.obj
 0001:0002b97c       ___addl                    1002c97c f i LIBCMT:intrncvt.obj
 0001:0002b9a0       __ld12cvt                  1002c9a0 f i LIBCMT:intrncvt.obj
 0001:0002bf0b       __ld12tod                  1002cf0b f   LIBCMT:intrncvt.obj
 0001:0002c47d       __ld12tof                  1002d47d f   LIBCMT:intrncvt.obj
 0001:0002c9ef       __ld12told                 1002d9ef f   LIBCMT:intrncvt.obj
 0001:0002cabe       ___STRINGTOLD_L            1002dabe f   LIBCMT:strgtold.obj
 0001:0002cb19       ___ld12mul                 1002db19 f i LIBCMT:strgtold.obj
 0001:0002cde5       ___multtenpow12            1002dde5 f i LIBCMT:strgtold.obj
 0001:0002d138       ___shl_12                  1002e138 f i LIBCMT:strgtold.obj
 0001:0002d169       ___shr_12                  1002e169 f i LIBCMT:strgtold.obj
 0001:0002d199       ___strgtold12_l            1002e199 f   LIBCMT:strgtold.obj
 0001:0002d941       _$I10_OUTPUT               1002e941 f   LIBCMT:x10fout.obj
 0001:0002e315       ___add_12                  1002f315 f i LIBCMT:x10fout.obj
 0001:0002e4c1       ___control87_2             1002f4c1 f   LIBCMT:ieee87.obj
 0001:0002eb35       __clearfp                  1002fb35 f   LIBCMT:ieee87.obj
 0001:0002ec15       __control87                1002fc15 f i LIBCMT:ieee87.obj
 0001:0002ef17       __controlfp                1002ff17 f   LIBCMT:ieee87.obj
 0001:0002f222       __fpreset                  10030222 f   LIBCMT:ieee87.obj
 0001:0002f2ef       __set_controlfp            100302ef f   LIBCMT:ieee87.obj
 0001:0002f362       __statusfp                 10030362 f   LIBCMT:ieee87.obj
 0001:0002f3fc       __statusfp2                100303fc f   LIBCMT:ieee87.obj
 0001:0002f460       __alloca_probe_16          10030460 f   LIBCMT:alloca16.obj
 0001:0002f476       __alloca_probe_8           10030476     LIBCMT:alloca16.obj
 0001:0002f48c       _wcsnlen                   1003048c f   LIBCMT:wcslen_s.obj
 0001:0002f533       __wopen                    10030533 f   LIBCMT:wopen.obj
 0001:0002f5e3       __wsopen                   100305e3 f   LIBCMT:wopen.obj
 0001:0002f616       __wsopen_helper            10030616 f   LIBCMT:wopen.obj
 0001:0002f6df       __wsopen_nolock            100306df f   LIBCMT:wopen.obj
 0001:0002fe32       __wsopen_s                 10030e32 f   LIBCMT:wopen.obj
 0001:0002fe50       _strncmp                   10030e50 f   LIBCMT:strncmp.obj
 0001:0002fec8       __strnicmp                 10030ec8 f   LIBCMT:strnicmp.obj
 0001:0002ff33       __strnicmp_l               10030f33 f   LIBCMT:strnicmp.obj
 0001:0002ffe4       ___termconout              10030fe4 f   LIBCMT:initcon.obj
 0001:0002fffb       ___initconout              10030ffb f   LIBCMT:initcon.obj
 0001:0003001a       __fputwc_nolock            1003101a f   LIBCMT:fputwc.obj
 0001:000301a0       _fputwc                    100311a0 f   LIBCMT:fputwc.obj
 0001:00030217       _putwc                     10031217 f   LIBCMT:fputwc.obj
 0001:00030401       __wcstol_l                 10031401 f   LIBCMT:wcstol.obj
 0001:00030419       __wcstoul_l                10031419 f   LIBCMT:wcstol.obj
 0001:00030431       _wcstol                    10031431 f   LIBCMT:wcstol.obj
 0001:00030449       _wcstoul                   10031449 f   LIBCMT:wcstol.obj
 0001:00030461       ___init_collate            10031461 f   LIBCMT:initcoll.obj
 0001:00030581       _memcmp                    10031581 f   LIBCMT:memcmp.obj
 0001:00033495       _wcscmp                    10034495 f   LIBCMT:wcscmp.obj
 0001:000334d3       _wcscspn                   100344d3 f   LIBCMT:wcscspn.obj
 0001:0003351e       _wcsncmp                   1003451e f   LIBCMT:wcsncmp.obj
 0001:00033554       _wcspbrk                   10034554 f   LIBCMT:wcspbrk.obj
 0001:00033b58       ___get_qualified_locale    10034b58 f   LIBCMT:getqloc.obj
 0001:000343c8       ___get_qualified_locale_downlevel 100353c8 f   LIBCMT:getqloc_downlevel.obj
 0001:000345e4       ___mtold12                 100355e4 f   LIBCMT:mantold.obj
 0001:000347c4       __chsize                   100357c4 f   LIBCMT:chsize.obj
 0001:000347de       __chsize_nolock            100357de f   LIBCMT:chsize.obj
 0001:00034994       __chsize_s                 10035994 f   LIBCMT:chsize.obj
 0001:00034a82       __get_fmode                10035a82 f   LIBCMT:setmode.obj
 0001:00034aac       __set_fmode                10035aac f   LIBCMT:setmode.obj
 0001:00034ae7       __setmode                  10035ae7 f   LIBCMT:setmode.obj
 0001:00034bec       __setmode_nolock           10035bec f   LIBCMT:setmode.obj
 0001:00034cc0       ___ascii_strnicmp          10035cc0 f   LIBCMT:_strnicm.obj
 0001:00034d21       __flswbuf                  10035d21 f   LIBCMT:_flswbuf.obj
 0001:00034e83       __wchartodigit             10035e83 f   LIBCMT:wchtodig.obj
 0001:00035022       __wtoi                     10036022 f   LIBCMT:wtox.obj
 0001:0003502b       __wtoi64                   1003602b f   LIBCMT:wtox.obj
 0001:0003503f       __wtoi64_l                 1003603f f   LIBCMT:wtox.obj
 0001:00035056       __wtoi_l                   10036056 f   LIBCMT:wtox.obj
 0001:0003505f       __wtol                     1003605f f   LIBCMT:wtox.obj
 0001:00035073       __wtol_l                   10036073 f   LIBCMT:wtox.obj
 0001:0003508a       __wtoll                    1003608a f   LIBCMT:wtox.obj
 0001:0003509e       __wtoll_l                  1003609e f   LIBCMT:wtox.obj
 0001:000350b5       _wcschr                    100360b5 f   LIBCMT:wcschr.obj
 0001:00035163       __wcsicmp                  10036163 f   LIBCMT:wcsicmp.obj
 0001:000351f6       __wcsicmp_l                100361f6 f   LIBCMT:wcsicmp.obj
 0001:000352d1       __wcsnicmp                 100362d1 f   LIBCMT:wcsnicmp.obj
 0001:00035387       __wcsnicmp_l               10036387 f   LIBCMT:wcsnicmp.obj
 0001:00035750       __wcstof_l                 10036750 f   LIBCMT:wcstoq.obj
 0001:00035803       __wcstoi64                 10036803 f   LIBCMT:wcstoq.obj
 0001:0003582d       __wcstoi64_l               1003682d f   LIBCMT:wcstoq.obj
 0001:00035848       __wcstoimax_l              10036848 f   LIBCMT:wcstoq.obj
 0001:00035851       __wcstold_l                10036851 f   LIBCMT:wcstoq.obj
 0001:0003585a       __wcstoll_l                1003685a f   LIBCMT:wcstoq.obj
 0001:00035863       __wcstoui64                10036863 f   LIBCMT:wcstoq.obj
 0001:0003588d       __wcstoui64_l              1003688d f   LIBCMT:wcstoq.obj
 0001:000358a8       __wcstoull_l               100368a8 f   LIBCMT:wcstoq.obj
 0001:000358b1       __wcstoumax_l              100368b1 f   LIBCMT:wcstoq.obj
 0001:000358ba       _wcstof                    100368ba f   LIBCMT:wcstoq.obj
 0001:000358cf       _wcstoimax                 100368cf f   LIBCMT:wcstoq.obj
 0001:000358d8       _wcstold                   100368d8 f   LIBCMT:wcstoq.obj
 0001:000358e1       _wcstoll                   100368e1 f   LIBCMT:wcstoq.obj
 0001:000358ea       _wcstoull                  100368ea f   LIBCMT:wcstoq.obj
 0001:000358f3       _wcstoumax                 100368f3 f   LIBCMT:wcstoq.obj
 0001:000358fc       __towlower_l               100368fc f   LIBCMT:towlower.obj
 0001:000359ad       _towlower                  100369ad f   LIBCMT:towlower.obj
 0001:000359be       __wcstod_l                 100369be f   LIBCMT:wcstod.obj
 0001:00035ab9       _wcstod                    10036ab9 f   LIBCMT:wcstod.obj
 0001:00035ad0       __allmul                   10036ad0 f   LIBCMT:llmul.obj
 0001:00035b04       ___crtLCMapStringW         10036b04 f   LIBCMT:w_map.obj
 0001:00035b33       __wfltin2                  10036b33 f   LIBCMT:wcfin.obj
 0001:00035be0       ___WSTRINGTOLD_L           10036be0 f   LIBCMT:wstrgtold.obj
 0001:00035c3b       ___wstrgtold12_l           10036c3b f   LIBCMT:wstrgtold.obj
 0001:0003648c       _GetModuleHandleA@4        1003748c f   kernel32:KERNEL32.dll
 0001:00036492       _GetProcAddress@8          10037492 f   kernel32:KERNEL32.dll
 0001:00036498       _HeapAlloc@12              10037498 f   kernel32:KERNEL32.dll
 0001:0003649e       _IsDebuggerPresent@0       1003749e f   kernel32:KERNEL32.dll
 0001:000364a4       _IsProcessorFeaturePresent@4 100374a4 f   kernel32:KERNEL32.dll
 0001:000364aa       _EncodePointer@4           100374aa f   kernel32:KERNEL32.dll
 0001:000364b0       _DecodePointer@4           100374b0 f   kernel32:KERNEL32.dll
 0001:000364b6       _GetLastError@0            100374b6 f   kernel32:KERNEL32.dll
 0001:000364bc       _ExitProcess@4             100374bc f   kernel32:KERNEL32.dll
 0001:000364c2       _GetModuleHandleExW@12     100374c2 f   kernel32:KERNEL32.dll
 0001:000364c8       _AreFileApisANSI@0         100374c8 f   kernel32:KERNEL32.dll
 0001:000364ce       _MultiByteToWideChar@24    100374ce f   kernel32:KERNEL32.dll
 0001:000364d4       _WideCharToMultiByte@32    100374d4 f   kernel32:KERNEL32.dll
 0001:000364da       _HeapFree@12               100374da f   kernel32:KERNEL32.dll
 0001:000364e0       _HeapReAlloc@16            100374e0 f   kernel32:KERNEL32.dll
 0001:000364e6       _EnterCriticalSection@4    100374e6 f   kernel32:KERNEL32.dll
 0001:000364ec       _LeaveCriticalSection@4    100374ec f   kernel32:KERNEL32.dll
 0001:000364f2       _GetStdHandle@4            100374f2 f   kernel32:KERNEL32.dll
 0001:000364f8       _GetFileType@4             100374f8 f   kernel32:KERNEL32.dll
 0001:000364fe       _GetModuleFileNameW@12     100374fe f   kernel32:KERNEL32.dll
 0001:00036504       _WriteConsoleW@20          10037504 f   kernel32:KERNEL32.dll
 0001:0003650a       _GetCommandLineA@0         1003750a f   kernel32:KERNEL32.dll
 0001:00036510       _GetCurrentThreadId@0      10037510 f   kernel32:KERNEL32.dll
 0001:00036516       _WriteFile@20              10037516 f   kernel32:KERNEL32.dll
 0001:0003651c       _GetProcessHeap@0          1003751c f   kernel32:KERNEL32.dll
 0001:00036522       _UnhandledExceptionFilter@4 10037522 f   kernel32:KERNEL32.dll
 0001:00036528       _SetUnhandledExceptionFilter@4 10037528 f   kernel32:KERNEL32.dll
 0001:0003652e       _SetLastError@4            1003752e f   kernel32:KERNEL32.dll
 0001:00036534       _InitializeCriticalSectionAndSpinCount@8 10037534 f   kernel32:KERNEL32.dll
 0001:0003653a       _CreateEventW@16           1003753a f   kernel32:KERNEL32.dll
 0001:00036540       _Sleep@4                   10037540 f   kernel32:KERNEL32.dll
 0001:00036546       _GetCurrentProcess@0       10037546 f   kernel32:KERNEL32.dll
 0001:0003654c       _TerminateProcess@8        1003754c f   kernel32:KERNEL32.dll
 0001:00036552       _TlsAlloc@0                10037552 f   kernel32:KERNEL32.dll
 0001:00036558       _TlsGetValue@4             10037558 f   kernel32:KERNEL32.dll
 0001:0003655e       _TlsSetValue@8             1003755e f   kernel32:KERNEL32.dll
 0001:00036564       _TlsFree@4                 10037564 f   kernel32:KERNEL32.dll
 0001:0003656a       _GetStartupInfoW@4         1003756a f   kernel32:KERNEL32.dll
 0001:00036570       _GetTickCount@0            10037570 f   kernel32:KERNEL32.dll
 0001:00036576       _GetModuleHandleW@4        10037576 f   kernel32:KERNEL32.dll
 0001:0003657c       _CreateSemaphoreW@16       1003757c f   kernel32:KERNEL32.dll
 0001:00036582       _DeleteCriticalSection@4   10037582 f   kernel32:KERNEL32.dll
 0001:00036588       _FatalAppExitA@8           10037588 f   kernel32:KERNEL32.dll
 0001:0003658e       _SetConsoleCtrlHandler@8   1003758e f   kernel32:KERNEL32.dll
 0001:00036594       _FreeLibrary@4             10037594 f   kernel32:KERNEL32.dll
 0001:0003659a       _LoadLibraryExW@12         1003759a f   kernel32:KERNEL32.dll
 0001:000365a0       _IsValidCodePage@4         100375a0 f   kernel32:KERNEL32.dll
 0001:000365a6       _GetACP@0                  100375a6 f   kernel32:KERNEL32.dll
 0001:000365ac       _GetOEMCP@0                100375ac f   kernel32:KERNEL32.dll
 0001:000365b2       _GetCPInfo@8               100375b2 f   kernel32:KERNEL32.dll
 0001:000365b8       _CloseHandle@4             100375b8 f   kernel32:KERNEL32.dll
 0001:000365be       _RtlUnwind@16              100375be f   kernel32:KERNEL32.dll
 0001:000365c4       _ReadFile@20               100375c4 f   kernel32:KERNEL32.dll
 0001:000365ca       _GetConsoleMode@8          100375ca f   kernel32:KERNEL32.dll
 0001:000365d0       _ReadConsoleW@20           100375d0 f   kernel32:KERNEL32.dll
 0001:000365d6       _GetConsoleCP@0            100375d6 f   kernel32:KERNEL32.dll
 0001:000365dc       _DeleteFileW@4             100375dc f   kernel32:KERNEL32.dll
 0001:000365e2       _SetFilePointerEx@20       100375e2 f   kernel32:KERNEL32.dll
 0001:000365e8       _RaiseException@16         100375e8 f   kernel32:KERNEL32.dll
 0001:000365ee       _OutputDebugStringW@4      100375ee f   kernel32:KERNEL32.dll
 0001:000365f4       _GetCurrentThread@0        100375f4 f   kernel32:KERNEL32.dll
 0001:000365fa       _GetModuleFileNameA@12     100375fa f   kernel32:KERNEL32.dll
 0001:00036600       _QueryPerformanceCounter@4 10037600 f   kernel32:KERNEL32.dll
 0001:00036606       _GetCurrentProcessId@0     10037606 f   kernel32:KERNEL32.dll
 0001:0003660c       _GetSystemTimeAsFileTime@4 1003760c f   kernel32:KERNEL32.dll
 0001:00036612       _GetEnvironmentStringsW@0  10037612 f   kernel32:KERNEL32.dll
 0001:00036618       _FreeEnvironmentStringsW@4 10037618 f   kernel32:KERNEL32.dll
 0001:0003661e       _HeapSize@12               1003761e f   kernel32:KERNEL32.dll
 0001:00036624       _GetDateFormatW@24         10037624 f   kernel32:KERNEL32.dll
 0001:0003662a       _GetTimeFormatW@24         1003762a f   kernel32:KERNEL32.dll
 0001:00036630       _CompareStringW@24         10037630 f   kernel32:KERNEL32.dll
 0001:00036636       _LCMapStringW@24           10037636 f   kernel32:KERNEL32.dll
 0001:0003663c       _GetLocaleInfoW@16         1003763c f   kernel32:KERNEL32.dll
 0001:00036642       _IsValidLocale@8           10037642 f   kernel32:KERNEL32.dll
 0001:00036648       _GetUserDefaultLCID@0      10037648 f   kernel32:KERNEL32.dll
 0001:0003664e       _EnumSystemLocalesW@8      1003764e f   kernel32:KERNEL32.dll
 0001:00036654       _GetStringTypeW@16         10037654 f   kernel32:KERNEL32.dll
 0001:0003665a       _FlushFileBuffers@4        1003765a f   kernel32:KERNEL32.dll
 0001:00036660       _SetStdHandle@8            10037660 f   kernel32:KERNEL32.dll
 0001:00036666       _CreateFileW@28            10037666 f   kernel32:KERNEL32.dll
 0001:0003666c       _SetEndOfFile@4            1003766c f   kernel32:KERNEL32.dll
 0002:00000000       ___xc_a                    10042000     LIBCMT:crt0init.obj
 0002:00000104       ___xc_z                    10042104     LIBCMT:crt0init.obj
 0002:00000208       ___xi_a                    10042208     LIBCMT:crt0init.obj
 0002:00000420       ___xi_z                    10042420     LIBCMT:crt0init.obj
 0002:00000524       ___xp_a                    10042524     LIBCMT:crt0init.obj
 0002:00000838       ___xp_z                    10042838     LIBCMT:crt0init.obj
 0002:0000093c       ___xt_a                    1004293c     LIBCMT:crt0init.obj
 0002:00000a40       ___xt_z                    10042a40     LIBCMT:crt0init.obj
 0002:00000b88       _Pos_PID_M                 10042b88     Pos_PID.obj
 0002:00000b8c       ??_C@_0BI@PEBACBDB@Error?5creating?5scope?53?6?$AA@ 10042b8c     Pos_PID.obj
 0002:00000ba8       ??_C@_0BH@EKMHGNPN@X_Encoder?1count_to_mm1?$AA@ 10042ba8     Pos_PID.obj
 0002:00000bc4       ??_C@_0BI@PFNCELAG@Error?5creating?5scope?52?6?$AA@ 10042bc4     Pos_PID.obj
 0002:00000be0       ??_C@_06KFNFIEK@?$CF15?46f?$AA@ 10042be0     Pos_PID.obj
 0002:00000be8       ??_C@_0BI@PHJEPFFP@Error?5creating?5scope?51?6?$AA@ 10042be8     Pos_PID.obj
 0002:00000c04       ??_C@_09LIAEOFKL@Xdata?4dat?$AA@ 10042c04     Pos_PID.obj
 0002:00000c10       ??_C@_0BI@PCNLODNK@Error?5creating?5scope?56?6?$AA@ 10042c10     Pos_PID.obj
 0002:00000c2c       ??_C@_0BH@HFJGCGKD@Y_encoder?5?1count_to_mm?$AA@ 10042c2c     Pos_PID.obj
 0002:00000c48       ??_C@_0BI@PAJNFNID@Error?5creating?5scope?55?6?$AA@ 10042c48     Pos_PID.obj
 0002:00000c64       ??_C@_0BI@PBFPDHLE@Error?5creating?5scope?54?6?$AA@ 10042c64     Pos_PID.obj
 0002:00000c80       ??_C@_09FHMGIOJF@Ydata?4dat?$AA@ 10042c80     Pos_PID.obj
 0002:00000c8c       ??_C@_0BI@PDBJIJON@Error?5creating?5scope?57?6?$AA@ 10042c8c     Pos_PID.obj
 0002:00000ca8       ??_C@_0BI@BJLOJDKG@Z_encoder?51?1count_to_mm?$AA@ 10042ca8     Pos_PID.obj
 0002:00000cc4       ??_C@_0BI@PIEFMONA@Error?5creating?5scope?58?6?$AA@ 10042cc4     Pos_PID.obj
 0002:00000ce0       ??_C@_0BI@PJIHKEOH@Error?5creating?5scope?59?6?$AA@ 10042ce0     Pos_PID.obj
 0002:00000cfc       ??_C@_09LMPBDFJG@Zdata?4dat?$AA@ 10042cfc     Pos_PID.obj
 0002:00000d08       ??_C@_04GDMNHCBG@ode4?$AA@ 10042d08     Pos_PID.obj
 0002:00000d10       ??_C@_04EPKDLPPB@tout?$AA@ 10042d10     Pos_PID.obj
 0002:00000d16       ??_C@_00CNPNBAHC@?$AA@     10042d16     Pos_PID.obj
 0002:00000d18       ??_C@_03HBFGMJOD@rt_?$AA@  10042d18     Pos_PID.obj
 0002:00000d1c       ??_C@_0BA@ILODDMJB@CNT32?98M?$CIPCI?$CJ?52?$AA@ 10042d1c     Pos_PID.obj
 0002:00000d30       ??_C@_0CC@KLPMAOFI@Pos_PID?1X_Encoder?1CNT32?98M?$CIPCI?$CJ?5@ 10042d30     Pos_PID.obj
 0002:00000d58       ??_C@_0BA@KAMOGPFC@CNT32?98M?$CIPCI?$CJ?51?$AA@ 10042d58     Pos_PID.obj
 0002:00000d6c       ??_C@_0CD@KHPOEAEG@Pos_PID?1Y_encoder?5?1CNT32?98M?$CIPCI?$CJ@ 10042d6c     Pos_PID.obj
 0002:00000d98       ??_C@_0CE@ECDGHJHB@Pos_PID?1Z_encoder?51?1CNT32?98M?$CIPCI@ 10042d98     Pos_PID.obj
 0002:00000dc4       ??_C@_0P@MGKGOBE@PCI?9DDA08?512?53?$AA@ 10042dc4     Pos_PID.obj
 0002:00000dd8       ??_C@_0BH@GCMHBNGI@Pos_PID?1PCI?9DDA08?512?53?$AA@ 10042dd8     Pos_PID.obj
 0002:00000df4       ??_C@_0BA@JMMFBLBP@PCI?9DDA?508?512?51?$AA@ 10042df4     Pos_PID.obj
 0002:00000e08       ??_C@_0BI@MFBIILHL@Pos_PID?1PCI?9DDA?508?512?51?$AA@ 10042e08     Pos_PID.obj
 0002:00000e24       ??_C@_0BA@KOPDHJJN@PCI?9DDA?508?512?53?$AA@ 10042e24     Pos_PID.obj
 0002:00000e38       ??_C@_0BI@PHCOOJPJ@Pos_PID?1PCI?9DDA?508?512?53?$AA@ 10042e38     Pos_PID.obj
 0002:00000e54       ??_C@_0BA@OBLCOPFK@PCI?9DDA?508?512?54?$AA@ 10042e54     Pos_PID.obj
 0002:00000e68       ??_C@_0BI@LIGPHPDO@Pos_PID?1PCI?9DDA?508?512?54?$AA@ 10042e68     Pos_PID.obj
 0002:00000e84       ??_C@_0O@GDKFENNN@PCI?9DDA08?512?5?$AA@ 10042e84     Pos_PID.obj
 0002:00000e94       ??_C@_0BG@KFNANGEK@Pos_PID?1PCI?9DDA08?512?5?$AA@ 10042e94     Pos_PID.obj
 0002:00000eb0       __real@3f847ae147ae147b    10042eb0     Pos_PID.obj
 0002:00000ec0       __real@3fc5555555555555    10042ec0     Pos_PID.obj
 0002:00000ed0       __real@3fe0000000000000    10042ed0     Pos_PID.obj
 0002:00000ee0       __real@3ff0000000000000    10042ee0     Pos_PID.obj
 0002:00000ef0       __real@4000000000000000    10042ef0     Pos_PID.obj
 0002:00000f00       __real@4008000000000000    10042f00     Pos_PID.obj
 0002:00000f10       __real@407f400000000000    10042f10     Pos_PID.obj
 0002:00000f20       __real@40b3880000000000    10042f20     Pos_PID.obj
 0002:00000f30       __real@41f0000000000000    10042f30     Pos_PID.obj
 0002:00000f40       __real@bff0000000000000    10042f40     Pos_PID.obj
 0002:00000f50       __xmm@000001f6000000360000005500000002 10042f50     Pos_PID.obj
 0002:00000f70       __xmm@3f847ae147ae147b0000000000000000 10042f70     Pos_PID.obj
 0002:00000f90       __xmm@41f00000000000000000000000000000 10042f90     Pos_PID.obj
 0002:00000fb0       __xmm@7fffffffffffffff7fffffffffffffff 10042fb0     Pos_PID.obj
 0002:000028f4       ??_C@_03LCFCCKMA@Abs?$AA@  100448f4     Pos_PID_capi.obj
 0002:000028f8       ??_C@_08LJDLLPJB@Y?5enable?$AA@ 100448f8     Pos_PID_capi.obj
 0002:00002904       ??_C@_04FNILJHCI@Abs1?$AA@ 10044904     Pos_PID_capi.obj
 0002:0000290c       ??_C@_08GBPNJCEO@X?5Enable?$AA@ 1004490c     Pos_PID_capi.obj
 0002:00002918       ??_C@_04HGKGMEOL@Abs2?$AA@ 10044918     Pos_PID_capi.obj
 0002:00002920       ??_C@_08IALGIDFE@Z?5enable?$AA@ 10044920     Pos_PID_capi.obj
 0002:0000292c       ??_C@_0BA@IBIFMAKE@Data?5Store?5Read?$AA@ 1004492c     Pos_PID_capi.obj
 0002:00002940       ??_C@_0BB@BHGHOFID@Data?5Store?5Read1?$AA@ 10044940     Pos_PID_capi.obj
 0002:00002954       ??_C@_0BB@DMEKLGEA@Data?5Store?5Read2?$AA@ 10044954     Pos_PID_capi.obj
 0002:00002968       ??_C@_0BF@GGMNNFDC@Data?5Type?5Conversion?$AA@ 10044968     Pos_PID_capi.obj
 0002:00002984       ??_C@_07NBIGLNNE@Voltage?$AA@ 10044984     Pos_PID_capi.obj
 0002:00002990       ??_C@_09KGGNCPDB@VoltageY?5?$AA@ 10044990     Pos_PID_capi.obj
 0002:0000299c       ??_C@_08EHDCJHMC@Voltage1?$AA@ 1004499c     Pos_PID_capi.obj
 0002:000029a8       ??_C@_09DAEBENAE@x?5Voltage?$AA@ 100449a8     Pos_PID_capi.obj
 0002:000029b4       ??_C@_08GMBPMEAB@Voltage2?$AA@ 100449b4     Pos_PID_capi.obj
 0002:000029c0       ??_C@_0L@ILKNELCH@Voltage?5Z?5?$AA@ 100449c0     Pos_PID_capi.obj
 0002:000029d0       ??_C@_0BB@ILJOCOID@Logical?5Operator?$AA@ 100449d0     Pos_PID_capi.obj
 0002:000029e4       ??_C@_04LGKGJOPM@Sign?$AA@ 100449e4     Pos_PID_capi.obj
 0002:000029ec       ??_C@_05HCOABPBL@Sign1?$AA@ 100449ec     Pos_PID_capi.obj
 0002:000029f4       ??_C@_05FJMNEMNI@Sign2?$AA@ 100449f4     Pos_PID_capi.obj
 0002:000029fc       ??_C@_04BKKAELJL@motX?$AA@ 100449fc     Pos_PID_capi.obj
 0002:00002a04       ??_C@_03IFGKDPPO@Sum?$AA@  10044a04     Pos_PID_capi.obj
 0002:00002a08       ??_C@_04JMNNLCJG@Sum1?$AA@ 10044a08     Pos_PID_capi.obj
 0002:00002a10       ??_C@_04LHPAOBFF@Sum2?$AA@ 10044a10     Pos_PID_capi.obj
 0002:00002a18       ??_C@_04KOOLNABE@Sum3?$AA@ 10044a18     Pos_PID_capi.obj
 0002:00002a20       ??_C@_04DLLHKNK@motY?$AA@  10044a20     Pos_PID_capi.obj
 0002:00002a28       ??_C@_04OBKKEGND@Sum4?$AA@ 10044a28     Pos_PID_capi.obj
 0002:00002a30       ??_C@_04PILBHHJC@Sum5?$AA@ 10044a30     Pos_PID_capi.obj
 0002:00002a38       ??_C@_04CIJGCJBJ@motZ?$AA@ 10044a38     Pos_PID_capi.obj
 0002:00002a40       ??_C@_0BP@LILILHGF@PID?5Controller?1Derivative?5Gain?$AA@ 10044a40     Pos_PID_capi.obj
 0002:00002a68       ??_C@_0CC@ONNHOEGJ@PID?5Controller?1Filter?5Coefficien@ 10044a68     Pos_PID_capi.obj
 0002:00002a90       ??_C@_0BN@FPDAFOPD@PID?5Controller?1Integral?5Gain?$AA@ 10044a90     Pos_PID_capi.obj
 0002:00002ab4       ??_C@_0CB@GMJOOHBE@PID?5Controller?1Proportional?5Gain@ 10044ab4     Pos_PID_capi.obj
 0002:00002adc       ??_C@_0BG@CIMLHIGA@PID?5Controller?1Filter?$AA@ 10044adc     Pos_PID_capi.obj
 0002:00002af8       ??_C@_0BK@CDEALJIB@PID?5Controller?1Integrator?$AA@ 10044af8     Pos_PID_capi.obj
 0002:00002b18       ??_C@_0BD@OOEBONAM@PID?5Controller?1Sum?$AA@ 10044b18     Pos_PID_capi.obj
 0002:00002b30       ??_C@_0BE@JNENIHMH@PID?5Controller?1SumD?$AA@ 10044b30     Pos_PID_capi.obj
 0002:00002b48       ??_C@_0CA@JCLCDECD@PID?5Controller1?1Derivative?5Gain?$AA@ 10044b48     Pos_PID_capi.obj
 0002:00002b70       ??_C@_0CD@GJLLDHKH@PID?5Controller1?1Filter?5Coefficie@ 10044b70     Pos_PID_capi.obj
 0002:00002b9c       ??_C@_0BO@EHDLGDKL@PID?5Controller1?1Integral?5Gain?$AA@ 10044b9c     Pos_PID_capi.obj
 0002:00002bc0       ??_C@_0CC@LOAMPHAH@PID?5Controller1?1Proportional?5Gai@ 10044bc0     Pos_PID_capi.obj
 0002:00002be8       ??_C@_0BH@DDFBBCKN@PID?5Controller1?1Filter?$AA@ 10044be8     Pos_PID_capi.obj
 0002:00002c04       ??_C@_0BL@ODOMGKNA@PID?5Controller1?1Integrator?$AA@ 10044c04     Pos_PID_capi.obj
 0002:00002c24       ??_C@_0BE@ELJJHECD@PID?5Controller1?1Sum?$AA@ 10044c24     Pos_PID_capi.obj
 0002:00002c3c       ??_C@_0BF@DGDJGCAH@PID?5Controller1?1SumD?$AA@ 10044c3c     Pos_PID_capi.obj
 0002:00002c58       ??_C@_0CA@HIDEOJEB@PID?5Controller2?1Derivative?5Gain?$AA@ 10044c58     Pos_PID_capi.obj
 0002:00002c80       ??_C@_0CD@BCKFLFEE@PID?5Controller2?1Filter?5Coefficie@ 10044c80     Pos_PID_capi.obj
 0002:00002cac       ??_C@_0BO@GOPDNHFJ@PID?5Controller2?1Integral?5Gain?$AA@ 10044cac     Pos_PID_capi.obj
 0002:00002cd0       ??_C@_0CC@BBKFLKMN@PID?5Controller2?1Proportional?5Gai@ 10044cd0     Pos_PID_capi.obj
 0002:00002cf8       ??_C@_0BH@KNMCOGI@PID?5Controller2?1Filter?$AA@ 10044cf8     Pos_PID_capi.obj
 0002:00002d14       ??_C@_0BL@FOCGAGBO@PID?5Controller2?1Integrator?$AA@ 10044d14     Pos_PID_capi.obj
 0002:00002d34       ??_C@_0BE@MNANAGIN@PID?5Controller2?1Sum?$AA@ 10044d34     Pos_PID_capi.obj
 0002:00002d4c       ??_C@_0BF@HNBHIJK@PID?5Controller2?1SumD?$AA@ 10044d4c     Pos_PID_capi.obj
 0002:00002d68       ??_C@_06HEPCHGOC@X?5Data?$AA@ 10044d68     Pos_PID_capi.obj
 0002:00002d70       ??_C@_0BK@JCDACHMF@X_Encoder?1CNT32?98M?$CIPCI?$CJ?52?$AA@ 10044d70     Pos_PID_capi.obj
 0002:00002d90       ??_C@_06JMEOMOEA@counts?$AA@ 10044d90     Pos_PID_capi.obj
 0002:00002d98       ??_C@_0P@BDAHEJMM@X_Encoder?1Sum3?$AA@ 10044d98     Pos_PID_capi.obj
 0002:00002dac       ??_C@_06NCIFHNFG@Y?5Data?$AA@ 10044dac     Pos_PID_capi.obj
 0002:00002db4       ??_C@_0BL@CJHJGDJG@Y_encoder?5?1CNT32?98M?$CIPCI?$CJ?51?$AA@ 10044db4     Pos_PID_capi.obj
 0002:00002dd4       ??_C@_0BA@CLBLCPNH@Y_encoder?5?1Sum2?$AA@ 10044dd4     Pos_PID_capi.obj
 0002:00002de8       ??_C@_06ODGNGHML@Z?5Data?$AA@ 10044de8     Pos_PID_capi.obj
 0002:00002df0       ??_C@_0BM@MEGLCMIG@Z_encoder?51?1CNT32?98M?$CIPCI?$CJ?51?$AA@ 10044df0     Pos_PID_capi.obj
 0002:00002e14       ??_C@_0BB@FBLLLFNN@Z_encoder?51?1Sum2?$AA@ 10044e14     Pos_PID_capi.obj
 0002:00002e28       ??_C@_0BC@HLOAMCHO@Data?5Store?5Memory?$AA@ 10044e28     Pos_PID_capi.obj
 0002:00002e40       ??_C@_0N@DKJJGJMJ@InitialValue?$AA@ 10044e40     Pos_PID_capi.obj
 0002:00002e50       ??_C@_0BD@HBJLLLEL@Data?5Store?5Memory1?$AA@ 10044e50     Pos_PID_capi.obj
 0002:00002e68       ??_C@_0BD@FKLGOIII@Data?5Store?5Memory2?$AA@ 10044e68     Pos_PID_capi.obj
 0002:00002e80       ??_C@_0P@DNAGJNE@PID?5Controller?$AA@ 10044e80     Pos_PID_capi.obj
 0002:00002e94       ??_C@_01NANMIPIL@N?$AA@    10044e94     Pos_PID_capi.obj
 0002:00002e98       ??_C@_0BA@EHOAMBBG@PID?5Controller1?$AA@ 10044e98     Pos_PID_capi.obj
 0002:00002eac       ??_C@_0BA@GMMNJCNF@PID?5Controller2?$AA@ 10044eac     Pos_PID_capi.obj
 0002:00002ec0       ??_C@_04OMOMKKFL@Gain?$AA@ 10044ec0     Pos_PID_capi.obj
 0002:00002ec8       ??_C@_02KKFPAPOP@P1?$AA@   10044ec8     Pos_PID_capi.obj
 0002:00002ecc       ??_C@_02IBHCFMCM@P2?$AA@   10044ecc     Pos_PID_capi.obj
 0002:00002ed0       ??_C@_02JIGJGNGN@P3?$AA@   10044ed0     Pos_PID_capi.obj
 0002:00002ed4       ??_C@_02NHCIPLKK@P4?$AA@   10044ed4     Pos_PID_capi.obj
 0002:00002ed8       ??_C@_02MODDMKOL@P5?$AA@   10044ed8     Pos_PID_capi.obj
 0002:00002edc       ??_C@_02OFBOJJCI@P6?$AA@   10044edc     Pos_PID_capi.obj
 0002:00002ee0       ??_C@_02PMAFKIGJ@P7?$AA@   10044ee0     Pos_PID_capi.obj
 0002:00002ee4       ??_C@_02HLJNLEKG@P8?$AA@   10044ee4     Pos_PID_capi.obj
 0002:00002ee8       ??_C@_02GCIGIFOH@P9?$AA@   10044ee8     Pos_PID_capi.obj
 0002:00002eec       ??_C@_03OPFJJGBF@P10?$AA@  10044eec     Pos_PID_capi.obj
 0002:00002ef0       ??_C@_0BB@CFEOEMDC@InitialCondition?$AA@ 10044ef0     Pos_PID_capi.obj
 0002:00002f04       ??_C@_0BL@CEODHDBK@X_Encoder?1encoder?5offsets2?$AA@ 10044f04     Pos_PID_capi.obj
 0002:00002f24       ??_C@_05LPIJGKJ@Value?$AA@ 10044f24     Pos_PID_capi.obj
 0002:00002f2c       ??_C@_03PGECKHFE@P11?$AA@  10044f2c     Pos_PID_capi.obj
 0002:00002f30       ??_C@_03NNGPPEJH@P12?$AA@  10044f30     Pos_PID_capi.obj
 0002:00002f34       ??_C@_03MEHEMFNG@P13?$AA@  10044f34     Pos_PID_capi.obj
 0002:00002f38       ??_C@_03ILDFFDBB@P14?$AA@  10044f38     Pos_PID_capi.obj
 0002:00002f3c       ??_C@_03JCCOGCFA@P15?$AA@  10044f3c     Pos_PID_capi.obj
 0002:00002f40       ??_C@_03LJADDBJD@P16?$AA@  10044f40     Pos_PID_capi.obj
 0002:00002f44       ??_C@_03KABIAANC@P17?$AA@  10044f44     Pos_PID_capi.obj
 0002:00002f48       ??_C@_03CHIABMBN@P18?$AA@  10044f48     Pos_PID_capi.obj
 0002:00002f4c       ??_C@_03DOJLCNFM@P19?$AA@  10044f4c     Pos_PID_capi.obj
 0002:00002f50       ??_C@_03ONBPCIEM@P20?$AA@  10044f50     Pos_PID_capi.obj
 0002:00002f54       ??_C@_03PEAEBJAN@P21?$AA@  10044f54     Pos_PID_capi.obj
 0002:00002f58       ??_C@_03NPCJEKMO@P22?$AA@  10044f58     Pos_PID_capi.obj
 0002:00002f5c       ??_C@_03MGDCHLIP@P23?$AA@  10044f5c     Pos_PID_capi.obj
 0002:00002f60       ??_C@_03IJHDONEI@P24?$AA@  10044f60     Pos_PID_capi.obj
 0002:00002f64       ??_C@_03JAGINMAJ@P25?$AA@  10044f64     Pos_PID_capi.obj
 0002:00002f68       ??_C@_03LLEFIPMK@P26?$AA@  10044f68     Pos_PID_capi.obj
 0002:00002f6c       ??_C@_03KCFOLOIL@P27?$AA@  10044f6c     Pos_PID_capi.obj
 0002:00002f70       ??_C@_03CFMGKCEE@P28?$AA@  10044f70     Pos_PID_capi.obj
 0002:00002f74       ??_C@_03DMNNJDAF@P29?$AA@  10044f74     Pos_PID_capi.obj
 0002:00002f78       ??_C@_03OMNNECHL@P30?$AA@  10044f78     Pos_PID_capi.obj
 0002:00002f7c       ??_C@_03PFMGHDDK@P31?$AA@  10044f7c     Pos_PID_capi.obj
 0002:00002f80       ??_C@_03NOOLCAPJ@P32?$AA@  10044f80     Pos_PID_capi.obj
 0002:00002f84       ??_C@_03MHPABBLI@P33?$AA@  10044f84     Pos_PID_capi.obj
 0002:00002f88       ??_C@_03IILBIHHP@P34?$AA@  10044f88     Pos_PID_capi.obj
 0002:00002f8c       ??_C@_03JBKKLGDO@P35?$AA@  10044f8c     Pos_PID_capi.obj
 0002:00002f90       ??_C@_0BM@PPFBNHIK@Y_encoder?5?1encoder?5offsets1?$AA@ 10044f90     Pos_PID_capi.obj
 0002:00002fb4       ??_C@_0BN@OCALNFKB@Z_encoder?51?1encoder?5offsets1?$AA@ 10044fb4     Pos_PID_capi.obj
 0002:00002fd8       ??_C@_04LGOAIKKC@jogX?$AA@ 10044fd8     Pos_PID_capi.obj
 0002:00002fe0       ??_C@_04KPPLLLOD@jogY?$AA@ 10044fe0     Pos_PID_capi.obj
 0002:00002fe8       ??_C@_04IENGOICA@jogZ?$AA@ 10044fe8     Pos_PID_capi.obj
 0002:00002ff0       ??_C@_03JKKEMAOD@kdx?$AA@  10044ff0     Pos_PID_capi.obj
 0002:00002ff4       ??_C@_03IDLPPBKC@kdy?$AA@  10044ff4     Pos_PID_capi.obj
 0002:00002ff8       ??_C@_03KIJCKCGB@kdz?$AA@  10044ff8     Pos_PID_capi.obj
 0002:00002ffc       ??_C@_03JCHMFDLA@kix?$AA@  10044ffc     Pos_PID_capi.obj
 0002:00003000       ??_C@_03ILGHGCPB@kiy?$AA@  10045000     Pos_PID_capi.obj
 0002:00003004       ??_C@_03KAEKDBDC@kiz?$AA@  10045004     Pos_PID_capi.obj
 0002:00003008       ??_C@_03IBILMLEP@kpx?$AA@  10045008     Pos_PID_capi.obj
 0002:0000300c       ??_C@_03JIJAPKAO@kpy?$AA@  1004500c     Pos_PID_capi.obj
 0002:00003010       ??_C@_03LDLNKJMN@kpz?$AA@  10045010     Pos_PID_capi.obj
 0002:00003014       ??_C@_06BNJCAIGJ@double?$AA@ 10045014     Pos_PID_capi.obj
 0002:0000301c       ??_C@_06CNMIJIPB@real_T?$AA@ 1004501c     Pos_PID_capi.obj
 0002:00003024       ??_C@_0O@PPAIJIHF@unsigned?5char?$AA@ 10045024     Pos_PID_capi.obj
 0002:00003034       ??_C@_09JBMFCIMO@boolean_T?$AA@ 10045034     Pos_PID_capi.obj
 0002:00003040       ??_C@_05KNFBNCOH@float?$AA@ 10045040     Pos_PID_capi.obj
 0002:00003048       ??_C@_0CJ@GGPBKPNK@Could?5not?5start?5ToAsyncQueue?5app@ 10045048     Pos_PID_tgtconn.obj
 0002:000038e0       ??_C@_0DJ@FHKINPLE@Unexpected?5itemKind?5?$DN?5DATA_ITEM?5@ 100458e0     rt_logging.obj
 0002:00003924       ??_C@_0DA@IEHFPFCJ@Unexpected?5itemKind?$DN?$CFd?5in?5rt_Pro@ 10045924     rt_logging.obj
 0002:00003960       ??_C@_0DA@IFLHJPBO@Unexpected?5itemKind?$DN?$CFd?5in?5rt_Pro@ 10045960     rt_logging.obj
 0002:0000399c       ??_C@_0DA@IAPIIJJL@Unexpected?5itemKind?$DN?$CFd?5in?5rt_Pro@ 1004599c     rt_logging.obj
 0002:000039d8       ??_C@_0BE@LCIGPJIG@MATLAB?55?40?5MAT?9file?$AA@ 100459d8     rt_logging.obj
 0002:000039f0       ??_C@_0FB@PCJEAJIB@?$CK?$CK?$CK?5Log?5variable?5?$CFs?5has?5wrapped?5@ 100459f0     rt_logging.obj
 0002:00003a58       ??_C@_0MG@NKMLMOGF@?$CK?$CK?$CK?5To?5avoid?5wrapping?0?5explicitl@ 10045a58     rt_logging.obj
 0002:00003b48       ??_C@_0N@IPAEOLLP@_rtw_tmw?4tmw?$AA@ 10045b48     rt_logging.obj
 0002:00003b58       ??_C@_04HDOCAJNK@?$CFs?$CFs?$AA@ 10045b58     rt_logging.obj
 0002:00003b60       ??_C@_03ELIABIOC@w?$CLb?$AA@ 10045b60     rt_logging.obj
 0002:00003b64       ??_C@_0BF@JPILDDFA@?$CK?$CK?$CK?5Error?5opening?5?$CFs?$AA@ 10045b64     rt_logging.obj
 0002:00003b80       ??_C@_0BK@EEMDELA@unable?5to?5open?5data?5file?6?$AA@ 10045b80     rt_logging.obj
 0002:00003ba0       ??_C@_04CGFJFPFD@none?$AA@ 10045ba0     rt_logging.obj
 0002:00003ba8       ??_C@_0EE@LCGFPNON@?$CK?$CK?$CK?5Error?5creating?5signals?5struc@ 10045ba8     rt_logging.obj
 0002:00003bfc       ??_C@_0CE@NHECEDMK@?$CK?$CK?$CK?5Error?5creating?5log?5variable?5@ 10045bfc     rt_logging.obj
 0002:00003c28       ??_C@_0DB@IOCGKAGH@?$CK?$CK?$CK?5Errors?5occurred?5when?5startin@ 10045c28     rt_logging.obj
 0002:00003c64       ??_C@_0BO@BBLOGEBK@?$CK?$CK?$CK?5Memory?5allocation?5error?4?6?$AA@ 10045c64     rt_logging.obj
 0002:00003c88       ??_C@_0N@LGFBAGEL@?5?$CIreal?5part?$CJ?$AA@ 10045c88     rt_logging.obj
 0002:00003c98       ??_C@_0KH@CGNMHNFE@?5?5?5?5varName?5?5?5?5?5?5?5?5?5?5?$DN?5?$CFs?$CFs?6?5?5?5?5@ 10045c98     rt_logging.obj
 0002:00003d60       ??_C@_0LE@OALKKEFM@?5?5?5?5varName?5?5?5?5?5?5?5?5?5?5?$DN?5?$CFs?5?$CIcompl@ 10045d60     rt_logging.obj
 0002:00003e38       ??_C@_0KF@JDDLEOKO@?5?5?5?5varName?5?5?5?5?5?5?5?5?5?5?$DN?5?$CFs?6?5?5?5?5nR@ 10045e38     rt_logging.obj
 0002:00003f00       ??_C@_0DP@HPDMIOFM@?$CK?$CK?$CK?5Using?5a?5default?5buffer?5of?5si@ 10045f00     rt_logging.obj
 0002:00003f50       ??_C@_0KE@JEFOLKNF@?6?$CK?$CK?$CK?5Memory?5required?5to?5log?5vari@ 10045f50     rt_logging.obj
 0002:00004018       ??_C@_0JP@DKLMHCBI@?$CK?$CK?$CK?5Details?3?6?5?5?5?5?5?5?5varName?5?5?5?5?5@ 10046018     rt_logging.obj
 0002:000040d8       ??_C@_0CM@CAMILBED@?$CK?$CK?$CK?5Error?5allocating?5memory?5for?5@ 100460d8     rt_logging.obj
 0002:0000410c       ??_C@_0DF@BBCNMOPM@?$CK?$CK?$CK?5Error?5allocating?5memory?5for?5@ 1004610c     rt_logging.obj
 0002:00004150       ??_C@_0JP@DBCLPCCI@?$CK?$CK?$CK?5Details?3?6?5?5?5?5?5?5?5varName?5?5?5?5?5@ 10046150     rt_logging.obj
 0002:00004210       ??_C@_0FK@DPGAOBGA@?$CK?$CK?$CK?5Error?5allocating?5memory?5for?5@ 10046210     rt_logging.obj
 0002:0000427c       ??_C@_0BI@GGDNPHLJ@?$CK?$CK?$CK?5Error?5writing?5to?5?$CFs?$AA@ 1004627c     rt_logging.obj
 0002:00004298       ??_C@_0CB@IBGJGELG@?$CK?$CK?$CK?5Error?5writing?5?$CFs?5due?5to?3?5?$CFs?6@ 10046298     rt_logging.obj
 0002:000042c0       ??_C@_0CN@FLMCHCPB@?$CK?$CK?$CK?5Error?5writing?5log?5variable?5?$CF@ 100462c0     rt_logging.obj
 0002:000042f8       ??_C@_0DH@GAJCNOJP@?$CK?$CK?$CK?5Error?5writing?5structure?5log?5@ 100462f8     rt_logging.obj
 0002:0000433c       ??_C@_0BD@POEALECL@?$CK?$CK?5created?5?$CFs?5?$CK?$CK?6?6?$AA@ 1004633c     rt_logging.obj
 0002:00004358       __real@0000000000000000    10046358     rt_logging.obj
 0002:00004368       __real@4020000000000000    10046368     rt_logging.obj
 0002:00004378       __real@41dfffffffc00000    10046378     rt_logging.obj
 0002:00004388       __real@41efffffffe00000    10046388     rt_logging.obj
 0002:00004398       __real@4330000000000000    10046398     rt_logging.obj
 0002:000043a8       __real@8000000000000000    100463a8     rt_logging.obj
 0002:000043b8       __real@bfbf9add3afd2773    100463b8     rt_logging.obj
 0002:000043c8       __real@c000000000000000    100463c8     rt_logging.obj
 0002:000043e0       __xmm@20202020202020202020202020202020 100463e0     rt_logging.obj
 0002:00004410       __real@3cb0000000000000    10046410     rt_matrx.obj
 0002:0000441c       ??_C@_0BI@INNPNFJN@Memory?5Allocation?5Error?$AA@ 1004641c     rtw_modelmap_utils.obj
 0002:00004438       ??_C@_1HC@OAPLBLFC@?$AAC?$AA?3?$AA?2?$AAP?$AAR?$AAO?$AAG?$AAR?$AAA?$AA?$HO?$AA1?$AA?2?$AAM?$AAA?$AAT?$AAL?$AAA?$AAB?$AA?2?$AAR?$AA2?$AA0?$AA1?$AA6?$AAa?$AA?2?$AAr?$AAt?$AAw?$AA?2?$AAc?$AA?2@ 10046438     rtw_modelmap_utils.obj
 0002:000044c0       ??_C@_1CI@OEAJCJND@?$AAj?$AA?5?$AA?$DN?$AA?$DN?$AA?5?$AAe?$AAn?$AAc?$AAo?$AAd?$AAe?$AAd?$AAP?$AAa?$AAt?$AAh?$AAL?$AAe?$AAn?$AA?$AA@ 100464c0     rtw_modelmap_utils.obj
 0002:000044f0       ??_C@_1DC@NFAOIFKB@?$AAe?$AAn?$AAc?$AAo?$AAd?$AAe?$AAd?$AAP?$AAa?$AAt?$AAh?$AA?$FL?$AAj?$AA?9?$AA1?$AA?$FN?$AA?5?$AA?$DN?$AA?$DN?$AA?5?$AA?8?$AA?2?$AA0?$AA?8?$AA?$AA@ 100464f0     rtw_modelmap_utils.obj
 0002:0000452c       ??_C@_1DI@FLNJGPEE@?$AAs?$AAi?$AAg?$AAC?$AAo?$AAm?$AAp?$AAl?$AAe?$AAx?$AAi?$AAt?$AAy?$AA?$FL?$AA?$CK?$AAs?$AAi?$AAg?$AAI?$AAd?$AAx?$AA?$FN?$AA?5?$AA?$CB?$AA?$DN?$AA?5?$AA1?$AA?$AA@ 1004652c     rtw_modelmap_utils.obj
 0002:00004570       ??_C@_1KI@OFELMGBG@?$AA?$CI?$AA?$CI?$AA?$CI?$AAd?$AAa?$AAt?$AAa?$AAT?$AAy?$AAp?$AAe?$AAM?$AAa?$AAp?$AA?$CJ?$AA?$FL?$AA?$CI?$AA?$CI?$AA?$CI?$AAs?$AAt?$AAa?$AAt?$AAe?$AAs?$AA?$CJ?$AA?$FL?$AA?$CI?$AAi?$AA?$CJ?$AA?$FN?$AA?4@ 10046570     rtw_modelmap_utils.obj
 0002:0000463c       ??_C@_1DA@ILCMPHNE@?$AAf?$AAu?$AAl?$AAl?$AAP?$AAa?$AAt?$AAh?$AA?5?$AA?$CB?$AA?$DN?$AA?5?$AA?$CI?$AA?$CI?$AAv?$AAo?$AAi?$AAd?$AA?5?$AA?$CK?$AA?$CJ?$AA0?$AA?$CJ?$AA?$AA@ 1004663c     rtw_modelmap_utils.obj
 0002:00004678       ??_C@_1CI@OEPPFCCA@?$AAp?$AAa?$AAt?$AAh?$AA?5?$AA?$CB?$AA?$DN?$AA?5?$AA?$CI?$AA?$CI?$AAv?$AAo?$AAi?$AAd?$AA?5?$AA?$CK?$AA?$CJ?$AA0?$AA?$CJ?$AA?$AA@ 10046678     rtw_modelmap_utils.obj
 0002:000046a8       ??_C@_1FK@GLJIMFHB@?$AA?$CI?$AA?$CI?$AAm?$AAm?$AAi?$AA?$CJ?$AA?9?$AA?$DO?$AAI?$AAn?$AAs?$AAt?$AAa?$AAn?$AAc?$AAe?$AAM?$AAa?$AAp?$AA?4?$AAf?$AAu?$AAl?$AAl?$AAP?$AAa?$AAt?$AAh?$AA?$CJ?$AA?5?$AA?$DN?$AA?$DN@ 100466a8     rtw_modelmap_utils.obj
 0002:00004714       ??_C@_1DG@HPCJGNCE@?$AAm?$AAm?$AAi?$AAP?$AAa?$AAt?$AAh?$AA?$FL?$AAp?$AAa?$AAt?$AAh?$AAL?$AAe?$AAn?$AA?9?$AA1?$AA?$FN?$AA?5?$AA?$DN?$AA?$DN?$AA?5?$AA?8?$AA?2?$AA0?$AA?8?$AA?$AA@ 10046714     rtw_modelmap_utils.obj
 0002:00004754       ??_C@_1DM@DBAOGGOO@?$AAm?$AAm?$AAi?$AAP?$AAa?$AAt?$AAh?$AA?$FL?$AAm?$AAm?$AAi?$AAP?$AAa?$AAt?$AAh?$AAL?$AAe?$AAn?$AA?9?$AA1?$AA?$FN?$AA?5?$AA?$DN?$AA?$DN?$AA?5?$AA?8?$AA?2?$AA0?$AA?8?$AA?$AA@ 10046754     rtw_modelmap_utils.obj
 0002:0000479c       ??_C@_1DC@LHIAKAFE@?$AAb?$AAl?$AAo?$AAc?$AAk?$AAP?$AAa?$AAt?$AAh?$AA?5?$AA?$CB?$AA?$DN?$AA?5?$AA?$CI?$AA?$CI?$AAv?$AAo?$AAi?$AAd?$AA?5?$AA?$CK?$AA?$CJ?$AA0?$AA?$CJ?$AA?$AA@ 1004679c     rtw_modelmap_utils.obj
 0002:000047d8       ??_C@_1GI@KIEJKPGC@?$AAf?$AAu?$AAl?$AAl?$AAS?$AAt?$AAa?$AAt?$AAe?$AAB?$AAl?$AAo?$AAc?$AAk?$AAP?$AAa?$AAt?$AAh?$AA?$FL?$AAf?$AAu?$AAl?$AAl?$AAS?$AAt?$AAa?$AAt?$AAe?$AAB?$AAl?$AAo?$AAc@ 100467d8     rtw_modelmap_utils.obj
 0002:00004858       ??_C@_1EE@DNPIBJHC@?$AA?$CI?$AA?$CI?$AAd?$AAi?$AAm?$AAM?$AAa?$AAp?$AA?$CJ?$AA?$FL?$AA?$CI?$AAm?$AAa?$AAp?$AAI?$AAd?$AAx?$AA?$CJ?$AA?$FN?$AA?4?$AAn?$AAu?$AAm?$AAD?$AAi?$AAm?$AAs?$AA?$CJ?$AA?5?$AA?$DN?$AA?$DN?$AA?5@ 10046858     rtw_modelmap_utils.obj
 0002:000048ac       ??_C@_06JFOKFOED@CSTATE?$AA@ 100468ac     rtw_modelmap_utils.obj
 0002:000048b4       ??_C@_06FAENGAMN@DSTATE?$AA@ 100468b4     rtw_modelmap_utils.obj
 0002:000048bc       ??_C@_1BI@LEBJNOGG@?$AAc?$AAs?$AAv?$AAI?$AAd?$AAx?$AA?5?$AA?$DO?$AA?$DN?$AA?5?$AA0?$AA?$AA@ 100468bc     rtw_modelmap_utils.obj
 0002:000048d8       ??_C@_1BA@KDMGHCHP@?$AAT?$AAI?$AAD?$AA?$DN?$AA?$DN?$AA?9?$AA1?$AA?$AA@ 100468d8     rtw_modelmap_utils.obj
 0002:000048ec       ??_C@_1DM@DHGKBPCE@?$AAs?$AAi?$AAg?$AAP?$AAa?$AAt?$AAh?$AA?$FL?$AAs?$AAi?$AAg?$AAP?$AAa?$AAt?$AAh?$AAL?$AAe?$AAn?$AA?9?$AA1?$AA?$FN?$AA?5?$AA?$DN?$AA?$DN?$AA?5?$AA?8?$AA?2?$AA0?$AA?8?$AA?$AA@ 100468ec     rtw_modelmap_utils.obj
 0002:00004934       _serialfifoground          10046934     xpc_datatype_ground.obj
 0002:00004940       _bcmsg1553ground           10046940     xpc_datatype_ground.obj
 0002:00004950       _bcstatground              10046950     xpc_datatype_ground.obj
 0002:00004968       _bmmsg1553ground           10046968     xpc_datatype_ground.obj
 0002:00004988       _ptsetfilename             10046988     xpctarget.obj
 0002:0000498c       _xmlfile                   1004698c     xpctarget.obj
 0002:00004994       ??_C@_07KFKDPLMF@Pos_PID?$AA@ 10046994     xpctarget.obj
 0002:000049a0       ??_C@_0L@CHBJKKFC@xpceSetVar?$AA@ 100469a0     xpctarget.obj
 0002:000049b0       ??_C@_03ICACBPID@6?44?$AA@ 100469b0     xpctarget.obj
 0002:000049b8       __real@3fb999999999999a    100469b8     xpctarget.obj
 0002:000049c8       __real@4059000000000000    100469c8     xpctarget.obj
 0002:000049d8       _Pos_PID_BIOMAP            100469d8     appmappingData.obj
 0002:00004c70       _Pos_PID_LBLMAP            10046c70     appmappingData.obj
 0002:00004f08       _Pos_PID_SIDMAP            10046f08     appmappingData.obj
 0002:000051a0       _Pos_PID_SBIO              100471a0     appmappingData.obj
 0002:00005280       _Pos_PID_SLBL              10047280     appmappingData.obj
 0002:00005360       _Pos_PID_PTIDSMAP          10047360     appmappingData.obj
 0002:00005920       _Pos_PID_PTNAMESMAP        10047920     appmappingData.obj
 0002:00005ee0       _Pos_PID_SPTMAP            10047ee0     appmappingData.obj
 0002:000061c0       _Pos_PID_dtmap             100481c0     appmappingData.obj
 0002:000061d8       _appInfo                   100481d8     appmappingData.obj
 0002:00006700       ??_C@_0BE@CKBAIFD@encconteccnt328mpci?$AA@ 10048700     encconteccnt328mpci.obj
 0002:00006718       ??_C@_0CG@PDPCNMMO@?$CFs?3?5?$CFd?5input?5args?5expected?0?5?$CFd?5p@ 10048718     encconteccnt328mpci.obj
 0002:00006748       ??_C@_07GNCCFEIM@?$CFs?$CI?$CFd?$CJ?6?$AA@ 10048748     encconteccnt328mpci.obj
 0002:00006754       ??_C@_0CE@CLLJOMGM@?$CFs?$CI?$CFd?$CJ?5Sample?5Time?5?$CFf?5?$CIChannel?5?$CF@ 10048754     encconteccnt328mpci.obj
 0002:00006780       ??_C@_0CK@NDIIACOD@?$CFs?$CI?$CFd?$CJ?5PCI?5Bus?5?$CFd?5?5?5Slot?5?$CFd?5?5?5Ch@ 10048780     encconteccnt328mpci.obj
 0002:000067b4       ??_C@_0CO@OADOCJBA@?$CFs?3?5CNT32?98M?$CIPCI?$CJ?5not?5found?5at?5b@ 100487b4     encconteccnt328mpci.obj
 0002:000067ec       ??_C@_0CB@GGINOLOG@?5?5?5Initial?5Value?3?50x?$CFx?5Load?3?5?$CFd?6@ 100487ec     encconteccnt328mpci.obj
 0002:00006814       ??_C@_0BL@JCCHIDDO@?5?5?5Start?5Method?3?5?$CFd?5?$CI0x?$CFx?$CJ?$AA@ 10048814     encconteccnt328mpci.obj
 0002:00006834       ??_C@_0BL@ONAHILHM@?5?5?5Stop?5Method?3?5?$CFd?5?$CI0x?$CFx?$CJ?6?$AA@ 10048834     encconteccnt328mpci.obj
 0002:00006854       ??_C@_0BO@DJDJGILF@?5?5?5Input?5Signal?3?50x?$CFx?5?$CI0x?$CFx?$CJ?6?$AA@ 10048854     encconteccnt328mpci.obj
 0002:00006878       ??_C@_0GI@GFJKDDOK@?5?5?5Input?5Signal?5Overloaded?5?$CIStar@ 10048878     encconteccnt328mpci.obj
 0002:000068f4       ??_C@_0DK@GPOKCJIM@?5?5?5Rise?1Fall?1Match?50?1Match?51?5?5?5P@ 100488f4     encconteccnt328mpci.obj
 0002:0000693c       ??_C@_0CD@KKOOHPOD@?5?5?5Zero?9Clear?3?5?$CFd?1?$CFd?1?$CFd?1?$CFd?5?$CI0x?$CFx@ 1004893c     encconteccnt328mpci.obj
 0002:00006968       ??_C@_0DC@FPLMBIJB@?5?5?5Match?50?5Overloaded?5?$CIPreset?1Ze@ 10048968     encconteccnt328mpci.obj
 0002:000069a4       ??_C@_0DC@LHKLIIDA@?5?5?5Match?51?5Overloaded?5?$CIPreset?1Ze@ 100489a4     encconteccnt328mpci.obj
 0002:000069e0       ??_C@_0BO@EIIFPMDO@?5?5?5Digital?5Filter?3?5?$CFd?5?$CI0x?$CFx?$CJ?6?$AA@ 100489e0     encconteccnt328mpci.obj
 0002:00006a04       ??_C@_0BL@OJPKOPMK@?5?5?5Index?5Logic?3?5?$CFd?5?$CI0x?$CFx?$CJ?6?$AA@ 10048a04     encconteccnt328mpci.obj
 0002:00006a24       ??_C@_0BL@JKPAGFND@?5?5?5Pulse?5Input?3?5?$CFd?5?$CI0x?$CFx?$CJ?6?$AA@ 10048a24     encconteccnt328mpci.obj
 0002:00006a44       ??_C@_0BJ@GNILLNEI@?5?5?5Direction?3?5?$CFd?5?$CI0x?$CFx?$CJ?6?$AA@ 10048a44     encconteccnt328mpci.obj
 0002:00006a64       ??_C@_0BO@DKFKJOII@?5?5?5Operation?5Mode?3?5?$CFd?5?$CI0x?$CFx?$CJ?6?$AA@ 10048a64     encconteccnt328mpci.obj
 0002:00006a88       ??_C@_0BH@DBDDMMGO@?5?5?5COUNTER?5MODE?3?50x?$CFx?6?$AA@ 10048a88     encconteccnt328mpci.obj
 0002:00006aa4       ??_C@_0BG@PGOHHDMJ@?5?5?5Preset?5Value?3?50x?$CFx?$AA@ 10048aa4     encconteccnt328mpci.obj
 0002:00006ac0       ??_C@_0BH@OBCHHCLB@?5?5?5Match?50?5Value?3?50x?$CFx?$AA@ 10048ac0     encconteccnt328mpci.obj
 0002:00006adc       ??_C@_0BI@PPJDJHAK@?5?5?5Match?51?5Value?3?50x?$CFx?6?$AA@ 10048adc     encconteccnt328mpci.obj
 0002:00006af8       ??_C@_0CB@BHICGGII@?5?5?5One?5Shot?5Duration?3?5?$CFd?5?$CI0x?$CFx?$CJ?6@ 10048af8     encconteccnt328mpci.obj
 0002:00006b20       ??_C@_0FK@MHKNLCPD@?5?5?5Output?5Signal?5?$CIMatch?50?11?5Abno@ 10048b20     encconteccnt328mpci.obj
 0002:00006b8c       ??_C@_0BB@JCAIALPL@?5?5?5OUTPUT?3?50x?$CFx?6?$AA@ 10048b8c     encconteccnt328mpci.obj
 0002:00006ba0       ??_C@_0BM@KEHJNHBI@?5?5?5Index?5Enable?3?5?$CFd?5?$CI0x?$CFx?$CJ?6?$AA@ 10048ba0     encconteccnt328mpci.obj
 0002:00006bc4       ??_C@_0BC@PJJJOOAA@?5?5?5Z?9PULSE?3?50x?$CFx?6?$AA@ 10048bc4     encconteccnt328mpci.obj
 0002:00006bdc       ??_C@_0CH@LIFPIGPB@?5?5?5Enable?5Digital?5Input?3?5?$CFd?5Outp@ 10048bdc     encconteccnt328mpci.obj
 0002:00006c0c       ??_C@_0DF@HCJHNGFD@?5?5?5Digital?5Output?5Initial?5Value?3@ 10048c0c     encconteccnt328mpci.obj
 0002:00006c4c       ??_C@_0CP@CNANCOON@?5?5?5External?5Output?5Signal?5Overlo@ 10048c4c     encconteccnt328mpci.obj
 0002:00006c88       ??_C@_0ED@LKHIFFLC@Wrong?5number?5of?5input?5arguments?5@ 10048c88     dipci8255.obj
 0002:00006cd8       ??_C@_0BC@JCHLEIED@MC?5PCI?9DAS1602?116?$AA@ 10048cd8     dipci8255.obj
 0002:00006cf0       ??_C@_0P@KEALKDG@MC?5PCI?9DAS1200?$AA@ 10048cf0     dipci8255.obj
 0002:00006d04       ??_C@_0BC@EFMBBGCC@MC?5PCI?9DAS1200?1JR?$AA@ 10048d04     dipci8255.obj
 0002:00006d1c       ??_C@_0O@PCCBFPNG@MC?5PCI?9DIO48H?$AA@ 10048d1c     dipci8255.obj
 0002:00006d2c       ??_C@_0BA@FIIFPMIK@MC?5PCI?9DDA02?112?$AA@ 10048d2c     dipci8255.obj
 0002:00006d40       ??_C@_0BA@NHMFAJCK@MC?5PCI?9DDA04?112?$AA@ 10048d40     dipci8255.obj
 0002:00006d54       ??_C@_0BA@BCDFOECL@MC?5PCI?9DDA08?112?$AA@ 10048d54     dipci8255.obj
 0002:00006d68       ??_C@_0O@NOFAPJGO@MC?5PCI?9DIO24H?$AA@ 10048d68     dipci8255.obj
 0002:00006d78       ??_C@_0O@KNFKKAB@MC?5PCI?9DIO96H?$AA@ 10048d78     dipci8255.obj
 0002:00006d88       ??_C@_0N@JDGAGCEP@MC?5PCI?9DIO24?$AA@ 10048d88     dipci8255.obj
 0002:00006d98       ??_C@_0BC@PGBHINEH@MC?5PCI?9DAS1602?112?$AA@ 10048d98     dipci8255.obj
 0002:00006db0       ??_C@_0M@DJFFBOOL@NI?5PCI?96503?$AA@ 10048db0     dipci8255.obj
 0002:00006dc0       ??_C@_0O@CJHADKHB@NI?5PCI?9DIO?996?$AA@ 10048dc0     dipci8255.obj
 0002:00006dd0       ??_C@_0M@PLHAOKFN@NI?5PXI?96508?$AA@ 10048dd0     dipci8255.obj
 0002:00006de0       ??_C@_0N@NMILOOOH@NI?5PCI?96025E?$AA@ 10048de0     dipci8255.obj
 0002:00006df0       ??_C@_0BA@LFAJKKBP@MC?5PCI?9DUAL?9AC5?$AA@ 10048df0     dipci8255.obj
 0002:00006e04       ??_C@_0BA@DMOJDJIO@MC?5PCI?9DDA02?116?$AA@ 10048e04     dipci8255.obj
 0002:00006e18       ??_C@_0BA@LDKJMMCO@MC?5PCI?9DDA04?116?$AA@ 10048e18     dipci8255.obj
 0002:00006e2c       ??_C@_0BA@HGFJCBCP@MC?5PCI?9DDA08?116?$AA@ 10048e2c     dipci8255.obj
 0002:00006e40       ??_C@_0BB@GJEINIMD@MC?5PCIM?9DDA06?116?$AA@ 10048e40     dipci8255.obj
 0002:00006e54       ??_C@_0BD@PEOONKFH@MC?5PCIM?9DAS1602?116?$AA@ 10048e54     dipci8255.obj
 0002:00006e6c       ??_C@_0N@KNADOPCM@MC?5PCI?9DIO96?$AA@ 10048e6c     dipci8255.obj
 0002:00006e7c       ??_C@_0P@LJFCEDPM@MC?5PCI?9DAS1001?$AA@ 10048e7c     dipci8255.obj
 0002:00006e90       ??_C@_0P@JCHPBADP@MC?5PCI?9DAS1002?$AA@ 10048e90     dipci8255.obj
 0002:00006ea4       ??_C@_0BI@IHCNPKCM@No?5?$CFs?5at?5bus?5?$CFd?5slot?5?$CFd?$AA@ 10048ea4     dipci8255.obj
 0002:00006ec0       ??_C@_0BC@MPAJBIJ@CB?5PCI?9DAS1602?116?$AA@ 10048ec0     dopci8255.obj
 0002:00006ed8       ??_C@_0P@HKDMEDDF@CB?5PCI?9DAS1200?$AA@ 10048ed8     dopci8255.obj
 0002:00006eec       ??_C@_0BC@NLEKMPOI@CB?5PCI?9DAS1200?1JR?$AA@ 10048eec     dopci8255.obj
 0002:00006f04       ??_C@_0O@OECMNDND@CB?5PCI?9DIO48H?$AA@ 10048f04     dopci8255.obj
 0002:00006f14       ??_C@_0BA@MBPMNBMJ@CB?5PCI?9DDA02?112?$AA@ 10048f14     dopci8255.obj
 0002:00006f28       ??_C@_0BA@EOLMCEGJ@CB?5PCI?9DDA04?112?$AA@ 10048f28     dopci8255.obj
 0002:00006f3c       ??_C@_0BA@ILEMMJGI@CB?5PCI?9DDA08?112?$AA@ 10048f3c     dopci8255.obj
 0002:00006f50       ??_C@_0O@MIFNHFGL@CB?5PCI?9DIO24H?$AA@ 10048f50     dopci8255.obj
 0002:00006f60       ??_C@_0O@BMNICGAE@CB?5PCI?9DIO96H?$AA@ 10048f60     dopci8255.obj
 0002:00006f70       ??_C@_0N@PCCDCCJA@CB?5PCI?9DIO24?$AA@ 10048f70     dopci8255.obj
 0002:00006f80       ??_C@_0BC@GIJMFEIN@CB?5PCI?9DAS1602?112?$AA@ 10048f80     dopci8255.obj
 0002:00006f98       ??_C@_0BA@CMHAIHFM@CB?5PCI?9DUAL?9AC5?$AA@ 10048f98     dopci8255.obj
 0002:00006fac       ??_C@_0BA@KFJABEMN@CB?5PCI?9DDA02?116?$AA@ 10048fac     dopci8255.obj
 0002:00006fc0       ??_C@_0BA@CKNAOBGN@CB?5PCI?9DDA04?116?$AA@ 10048fc0     dopci8255.obj
 0002:00006fd4       ??_C@_0BA@OPCAAMGM@CB?5PCI?9DDA08?116?$AA@ 10048fd4     dopci8255.obj
 0002:00006fe8       ??_C@_0BB@IGAELBME@CB?5PCIM?9DDA06?116?$AA@ 10048fe8     dopci8255.obj
 0002:00006ffc       ??_C@_0BD@IPMBHKCA@CB?5PCIM?9DAS1602?116?$AA@ 10048ffc     dopci8255.obj
 0002:00007014       ??_C@_0N@MMEAKPPD@CB?5PCI?9DIO96?$AA@ 10049014     dopci8255.obj
 0002:00007024       ??_C@_0BE@MDOBOAKD@CB?5?$CIMC?$CJ?5PCI?9DAS1001?$AA@ 10049024     dopci8255.obj
 0002:0000703c       ??_C@_0BE@OIMMLDGA@CB?5?$CIMC?$CJ?5PCI?9DAS1002?$AA@ 1004903c     dopci8255.obj
 0002:00007054       ??_C@_0CJ@MHHCOHM@Board?5base?5address?5came?5up?50?0?5ca@ 10049054     dopci8255.obj
 0002:00007088       ??_C@_0BG@EPCOHGPO@?$CFs?3?5board?5not?5present?$AA@ 10049088     dacbpcidda0x12.obj
 0002:000070a4       ??_C@_0CI@NFFNBHJA@?$CFs?5?$CIbus?5?$CFd?0?5slot?5?$CFd?$CJ?3?5board?5not?5@ 100490a4     dacbpcidda0x12.obj
 0002:000070d8       __real@3ee4f8b588e368f1    100490d8     dacbpcidda0x12.obj
 0002:000070e8       __real@4004000000000000    100490e8     dacbpcidda0x12.obj
 0002:000070f8       __real@4014000000000000    100490f8     dacbpcidda0x12.obj
 0002:00007108       __real@4024000000000000    10049108     dacbpcidda0x12.obj
 0002:00007118       __real@4034000000000000    10049118     dacbpcidda0x12.obj
 0002:00007128       __real@40b0000000000000    10049128     dacbpcidda0x12.obj
 0002:00007138       __real@40f0000000000000    10049138     dacbpcidda0x12.obj
 0002:00007144       ??_C@_0CC@DMFKNLL@VendorId?5?$DN?50x?$CFx?0?5DeviceId?5?$DN?50x?$CFx@ 10049144     xpcruntime:xpcimports.obj
 0002:00007168       ??_C@_0DH@OHCBLNMG@Subsystem?5Device?5ID?5?$DN?50x?$CFx?6Subsy@ 10049168     xpcruntime:xpcimports.obj
 0002:000071a0       ??_C@_0BD@MMMMEFCM@Class?5Code?5?$DN?50x?$CFx?6?$AA@ 100491a0     xpcruntime:xpcimports.obj
 0002:000071b4       ??_C@_0BE@OLDDDNHM@InterruptLine?5?$DN?5?$CFd?6?$AA@ 100491b4     xpcruntime:xpcimports.obj
 0002:000071c8       ??_C@_0BF@OLKLEKBD@bus?5?$DN?5?$CFd?0?5slot?5?$DN?5?$CFd?6?$AA@ 100491c8     xpcruntime:xpcimports.obj
 0002:000071e0       ??_C@_0CE@DGLLGDFH@?5?5?5?5Phys?5?5?5Virtual?5?5?5Length?5IO?1M@ 100491e0     xpcruntime:xpcimports.obj
 0002:00007204       ??_C@_0BI@FEOPLEMG@?$CF08x?5?$CF08x?5?$CF08x?5?5?5?5?5?5?$CFc?6?$AA@ 10049204     xpcruntime:xpcimports.obj
 0002:0000721c       ??_C@_0BB@BNNCEDPC@rl32eScopeExists?$AA@ 1004921c     xpcruntime:xpcimports.obj
 0002:00007230       ??_C@_0BM@FJBFEGFG@rl32eScopeExists?5not?5found?6?$AA@ 10049230     xpcruntime:xpcimports.obj
 0002:0000724c       ??_C@_0O@BNNGKJEA@rl32eDefScope?$AA@ 1004924c     xpcruntime:xpcimports.obj
 0002:0000725c       ??_C@_0BJ@CDNOENKA@rl32eDefScope?5not?5found?6?$AA@ 1004925c     xpcruntime:xpcimports.obj
 0002:00007278       ??_C@_0P@CKNKILDP@rl32eAddSignal?$AA@ 10049278     xpcruntime:xpcimports.obj
 0002:00007288       ??_C@_0BK@GMJAJBAI@rl32eAddSignal?5not?5found?6?$AA@ 10049288     xpcruntime:xpcimports.obj
 0002:000072a4       ??_C@_0BB@LDMIHGCE@rl32eGetSignalNo?$AA@ 100492a4     xpcruntime:xpcimports.obj
 0002:000072b8       ??_C@_0BM@LGAMBAID@rl32eGetSignalNo?5not?5found?6?$AA@ 100492b8     xpcruntime:xpcimports.obj
 0002:000072d4       ??_C@_0O@CFDGALBP@rl32eSetScope?$AA@ 100492d4     xpcruntime:xpcimports.obj
 0002:000072e4       ??_C@_0BJ@JCLHHIN@rl32eSetScope?5not?5found?6?$AA@ 100492e4     xpcruntime:xpcimports.obj
 0002:00007300       ??_C@_0P@IKMCBMHH@xpceFSScopeSet?$AA@ 10049300     xpcruntime:xpcimports.obj
 0002:00007310       ??_C@_0BK@JODJPNNH@xpceFSScopeSet?5not?5found?6?$AA@ 10049310     xpcruntime:xpcimports.obj
 0002:0000732c       ??_C@_0BE@DLACEEJM@rl32eSetTargetScope?$AA@ 1004932c     xpcruntime:xpcimports.obj
 0002:00007340       ??_C@_0BP@JCHFMKPJ@rl32eSetTargetScope?5not?5found?6?$AA@ 10049340     xpcruntime:xpcimports.obj
 0002:00007360       ??_C@_0BJ@LIDLNDHC@rl32eSetTargetScopeSigFt?$AA@ 10049360     xpcruntime:xpcimports.obj
 0002:0000737c       ??_C@_0CE@JLGHCFHI@rl32eSetTargetScopeSigFt?5not?5fou@ 1004937c     xpcruntime:xpcimports.obj
 0002:000073a0       ??_C@_0BI@JAPOIDNG@rl32eRestartAcquisition?$AA@ 100493a0     xpcruntime:xpcimports.obj
 0002:000073b8       ??_C@_0CD@LLBEFFBO@rl32eRestartAcquisition?5not?5foun@ 100493b8     xpcruntime:xpcimports.obj
 0002:000073dc       ??_C@_0P@IEIIADJB@xpceScopeAcqOK?$AA@ 100493dc     xpcruntime:xpcimports.obj
 0002:000073ec       ??_C@_0BK@NJCKNFPN@xpceScopeAcqOK?5not?5found?6?$AA@ 100493ec     xpcruntime:xpcimports.obj
 0002:00007408       ??_C@_0BA@IJINKAHF@xpceRegisterISR?$AA@ 10049408     xpcruntime:xpcimports.obj
 0002:00007418       ??_C@_0BL@NNDLOEJE@xpceRegisterISR?5not?5found?6?$AA@ 10049418     xpcruntime:xpcimports.obj
 0002:00007434       ??_C@_0BC@NLBADGKF@xpceDeRegisterISR?$AA@ 10049434     xpcruntime:xpcimports.obj
 0002:00007448       ??_C@_0BN@DCAIKFFD@xpceDeRegisterISR?5not?5found?6?$AA@ 10049448     xpcruntime:xpcimports.obj
 0002:00007468       ??_C@_0P@CPGPNKEB@xpceFTReadTime?$AA@ 10049468     xpcruntime:xpcimports.obj
 0002:00007478       ??_C@_0BK@NMABIODN@xpceFTReadTime?5not?5found?6?$AA@ 10049478     xpcruntime:xpcimports.obj
 0002:00007494       ??_C@_09PHNHCHFH@xpceFTAdd?$AA@ 10049494     xpcruntime:xpcimports.obj
 0002:000074a0       ??_C@_0BF@FJLEIILA@xpceFTAdd?5not?5found?6?$AA@ 100494a0     xpcruntime:xpcimports.obj
 0002:000074b8       ??_C@_0P@KEODBLHO@xpceFTSubtract?$AA@ 100494b8     xpcruntime:xpcimports.obj
 0002:000074c8       ??_C@_0BK@HONODOKP@xpceFTSubtract?5not?5found?6?$AA@ 100494c8     xpcruntime:xpcimports.obj
 0002:000074e4       ??_C@_07JPMEPILD@xpcInpB?$AA@ 100494e4     xpcruntime:xpcimports.obj
 0002:000074ec       ??_C@_0BD@PGABEJOL@xpcInpB?5not?5found?6?$AA@ 100494ec     xpcruntime:xpcimports.obj
 0002:00007500       ??_C@_07KIHBBOKH@xpcInpW?$AA@ 10049500     xpcruntime:xpcimports.obj
 0002:00007508       ??_C@_0BD@FPCJFMCC@xpcInpW?5not?5found?6?$AA@ 10049508     xpcruntime:xpcimports.obj
 0002:0000751c       ??_C@_08KDIAJBOP@xpcInpDW?$AA@ 1004951c     xpcruntime:xpcimports.obj
 0002:00007528       ??_C@_0BE@PIELDNIL@xpcInpDW?5not?5found?6?$AA@ 10049528     xpcruntime:xpcimports.obj
 0002:0000753c       ??_C@_08PJFMOIGO@xpcOutpB?$AA@ 1004953c     xpcruntime:xpcimports.obj
 0002:00007548       ??_C@_0BE@HCKNCEKF@xpcOutpB?5not?5found?6?$AA@ 10049548     xpcruntime:xpcimports.obj
 0002:0000755c       ??_C@_08MOOJAOHK@xpcOutpW?$AA@ 1004955c     xpcruntime:xpcimports.obj
 0002:00007568       ??_C@_0BE@NLIFDBGM@xpcOutpW?5not?5found?6?$AA@ 10049568     xpcruntime:xpcimports.obj
 0002:0000757c       ??_C@_09FLIEKHJG@xpcOutpDW?$AA@ 1004957c     xpcruntime:xpcimports.obj
 0002:00007588       ??_C@_0BF@GJKLPNHB@xpcOutpDW?5not?5found?6?$AA@ 10049588     xpcruntime:xpcimports.obj
 0002:000075a0       ??_C@_0BH@EHOLELHH@xpcReserveMemoryRegion?$AA@ 100495a0     xpcruntime:xpcimports.obj
 0002:000075b8       ??_C@_0CC@KAAAGPI@xpcReserveMemoryRegion?5not?5found@ 100495b8     xpcruntime:xpcimports.obj
 0002:000075dc       ??_C@_0BA@JGPMHGAF@rl32eShowPCIDev?$AA@ 100495dc     xpcruntime:xpcimports.obj
 0002:000075ec       ??_C@_0BL@DDFFLNHI@rl32eShowPCIDev?5not?5found?6?$AA@ 100495ec     xpcruntime:xpcimports.obj
 0002:00007608       ??_C@_0BB@KBCOJPFB@rl32eShowPCIInfo?$AA@ 10049608     xpcruntime:xpcimports.obj
 0002:0000761c       ??_C@_0BM@IFDMAGLO@rl32eShowPCIInfo?5not?5found?6?$AA@ 1004961c     xpcruntime:xpcimports.obj
 0002:00007638       ??_C@_0BA@BGPAADB@rl32eGetPCIInfo?$AA@ 10049638     xpcruntime:xpcimports.obj
 0002:00007648       ??_C@_0BL@IGOMLDCK@rl32eGetPCIInfo?5not?5found?6?$AA@ 10049648     xpcruntime:xpcimports.obj
 0002:00007664       ??_C@_0BG@NJPFKFDP@rl32eGetPCIInfoAtSlot?$AA@ 10049664     xpcruntime:xpcimports.obj
 0002:0000767c       ??_C@_0CB@BBKIPMLA@rl32eGetPCIInfoAtSlot?5not?5found?6@ 1004967c     xpcruntime:xpcimports.obj
 0002:000076a0       ??_C@_0BH@OKBOPNFG@xpceAssignPCIInterrupt?$AA@ 100496a0     xpcruntime:xpcimports.obj
 0002:000076b8       ??_C@_0CC@CDNDNJBJ@xpceAssignPCIInterrupt?5not?5found@ 100496b8     xpcruntime:xpcimports.obj
 0002:000076dc       ??_C@_0BB@FCHHFAAH@rl32eInitCOMPort?$AA@ 100496dc     xpcruntime:xpcimports.obj
 0002:000076f0       ??_C@_0BM@DDJGKAHB@rl32eInitCOMPort?5not?5found?6?$AA@ 100496f0     xpcruntime:xpcimports.obj
 0002:0000770c       ??_C@_0BC@CHEEFCP@rl32eCloseCOMPort?$AA@ 1004970c     xpcruntime:xpcimports.obj
 0002:00007720       ??_C@_0BN@KCOFELEM@rl32eCloseCOMPort?5not?5found?6?$AA@ 10049720     xpcruntime:xpcimports.obj
 0002:00007740       ??_C@_0O@LLJGKFOG@rl32eSendChar?$AA@ 10049740     xpcruntime:xpcimports.obj
 0002:00007750       ??_C@_0BJ@JCJKDACJ@rl32eSendChar?5not?5found?6?$AA@ 10049750     xpcruntime:xpcimports.obj
 0002:0000776c       ??_C@_0BB@OMFKCOEK@rl32eReceiveChar?$AA@ 1004976c     xpcruntime:xpcimports.obj
 0002:00007780       ??_C@_0BM@HGAIOAND@rl32eReceiveChar?5not?5found?6?$AA@ 10049780     xpcruntime:xpcimports.obj
 0002:0000779c       ??_C@_0BI@PKEJFHMJ@rl32eReceiveBufferCount?$AA@ 1004979c     xpcruntime:xpcimports.obj
 0002:000077b4       ??_C@_0CD@LNMOFLAH@rl32eReceiveBufferCount?5not?5foun@ 100497b4     xpcruntime:xpcimports.obj
 0002:000077d8       ??_C@_0BA@CFIJOJPK@rl32eLineStatus?$AA@ 100497d8     xpcruntime:xpcimports.obj
 0002:000077e8       ??_C@_0BL@PLIDKKGI@rl32eLineStatus?5not?5found?6?$AA@ 100497e8     xpcruntime:xpcimports.obj
 0002:00007804       ??_C@_0P@MDMKIJF@rl32eSendBlock?$AA@ 10049804     xpcruntime:xpcimports.obj
 0002:00007814       ??_C@_0BK@KNBNFIKH@rl32eSendBlock?5not?5found?6?$AA@ 10049814     xpcruntime:xpcimports.obj
 0002:00007830       ??_C@_0BD@PCKOKHO@xpceGetSignalValue?$AA@ 10049830     xpcruntime:xpcimports.obj
 0002:00007844       ??_C@_0BO@GCBDJHMB@xpceGetSignalValue?5not?5found?6?$AA@ 10049844     xpcruntime:xpcimports.obj
 0002:00007864       ??_C@_0BB@BJONJAGA@xpceSetParameter?$AA@ 10049864     xpcruntime:xpcimports.obj
 0002:00007878       ??_C@_0BM@BJIKDLHA@xpceSetParameter?5not?5found?6?$AA@ 10049878     xpcruntime:xpcimports.obj
 0002:00007894       ??_C@_0BB@GNFDFMCM@xpceGetParameter?$AA@ 10049894     xpcruntime:xpcimports.obj
 0002:000078a8       ??_C@_0BM@POHNKBC@xpceGetParameter?5not?5found?6?$AA@ 100498a8     xpcruntime:xpcimports.obj
 0002:000078c4       ??_C@_0BB@CEIJLFCD@xpceGetParamDims?$AA@ 100498c4     xpcruntime:xpcimports.obj
 0002:000078d8       ??_C@_0BM@OABDBKAO@xpceGetParamDims?5not?5found?6?$AA@ 100498d8     xpcruntime:xpcimports.obj
 0002:000078f4       ??_C@_0L@OCBLLHBM@xpceGetTET?$AA@ 100498f4     xpcruntime:xpcimports.obj
 0002:00007900       ??_C@_0BG@HNOFBOB@xpceGetTET?5not?5found?6?$AA@ 10049900     xpcruntime:xpcimports.obj
 0002:00007918       ??_C@_0BA@FHMIOKFL@xpceUDPOpenSend?$AA@ 10049918     xpcruntime:xpcimports.obj
 0002:00007928       ??_C@_0BL@HNLPFEK@xpceUDPOpenSend?5not?5found?6?$AA@ 10049928     xpcruntime:xpcimports.obj
 0002:00007944       ??_C@_0BD@BCELJJJL@xpceUDPOpenReceive?$AA@ 10049944     xpcruntime:xpcimports.obj
 0002:00007958       ??_C@_0BO@IFKJBHKC@xpceUDPOpenReceive?5not?5found?6?$AA@ 10049958     xpcruntime:xpcimports.obj
 0002:00007978       ??_C@_0M@OFPFLJGN@xpceUDPSend?$AA@ 10049978     xpcruntime:xpcimports.obj
 0002:00007984       ??_C@_0BH@NOIKLPAB@xpceUDPSend?5not?5found?6?$AA@ 10049984     xpcruntime:xpcimports.obj
 0002:0000799c       ??_C@_0P@PLFDECIN@xpceUDPReceive?$AA@ 1004999c     xpcruntime:xpcimports.obj
 0002:000079ac       ??_C@_0BK@OPJMLDLH@xpceUDPReceive?5not?5found?6?$AA@ 100499ac     xpcruntime:xpcimports.obj
 0002:000079c8       ??_C@_0N@IEHPMFME@xpceUDPClose?$AA@ 100499c8     xpcruntime:xpcimports.obj
 0002:000079d8       ??_C@_0BI@FHPFHECO@xpceUDPClose?5not?5found?6?$AA@ 100499d8     xpcruntime:xpcimports.obj
 0002:000079f0       ??_C@_0P@OKGNGAGH@xpcIsModelInit?$AA@ 100499f0     xpcruntime:xpcimports.obj
 0002:00007a00       ??_C@_0BK@DHEMLBIM@xpcIsModelInit?5not?5found?6?$AA@ 10049a00     xpcruntime:xpcimports.obj
 0002:00007a1c       ??_C@_0BH@KJJLCAOJ@xpcAllocPhysicalMemory?$AA@ 10049a1c     xpcruntime:xpcimports.obj
 0002:00007a34       ??_C@_0CC@MOJPNHKL@xpcAllocPhysicalMemory?5not?5found@ 10049a34     xpcruntime:xpcimports.obj
 0002:00007a58       ??_C@_0BG@CBNPGAEL@xpcFreePhysicalMemory?$AA@ 10049a58     xpcruntime:xpcimports.obj
 0002:00007a70       ??_C@_0CB@PKJEBPOG@xpcFreePhysicalMemory?5not?5found?6@ 10049a70     xpcruntime:xpcimports.obj
 0002:00007a94       ??_C@_0BC@JGKNLICL@xpcGetElapsedTime?$AA@ 10049a94     xpcruntime:xpcimports.obj
 0002:00007aa8       ??_C@_0BN@OEOAHCIO@xpcGetElapsedTime?5not?5found?6?$AA@ 10049aa8     xpcruntime:xpcimports.obj
 0002:00007ac8       ??_C@_0M@ICBLMODA@xpcBusyWait?$AA@ 10049ac8     xpcruntime:xpcimports.obj
 0002:00007ad4       ??_C@_0BH@FBOPECBI@xpcBusyWait?5not?5found?6?$AA@ 10049ad4     xpcruntime:xpcimports.obj
 0002:00007aec       ??_C@_0N@LKKJEKKA@TBCreateSpin?$AA@ 10049aec     xpcruntime:xpcimports.obj
 0002:00007afc       ??_C@_0BI@FHKMLKOE@TBCreateSpin?5not?5found?6?$AA@ 10049afc     xpcruntime:xpcimports.obj
 0002:00007b14       ??_C@_0N@HOAJHNBD@TBDeleteSpin?$AA@ 10049b14     xpcruntime:xpcimports.obj
 0002:00007b24       ??_C@_0BI@BKCPAAG@TBDeleteSpin?5not?5found?6?$AA@ 10049b24     xpcruntime:xpcimports.obj
 0002:00007b3c       ??_C@_0P@DAHDDBJG@TBTakeSpinFast?$AA@ 10049b3c     xpcruntime:xpcimports.obj
 0002:00007b4c       ??_C@_0BK@NKAIBHGB@TBTakeSpinFast?5not?5found?6?$AA@ 10049b4c     xpcruntime:xpcimports.obj
 0002:00007b68       ??_C@_0P@FKNAAELA@TBGiveSpinFast?$AA@ 10049b68     xpcruntime:xpcimports.obj
 0002:00007b78       ??_C@_0BK@KGPJBJND@TBGiveSpinFast?5not?5found?6?$AA@ 10049b78     xpcruntime:xpcimports.obj
 0002:00007b94       ??_C@_0BE@IIGBFDHK@xpceCreateSemaphore?$AA@ 10049b94     xpcruntime:xpcimports.obj
 0002:00007ba8       ??_C@_0BP@KFBAFFKJ@xpceCreateSemaphore?5not?5found?6?$AA@ 10049ba8     xpcruntime:xpcimports.obj
 0002:00007bc8       ??_C@_0BC@IFNIONKJ@xpceWaitSemaphore?$AA@ 10049bc8     xpcruntime:xpcimports.obj
 0002:00007bdc       ??_C@_0BN@NMFAADIO@xpceWaitSemaphore?5not?5found?6?$AA@ 10049bdc     xpcruntime:xpcimports.obj
 0002:00007bfc       ??_C@_0BE@NNDIOBKE@xpceSignalSemaphore?$AA@ 10049bfc     xpcruntime:xpcimports.obj
 0002:00007c10       ??_C@_0BP@LBANMHJP@xpceSignalSemaphore?5not?5found?6?$AA@ 10049c10     xpcruntime:xpcimports.obj
 0002:00007c30       ??_C@_0BE@MEBEKOIM@xpceDeleteSemaphore?$AA@ 10049c30     xpcruntime:xpcimports.obj
 0002:00007c44       ??_C@_0BP@OFNCKOJH@xpceDeleteSemaphore?5not?5found?6?$AA@ 10049c44     xpcruntime:xpcimports.obj
 0002:00007c64       ??_C@_0BD@MFNDMBOF@FindUsbVideoDevice?$AA@ 10049c64     xpcruntime:xpcimports.obj
 0002:00007c78       ??_C@_0BO@POKLDHMI@FindUsbVideoDevice?5not?5found?6?$AA@ 10049c78     xpcruntime:xpcimports.obj
 0002:00007c98       ??_C@_0BA@PLPAPNAB@GetVideoConfigs?$AA@ 10049c98     xpcruntime:xpcimports.obj
 0002:00007ca8       ??_C@_0BL@DALDHKHC@GetVideoConfigs?5not?5found?6?$AA@ 10049ca8     xpcruntime:xpcimports.obj
 0002:00007cc4       ??_C@_0L@GBAEMHMH@StartVideo?$AA@ 10049cc4     xpcruntime:xpcimports.obj
 0002:00007cd0       ??_C@_0BG@HDCELEBP@StartVideo?5not?5found?6?$AA@ 10049cd0     xpcruntime:xpcimports.obj
 0002:00007ce8       ??_C@_0BA@FDNPOCLN@ReadFrameBuffer?$AA@ 10049ce8     xpcruntime:xpcimports.obj
 0002:00007cf8       ??_C@_0BL@JHGHPNBI@ReadFrameBuffer?5not?5found?6?$AA@ 10049cf8     xpcruntime:xpcimports.obj
 0002:00007d14       ??_C@_09FAHCLKAG@StopVideo?$AA@ 10049d14     xpcruntime:xpcimports.obj
 0002:00007d20       ??_C@_0BF@NKGKKADL@StopVideo?5not?5found?6?$AA@ 10049d20     xpcruntime:xpcimports.obj
 0002:00007d38       ??_C@_0O@MCPKDLLL@ConvertUImage?$AA@ 10049d38     xpcruntime:xpcimports.obj
 0002:00007d48       ??_C@_0BJ@PHJKOAFL@ConvertUImage?5not?5found?6?$AA@ 10049d48     xpcruntime:xpcimports.obj
 0002:00007d64       ??_C@_0BD@NKCBPBJJ@CreateVideoDisplay?$AA@ 10049d64     xpcruntime:xpcimports.obj
 0002:00007d78       ??_C@_0BO@HPPLLNFP@CreateVideoDisplay?5not?5found?6?$AA@ 10049d78     xpcruntime:xpcimports.obj
 0002:00007d98       ??_C@_0BE@KJCKGPHA@DestroyVideoDisplay?$AA@ 10049d98     xpcruntime:xpcimports.obj
 0002:00007dac       ??_C@_0BP@FMGLJAIJ@DestroyVideoDisplay?5not?5found?6?$AA@ 10049dac     xpcruntime:xpcimports.obj
 0002:00007dcc       ??_C@_0BC@HCMIMIDN@StartVideoDisplay?$AA@ 10049dcc     xpcruntime:xpcimports.obj
 0002:00007de0       ??_C@_0BN@EFIEBGOO@StartVideoDisplay?5not?5found?6?$AA@ 10049de0     xpcruntime:xpcimports.obj
 0002:00007e00       ??_C@_0BB@JBBLMILG@StopVideoDisplay?$AA@ 10049e00     xpcruntime:xpcimports.obj
 0002:00007e14       ??_C@_0BM@DBJBPLEL@StopVideoDisplay?5not?5found?6?$AA@ 10049e14     xpcruntime:xpcimports.obj
 0002:00007e30       ??_C@_0M@MFJEGMHC@StreamVideo?$AA@ 10049e30     xpcruntime:xpcimports.obj
 0002:00007e3c       ??_C@_0BH@OINCDMLA@StreamVideo?5not?5found?6?$AA@ 10049e3c     xpcruntime:xpcimports.obj
 0002:00007e54       ??_C@_0N@IGGLCIGE@xpceaddEvent?$AA@ 10049e54     xpcruntime:xpcimports.obj
 0002:00007e64       ??_C@_0BI@NHJNFMKH@xpceaddEvent?5not?5found?6?$AA@ 10049e64     xpcruntime:xpcimports.obj
 0002:00007e7c       ??_C@_0BB@LCMHHHFN@getMemoryService?$AA@ 10049e7c     xpcruntime:xpcimports.obj
 0002:00007e90       ??_C@_0BM@MPLCNIIE@getMemoryService?5not?5found?6?$AA@ 10049e90     xpcruntime:xpcimports.obj
 0002:00007eac       ??_C@_0P@KIKONDKK@getCommService?$AA@ 10049eac     xpcruntime:xpcimports.obj
 0002:00007ebc       ??_C@_0BK@NCECBKNM@getCommService?5not?5found?6?$AA@ 10049ebc     xpcruntime:xpcimports.obj
 0002:00007ed8       ??_C@_0P@GDLHFECE@getStatusFlags?$AA@ 10049ed8     xpcruntime:xpcimports.obj
 0002:00007ee8       ??_C@_0BK@NEKDLJHG@getStatusFlags?5not?5found?6?$AA@ 10049ee8     xpcruntime:xpcimports.obj
 0002:00007f04       ??_C@_0BL@CDFCLKOL@startToAsyncQueueTgtAppSvc?$AA@ 10049f04     xpcruntime:xpcimports.obj
 0002:00007f20       ??_C@_0CG@JGOFFKEL@startToAsyncQueueTgtAppSvc?5not?5f@ 10049f20     xpcruntime:xpcimports.obj
 0002:00007f48       ??_C@_0BP@IJNGPPPE@terminateToAsyncQueueTgtAppSvc?$AA@ 10049f48     xpcruntime:xpcimports.obj
 0002:00007f68       ??_C@_0CK@NDEMAMKF@terminateToAsyncQueueTgtAppSvc?5n@ 10049f68     xpcruntime:xpcimports.obj
 0002:00007f94       ??_C@_0BK@IDACEHAO@sendToAsyncQueueTgtAppSvc?$AA@ 10049f94     xpcruntime:xpcimports.obj
 0002:00007fb0       ??_C@_0CF@PNCKPEHN@sendToAsyncQueueTgtAppSvc?5not?5fo@ 10049fb0     xpcruntime:xpcimports.obj
 0002:00007fd8       ??_C@_0BN@HJOHIFOM@xpceGetIntTimerGranularityNS?$AA@ 10049fd8     xpcruntime:xpcimports.obj
 0002:00007ff8       ??_C@_0CI@OADDPMKB@xpceGetIntTimerGranularityNS?5not@ 10049ff8     xpcruntime:xpcimports.obj
 0002:00008020       ??_C@_0BG@CCHICKPN@slrteSetStepSizeDelta?$AA@ 1004a020     xpcruntime:xpcimports.obj
 0002:00008038       ??_C@_0CB@MKHINEIJ@slrteSetStepSizeDelta?5not?5found?6@ 1004a038     xpcruntime:xpcimports.obj
 0002:0000805c       ??_C@_0BI@CLNBLDKJ@slrteGetCurrentStepSize?$AA@ 1004a05c     xpcruntime:xpcimports.obj
 0002:00008074       ??_C@_0CD@GIOJPGJA@slrteGetCurrentStepSize?5not?5foun@ 1004a074     xpcruntime:xpcimports.obj
 0002:00008098       ??_C@_0BE@FCLCBOC@registerPTPTimeRead?$AA@ 1004a098     xpcruntime:xpcimports.obj
 0002:000080ac       ??_C@_0BP@LHPKAJIP@registerPTPTimeRead?5not?5found?6?$AA@ 1004a0ac     xpcruntime:xpcimports.obj
 0002:000080cc       ??_C@_0BG@KIGCDDJI@unRegisterPTPTimeRead?$AA@ 1004a0cc     xpcruntime:xpcimports.obj
 0002:000080e4       ??_C@_0CB@MLFFBFCM@unRegisterPTPTimeRead?5not?5found?6@ 1004a0e4     xpcruntime:xpcimports.obj
 0002:00008108       ??_C@_0BB@IPMDDBHK@slTestInitialize?$AA@ 1004a108     xpcruntime:xpcimports.obj
 0002:0000811c       ??_C@_0BM@LAJFCCJH@slTestInitialize?5not?5found?6?$AA@ 1004a11c     xpcruntime:xpcimports.obj
 0002:00008138       ??_C@_0BF@OOMPMEBC@slTestLogAssessments?$AA@ 1004a138     xpcruntime:xpcimports.obj
 0002:00008150       ??_C@_0CA@FGJCEBAG@slTestLogAssessments?5not?5found?6?$AA@ 1004a150     xpcruntime:xpcimports.obj
 0002:00008170       ??_C@_0BB@HJHKONHO@slTestEvalOnFail?$AA@ 1004a170     xpcruntime:xpcimports.obj
 0002:00008184       ??_C@_0BM@JIKCFFNJ@slTestEvalOnFail?5not?5found?6?$AA@ 1004a184     xpcruntime:xpcimports.obj
 0002:000081a0       ??_C@_0BA@LBHLABFP@slTestTerminate?$AA@ 1004a1a0     xpcruntime:xpcimports.obj
 0002:000081b0       ??_C@_0BL@EMFGKAPA@slTestTerminate?5not?5found?6?$AA@ 1004a1b0     xpcruntime:xpcimports.obj
 0002:000081cc       ??_C@_0BE@JPNPBBEO@slTestRegAssessment?$AA@ 1004a1cc     xpcruntime:xpcimports.obj
 0002:000081e0       ??_C@_0BP@FBDEJJJH@slTestRegAssessment?5not?5found?6?$AA@ 1004a1e0     xpcruntime:xpcimports.obj
 0002:00008200       __FPinit                   1004a200     LIBCMT:fpinit.obj
 0002:0000820c       ??_C@_1BI@BGOHAHKC@?$AAm?$AAs?$AAc?$AAo?$AAr?$AAe?$AAe?$AA?4?$AAd?$AAl?$AAl?$AA?$AA@ 1004a20c     LIBCMT:crt0dat.obj
 0002:00008224       ??_C@_0P@MIGLKIOC@CorExitProcess?$AA@ 1004a224     LIBCMT:crt0dat.obj
 0002:000082c4       ??_C@_17LGKOMLJ@?$AA?4?$AA?4?$AA?4?$AA?$AA@ 1004a2c4     LIBCMT:wassert.obj
 0002:000082cc       ??_C@_13LBAGMAIH@?$AA?6?$AA?$AA@ 1004a2cc     LIBCMT:wassert.obj
 0002:000082d0       ??_C@_15IABLJNFO@?$AA?6?$AA?6?$AA?$AA@ 1004a2d0     LIBCMT:wassert.obj
 0002:000082d8       ??_C@_1CE@OJBNHDMO@?$AAA?$AAs?$AAs?$AAe?$AAr?$AAt?$AAi?$AAo?$AAn?$AA?5?$AAf?$AAa?$AAi?$AAl?$AAe?$AAd?$AA?$CB?$AA?$AA@ 1004a2d8     LIBCMT:wassert.obj
 0002:000082fc       ??_C@_1BE@PHKBBGE@?$AAP?$AAr?$AAo?$AAg?$AAr?$AAa?$AAm?$AA?3?$AA?5?$AA?$AA@ 1004a2fc     LIBCMT:wassert.obj
 0002:00008310       ??_C@_1CO@EAEJAADC@?$AA?$DM?$AAp?$AAr?$AAo?$AAg?$AAr?$AAa?$AAm?$AA?5?$AAn?$AAa?$AAm?$AAe?$AA?5?$AAu?$AAn?$AAk?$AAn?$AAo?$AAw?$AAn?$AA?$DO?$AA?$AA@ 1004a310     LIBCMT:wassert.obj
 0002:00008340       ??_C@_1O@HEMHKNDC@?$AAF?$AAi?$AAl?$AAe?$AA?3?$AA?5?$AA?$AA@ 1004a340     LIBCMT:wassert.obj
 0002:00008350       ??_C@_1O@KCAFKHJE@?$AAL?$AAi?$AAn?$AAe?$AA?3?$AA?5?$AA?$AA@ 1004a350     LIBCMT:wassert.obj
 0002:00008360       ??_C@_1BK@PEDCIPMA@?$AAE?$AAx?$AAp?$AAr?$AAe?$AAs?$AAs?$AAi?$AAo?$AAn?$AA?3?$AA?5?$AA?$AA@ 1004a360     LIBCMT:wassert.obj
 0002:00008380       ??_C@_1OA@EGMLFBHJ@?$AAF?$AAo?$AAr?$AA?5?$AAi?$AAn?$AAf?$AAo?$AAr?$AAm?$AAa?$AAt?$AAi?$AAo?$AAn?$AA?5?$AAo?$AAn?$AA?5?$AAh?$AAo?$AAw?$AA?5?$AAy?$AAo?$AAu?$AAr?$AA?5?$AAp?$AAr?$AAo?$AAg@ 1004a380     LIBCMT:wassert.obj
 0002:00008460       ??_C@_1HK@POCJMFGK@?$AA?$CI?$AAP?$AAr?$AAe?$AAs?$AAs?$AA?5?$AAR?$AAe?$AAt?$AAr?$AAy?$AA?5?$AAt?$AAo?$AA?5?$AAd?$AAe?$AAb?$AAu?$AAg?$AA?5?$AAt?$AAh?$AAe?$AA?5?$AAa?$AAp?$AAp?$AAl?$AAi?$AAc@ 1004a460     LIBCMT:wassert.obj
 0002:000084e0       ??_C@_1EK@MBDPDCGA@?$AAM?$AAi?$AAc?$AAr?$AAo?$AAs?$AAo?$AAf?$AAt?$AA?5?$AAV?$AAi?$AAs?$AAu?$AAa?$AAl?$AA?5?$AAC?$AA?$CL?$AA?$CL?$AA?5?$AAR?$AAu?$AAn?$AAt?$AAi?$AAm?$AAe?$AA?5?$AAL?$AAi?$AAb@ 1004a4e0     LIBCMT:wassert.obj
 0002:0000852c       __pDefaultRawDllMain       1004a52c     LIBCMT:dllcrt0.obj
 0002:0000852c       __pRawDllMain              1004a52c     LIBCMT:dllcrt0.obj
 0002:00008530       ?ProcessDetach@NativeDll@<CrtImplementationDetails>@@0IB 1004a530     LIBCMT:handler.obj
 0002:00008534       ?ProcessAttach@NativeDll@<CrtImplementationDetails>@@0IB 1004a534     LIBCMT:handler.obj
 0002:00008538       ?ThreadAttach@NativeDll@<CrtImplementationDetails>@@0IB 1004a538     LIBCMT:handler.obj
 0002:0000853c       ?ThreadDetach@NativeDll@<CrtImplementationDetails>@@0IB 1004a53c     LIBCMT:handler.obj
 0002:00008540       ?ProcessVerifier@NativeDll@<CrtImplementationDetails>@@0IB 1004a540     LIBCMT:handler.obj
 0002:00008600       ??_C@_1FK@PGACCAFB@?$AAR?$AA6?$AA0?$AA0?$AA2?$AA?$AN?$AA?6?$AA?9?$AA?5?$AAf?$AAl?$AAo?$AAa?$AAt?$AAi?$AAn?$AAg?$AA?5?$AAp?$AAo?$AAi?$AAn?$AAt?$AA?5?$AAs?$AAu?$AAp?$AAp?$AAo?$AAr?$AAt?$AA?5@ 1004a600     LIBCMT:crt0msg.obj
 0002:00008660       ??_C@_1FE@LLNEDJMD@?$AAR?$AA6?$AA0?$AA0?$AA8?$AA?$AN?$AA?6?$AA?9?$AA?5?$AAn?$AAo?$AAt?$AA?5?$AAe?$AAn?$AAo?$AAu?$AAg?$AAh?$AA?5?$AAs?$AAp?$AAa?$AAc?$AAe?$AA?5?$AAf?$AAo?$AAr?$AA?5?$AAa?$AAr@ 1004a660     LIBCMT:crt0msg.obj
 0002:000086b8       ??_C@_1FI@HONFMGBI@?$AAR?$AA6?$AA0?$AA0?$AA9?$AA?$AN?$AA?6?$AA?9?$AA?5?$AAn?$AAo?$AAt?$AA?5?$AAe?$AAn?$AAo?$AAu?$AAg?$AAh?$AA?5?$AAs?$AAp?$AAa?$AAc?$AAe?$AA?5?$AAf?$AAo?$AAr?$AA?5?$AAe?$AAn@ 1004a6b8     LIBCMT:crt0msg.obj
 0002:00008710       ??_C@_1EG@BEHAGFJD@?$AAR?$AA6?$AA0?$AA1?$AA0?$AA?$AN?$AA?6?$AA?9?$AA?5?$AAa?$AAb?$AAo?$AAr?$AAt?$AA?$CI?$AA?$CJ?$AA?5?$AAh?$AAa?$AAs?$AA?5?$AAb?$AAe?$AAe?$AAn?$AA?5?$AAc?$AAa?$AAl?$AAl?$AAe?$AAd@ 1004a710     LIBCMT:crt0msg.obj
 0002:00008758       ??_C@_1FI@LOGNIKDM@?$AAR?$AA6?$AA0?$AA1?$AA6?$AA?$AN?$AA?6?$AA?9?$AA?5?$AAn?$AAo?$AAt?$AA?5?$AAe?$AAn?$AAo?$AAu?$AAg?$AAh?$AA?5?$AAs?$AAp?$AAa?$AAc?$AAe?$AA?5?$AAf?$AAo?$AAr?$AA?5?$AAt?$AAh@ 1004a758     LIBCMT:crt0msg.obj
 0002:000087b0       ??_C@_1FK@BEOGODMC@?$AAR?$AA6?$AA0?$AA1?$AA7?$AA?$AN?$AA?6?$AA?9?$AA?5?$AAu?$AAn?$AAe?$AAx?$AAp?$AAe?$AAc?$AAt?$AAe?$AAd?$AA?5?$AAm?$AAu?$AAl?$AAt?$AAi?$AAt?$AAh?$AAr?$AAe?$AAa?$AAd?$AA?5@ 1004a7b0     LIBCMT:crt0msg.obj
 0002:00008810       ??_C@_1EC@JIBHAOPH@?$AAR?$AA6?$AA0?$AA1?$AA8?$AA?$AN?$AA?6?$AA?9?$AA?5?$AAu?$AAn?$AAe?$AAx?$AAp?$AAe?$AAc?$AAt?$AAe?$AAd?$AA?5?$AAh?$AAe?$AAa?$AAp?$AA?5?$AAe?$AAr?$AAr?$AAo?$AAr?$AA?$AN?$AA?6@ 1004a810     LIBCMT:crt0msg.obj
 0002:00008858       ??_C@_1FC@ECHBIFBC@?$AAR?$AA6?$AA0?$AA1?$AA9?$AA?$AN?$AA?6?$AA?9?$AA?5?$AAu?$AAn?$AAa?$AAb?$AAl?$AAe?$AA?5?$AAt?$AAo?$AA?5?$AAo?$AAp?$AAe?$AAn?$AA?5?$AAc?$AAo?$AAn?$AAs?$AAo?$AAl?$AAe?$AA?5@ 1004a858     LIBCMT:crt0msg.obj
 0002:000088b0       ??_C@_1GK@FHCKBEFA@?$AAR?$AA6?$AA0?$AA2?$AA4?$AA?$AN?$AA?6?$AA?9?$AA?5?$AAn?$AAo?$AAt?$AA?5?$AAe?$AAn?$AAo?$AAu?$AAg?$AAh?$AA?5?$AAs?$AAp?$AAa?$AAc?$AAe?$AA?5?$AAf?$AAo?$AAr?$AA?5?$AA_?$AAo@ 1004a8b0     LIBCMT:crt0msg.obj
 0002:00008920       ??_C@_1EM@MAADIHMB@?$AAR?$AA6?$AA0?$AA2?$AA5?$AA?$AN?$AA?6?$AA?9?$AA?5?$AAp?$AAu?$AAr?$AAe?$AA?5?$AAv?$AAi?$AAr?$AAt?$AAu?$AAa?$AAl?$AA?5?$AAf?$AAu?$AAn?$AAc?$AAt?$AAi?$AAo?$AAn?$AA?5?$AAc@ 1004a920     LIBCMT:crt0msg.obj
 0002:00008970       ??_C@_1GK@MCAAGJMO@?$AAR?$AA6?$AA0?$AA2?$AA6?$AA?$AN?$AA?6?$AA?9?$AA?5?$AAn?$AAo?$AAt?$AA?5?$AAe?$AAn?$AAo?$AAu?$AAg?$AAh?$AA?5?$AAs?$AAp?$AAa?$AAc?$AAe?$AA?5?$AAf?$AAo?$AAr?$AA?5?$AAs?$AAt@ 1004a970     LIBCMT:crt0msg.obj
 0002:000089e0       ??_C@_1GK@MFGOKLAG@?$AAR?$AA6?$AA0?$AA2?$AA7?$AA?$AN?$AA?6?$AA?9?$AA?5?$AAn?$AAo?$AAt?$AA?5?$AAe?$AAn?$AAo?$AAu?$AAg?$AAh?$AA?5?$AAs?$AAp?$AAa?$AAc?$AAe?$AA?5?$AAf?$AAo?$AAr?$AA?5?$AAl?$AAo@ 1004a9e0     LIBCMT:crt0msg.obj
 0002:00008a50       ??_C@_1EK@HHFLMAOL@?$AAR?$AA6?$AA0?$AA2?$AA8?$AA?$AN?$AA?6?$AA?9?$AA?5?$AAu?$AAn?$AAa?$AAb?$AAl?$AAe?$AA?5?$AAt?$AAo?$AA?5?$AAi?$AAn?$AAi?$AAt?$AAi?$AAa?$AAl?$AAi?$AAz?$AAe?$AA?5?$AAh?$AAe@ 1004aa50     LIBCMT:crt0msg.obj
 0002:00008a9c       ??_C@_1DO@BMFCDCD@?$AAR?$AA6?$AA0?$AA3?$AA0?$AA?$AN?$AA?6?$AA?9?$AA?5?$AAC?$AAR?$AAT?$AA?5?$AAn?$AAo?$AAt?$AA?5?$AAi?$AAn?$AAi?$AAt?$AAi?$AAa?$AAl?$AAi?$AAz?$AAe?$AAd?$AA?$AN?$AA?6?$AA?$AA@ 1004aa9c     LIBCMT:crt0msg.obj
 0002:00008ae0       ??_C@_1MG@ENCOOIDF@?$AAR?$AA6?$AA0?$AA3?$AA1?$AA?$AN?$AA?6?$AA?9?$AA?5?$AAA?$AAt?$AAt?$AAe?$AAm?$AAp?$AAt?$AA?5?$AAt?$AAo?$AA?5?$AAi?$AAn?$AAi?$AAt?$AAi?$AAa?$AAl?$AAi?$AAz?$AAe?$AA?5?$AAt@ 1004aae0     LIBCMT:crt0msg.obj
 0002:00008ba8       ??_C@_1GG@GOPILAJP@?$AAR?$AA6?$AA0?$AA3?$AA2?$AA?$AN?$AA?6?$AA?9?$AA?5?$AAn?$AAo?$AAt?$AA?5?$AAe?$AAn?$AAo?$AAu?$AAg?$AAh?$AA?5?$AAs?$AAp?$AAa?$AAc?$AAe?$AA?5?$AAf?$AAo?$AAr?$AA?5?$AAl?$AAo@ 1004aba8     LIBCMT:crt0msg.obj
 0002:00008c10       ??_C@_1BOO@KGEDBGAJ@?$AAR?$AA6?$AA0?$AA3?$AA3?$AA?$AN?$AA?6?$AA?9?$AA?5?$AAA?$AAt?$AAt?$AAe?$AAm?$AAp?$AAt?$AA?5?$AAt?$AAo?$AA?5?$AAu?$AAs?$AAe?$AA?5?$AAM?$AAS?$AAI?$AAL?$AA?5?$AAc?$AAo?$AAd@ 1004ac10     LIBCMT:crt0msg.obj
 0002:00008e00       ??_C@_1GG@MKFPEKFO@?$AAR?$AA6?$AA0?$AA3?$AA4?$AA?$AN?$AA?6?$AA?9?$AA?5?$AAi?$AAn?$AAc?$AAo?$AAn?$AAs?$AAi?$AAs?$AAt?$AAe?$AAn?$AAt?$AA?5?$AAo?$AAn?$AAe?$AAx?$AAi?$AAt?$AA?5?$AAb?$AAe?$AAg@ 1004ae00     LIBCMT:crt0msg.obj
 0002:00008e68       ??_C@_1BO@BFCDCGC@?$AAD?$AAO?$AAM?$AAA?$AAI?$AAN?$AA?5?$AAe?$AAr?$AAr?$AAo?$AAr?$AA?$AN?$AA?6?$AA?$AA@ 1004ae68     LIBCMT:crt0msg.obj
 0002:00008e88       ??_C@_1BK@KMOMNAAI@?$AAS?$AAI?$AAN?$AAG?$AA?5?$AAe?$AAr?$AAr?$AAo?$AAr?$AA?$AN?$AA?6?$AA?$AA@ 1004ae88     LIBCMT:crt0msg.obj
 0002:00008ea4       ??_C@_1BM@JBBEPPHI@?$AAT?$AAL?$AAO?$AAS?$AAS?$AA?5?$AAe?$AAr?$AAr?$AAo?$AAr?$AA?$AN?$AA?6?$AA?$AA@ 1004aea4     LIBCMT:crt0msg.obj
 0002:00008ec0       ??_C@_15JNBOKNOG@?$AA?$AN?$AA?6?$AA?$AA@ 1004aec0     LIBCMT:crt0msg.obj
 0002:00008ec8       ??_C@_1BO@BKOMIGKJ@?$AAr?$AAu?$AAn?$AAt?$AAi?$AAm?$AAe?$AA?5?$AAe?$AAr?$AAr?$AAo?$AAr?$AA?5?$AA?$AA@ 1004aec8     LIBCMT:crt0msg.obj
 0002:00008ee8       ??_C@_1DE@JNGNBFGO@?$AAR?$AAu?$AAn?$AAt?$AAi?$AAm?$AAe?$AA?5?$AAE?$AAr?$AAr?$AAo?$AAr?$AA?$CB?$AA?6?$AA?6?$AAP?$AAr?$AAo?$AAg?$AAr?$AAa?$AAm?$AA?3?$AA?5?$AA?$AA@ 1004aee8     LIBCMT:crt0msg.obj
 0002:00008f1c       ??_C@_06OJHGLDPL@?$CInull?$CJ?$AA@ 1004af1c     LIBCMT:output.obj
 0002:00008f24       ??_C@_1O@CEDCILHN@?$AA?$CI?$AAn?$AAu?$AAl?$AAl?$AA?$CJ?$AA?$AA@ 1004af24     LIBCMT:output.obj
 0002:00008f38       ___lookuptable             1004af38     LIBCMT:output.obj
 0002:00008f94       ??_C@_05KLBDPFGC@e?$CL000?$AA@ 1004af94     LIBCMT:cvt.obj
 0002:00008f9c       ??_C@_1BK@MGMFAEKH@?$AAk?$AAe?$AAr?$AAn?$AAe?$AAl?$AA3?$AA2?$AA?4?$AAd?$AAl?$AAl?$AA?$AA@ 1004af9c     LIBCMT:winapisupp.obj
 0002:00008fb8       ??_C@_08KNHFBNJ@FlsAlloc?$AA@ 1004afb8     LIBCMT:winapisupp.obj
 0002:00008fc4       ??_C@_07PEJMOBNF@FlsFree?$AA@ 1004afc4     LIBCMT:winapisupp.obj
 0002:00008fcc       ??_C@_0M@GDNOONDI@FlsGetValue?$AA@ 1004afcc     LIBCMT:winapisupp.obj
 0002:00008fd8       ??_C@_0M@JCPCPOEF@FlsSetValue?$AA@ 1004afd8     LIBCMT:winapisupp.obj
 0002:00008fe4       ??_C@_0BM@HCFOFFN@InitializeCriticalSectionEx?$AA@ 1004afe4     LIBCMT:winapisupp.obj
 0002:00009000       ??_C@_0P@DLHPPCNH@CreateEventExW?$AA@ 1004b000     LIBCMT:winapisupp.obj
 0002:00009010       ??_C@_0BD@KIEEOEEH@CreateSemaphoreExW?$AA@ 1004b010     LIBCMT:winapisupp.obj
 0002:00009024       ??_C@_0BI@BKLFFAPO@SetThreadStackGuarantee?$AA@ 1004b024     LIBCMT:winapisupp.obj
 0002:0000903c       ??_C@_0BG@OGFAJCKC@CreateThreadpoolTimer?$AA@ 1004b03c     LIBCMT:winapisupp.obj
 0002:00009054       ??_C@_0BD@LPLEMMDI@SetThreadpoolTimer?$AA@ 1004b054     LIBCMT:winapisupp.obj
 0002:00009068       ??_C@_0CA@FMNJENH@WaitForThreadpoolTimerCallbacks?$AA@ 1004b068     LIBCMT:winapisupp.obj
 0002:00009088       ??_C@_0BF@DCFCCNOC@CloseThreadpoolTimer?$AA@ 1004b088     LIBCMT:winapisupp.obj
 0002:000090a0       ??_C@_0BF@FLABGKKM@CreateThreadpoolWait?$AA@ 1004b0a0     LIBCMT:winapisupp.obj
 0002:000090b8       ??_C@_0BC@MGCOHNA@SetThreadpoolWait?$AA@ 1004b0b8     LIBCMT:winapisupp.obj
 0002:000090cc       ??_C@_0BE@OCIOMIMP@CloseThreadpoolWait?$AA@ 1004b0cc     LIBCMT:winapisupp.obj
 0002:000090e0       ??_C@_0BJ@LKGHFHBO@FlushProcessWriteBuffers?$AA@ 1004b0e0     LIBCMT:winapisupp.obj
 0002:000090fc       ??_C@_0BP@KALKKPMO@FreeLibraryWhenCallbackReturns?$AA@ 1004b0fc     LIBCMT:winapisupp.obj
 0002:0000911c       ??_C@_0BK@DFNBACLA@GetCurrentProcessorNumber?$AA@ 1004b11c     LIBCMT:winapisupp.obj
 0002:00009138       ??_C@_0BP@KHGALBC@GetLogicalProcessorInformation?$AA@ 1004b138     LIBCMT:winapisupp.obj
 0002:00009158       ??_C@_0BE@FKKLLFLM@CreateSymbolicLinkW?$AA@ 1004b158     LIBCMT:winapisupp.obj
 0002:0000916c       ??_C@_0BJ@OHNKDLIJ@SetDefaultDllDirectories?$AA@ 1004b16c     LIBCMT:winapisupp.obj
 0002:00009188       ??_C@_0BE@LJANKFHF@EnumSystemLocalesEx?$AA@ 1004b188     LIBCMT:winapisupp.obj
 0002:0000919c       ??_C@_0BA@IHGNDAEB@CompareStringEx?$AA@ 1004b19c     LIBCMT:winapisupp.obj
 0002:000091ac       ??_C@_0BA@EPCJIIPD@GetDateFormatEx?$AA@ 1004b1ac     LIBCMT:winapisupp.obj
 0002:000091bc       ??_C@_0BA@ONOKGCMP@GetLocaleInfoEx?$AA@ 1004b1bc     LIBCMT:winapisupp.obj
 0002:000091cc       ??_C@_0BA@CIJJKCJJ@GetTimeFormatEx?$AA@ 1004b1cc     LIBCMT:winapisupp.obj
 0002:000091dc       ??_C@_0BJ@PBCCBIPI@GetUserDefaultLocaleName?$AA@ 1004b1dc     LIBCMT:winapisupp.obj
 0002:000091f8       ??_C@_0BC@CELBKLLA@IsValidLocaleName?$AA@ 1004b1f8     LIBCMT:winapisupp.obj
 0002:0000920c       ??_C@_0O@KKBNKAPF@LCMapStringEx?$AA@ 1004b20c     LIBCMT:winapisupp.obj
 0002:0000921c       ??_C@_0BE@JOGNEJCI@GetCurrentPackageId?$AA@ 1004b21c     LIBCMT:winapisupp.obj
 0002:00009230       ??_C@_0P@CDHHOHKP@GetTickCount64?$AA@ 1004b230     LIBCMT:winapisupp.obj
 0002:00009240       ??_C@_0BO@KPCLFDJJ@GetFileInformationByHandleExW?$AA@ 1004b240     LIBCMT:winapisupp.obj
 0002:00009260       ??_C@_0BM@MHIDLABK@SetFileInformationByHandleW?$AA@ 1004b260     LIBCMT:winapisupp.obj
 0002:0000927c       ??_C@_1BK@GAEMIDIL@?$AAA?$AAD?$AAV?$AAA?$AAP?$AAI?$AA3?$AA2?$AA?4?$AAD?$AAL?$AAL?$AA?$AA@ 1004b27c     LIBCMT:rand_s.obj
 0002:00009298       ??_C@_0BC@JEAENNKH@SystemFunction036?$AA@ 1004b298     LIBCMT:rand_s.obj
 0002:000092bc       ??_C@_1M@HPNHIDJI@?$AAj?$AAa?$AA?9?$AAJ?$AAP?$AA?$AA@ 1004b2bc     LIBCMT:mbctype.obj
 0002:000092c8       ??_C@_1M@BIBDDEMK@?$AAz?$AAh?$AA?9?$AAC?$AAN?$AA?$AA@ 1004b2c8     LIBCMT:mbctype.obj
 0002:000092d4       ??_C@_1M@JLOOOEGK@?$AAk?$AAo?$AA?9?$AAK?$AAR?$AA?$AA@ 1004b2d4     LIBCMT:mbctype.obj
 0002:000092e0       ??_C@_1M@CLNBBOPM@?$AAz?$AAh?$AA?9?$AAT?$AAW?$AA?$AA@ 1004b2e0     LIBCMT:mbctype.obj
 0002:0000930c       ??_C@_04FJHINJAO@tanh?$AA@ 1004b30c     LIBCMT:fpexcept.obj
 0002:00009314       ??_C@_04FIHNOPOL@asin?$AA@ 1004b314     LIBCMT:fpexcept.obj
 0002:0000931c       ??_C@_04PDIFKINK@acos?$AA@ 1004b31c     LIBCMT:fpexcept.obj
 0002:00009324       ??_C@_04MLLJIGOK@atan?$AA@ 1004b324     LIBCMT:fpexcept.obj
 0002:0000932c       ??_C@_05KNGEOGJB@atan2?$AA@ 1004b32c     LIBCMT:fpexcept.obj
 0002:00009334       ??_C@_04EIAKFFMI@sqrt?$AA@ 1004b334     LIBCMT:fpexcept.obj
 0002:0000933c       ??_C@_03BLEJJJBH@sin?$AA@  1004b33c     LIBCMT:fpexcept.obj
 0002:00009340       ??_C@_03LALBNOCG@cos?$AA@  1004b340     LIBCMT:fpexcept.obj
 0002:00009344       ??_C@_03IIINPABG@tan?$AA@  1004b344     LIBCMT:fpexcept.obj
 0002:00009348       ??_C@_04GFPJNGEK@ceil?$AA@ 1004b348     LIBCMT:fpexcept.obj
 0002:00009350       ??_C@_05PBJFFIGL@floor?$AA@ 1004b350     LIBCMT:fpexcept.obj
 0002:00009358       ??_C@_04ODHECPBC@fabs?$AA@ 1004b358     LIBCMT:fpexcept.obj
 0002:00009360       ??_C@_04EHEDPDJG@modf?$AA@ 1004b360     LIBCMT:fpexcept.obj
 0002:00009368       ??_C@_05CEJMAHNP@ldexp?$AA@ 1004b368     LIBCMT:fpexcept.obj
 0002:00009370       ??_C@_05KBKMEMPO@_cabs?$AA@ 1004b370     LIBCMT:fpexcept.obj
 0002:00009378       ??_C@_06MEIMCGCF@_hypot?$AA@ 1004b378     LIBCMT:fpexcept.obj
 0002:00009380       ??_C@_04KEPJIHGP@fmod?$AA@ 1004b380     LIBCMT:fpexcept.obj
 0002:00009388       ??_C@_05GKKHEGJL@frexp?$AA@ 1004b388     LIBCMT:fpexcept.obj
 0002:00009390       ??_C@_03MJLDFKDL@_y0?$AA@  1004b390     LIBCMT:fpexcept.obj
 0002:00009394       ??_C@_03NAKIGLHK@_y1?$AA@  1004b394     LIBCMT:fpexcept.obj
 0002:00009398       ??_C@_03ONILCKOB@_yn?$AA@  1004b398     LIBCMT:fpexcept.obj
 0002:0000939c       ??_C@_05JGDBENOH@_logb?$AA@ 1004b39c     LIBCMT:fpexcept.obj
 0002:000093a4       ??_C@_0L@KDOEJCKC@_nextafter?$AA@ 1004b3a4     LIBCMT:fpexcept.obj
 0002:000093b0       ??_C@_03KHJOGHMM@exp?$AA@  1004b3b0     LIBCMT:fpexcept.obj
 0002:000093b4       ??_C@_03JGHBODFD@pow?$AA@  1004b3b4     LIBCMT:fpexcept.obj
 0002:000093b8       ??_C@_03MGHMBJCF@log?$AA@  1004b3b8     LIBCMT:fpexcept.obj
 0002:000093bc       ??_C@_05HGHHAHAP@log10?$AA@ 1004b3bc     LIBCMT:fpexcept.obj
 0002:000093c4       ??_C@_04COOMCNPB@sinh?$AA@ 1004b3c4     LIBCMT:fpexcept.obj
 0002:000093cc       ??_C@_04HPJJNFIM@cosh?$AA@ 1004b3cc     LIBCMT:fpexcept.obj
 0002:000093d4       ??_C@_1BG@GOEBHBDC@?$AAU?$AAS?$AAE?$AAR?$AA3?$AA2?$AA?4?$AAD?$AAL?$AAL?$AA?$AA@ 1004b3d4     LIBCMT:crtmboxw.obj
 0002:000093ec       ??_C@_0M@DLDCCGNP@MessageBoxW?$AA@ 1004b3ec     LIBCMT:crtmboxw.obj
 0002:000093f8       ??_C@_0BA@HNOPNCHB@GetActiveWindow?$AA@ 1004b3f8     LIBCMT:crtmboxw.obj
 0002:00009408       ??_C@_0BD@HHGDFDBJ@GetLastActivePopup?$AA@ 1004b408     LIBCMT:crtmboxw.obj
 0002:0000941c       ??_C@_0BK@DEKFELLI@GetUserObjectInformationW?$AA@ 1004b41c     LIBCMT:crtmboxw.obj
 0002:00009438       ??_C@_0BI@DFKBFLJE@GetProcessWindowStation?$AA@ 1004b438     LIBCMT:crtmboxw.obj
 0002:00009450       __XcptActTab               1004b450     LIBCMT:winxfltr.obj
 0002:000094e0       __XcptActTabCount          1004b4e0     LIBCMT:winxfltr.obj
 0002:000094e4       __XcptActTabSize           1004b4e4     LIBCMT:winxfltr.obj
 0002:000094e8       __First_FPE_Indx           1004b4e8     LIBCMT:winxfltr.obj
 0002:000094ec       __Num_FPE                  1004b4ec     LIBCMT:winxfltr.obj
 0002:000094f0       ___lookuptable_s           1004b4f0     LIBCMT:outputs.obj
 0002:0000954c       ??_C@_03KOEHGMDN@Sun?$AA@  1004b54c     LIBCMT:nlsdata.obj
 0002:00009550       ??_C@_03PDAGKDH@Mon?$AA@   1004b550     LIBCMT:nlsdata.obj
 0002:00009554       ??_C@_03NAGEINEP@Tue?$AA@  1004b554     LIBCMT:nlsdata.obj
 0002:00009558       ??_C@_03MHOMLAJA@Wed?$AA@  1004b558     LIBCMT:nlsdata.obj
 0002:0000955c       ??_C@_03IOFIKPDN@Thu?$AA@  1004b55c     LIBCMT:nlsdata.obj
 0002:00009560       ??_C@_03IDIOELNC@Fri?$AA@  1004b560     LIBCMT:nlsdata.obj
 0002:00009564       ??_C@_03FEFJNEK@Sat?$AA@   1004b564     LIBCMT:nlsdata.obj
 0002:00009568       ??_C@_06OOPIFAJ@Sunday?$AA@ 1004b568     LIBCMT:nlsdata.obj
 0002:00009570       ??_C@_06JLEDEDGH@Monday?$AA@ 1004b570     LIBCMT:nlsdata.obj
 0002:00009578       ??_C@_07BAAGCFCM@Tuesday?$AA@ 1004b578     LIBCMT:nlsdata.obj
 0002:00009580       ??_C@_09DLIGFAKA@Wednesday?$AA@ 1004b580     LIBCMT:nlsdata.obj
 0002:0000958c       ??_C@_08HACCIKIA@Thursday?$AA@ 1004b58c     LIBCMT:nlsdata.obj
 0002:00009598       ??_C@_06JECMNKMI@Friday?$AA@ 1004b598     LIBCMT:nlsdata.obj
 0002:000095a0       ??_C@_08INBOOONO@Saturday?$AA@ 1004b5a0     LIBCMT:nlsdata.obj
 0002:000095ac       ??_C@_03JIHJHPIE@Jan?$AA@  1004b5ac     LIBCMT:nlsdata.obj
 0002:000095b0       ??_C@_03HJBDCHOM@Feb?$AA@  1004b5b0     LIBCMT:nlsdata.obj
 0002:000095b4       ??_C@_03ODNJBKGA@Mar?$AA@  1004b5b4     LIBCMT:nlsdata.obj
 0002:000095b8       ??_C@_03LEOLGMJP@Apr?$AA@  1004b5b8     LIBCMT:nlsdata.obj
 0002:000095bc       ??_C@_03CNMDKL@May?$AA@    1004b5bc     LIBCMT:nlsdata.obj
 0002:000095c0       ??_C@_03IDFGHECI@Jun?$AA@  1004b5c0     LIBCMT:nlsdata.obj
 0002:000095c4       ??_C@_03LBGABGKK@Jul?$AA@  1004b5c4     LIBCMT:nlsdata.obj
 0002:000095c8       ??_C@_03IFJFEIGA@Aug?$AA@  1004b5c8     LIBCMT:nlsdata.obj
 0002:000095cc       ??_C@_03GGCAPAJC@Sep?$AA@  1004b5cc     LIBCMT:nlsdata.obj
 0002:000095d0       ??_C@_03BMAOKBAD@Oct?$AA@  1004b5d0     LIBCMT:nlsdata.obj
 0002:000095d4       ??_C@_03JPJOFNIA@Nov?$AA@  1004b5d4     LIBCMT:nlsdata.obj
 0002:000095d8       ??_C@_03MKABNOCG@Dec?$AA@  1004b5d8     LIBCMT:nlsdata.obj
 0002:000095dc       ??_C@_07CGJPFGJA@January?$AA@ 1004b5dc     LIBCMT:nlsdata.obj
 0002:000095e4       ??_C@_08GNJGEPFN@February?$AA@ 1004b5e4     LIBCMT:nlsdata.obj
 0002:000095f0       ??_C@_05HPCKOFNC@March?$AA@ 1004b5f0     LIBCMT:nlsdata.obj
 0002:000095f8       ??_C@_05DMJDNLEJ@April?$AA@ 1004b5f8     LIBCMT:nlsdata.obj
 0002:00009600       ??_C@_04CNLMGBGM@June?$AA@ 1004b600     LIBCMT:nlsdata.obj
 0002:00009608       ??_C@_04MIEPOIFP@July?$AA@ 1004b608     LIBCMT:nlsdata.obj
 0002:00009610       ??_C@_06LBBHFDDG@August?$AA@ 1004b610     LIBCMT:nlsdata.obj
 0002:00009618       ??_C@_09BHHEALKD@September?$AA@ 1004b618     LIBCMT:nlsdata.obj
 0002:00009624       ??_C@_07JJNFCEND@October?$AA@ 1004b624     LIBCMT:nlsdata.obj
 0002:0000962c       ??_C@_08HCHEGEOA@November?$AA@ 1004b62c     LIBCMT:nlsdata.obj
 0002:00009638       ??_C@_08EDHMEBNP@December?$AA@ 1004b638     LIBCMT:nlsdata.obj
 0002:00009644       ??_C@_02DEDBPAFC@AM?$AA@   1004b644     LIBCMT:nlsdata.obj
 0002:00009648       ??_C@_02CJNFDJBF@PM?$AA@   1004b648     LIBCMT:nlsdata.obj
 0002:0000964c       ??_C@_08BPBNCDIB@MM?1dd?1yy?$AA@ 1004b64c     LIBCMT:nlsdata.obj
 0002:00009658       ??_C@_0BE@CKGJFCPC@dddd?0?5MMMM?5dd?0?5yyyy?$AA@ 1004b658     LIBCMT:nlsdata.obj
 0002:0000966c       ??_C@_08JCCMCCIL@HH?3mm?3ss?$AA@ 1004b66c     LIBCMT:nlsdata.obj
 0002:00009678       ??_C@_17MBGCMIPB@?$AAS?$AAu?$AAn?$AA?$AA@ 1004b678     LIBCMT:nlsdata.obj
 0002:00009680       ??_C@_17KBOMKBF@?$AAM?$AAo?$AAn?$AA?$AA@ 1004b680     LIBCMT:nlsdata.obj
 0002:00009688       ??_C@_17BMKGEGOJ@?$AAT?$AAu?$AAe?$AA?$AA@ 1004b688     LIBCMT:nlsdata.obj
 0002:00009690       ??_C@_17CJEDCEPE@?$AAW?$AAe?$AAd?$AA?$AA@ 1004b690     LIBCMT:nlsdata.obj
 0002:00009698       ??_C@_17PDPHAADD@?$AAT?$AAh?$AAu?$AA?$AA@ 1004b698     LIBCMT:nlsdata.obj
 0002:000096a0       ??_C@_17HFOLPPLP@?$AAF?$AAr?$AAi?$AA?$AA@ 1004b6a0     LIBCMT:nlsdata.obj
 0002:000096a8       ??_C@_17GGIBDPIH@?$AAS?$AAa?$AAt?$AA?$AA@ 1004b6a8     LIBCMT:nlsdata.obj
 0002:000096b0       ??_C@_1O@IHNHDHPB@?$AAS?$AAu?$AAn?$AAd?$AAa?$AAy?$AA?$AA@ 1004b6b0     LIBCMT:nlsdata.obj
 0002:000096c0       ??_C@_1O@MMNBFLIA@?$AAM?$AAo?$AAn?$AAd?$AAa?$AAy?$AA?$AA@ 1004b6c0     LIBCMT:nlsdata.obj
 0002:000096d0       ??_C@_1BA@ENFBFFEK@?$AAT?$AAu?$AAe?$AAs?$AAd?$AAa?$AAy?$AA?$AA@ 1004b6d0     LIBCMT:nlsdata.obj
 0002:000096e0       ??_C@_1BE@EBOGMDOH@?$AAW?$AAe?$AAd?$AAn?$AAe?$AAs?$AAd?$AAa?$AAy?$AA?$AA@ 1004b6e0     LIBCMT:nlsdata.obj
 0002:000096f4       ??_C@_1BC@HHMNLIHE@?$AAT?$AAh?$AAu?$AAr?$AAs?$AAd?$AAa?$AAy?$AA?$AA@ 1004b6f4     LIBCMT:nlsdata.obj
 0002:00009708       ??_C@_1O@PDICJHAG@?$AAF?$AAr?$AAi?$AAd?$AAa?$AAy?$AA?$AA@ 1004b708     LIBCMT:nlsdata.obj
 0002:00009718       ??_C@_1BC@ENMNNPAJ@?$AAS?$AAa?$AAt?$AAu?$AAr?$AAd?$AAa?$AAy?$AA?$AA@ 1004b718     LIBCMT:nlsdata.obj
 0002:0000972c       ??_C@_17DKNBKCHM@?$AAJ?$AAa?$AAn?$AA?$AA@ 1004b72c     LIBCMT:nlsdata.obj
 0002:00009734       ??_C@_17LMDJEKJN@?$AAF?$AAe?$AAb?$AA?$AA@ 1004b734     LIBCMT:nlsdata.obj
 0002:0000973c       ??_C@_17CKNLEDEC@?$AAM?$AAa?$AAr?$AA?$AA@ 1004b73c     LIBCMT:nlsdata.obj
 0002:00009744       ??_C@_17LFPOIHDD@?$AAA?$AAp?$AAr?$AA?$AA@ 1004b744     LIBCMT:nlsdata.obj
 0002:0000974c       ??_C@_17PNNKMEED@?$AAM?$AAa?$AAy?$AA?$AA@ 1004b74c     LIBCMT:nlsdata.obj
 0002:00009754       ??_C@_17KCJGOCPB@?$AAJ?$AAu?$AAn?$AA?$AA@ 1004b754     LIBCMT:nlsdata.obj
 0002:0000975c       ??_C@_17IJPCKHK@?$AAJ?$AAu?$AAl?$AA?$AA@ 1004b75c     LIBCMT:nlsdata.obj
 0002:00009764       ??_C@_17ICPELBCN@?$AAA?$AAu?$AAg?$AA?$AA@ 1004b764     LIBCMT:nlsdata.obj
 0002:0000976c       ??_C@_17HCHCOKMG@?$AAS?$AAe?$AAp?$AA?$AA@ 1004b76c     LIBCMT:nlsdata.obj
 0002:00009774       ??_C@_17FNLKOI@?$AAO?$AAc?$AAt?$AA?$AA@ 1004b774     LIBCMT:nlsdata.obj
 0002:0000977c       ??_C@_17BBDMLCIG@?$AAN?$AAo?$AAv?$AA?$AA@ 1004b77c     LIBCMT:nlsdata.obj
 0002:00009784       ??_C@_17EGKACKIF@?$AAD?$AAe?$AAc?$AA?$AA@ 1004b784     LIBCMT:nlsdata.obj
 0002:0000978c       ??_C@_1BA@EFMEIEBA@?$AAJ?$AAa?$AAn?$AAu?$AAa?$AAr?$AAy?$AA?$AA@ 1004b78c     LIBCMT:nlsdata.obj
 0002:0000979c       ??_C@_1BC@JGDDFFAM@?$AAF?$AAe?$AAb?$AAr?$AAu?$AAa?$AAr?$AAy?$AA?$AA@ 1004b79c     LIBCMT:nlsdata.obj
 0002:000097b0       ??_C@_1M@IKEENEDF@?$AAM?$AAa?$AAr?$AAc?$AAh?$AA?$AA@ 1004b7b0     LIBCMT:nlsdata.obj
 0002:000097bc       ??_C@_1M@GJNLMHFD@?$AAA?$AAp?$AAr?$AAi?$AAl?$AA?$AA@ 1004b7bc     LIBCMT:nlsdata.obj
 0002:000097c8       ??_C@_19EPFLPGAP@?$AAJ?$AAu?$AAn?$AAe?$AA?$AA@ 1004b7c8     LIBCMT:nlsdata.obj
 0002:000097d4       ??_C@_19BIFMLPCD@?$AAJ?$AAu?$AAl?$AAy?$AA?$AA@ 1004b7d4     LIBCMT:nlsdata.obj
 0002:000097e0       ??_C@_1O@PAHLKOAC@?$AAA?$AAu?$AAg?$AAu?$AAs?$AAt?$AA?$AA@ 1004b7e0     LIBCMT:nlsdata.obj
 0002:000097f0       ??_C@_1BE@DKAAMBJL@?$AAS?$AAe?$AAp?$AAt?$AAe?$AAm?$AAb?$AAe?$AAr?$AA?$AA@ 1004b7f0     LIBCMT:nlsdata.obj
 0002:00009804       ??_C@_1BA@EPANDLNG@?$AAO?$AAc?$AAt?$AAo?$AAb?$AAe?$AAr?$AA?$AA@ 1004b804     LIBCMT:nlsdata.obj
 0002:00009814       ??_C@_1BC@BGLIFPF@?$AAN?$AAo?$AAv?$AAe?$AAm?$AAb?$AAe?$AAr?$AA?$AA@ 1004b814     LIBCMT:nlsdata.obj
 0002:00009828       ??_C@_1BC@FEMKIFH@?$AAD?$AAe?$AAc?$AAe?$AAm?$AAb?$AAe?$AAr?$AA?$AA@ 1004b828     LIBCMT:nlsdata.obj
 0002:0000983c       ??_C@_15ODEHAHHF@?$AAA?$AAM?$AA?$AA@ 1004b83c     LIBCMT:nlsdata.obj
 0002:00009844       ??_C@_15CLMNNGEL@?$AAP?$AAM?$AA?$AA@ 1004b844     LIBCMT:nlsdata.obj
 0002:0000984c       ??_C@_1BC@IEBCMHCM@?$AAM?$AAM?$AA?1?$AAd?$AAd?$AA?1?$AAy?$AAy?$AA?$AA@ 1004b84c     LIBCMT:nlsdata.obj
 0002:00009860       ??_C@_1CI@KNAKOEBC@?$AAd?$AAd?$AAd?$AAd?$AA?0?$AA?5?$AAM?$AAM?$AAM?$AAM?$AA?5?$AAd?$AAd?$AA?0?$AA?5?$AAy?$AAy?$AAy?$AAy?$AA?$AA@ 1004b860     LIBCMT:nlsdata.obj
 0002:00009888       ??_C@_1BC@GDGBMEMK@?$AAH?$AAH?$AA?3?$AAm?$AAm?$AA?3?$AAs?$AAs?$AA?$AA@ 1004b888     LIBCMT:nlsdata.obj
 0002:0000989c       ??_C@_1M@BMHNFIME@?$AAe?$AAn?$AA?9?$AAU?$AAS?$AA?$AA@ 1004b89c     LIBCMT:nlsdata.obj
 0002:000098a8       _LcidToLocaleNameTable     1004b8a8     LIBCMT:winapinls.obj
 0002:00009fc8       _LocaleNameToIndexTable    1004bfc8     LIBCMT:winapinls.obj
 0002:0000a6e8       ??_C@_15EMKDOKLE@?$AAa?$AAr?$AA?$AA@ 1004c6e8     LIBCMT:winapinls.obj
 0002:0000a6f0       ??_C@_15KNPADPLH@?$AAb?$AAg?$AA?$AA@ 1004c6f0     LIBCMT:winapinls.obj
 0002:0000a6f8       ??_C@_15EDMHLDMO@?$AAc?$AAa?$AA?$AA@ 1004c6f8     LIBCMT:winapinls.obj
 0002:0000a700       ??_C@_1O@BPEAJADD@?$AAz?$AAh?$AA?9?$AAC?$AAH?$AAS?$AA?$AA@ 1004c700     LIBCMT:winapinls.obj
 0002:0000a710       ??_C@_15LJNHCMNK@?$AAc?$AAs?$AA?$AA@ 1004c710     LIBCMT:winapinls.obj
 0002:0000a718       ??_C@_15FOMCIDHG@?$AAd?$AAa?$AA?$AA@ 1004c718     LIBCMT:winapinls.obj
 0002:0000a720       ??_C@_15NBKABECB@?$AAd?$AAe?$AA?$AA@ 1004c720     LIBCMT:winapinls.obj
 0002:0000a728       ??_C@_15GHPEIIAO@?$AAe?$AAl?$AA?$AA@ 1004c728     LIBCMT:winapinls.obj
 0002:0000a730       ??_C@_15MNPNEAIF@?$AAe?$AAn?$AA?$AA@ 1004c730     LIBCMT:winapinls.obj
 0002:0000a738       ??_C@_15GPIOMPMH@?$AAe?$AAs?$AA?$AA@ 1004c738     LIBCMT:winapinls.obj
 0002:0000a740       ??_C@_15NGLOAKJC@?$AAf?$AAi?$AA?$AA@ 1004c740     LIBCMT:winapinls.obj
 0002:0000a748       ??_C@_15FBKGNKAM@?$AAf?$AAr?$AA?$AA@ 1004c748     LIBCMT:winapinls.obj
 0002:0000a750       ??_C@_15KGGCNEFK@?$AAh?$AAe?$AA?$AA@ 1004c750     LIBCMT:winapinls.obj
 0002:0000a758       ??_C@_15PGHLIDMF@?$AAh?$AAu?$AA?$AA@ 1004c758     LIBCMT:winapinls.obj
 0002:0000a760       ??_C@_15BIEMAPLM@?$AAi?$AAs?$AA?$AA@ 1004c760     LIBCMT:winapinls.obj
 0002:0000a768       ??_C@_15IFJLDHAF@?$AAi?$AAt?$AA?$AA@ 1004c768     LIBCMT:winapinls.obj
 0002:0000a770       ??_C@_15GEMIOCAG@?$AAj?$AAa?$AA?$AA@ 1004c770     LIBCMT:winapinls.obj
 0002:0000a778       ??_C@_15EPELEGJA@?$AAk?$AAo?$AA?$AA@ 1004c778     LIBCMT:winapinls.obj
 0002:0000a780       ??_C@_15NDDHIMN@?$AAn?$AAl?$AA?$AA@ 1004c780     LIBCMT:winapinls.obj
 0002:0000a788       ??_C@_15BPIGNHCD@?$AAn?$AAo?$AA?$AA@ 1004c788     LIBCMT:winapinls.obj
 0002:0000a790       ??_C@_15DEOPBLCG@?$AAp?$AAl?$AA?$AA@ 1004c790     LIBCMT:winapinls.obj
 0002:0000a798       ??_C@_15KBECGEFG@?$AAp?$AAt?$AA?$AA@ 1004c798     LIBCMT:winapinls.obj
 0002:0000a7a0       ??_C@_15GLJCBFMD@?$AAr?$AAo?$AA?$AA@ 1004c7a0     LIBCMT:winapinls.obj
 0002:0000a7a8       ??_C@_15FEDGKCDI@?$AAr?$AAu?$AA?$AA@ 1004c7a8     LIBCMT:winapinls.obj
 0002:0000a7b0       ??_C@_15GLKMLLHM@?$AAh?$AAr?$AA?$AA@ 1004c7b0     LIBCMT:winapinls.obj
 0002:0000a7b8       ??_C@_15CPKMFBDB@?$AAs?$AAk?$AA?$AA@ 1004c7b8     LIBCMT:winapinls.obj
 0002:0000a7c0       ??_C@_15BAAIOGMK@?$AAs?$AAq?$AA?$AA@ 1004c7c0     LIBCMT:winapinls.obj
 0002:0000a7c8       ??_C@_15INNPNOHD@?$AAs?$AAv?$AA?$AA@ 1004c7c8     LIBCMT:winapinls.obj
 0002:0000a7d0       ??_C@_15CABMMOGH@?$AAt?$AAh?$AA?$AA@ 1004c7d0     LIBCMT:winapinls.obj
 0002:0000a7d8       ??_C@_15BPLIHJJM@?$AAt?$AAr?$AA?$AA@ 1004c7d8     LIBCMT:winapinls.obj
 0002:0000a7e0       ??_C@_15NEOEKKDJ@?$AAu?$AAr?$AA?$AA@ 1004c7e0     LIBCMT:winapinls.obj
 0002:0000a7e8       ??_C@_15NFICGAJK@?$AAi?$AAd?$AA?$AA@ 1004c7e8     LIBCMT:winapinls.obj
 0002:0000a7f0       ??_C@_15PJPFLCCM@?$AAu?$AAk?$AA?$AA@ 1004c7f0     LIBCMT:winapinls.obj
 0002:0000a7f8       ??_C@_15HPJPHDM@?$AAb?$AAe?$AA?$AA@ 1004c7f8     LIBCMT:winapinls.obj
 0002:0000a800       ??_C@_15LCHLGJII@?$AAs?$AAl?$AA?$AA@ 1004c800     LIBCMT:winapinls.obj
 0002:0000a808       ??_C@_15PCFJPHHO@?$AAe?$AAt?$AA?$AA@ 1004c808     LIBCMT:winapinls.obj
 0002:0000a810       ??_C@_15HPFPGODN@?$AAl?$AAv?$AA?$AA@ 1004c810     LIBCMT:winapinls.obj
 0002:0000a818       ??_C@_15NFFGKGLG@?$AAl?$AAt?$AA?$AA@ 1004c818     LIBCMT:winapinls.obj
 0002:0000a820       ??_C@_15BDAKCCHN@?$AAf?$AAa?$AA?$AA@ 1004c820     LIBCMT:winapinls.obj
 0002:0000a828       ??_C@_15NFGIAIAJ@?$AAv?$AAi?$AA?$AA@ 1004c828     LIBCMT:winapinls.obj
 0002:0000a830       ??_C@_15LMKNDMHN@?$AAh?$AAy?$AA?$AA@ 1004c830     LIBCMT:winapinls.obj
 0002:0000a838       ??_C@_15IJBHMCFL@?$AAa?$AAz?$AA?$AA@ 1004c838     LIBCMT:winapinls.obj
 0002:0000a840       ??_C@_15EKOFJABL@?$AAe?$AAu?$AA?$AA@ 1004c840     LIBCMT:winapinls.obj
 0002:0000a848       ??_C@_15BGHADCNK@?$AAm?$AAk?$AA?$AA@ 1004c848     LIBCMT:winapinls.obj
 0002:0000a850       ??_C@_15JDNICKHM@?$AAa?$AAf?$AA?$AA@ 1004c850     LIBCMT:winapinls.obj
 0002:0000a858       ??_C@_15KPJEDBKD@?$AAk?$AAa?$AA?$AA@ 1004c858     LIBCMT:winapinls.obj
 0002:0000a860       ??_C@_15PDNFFFEO@?$AAf?$AAo?$AA?$AA@ 1004c860     LIBCMT:winapinls.obj
 0002:0000a868       ??_C@_15OMLEGLOC@?$AAh?$AAi?$AA?$AA@ 1004c868     LIBCMT:winapinls.obj
 0002:0000a870       ??_C@_15IDNNENKK@?$AAm?$AAs?$AA?$AA@ 1004c870     LIBCMT:winapinls.obj
 0002:0000a878       ??_C@_15MACJNBMH@?$AAk?$AAk?$AA?$AA@ 1004c878     LIBCMT:winapinls.obj
 0002:0000a880       ??_C@_15DKDJEOND@?$AAk?$AAy?$AA?$AA@ 1004c880     LIBCMT:winapinls.obj
 0002:0000a888       ??_C@_15DFGDLJBG@?$AAs?$AAw?$AA?$AA@ 1004c888     LIBCMT:winapinls.obj
 0002:0000a890       ??_C@_15BBFAICNG@?$AAu?$AAz?$AA?$AA@ 1004c890     LIBCMT:winapinls.obj
 0002:0000a898       ??_C@_15DKNDCGEA@?$AAt?$AAt?$AA?$AA@ 1004c898     LIBCMT:winapinls.obj
 0002:0000a8a0       ??_C@_15MGIFMDPL@?$AAp?$AAa?$AA?$AA@ 1004c8a0     LIBCMT:winapinls.obj
 0002:0000a8a8       ??_C@_15HCNDBBA@?$AAg?$AAu?$AA?$AA@ 1004c8a8     LIBCMT:winapinls.obj
 0002:0000a8b0       ??_C@_15FNBEIBON@?$AAt?$AAa?$AA?$AA@ 1004c8b0     LIBCMT:winapinls.obj
 0002:0000a8b8       ??_C@_15NCHGBGLK@?$AAt?$AAe?$AA?$AA@ 1004c8b8     LIBCMT:winapinls.obj
 0002:0000a8c0       ??_C@_15PHPHCBPF@?$AAk?$AAn?$AA?$AA@ 1004c8c0     LIBCMT:winapinls.obj
 0002:0000a8c8       ??_C@_15DLGBCKMP@?$AAm?$AAr?$AA?$AA@ 1004c8c8     LIBCMT:winapinls.obj
 0002:0000a8d0       ??_C@_15EABBLBFF@?$AAs?$AAa?$AA?$AA@ 1004c8d0     LIBCMT:winapinls.obj
 0002:0000a8d8       ??_C@_15CBKOMCOI@?$AAm?$AAn?$AA?$AA@ 1004c8d8     LIBCMT:winapinls.obj
 0002:0000a8e0       ??_C@_15CKDMCJAF@?$AAg?$AAl?$AA?$AA@ 1004c8e0     LIBCMT:winapinls.obj
 0002:0000a8e8       ??_C@_17CNJFBPG@?$AAk?$AAo?$AAk?$AA?$AA@ 1004c8e8     LIBCMT:winapinls.obj
 0002:0000a8f0       ??_C@_17FFBJICPL@?$AAs?$AAy?$AAr?$AA?$AA@ 1004c8f0     LIBCMT:winapinls.obj
 0002:0000a8f8       ??_C@_17KPNDCPAF@?$AAd?$AAi?$AAv?$AA?$AA@ 1004c8f8     LIBCMT:winapinls.obj
 0002:0000a900       ??_C@_11LOCGONAA@?$AA?$AA@ 1004c900     LIBCMT:winapinls.obj
 0002:0000a904       ??_C@_1M@OKAHONE@?$AAa?$AAr?$AA?9?$AAS?$AAA?$AA?$AA@ 1004c904     LIBCMT:winapinls.obj
 0002:0000a910       ??_C@_1M@FFFIGIGK@?$AAb?$AAg?$AA?9?$AAB?$AAG?$AA?$AA@ 1004c910     LIBCMT:winapinls.obj
 0002:0000a91c       ??_C@_1M@BJNKEDC@?$AAc?$AAa?$AA?9?$AAE?$AAS?$AA?$AA@ 1004c91c     LIBCMT:winapinls.obj
 0002:0000a928       ??_C@_1M@IJJHFJHA@?$AAc?$AAs?$AA?9?$AAC?$AAZ?$AA?$AA@ 1004c928     LIBCMT:winapinls.obj
 0002:0000a934       ??_C@_1M@CLPEOBGI@?$AAd?$AAa?$AA?9?$AAD?$AAK?$AA?$AA@ 1004c934     LIBCMT:winapinls.obj
 0002:0000a940       ??_C@_1M@MCMADGCB@?$AAd?$AAe?$AA?9?$AAD?$AAE?$AA?$AA@ 1004c940     LIBCMT:winapinls.obj
 0002:0000a94c       ??_C@_1M@OOCKEMAM@?$AAe?$AAl?$AA?9?$AAG?$AAR?$AA?$AA@ 1004c94c     LIBCMT:winapinls.obj
 0002:0000a958       ??_C@_1M@DDNJFGID@?$AAf?$AAi?$AA?9?$AAF?$AAI?$AA?$AA@ 1004c958     LIBCMT:winapinls.obj
 0002:0000a964       ??_C@_1M@GLIPPMAC@?$AAf?$AAr?$AA?9?$AAF?$AAR?$AA?$AA@ 1004c964     LIBCMT:winapinls.obj
 0002:0000a970       ??_C@_1M@GFMCHPE@?$AAh?$AAe?$AA?9?$AAI?$AAL?$AA?$AA@ 1004c970     LIBCMT:winapinls.obj
 0002:0000a97c       ??_C@_1M@MHLPGNKM@?$AAh?$AAu?$AA?9?$AAH?$AAU?$AA?$AA@ 1004c97c     LIBCMT:winapinls.obj
 0002:0000a988       ??_C@_1M@LPDDNNPN@?$AAi?$AAs?$AA?9?$AAI?$AAS?$AA?$AA@ 1004c988     LIBCMT:winapinls.obj
 0002:0000a994       ??_C@_1M@MADIPODN@?$AAi?$AAt?$AA?9?$AAI?$AAT?$AA?$AA@ 1004c994     LIBCMT:winapinls.obj
 0002:0000a9a0       ??_C@_1M@IHBJJGG@?$AAn?$AAl?$AA?9?$AAN?$AAL?$AA?$AA@ 1004c9a0     LIBCMT:winapinls.obj
 0002:0000a9ac       ??_C@_1M@EANAGDL@?$AAn?$AAb?$AA?9?$AAN?$AAO?$AA?$AA@ 1004c9ac     LIBCMT:winapinls.obj
 0002:0000a9b8       ??_C@_1M@NEIEMEGP@?$AAp?$AAl?$AA?9?$AAP?$AAL?$AA?$AA@ 1004c9b8     LIBCMT:winapinls.obj
 0002:0000a9c4       ??_C@_1M@BOCFIGEP@?$AAp?$AAt?$AA?9?$AAB?$AAR?$AA?$AA@ 1004c9c4     LIBCMT:winapinls.obj
 0002:0000a9d0       ??_C@_1M@IMPFOPBG@?$AAr?$AAo?$AA?9?$AAR?$AAO?$AA?$AA@ 1004c9d0     LIBCMT:winapinls.obj
 0002:0000a9dc       ??_C@_1M@IDNNEJMM@?$AAr?$AAu?$AA?9?$AAR?$AAU?$AA?$AA@ 1004c9dc     LIBCMT:winapinls.obj
 0002:0000a9e8       ??_C@_1M@LILEEOGM@?$AAh?$AAr?$AA?9?$AAH?$AAR?$AA?$AA@ 1004c9e8     LIBCMT:winapinls.obj
 0002:0000a9f4       ??_C@_1M@FKIFEHPB@?$AAs?$AAk?$AA?9?$AAS?$AAK?$AA?$AA@ 1004c9f4     LIBCMT:winapinls.obj
 0002:0000aa00       ??_C@_1M@LJMAMNPJ@?$AAs?$AAq?$AA?9?$AAA?$AAL?$AA?$AA@ 1004ca00     LIBCMT:winapinls.obj
 0002:0000aa0c       ??_C@_1M@GIAKDKJK@?$AAs?$AAv?$AA?9?$AAS?$AAE?$AA?$AA@ 1004ca0c     LIBCMT:winapinls.obj
 0002:0000aa18       ??_C@_1M@MKJKIKCL@?$AAt?$AAh?$AA?9?$AAT?$AAH?$AA?$AA@ 1004ca18     LIBCMT:winapinls.obj
 0002:0000aa24       ??_C@_1M@MFLCCMPB@?$AAt?$AAr?$AA?9?$AAT?$AAR?$AA?$AA@ 1004ca24     LIBCMT:winapinls.obj
 0002:0000aa30       ??_C@_1M@OIJHDKJN@?$AAu?$AAr?$AA?9?$AAP?$AAK?$AA?$AA@ 1004ca30     LIBCMT:winapinls.obj
 0002:0000aa3c       ??_C@_1M@LHIPCIEK@?$AAi?$AAd?$AA?9?$AAI?$AAD?$AA?$AA@ 1004ca3c     LIBCMT:winapinls.obj
 0002:0000aa48       ??_C@_1M@MFMOBGI@?$AAu?$AAk?$AA?9?$AAU?$AAA?$AA?$AA@ 1004ca48     LIBCMT:winapinls.obj
 0002:0000aa54       ??_C@_1M@OBGLJIPL@?$AAb?$AAe?$AA?9?$AAB?$AAY?$AA?$AA@ 1004ca54     LIBCMT:winapinls.obj
 0002:0000aa60       ??_C@_1M@BCFAJEAD@?$AAs?$AAl?$AA?9?$AAS?$AAI?$AA?$AA@ 1004ca60     LIBCMT:winapinls.obj
 0002:0000aa6c       ??_C@_1M@FKFFEDDN@?$AAe?$AAt?$AA?9?$AAE?$AAE?$AA?$AA@ 1004ca6c     LIBCMT:winapinls.obj
 0002:0000aa78       ??_C@_1M@KGKKAACI@?$AAl?$AAv?$AA?9?$AAL?$AAV?$AA?$AA@ 1004ca78     LIBCMT:winapinls.obj
 0002:0000aa84       ??_C@_1M@IFGBIJO@?$AAl?$AAt?$AA?9?$AAL?$AAT?$AA?$AA@ 1004ca84     LIBCMT:winapinls.obj
 0002:0000aa90       ??_C@_1M@FGEAHEDM@?$AAf?$AAa?$AA?9?$AAI?$AAR?$AA?$AA@ 1004ca90     LIBCMT:winapinls.obj
 0002:0000aa9c       ??_C@_1M@KBMAIBFN@?$AAv?$AAi?$AA?9?$AAV?$AAN?$AA?$AA@ 1004ca9c     LIBCMT:winapinls.obj
 0002:0000aaa8       ??_C@_1M@GPCBKDJK@?$AAh?$AAy?$AA?9?$AAA?$AAM?$AA?$AA@ 1004caa8     LIBCMT:winapinls.obj
 0002:0000aab4       ??_C@_1BG@BECMDDJB@?$AAa?$AAz?$AA?9?$AAA?$AAZ?$AA?9?$AAL?$AAa?$AAt?$AAn?$AA?$AA@ 1004cab4     LIBCMT:winapinls.obj
 0002:0000aacc       ??_C@_1M@MAOFCAEA@?$AAe?$AAu?$AA?9?$AAE?$AAS?$AA?$AA@ 1004cacc     LIBCMT:winapinls.obj
 0002:0000aad8       ??_C@_1M@IGHABKPI@?$AAm?$AAk?$AA?9?$AAM?$AAK?$AA?$AA@ 1004cad8     LIBCMT:winapinls.obj
 0002:0000aae4       ??_C@_1M@IAIGNEJG@?$AAt?$AAn?$AA?9?$AAZ?$AAA?$AA?$AA@ 1004cae4     LIBCMT:winapinls.obj
 0002:0000aaf0       ??_C@_1M@IIJCOJFA@?$AAx?$AAh?$AA?9?$AAZ?$AAA?$AA?$AA@ 1004caf0     LIBCMT:winapinls.obj
 0002:0000aafc       ??_C@_1M@LGPJHNJH@?$AAz?$AAu?$AA?9?$AAZ?$AAA?$AA?$AA@ 1004cafc     LIBCMT:winapinls.obj
 0002:0000ab08       ??_C@_1M@HOKAOIO@?$AAa?$AAf?$AA?9?$AAZ?$AAA?$AA?$AA@ 1004cb08     LIBCMT:winapinls.obj
 0002:0000ab14       ??_C@_1M@DPCLHLIE@?$AAk?$AAa?$AA?9?$AAG?$AAE?$AA?$AA@ 1004cb14     LIBCMT:winapinls.obj
 0002:0000ab20       ??_C@_1M@BLKMHJBI@?$AAf?$AAo?$AA?9?$AAF?$AAO?$AA?$AA@ 1004cb20     LIBCMT:winapinls.obj
 0002:0000ab2c       ??_C@_1M@LGGJAPPB@?$AAh?$AAi?$AA?9?$AAI?$AAN?$AA?$AA@ 1004cb2c     LIBCMT:winapinls.obj
 0002:0000ab38       ??_C@_1M@FIKPIHFE@?$AAm?$AAt?$AA?9?$AAM?$AAT?$AA?$AA@ 1004cb38     LIBCMT:winapinls.obj
 0002:0000ab44       ??_C@_1M@HEGGPBFA@?$AAs?$AAe?$AA?9?$AAN?$AAO?$AA?$AA@ 1004cb44     LIBCMT:winapinls.obj
 0002:0000ab50       ??_C@_1M@EIBJEEPA@?$AAm?$AAs?$AA?9?$AAM?$AAY?$AA?$AA@ 1004cb50     LIBCMT:winapinls.obj
 0002:0000ab5c       ??_C@_1M@FHLBGMPP@?$AAk?$AAk?$AA?9?$AAK?$AAZ?$AA?$AA@ 1004cb5c     LIBCMT:winapinls.obj
 0002:0000ab68       ??_C@_1M@NGJJLCGI@?$AAk?$AAy?$AA?9?$AAK?$AAG?$AA?$AA@ 1004cb68     LIBCMT:winapinls.obj
 0002:0000ab74       ??_C@_1M@GIENNBFC@?$AAs?$AAw?$AA?9?$AAK?$AAE?$AA?$AA@ 1004cb74     LIBCMT:winapinls.obj
 0002:0000ab80       ??_C@_1BG@NDGMJIMJ@?$AAu?$AAz?$AA?9?$AAU?$AAZ?$AA?9?$AAL?$AAa?$AAt?$AAn?$AA?$AA@ 1004cb80     LIBCMT:winapinls.obj
 0002:0000ab98       ??_C@_1M@IDCCIHBC@?$AAt?$AAt?$AA?9?$AAR?$AAU?$AA?$AA@ 1004cb98     LIBCMT:winapinls.obj
 0002:0000aba4       ??_C@_1M@LOICPMOJ@?$AAb?$AAn?$AA?9?$AAI?$AAN?$AA?$AA@ 1004cba4     LIBCMT:winapinls.obj
 0002:0000abb0       ??_C@_1M@KPKKNEAH@?$AAp?$AAa?$AA?9?$AAI?$AAN?$AA?$AA@ 1004cbb0     LIBCMT:winapinls.obj
 0002:0000abbc       ??_C@_1M@PJGPPBOG@?$AAg?$AAu?$AA?9?$AAI?$AAN?$AA?$AA@ 1004cbbc     LIBCMT:winapinls.obj
 0002:0000abc8       ??_C@_1M@KMKMOPHI@?$AAt?$AAa?$AA?9?$AAI?$AAN?$AA?$AA@ 1004cbc8     LIBCMT:winapinls.obj
 0002:0000abd4       ??_C@_1M@KFEHEPAC@?$AAt?$AAe?$AA?9?$AAI?$AAN?$AA?$AA@ 1004cbd4     LIBCMT:winapinls.obj
 0002:0000abe0       ??_C@_1M@CDCLMGHI@?$AAk?$AAn?$AA?9?$AAI?$AAN?$AA?$AA@ 1004cbe0     LIBCMT:winapinls.obj
 0002:0000abec       ??_C@_1M@MIODLDKF@?$AAm?$AAl?$AA?9?$AAI?$AAN?$AA?$AA@ 1004cbec     LIBCMT:winapinls.obj
 0002:0000abf8       ??_C@_1M@PBIEACPO@?$AAm?$AAr?$AA?9?$AAI?$AAN?$AA?$AA@ 1004cbf8     LIBCMT:winapinls.obj
 0002:0000ac04       ??_C@_1M@NIDEAGPH@?$AAs?$AAa?$AA?9?$AAI?$AAN?$AA?$AA@ 1004cc04     LIBCMT:winapinls.obj
 0002:0000ac10       ??_C@_1M@FHIHCBIO@?$AAm?$AAn?$AA?9?$AAM?$AAN?$AA?$AA@ 1004cc10     LIBCMT:winapinls.obj
 0002:0000ac1c       ??_C@_1M@JAIJPENP@?$AAc?$AAy?$AA?9?$AAG?$AAB?$AA?$AA@ 1004cc1c     LIBCMT:winapinls.obj
 0002:0000ac28       ??_C@_1M@PHGFBEPN@?$AAg?$AAl?$AA?9?$AAE?$AAS?$AA?$AA@ 1004cc28     LIBCMT:winapinls.obj
 0002:0000ac34       ??_C@_1O@KPIPDNCP@?$AAk?$AAo?$AAk?$AA?9?$AAI?$AAN?$AA?$AA@ 1004cc34     LIBCMT:winapinls.obj
 0002:0000ac44       ??_C@_1O@KNHJLDJA@?$AAs?$AAy?$AAr?$AA?9?$AAS?$AAY?$AA?$AA@ 1004cc44     LIBCMT:winapinls.obj
 0002:0000ac54       ??_C@_1O@MKEKBLAH@?$AAd?$AAi?$AAv?$AA?9?$AAM?$AAV?$AA?$AA@ 1004cc54     LIBCMT:winapinls.obj
 0002:0000ac64       ??_C@_1O@OHDCKDDF@?$AAq?$AAu?$AAz?$AA?9?$AAB?$AAO?$AA?$AA@ 1004cc64     LIBCMT:winapinls.obj
 0002:0000ac74       ??_C@_1M@LEPJNLFD@?$AAn?$AAs?$AA?9?$AAZ?$AAA?$AA?$AA@ 1004cc74     LIBCMT:winapinls.obj
 0002:0000ac80       ??_C@_1M@OMLEIIJB@?$AAm?$AAi?$AA?9?$AAN?$AAZ?$AA?$AA@ 1004cc80     LIBCMT:winapinls.obj
 0002:0000ac8c       ??_C@_1M@PMPEAILG@?$AAa?$AAr?$AA?9?$AAI?$AAQ?$AA?$AA@ 1004cc8c     LIBCMT:winapinls.obj
 0002:0000ac98       ??_C@_1M@CNKPNOEE@?$AAd?$AAe?$AA?9?$AAC?$AAH?$AA?$AA@ 1004cc98     LIBCMT:winapinls.obj
 0002:0000aca4       ??_C@_1M@LKMGMLKO@?$AAe?$AAn?$AA?9?$AAG?$AAB?$AA?$AA@ 1004cca4     LIBCMT:winapinls.obj
 0002:0000acb0       ??_C@_1M@PGKJFFGL@?$AAe?$AAs?$AA?9?$AAM?$AAX?$AA?$AA@ 1004ccb0     LIBCMT:winapinls.obj
 0002:0000acbc       ??_C@_1M@DNNANBDC@?$AAf?$AAr?$AA?9?$AAB?$AAE?$AA?$AA@ 1004ccbc     LIBCMT:winapinls.obj
 0002:0000acc8       ??_C@_1M@HLGMDFHM@?$AAi?$AAt?$AA?9?$AAC?$AAH?$AA?$AA@ 1004ccc8     LIBCMT:winapinls.obj
 0002:0000acd4       ??_C@_1M@CLLBGJH@?$AAn?$AAl?$AA?9?$AAB?$AAE?$AA?$AA@ 1004ccd4     LIBCMT:winapinls.obj
 0002:0000ace0       ??_C@_1M@BODBOGLF@?$AAn?$AAn?$AA?9?$AAN?$AAO?$AA?$AA@ 1004cce0     LIBCMT:winapinls.obj
 0002:0000acec       ??_C@_1M@HFFAHKAD@?$AAp?$AAt?$AA?9?$AAP?$AAT?$AA?$AA@ 1004ccec     LIBCMT:winapinls.obj
 0002:0000acf8       ??_C@_1BG@LNOAKHIE@?$AAs?$AAr?$AA?9?$AAS?$AAP?$AA?9?$AAL?$AAa?$AAt?$AAn?$AA?$AA@ 1004ccf8     LIBCMT:winapinls.obj
 0002:0000ad10       ??_C@_1M@HBMHBGAK@?$AAs?$AAv?$AA?9?$AAF?$AAI?$AA?$AA@ 1004cd10     LIBCMT:winapinls.obj
 0002:0000ad1c       ??_C@_1BG@DGCJGJBE@?$AAa?$AAz?$AA?9?$AAA?$AAZ?$AA?9?$AAC?$AAy?$AAr?$AAl?$AA?$AA@ 1004cd1c     LIBCMT:winapinls.obj
 0002:0000ad34       ??_C@_1M@KEJDAAHB@?$AAs?$AAe?$AA?9?$AAS?$AAE?$AA?$AA@ 1004cd34     LIBCMT:winapinls.obj
 0002:0000ad40       ??_C@_1M@HEIBJJAD@?$AAm?$AAs?$AA?9?$AAB?$AAN?$AA?$AA@ 1004cd40     LIBCMT:winapinls.obj
 0002:0000ad4c       ??_C@_1BG@PBGJMCEM@?$AAu?$AAz?$AA?9?$AAU?$AAZ?$AA?9?$AAC?$AAy?$AAr?$AAl?$AA?$AA@ 1004cd4c     LIBCMT:winapinls.obj
 0002:0000ad64       ??_C@_1O@LAOBCMDF@?$AAq?$AAu?$AAz?$AA?9?$AAE?$AAC?$AA?$AA@ 1004cd64     LIBCMT:winapinls.obj
 0002:0000ad74       ??_C@_1M@POEEMAIO@?$AAa?$AAr?$AA?9?$AAE?$AAG?$AA?$AA@ 1004cd74     LIBCMT:winapinls.obj
 0002:0000ad80       ??_C@_1M@EFAKDEDL@?$AAz?$AAh?$AA?9?$AAH?$AAK?$AA?$AA@ 1004cd80     LIBCMT:winapinls.obj
 0002:0000ad8c       ??_C@_1M@HKKIJHGI@?$AAd?$AAe?$AA?9?$AAA?$AAT?$AA?$AA@ 1004cd8c     LIBCMT:winapinls.obj
 0002:0000ad98       ??_C@_1M@KBFBEHJF@?$AAe?$AAn?$AA?9?$AAA?$AAU?$AA?$AA@ 1004cd98     LIBCMT:winapinls.obj
 0002:0000ada4       ??_C@_1M@MNPLFAAH@?$AAe?$AAs?$AA?9?$AAE?$AAS?$AA?$AA@ 1004cda4     LIBCMT:winapinls.obj
 0002:0000adb0       ??_C@_1M@HJOOJFMA@?$AAf?$AAr?$AA?9?$AAC?$AAA?$AA?$AA@ 1004cdb0     LIBCMT:winapinls.obj
 0002:0000adbc       ??_C@_1BG@JPOFPNAB@?$AAs?$AAr?$AA?9?$AAS?$AAP?$AA?9?$AAC?$AAy?$AAr?$AAl?$AA?$AA@ 1004cdbc     LIBCMT:winapinls.obj
 0002:0000add4       ??_C@_1M@LNFOCMOB@?$AAs?$AAe?$AA?9?$AAF?$AAI?$AA?$AA@ 1004cdd4     LIBCMT:winapinls.obj
 0002:0000ade0       ??_C@_1O@MGJBOAMB@?$AAq?$AAu?$AAz?$AA?9?$AAP?$AAE?$AA?$AA@ 1004cde0     LIBCMT:winapinls.obj
 0002:0000adf0       ??_C@_1M@GJINLBOK@?$AAa?$AAr?$AA?9?$AAL?$AAY?$AA?$AA@ 1004cdf0     LIBCMT:winapinls.obj
 0002:0000adfc       ??_C@_1M@GGMNHJNL@?$AAz?$AAh?$AA?9?$AAS?$AAG?$AA?$AA@ 1004cdfc     LIBCMT:winapinls.obj
 0002:0000ae08       ??_C@_1M@HOIKODND@?$AAd?$AAe?$AA?9?$AAL?$AAU?$AA?$AA@ 1004ce08     LIBCMT:winapinls.obj
 0002:0000ae14       ??_C@_1M@DDOCCGFG@?$AAe?$AAn?$AA?9?$AAC?$AAA?$AA?$AA@ 1004ce14     LIBCMT:winapinls.obj
 0002:0000ae20       ??_C@_1M@BNOEMJLF@?$AAe?$AAs?$AA?9?$AAG?$AAT?$AA?$AA@ 1004ce20     LIBCMT:winapinls.obj
 0002:0000ae2c       ??_C@_1M@EOGNKEK@?$AAf?$AAr?$AA?9?$AAC?$AAH?$AA?$AA@ 1004ce2c     LIBCMT:winapinls.obj
 0002:0000ae38       ??_C@_1M@FLIDJFHL@?$AAh?$AAr?$AA?9?$AAB?$AAA?$AA?$AA@ 1004ce38     LIBCMT:winapinls.obj
 0002:0000ae44       ??_C@_1O@FMCELNAJ@?$AAs?$AAm?$AAj?$AA?9?$AAN?$AAO?$AA?$AA@ 1004ce44     LIBCMT:winapinls.obj
 0002:0000ae54       ??_C@_1M@JHGLJMGJ@?$AAa?$AAr?$AA?9?$AAD?$AAZ?$AA?$AA@ 1004ce54     LIBCMT:winapinls.obj
 0002:0000ae60       ??_C@_1M@JKKFDCNP@?$AAz?$AAh?$AA?9?$AAM?$AAO?$AA?$AA@ 1004ce60     LIBCMT:winapinls.obj
 0002:0000ae6c       ??_C@_1M@GEEFALPE@?$AAd?$AAe?$AA?9?$AAL?$AAI?$AA?$AA@ 1004ce6c     LIBCMT:winapinls.obj
 0002:0000ae78       ??_C@_1M@IGEOFBG@?$AAe?$AAn?$AA?9?$AAN?$AAZ?$AA?$AA@ 1004ce78     LIBCMT:winapinls.obj
 0002:0000ae84       ??_C@_1M@KDBONEHP@?$AAe?$AAs?$AA?9?$AAC?$AAR?$AA?$AA@ 1004ce84     LIBCMT:winapinls.obj
 0002:0000ae90       ??_C@_1M@FHMDOHNN@?$AAf?$AAr?$AA?9?$AAL?$AAU?$AA?$AA@ 1004ce90     LIBCMT:winapinls.obj
 0002:0000ae9c       ??_C@_1BG@NFKKMAFG@?$AAb?$AAs?$AA?9?$AAB?$AAA?$AA?9?$AAL?$AAa?$AAt?$AAn?$AA?$AA@ 1004ce9c     LIBCMT:winapinls.obj
 0002:0000aeb4       ??_C@_1O@IMNBEMCI@?$AAs?$AAm?$AAj?$AA?9?$AAS?$AAE?$AA?$AA@ 1004ceb4     LIBCMT:winapinls.obj
 0002:0000aec4       ??_C@_1M@DHHMBNDP@?$AAa?$AAr?$AA?9?$AAM?$AAA?$AA?$AA@ 1004cec4     LIBCMT:winapinls.obj
 0002:0000aed0       ??_C@_1M@BNBLJCGH@?$AAe?$AAn?$AA?9?$AAI?$AAE?$AA?$AA@ 1004ced0     LIBCMT:winapinls.obj
 0002:0000aedc       ??_C@_1M@GEPAFMDL@?$AAe?$AAs?$AA?9?$AAP?$AAA?$AA?$AA@ 1004cedc     LIBCMT:winapinls.obj
 0002:0000aee8       ??_C@_1M@OJONDMDL@?$AAf?$AAr?$AA?9?$AAM?$AAC?$AA?$AA@ 1004cee8     LIBCMT:winapinls.obj
 0002:0000aef4       ??_C@_1BG@OBCNFJB@?$AAs?$AAr?$AA?9?$AAB?$AAA?$AA?9?$AAL?$AAa?$AAt?$AAn?$AA?$AA@ 1004cef4     LIBCMT:winapinls.obj
 0002:0000af0c       ??_C@_1O@KEMEEGPO@?$AAs?$AAm?$AAa?$AA?9?$AAN?$AAO?$AA?$AA@ 1004cf0c     LIBCMT:winapinls.obj
 0002:0000af1c       ??_C@_1M@ELMGFODK@?$AAa?$AAr?$AA?9?$AAT?$AAN?$AA?$AA@ 1004cf1c     LIBCMT:winapinls.obj
 0002:0000af28       ??_C@_1M@BHDLHFAF@?$AAe?$AAn?$AA?9?$AAZ?$AAA?$AA?$AA@ 1004cf28     LIBCMT:winapinls.obj
 0002:0000af34       ??_C@_1M@BMGIGLIF@?$AAe?$AAs?$AA?9?$AAD?$AAO?$AA?$AA@ 1004cf34     LIBCMT:winapinls.obj
 0002:0000af40       ??_C@_1BG@CMBHIPBE@?$AAs?$AAr?$AA?9?$AAB?$AAA?$AA?9?$AAC?$AAy?$AAr?$AAl?$AA?$AA@ 1004cf40     LIBCMT:winapinls.obj
 0002:0000af58       ??_C@_1O@HEDBLHNP@?$AAs?$AAm?$AAa?$AA?9?$AAS?$AAE?$AA?$AA@ 1004cf58     LIBCMT:winapinls.obj
 0002:0000af68       ??_C@_1M@DAGCADIM@?$AAa?$AAr?$AA?9?$AAO?$AAM?$AA?$AA@ 1004cf68     LIBCMT:winapinls.obj
 0002:0000af74       ??_C@_1M@FODLMICG@?$AAe?$AAn?$AA?9?$AAJ?$AAM?$AA?$AA@ 1004cf74     LIBCMT:winapinls.obj
 0002:0000af80       ??_C@_1M@DNMLCIHB@?$AAe?$AAs?$AA?9?$AAV?$AAE?$AA?$AA@ 1004cf80     LIBCMT:winapinls.obj
 0002:0000af8c       ??_C@_1O@EOKHMKJK@?$AAs?$AAm?$AAs?$AA?9?$AAF?$AAI?$AA?$AA@ 1004cf8c     LIBCMT:winapinls.obj
 0002:0000af9c       ??_C@_1M@CAFJMKOF@?$AAa?$AAr?$AA?9?$AAY?$AAE?$AA?$AA@ 1004cf9c     LIBCMT:winapinls.obj
 0002:0000afa8       ??_C@_1M@CBFHIJLI@?$AAe?$AAn?$AA?9?$AAC?$AAB?$AA?$AA@ 1004cfa8     LIBCMT:winapinls.obj
 0002:0000afb4       ??_C@_1M@BGNFLDN@?$AAe?$AAs?$AA?9?$AAC?$AAO?$AA?$AA@ 1004cfb4     LIBCMT:winapinls.obj
 0002:0000afc0       ??_C@_1O@JMPHMAMC@?$AAs?$AAm?$AAn?$AA?9?$AAF?$AAI?$AA?$AA@ 1004cfc0     LIBCMT:winapinls.obj
 0002:0000afd0       ??_C@_1M@JLANABKE@?$AAa?$AAr?$AA?9?$AAS?$AAY?$AA?$AA@ 1004cfd0     LIBCMT:winapinls.obj
 0002:0000afdc       ??_C@_1M@HPKGCFGN@?$AAe?$AAn?$AA?9?$AAB?$AAZ?$AA?$AA@ 1004cfdc     LIBCMT:winapinls.obj
 0002:0000afe8       ??_C@_1M@OLJCMLGM@?$AAe?$AAs?$AA?9?$AAP?$AAE?$AA?$AA@ 1004cfe8     LIBCMT:winapinls.obj
 0002:0000aff4       ??_C@_1M@MKKGFKLE@?$AAa?$AAr?$AA?9?$AAJ?$AAO?$AA?$AA@ 1004cff4     LIBCMT:winapinls.obj
 0002:0000b000       ??_C@_1M@EKPGLDNI@?$AAe?$AAn?$AA?9?$AAT?$AAT?$AA?$AA@ 1004d000     LIBCMT:winapinls.obj
 0002:0000b00c       ??_C@_1M@OONGHFHE@?$AAe?$AAs?$AA?9?$AAA?$AAR?$AA?$AA@ 1004d00c     LIBCMT:winapinls.obj
 0002:0000b018       ??_C@_1M@OOJFGBHE@?$AAa?$AAr?$AA?9?$AAL?$AAB?$AA?$AA@ 1004d018     LIBCMT:winapinls.obj
 0002:0000b024       ??_C@_1M@GCEJHNEG@?$AAe?$AAn?$AA?9?$AAZ?$AAW?$AA?$AA@ 1004d024     LIBCMT:winapinls.obj
 0002:0000b030       ??_C@_1M@JNOCAHJI@?$AAe?$AAs?$AA?9?$AAE?$AAC?$AA?$AA@ 1004d030     LIBCMT:winapinls.obj
 0002:0000b03c       ??_C@_1M@JEFHPGGB@?$AAa?$AAr?$AA?9?$AAK?$AAW?$AA?$AA@ 1004d03c     LIBCMT:winapinls.obj
 0002:0000b048       ??_C@_1M@MLKIBJOJ@?$AAe?$AAn?$AA?9?$AAP?$AAH?$AA?$AA@ 1004d048     LIBCMT:winapinls.obj
 0002:0000b054       ??_C@_1M@BDNIPEND@?$AAe?$AAs?$AA?9?$AAC?$AAL?$AA?$AA@ 1004d054     LIBCMT:winapinls.obj
 0002:0000b060       ??_C@_1M@MPNMEKBD@?$AAa?$AAr?$AA?9?$AAA?$AAE?$AA?$AA@ 1004d060     LIBCMT:winapinls.obj
 0002:0000b06c       ??_C@_1M@KBJALCPI@?$AAe?$AAs?$AA?9?$AAU?$AAY?$AA?$AA@ 1004d06c     LIBCMT:winapinls.obj
 0002:0000b078       ??_C@_1M@LLCCOAGA@?$AAa?$AAr?$AA?9?$AAB?$AAH?$AA?$AA@ 1004d078     LIBCMT:winapinls.obj
 0002:0000b084       ??_C@_1M@PBFNCDEL@?$AAe?$AAs?$AA?9?$AAP?$AAY?$AA?$AA@ 1004d084     LIBCMT:winapinls.obj
 0002:0000b090       ??_C@_1M@EDGINPNP@?$AAa?$AAr?$AA?9?$AAQ?$AAA?$AA?$AA@ 1004d090     LIBCMT:winapinls.obj
 0002:0000b09c       ??_C@_1M@MKDBIIJI@?$AAe?$AAs?$AA?9?$AAB?$AAO?$AA?$AA@ 1004d09c     LIBCMT:winapinls.obj
 0002:0000b0a8       ??_C@_1M@CPKKEBLD@?$AAe?$AAs?$AA?9?$AAS?$AAV?$AA?$AA@ 1004d0a8     LIBCMT:winapinls.obj
 0002:0000b0b4       ??_C@_1M@NDBGMMJL@?$AAe?$AAs?$AA?9?$AAH?$AAN?$AA?$AA@ 1004d0b4     LIBCMT:winapinls.obj
 0002:0000b0c0       ??_C@_1M@JIJIBHDP@?$AAe?$AAs?$AA?9?$AAN?$AAI?$AA?$AA@ 1004d0c0     LIBCMT:winapinls.obj
 0002:0000b0cc       ??_C@_1M@CGFMKEEK@?$AAe?$AAs?$AA?9?$AAP?$AAR?$AA?$AA@ 1004d0cc     LIBCMT:winapinls.obj
 0002:0000b0d8       ??_C@_1O@ICJHKIIK@?$AAz?$AAh?$AA?9?$AAC?$AAH?$AAT?$AA?$AA@ 1004d0d8     LIBCMT:winapinls.obj
 0002:0000b0e8       ??_C@_15CLNEJCE@?$AAs?$AAr?$AA?$AA@ 1004d0e8     LIBCMT:winapinls.obj
 0002:0000b0f0       ??_C@_1M@KAHEKEIG@?$AAa?$AAf?$AA?9?$AAz?$AAa?$AA?$AA@ 1004d0f0     LIBCMT:winapinls.obj
 0002:0000b0fc       ??_C@_1M@GIECOABL@?$AAa?$AAr?$AA?9?$AAa?$AAe?$AA?$AA@ 1004d0fc     LIBCMT:winapinls.obj
 0002:0000b108       ??_C@_1M@BMLMEKGI@?$AAa?$AAr?$AA?9?$AAb?$AAh?$AA?$AA@ 1004d108     LIBCMT:winapinls.obj
 0002:0000b114       ??_C@_1M@DAPFDGGB@?$AAa?$AAr?$AA?9?$AAd?$AAz?$AA?$AA@ 1004d114     LIBCMT:winapinls.obj
 0002:0000b120       ??_C@_1M@FJNKGKIG@?$AAa?$AAr?$AA?9?$AAe?$AAg?$AA?$AA@ 1004d120     LIBCMT:winapinls.obj
 0002:0000b12c       ??_C@_1M@FLGKKCLO@?$AAa?$AAr?$AA?9?$AAi?$AAq?$AA?$AA@ 1004d12c     LIBCMT:winapinls.obj
 0002:0000b138       ??_C@_1M@GNDIPALM@?$AAa?$AAr?$AA?9?$AAj?$AAo?$AA?$AA@ 1004d138     LIBCMT:winapinls.obj
 0002:0000b144       ??_C@_1M@DDMJFMGJ@?$AAa?$AAr?$AA?9?$AAk?$AAw?$AA?$AA@ 1004d144     LIBCMT:winapinls.obj
 0002:0000b150       ??_C@_1M@EJALMLHM@?$AAa?$AAr?$AA?9?$AAl?$AAb?$AA?$AA@ 1004d150     LIBCMT:winapinls.obj
 0002:0000b15c       ??_C@_1M@MOBDBLOC@?$AAa?$AAr?$AA?9?$AAl?$AAy?$AA?$AA@ 1004d15c     LIBCMT:winapinls.obj
 0002:0000b168       ??_C@_1M@JAOCLHDH@?$AAa?$AAr?$AA?9?$AAm?$AAa?$AA?$AA@ 1004d168     LIBCMT:winapinls.obj
 0002:0000b174       ??_C@_1M@JHPMKJIE@?$AAa?$AAr?$AA?9?$AAo?$AAm?$AA?$AA@ 1004d174     LIBCMT:winapinls.obj
 0002:0000b180       ??_C@_1M@OEPGHFNH@?$AAa?$AAr?$AA?9?$AAq?$AAa?$AA?$AA@ 1004d180     LIBCMT:winapinls.obj
 0002:0000b18c       ??_C@_1M@KJDONENM@?$AAa?$AAr?$AA?9?$AAs?$AAa?$AA?$AA@ 1004d18c     LIBCMT:winapinls.obj
 0002:0000b198       ??_C@_1M@DMJDKLKM@?$AAa?$AAr?$AA?9?$AAs?$AAy?$AA?$AA@ 1004d198     LIBCMT:winapinls.obj
 0002:0000b1a4       ??_C@_1M@OMFIPEDC@?$AAa?$AAr?$AA?9?$AAt?$AAn?$AA?$AA@ 1004d1a4     LIBCMT:winapinls.obj
 0002:0000b1b0       ??_C@_1M@IHMHGAON@?$AAa?$AAr?$AA?9?$AAy?$AAe?$AA?$AA@ 1004d1b0     LIBCMT:winapinls.obj
 0002:0000b1bc       ??_C@_1BG@KDCPGJGB@?$AAa?$AAz?$AA?9?$AAa?$AAz?$AA?9?$AAc?$AAy?$AAr?$AAl?$AA?$AA@ 1004d1bc     LIBCMT:winapinls.obj
 0002:0000b1d4       ??_C@_1BG@IBCKDDOE@?$AAa?$AAz?$AA?9?$AAa?$AAz?$AA?9?$AAl?$AAa?$AAt?$AAn?$AA?$AA@ 1004d1d4     LIBCMT:winapinls.obj
 0002:0000b1ec       ??_C@_1M@EGPFDCPD@?$AAb?$AAe?$AA?9?$AAb?$AAy?$AA?$AA@ 1004d1ec     LIBCMT:winapinls.obj
 0002:0000b1f8       ??_C@_1M@PCMGMCGC@?$AAb?$AAg?$AA?9?$AAb?$AAg?$AA?$AA@ 1004d1f8     LIBCMT:winapinls.obj
 0002:0000b204       ??_C@_1M@BJBMFGOB@?$AAb?$AAn?$AA?9?$AAi?$AAn?$AA?$AA@ 1004d204     LIBCMT:winapinls.obj
 0002:0000b210       ??_C@_1BG@EAKMMACD@?$AAb?$AAs?$AA?9?$AAb?$AAa?$AA?9?$AAl?$AAa?$AAt?$AAn?$AA?$AA@ 1004d210     LIBCMT:winapinls.obj
 0002:0000b228       ??_C@_1M@KGADAODK@?$AAc?$AAa?$AA?9?$AAe?$AAs?$AA?$AA@ 1004d228     LIBCMT:winapinls.obj
 0002:0000b234       ??_C@_1M@COAJPDHI@?$AAc?$AAs?$AA?9?$AAc?$AAz?$AA?$AA@ 1004d234     LIBCMT:winapinls.obj
 0002:0000b240       ??_C@_1M@DHBHFONH@?$AAc?$AAy?$AA?9?$AAg?$AAb?$AA?$AA@ 1004d240     LIBCMT:winapinls.obj
 0002:0000b24c       ??_C@_1M@IMGKELGA@?$AAd?$AAa?$AA?9?$AAd?$AAk?$AA?$AA@ 1004d24c     LIBCMT:winapinls.obj
 0002:0000b258       ??_C@_1M@NNDGDNGA@?$AAd?$AAe?$AA?9?$AAa?$AAt?$AA?$AA@ 1004d258     LIBCMT:winapinls.obj
 0002:0000b264       ??_C@_1M@IKDBHEEM@?$AAd?$AAe?$AA?9?$AAc?$AAh?$AA?$AA@ 1004d264     LIBCMT:winapinls.obj
 0002:0000b270       ??_C@_1M@GFFOJMCJ@?$AAd?$AAe?$AA?9?$AAd?$AAe?$AA?$AA@ 1004d270     LIBCMT:winapinls.obj
 0002:0000b27c       ??_C@_1M@MDNLKBPM@?$AAd?$AAe?$AA?9?$AAl?$AAi?$AA?$AA@ 1004d27c     LIBCMT:winapinls.obj
 0002:0000b288       ??_C@_1M@NJBEEJNL@?$AAd?$AAe?$AA?9?$AAl?$AAu?$AA?$AA@ 1004d288     LIBCMT:winapinls.obj
 0002:0000b294       ??_C@_1O@GNNELBAP@?$AAd?$AAi?$AAv?$AA?9?$AAm?$AAv?$AA?$AA@ 1004d294     LIBCMT:winapinls.obj
 0002:0000b2a4       ??_C@_1M@EJLEOGAE@?$AAe?$AAl?$AA?9?$AAg?$AAr?$AA?$AA@ 1004d2a4     LIBCMT:winapinls.obj
 0002:0000b2b0       ??_C@_1M@GMPONJN@?$AAe?$AAn?$AA?9?$AAa?$AAu?$AA?$AA@ 1004d2b0     LIBCMT:winapinls.obj
 0002:0000b2bc       ??_C@_1M@NIDIIPGF@?$AAe?$AAn?$AA?9?$AAb?$AAz?$AA?$AA@ 1004d2bc     LIBCMT:winapinls.obj
 0002:0000b2c8       ??_C@_1M@JEHMIMFO@?$AAe?$AAn?$AA?9?$AAc?$AAa?$AA?$AA@ 1004d2c8     LIBCMT:winapinls.obj
 0002:0000b2d4       ??_C@_1M@IGMJCDLA@?$AAe?$AAn?$AA?9?$AAc?$AAb?$AA?$AA@ 1004d2d4     LIBCMT:winapinls.obj
 0002:0000b2e0       ??_C@_1M@BNFIGBKG@?$AAe?$AAn?$AA?9?$AAg?$AAb?$AA?$AA@ 1004d2e0     LIBCMT:winapinls.obj
 0002:0000b2ec       ??_C@_1M@LKIFDIGP@?$AAe?$AAn?$AA?9?$AAi?$AAe?$AA?$AA@ 1004d2ec     LIBCMT:winapinls.obj
 0002:0000b2f8       ??_C@_1M@PJKFGCCO@?$AAe?$AAn?$AA?9?$AAj?$AAm?$AA?$AA@ 1004d2f8     LIBCMT:winapinls.obj
 0002:0000b304       ??_C@_1M@KPPKEPBO@?$AAe?$AAn?$AA?9?$AAn?$AAz?$AA?$AA@ 1004d304     LIBCMT:winapinls.obj
 0002:0000b310       ??_C@_1M@GMDGLDOB@?$AAe?$AAn?$AA?9?$AAp?$AAh?$AA?$AA@ 1004d310     LIBCMT:winapinls.obj
 0002:0000b31c       ??_C@_1M@ONGIBJNA@?$AAe?$AAn?$AA?9?$AAt?$AAt?$AA?$AA@ 1004d31c     LIBCMT:winapinls.obj
 0002:0000b328       ??_C@_1M@LLODPCMM@?$AAe?$AAn?$AA?9?$AAu?$AAs?$AA?$AA@ 1004d328     LIBCMT:winapinls.obj
 0002:0000b334       ??_C@_1M@LAKFNPAN@?$AAe?$AAn?$AA?9?$AAz?$AAa?$AA?$AA@ 1004d334     LIBCMT:winapinls.obj
 0002:0000b340       ??_C@_1M@MFNHNHEO@?$AAe?$AAn?$AA?9?$AAz?$AAw?$AA?$AA@ 1004d340     LIBCMT:winapinls.obj
 0002:0000b34c       ??_C@_1M@EJEINPHM@?$AAe?$AAs?$AA?9?$AAa?$AAr?$AA?$AA@ 1004d34c     LIBCMT:winapinls.obj
 0002:0000b358       ??_C@_1M@GNKPCCJA@?$AAe?$AAs?$AA?9?$AAb?$AAo?$AA?$AA@ 1004d358     LIBCMT:winapinls.obj
 0002:0000b364       ??_C@_1M@LEEGFONL@?$AAe?$AAs?$AA?9?$AAc?$AAl?$AA?$AA@ 1004d364     LIBCMT:winapinls.obj
 0002:0000b370       ??_C@_1M@KGPDPBDF@?$AAe?$AAs?$AA?9?$AAc?$AAo?$AA?$AA@ 1004d370     LIBCMT:winapinls.obj
 0002:0000b37c       ??_C@_1M@EIAHOHH@?$AAe?$AAs?$AA?9?$AAc?$AAr?$AA?$AA@ 1004d37c     LIBCMT:winapinls.obj
 0002:0000b388       ??_C@_1M@LLPGMBIN@?$AAe?$AAs?$AA?9?$AAd?$AAo?$AA?$AA@ 1004d388     LIBCMT:winapinls.obj
 0002:0000b394       ??_C@_1M@DKHMKNJA@?$AAe?$AAs?$AA?9?$AAe?$AAc?$AA?$AA@ 1004d394     LIBCMT:winapinls.obj
 0002:0000b3a0       ??_C@_1M@GKGFPKAP@?$AAe?$AAs?$AA?9?$AAe?$AAs?$AA?$AA@ 1004d3a0     LIBCMT:winapinls.obj
 0002:0000b3ac       ??_C@_1M@LKHKGDLN@?$AAe?$AAs?$AA?9?$AAg?$AAt?$AA?$AA@ 1004d3ac     LIBCMT:winapinls.obj
 0002:0000b3b8       ??_C@_1M@HEIIGGJD@?$AAe?$AAs?$AA?9?$AAh?$AAn?$AA?$AA@ 1004d3b8     LIBCMT:winapinls.obj
 0002:0000b3c4       ??_C@_1M@FBDHPPGD@?$AAe?$AAs?$AA?9?$AAm?$AAx?$AA?$AA@ 1004d3c4     LIBCMT:winapinls.obj
 0002:0000b3d0       ??_C@_1M@DPAGLNDH@?$AAe?$AAs?$AA?9?$AAn?$AAi?$AA?$AA@ 1004d3d0     LIBCMT:winapinls.obj
 0002:0000b3dc       ??_C@_1M@MDGOPGDD@?$AAe?$AAs?$AA?9?$AAp?$AAa?$AA?$AA@ 1004d3dc     LIBCMT:winapinls.obj
 0002:0000b3e8       ??_C@_1M@EMAMGBGE@?$AAe?$AAs?$AA?9?$AAp?$AAe?$AA?$AA@ 1004d3e8     LIBCMT:winapinls.obj
 0002:0000b3f4       ??_C@_1M@IBMCAOEC@?$AAe?$AAs?$AA?9?$AAp?$AAr?$AA?$AA@ 1004d3f4     LIBCMT:winapinls.obj
 0002:0000b400       ??_C@_1M@FGMDIJED@?$AAe?$AAs?$AA?9?$AAp?$AAy?$AA?$AA@ 1004d400     LIBCMT:winapinls.obj
 0002:0000b40c       ??_C@_1M@IIDEOLLL@?$AAe?$AAs?$AA?9?$AAs?$AAv?$AA?$AA@ 1004d40c     LIBCMT:winapinls.obj
 0002:0000b418       ??_C@_1M@GAOBIPA@?$AAe?$AAs?$AA?9?$AAu?$AAy?$AA?$AA@ 1004d418     LIBCMT:winapinls.obj
 0002:0000b424       ??_C@_1M@JKFFICHJ@?$AAe?$AAs?$AA?9?$AAv?$AAe?$AA?$AA@ 1004d424     LIBCMT:winapinls.obj
 0002:0000b430       ??_C@_1M@PNMLOJDF@?$AAe?$AAt?$AA?9?$AAe?$AAe?$AA?$AA@ 1004d430     LIBCMT:winapinls.obj
 0002:0000b43c       ??_C@_1M@GHHLIKEI@?$AAe?$AAu?$AA?9?$AAe?$AAs?$AA?$AA@ 1004d43c     LIBCMT:winapinls.obj
 0002:0000b448       ??_C@_1M@PBNONODE@?$AAf?$AAa?$AA?9?$AAi?$AAr?$AA?$AA@ 1004d448     LIBCMT:winapinls.obj
 0002:0000b454       ??_C@_1M@JEEHPMIL@?$AAf?$AAi?$AA?9?$AAf?$AAi?$AA?$AA@ 1004d454     LIBCMT:winapinls.obj
 0002:0000b460       ??_C@_1M@LMDCNDBA@?$AAf?$AAo?$AA?9?$AAf?$AAo?$AA?$AA@ 1004d460     LIBCMT:winapinls.obj
 0002:0000b46c       ??_C@_1M@JKEOHLDK@?$AAf?$AAr?$AA?9?$AAb?$AAe?$AA?$AA@ 1004d46c     LIBCMT:winapinls.obj
 0002:0000b478       ??_C@_1M@NOHADPMI@?$AAf?$AAr?$AA?9?$AAc?$AAa?$AA?$AA@ 1004d478     LIBCMT:winapinls.obj
 0002:0000b484       ??_C@_1M@KDHIHAEC@?$AAf?$AAr?$AA?9?$AAc?$AAh?$AA?$AA@ 1004d484     LIBCMT:winapinls.obj
 0002:0000b490       ??_C@_1M@MMBBFGAK@?$AAf?$AAr?$AA?9?$AAf?$AAr?$AA?$AA@ 1004d490     LIBCMT:winapinls.obj
 0002:0000b49c       ??_C@_1M@PAFNENNF@?$AAf?$AAr?$AA?9?$AAl?$AAu?$AA?$AA@ 1004d49c     LIBCMT:winapinls.obj
 0002:0000b4a8       ??_C@_1M@EOHDJGDD@?$AAf?$AAr?$AA?9?$AAm?$AAc?$AA?$AA@ 1004d4a8     LIBCMT:winapinls.obj
 0002:0000b4b4       ??_C@_1M@FAPLLOPF@?$AAg?$AAl?$AA?9?$AAe?$AAs?$AA?$AA@ 1004d4b4     LIBCMT:winapinls.obj
 0002:0000b4c0       ??_C@_1M@FOPBFLOO@?$AAg?$AAu?$AA?9?$AAi?$AAn?$AA?$AA@ 1004d4c0     LIBCMT:winapinls.obj
 0002:0000b4cc       ??_C@_1M@KBMCINPM@?$AAh?$AAe?$AA?9?$AAi?$AAl?$AA?$AA@ 1004d4cc     LIBCMT:winapinls.obj
 0002:0000b4d8       ??_C@_1M@BBPHKFPJ@?$AAh?$AAi?$AA?9?$AAi?$AAn?$AA?$AA@ 1004d4d8     LIBCMT:winapinls.obj
 0002:0000b4e4       ??_C@_1M@PMBNDPHD@?$AAh?$AAr?$AA?9?$AAb?$AAa?$AA?$AA@ 1004d4e4     LIBCMT:winapinls.obj
 0002:0000b4f0       ??_C@_1M@BPCKOEGE@?$AAh?$AAr?$AA?9?$AAh?$AAr?$AA?$AA@ 1004d4f0     LIBCMT:winapinls.obj
 0002:0000b4fc       ??_C@_1M@GACBMHKE@?$AAh?$AAu?$AA?9?$AAh?$AAu?$AA?$AA@ 1004d4fc     LIBCMT:winapinls.obj
 0002:0000b508       ??_C@_1M@MILPAJJC@?$AAh?$AAy?$AA?9?$AAa?$AAm?$AA?$AA@ 1004d508     LIBCMT:winapinls.obj
 0002:0000b514       ??_C@_1M@BABBICEC@?$AAi?$AAd?$AA?9?$AAi?$AAd?$AA?$AA@ 1004d514     LIBCMT:winapinls.obj
 0002:0000b520       ??_C@_1M@BIKNHHPF@?$AAi?$AAs?$AA?9?$AAi?$AAs?$AA?$AA@ 1004d520     LIBCMT:winapinls.obj
 0002:0000b52c       ??_C@_1M@NMPCJPHE@?$AAi?$AAt?$AA?9?$AAc?$AAh?$AA?$AA@ 1004d52c     LIBCMT:winapinls.obj
 0002:0000b538       ??_C@_1M@GHKGFEDF@?$AAi?$AAt?$AA?9?$AAi?$AAt?$AA?$AA@ 1004d538     LIBCMT:winapinls.obj
 0002:0000b544       ??_C@_1M@NIEJCJJA@?$AAj?$AAa?$AA?9?$AAj?$AAp?$AA?$AA@ 1004d544     LIBCMT:winapinls.obj
 0002:0000b550       ??_C@_1M@JILFNBIM@?$AAk?$AAa?$AA?9?$AAg?$AAe?$AA?$AA@ 1004d550     LIBCMT:winapinls.obj
 0002:0000b55c       ??_C@_1M@PACPMGPH@?$AAk?$AAk?$AA?9?$AAk?$AAz?$AA?$AA@ 1004d55c     LIBCMT:winapinls.obj
 0002:0000b568       ??_C@_1M@IELFGMHA@?$AAk?$AAn?$AA?9?$AAi?$AAn?$AA?$AA@ 1004d568     LIBCMT:winapinls.obj
 0002:0000b574       ??_C@_1O@IBBJHCH@?$AAk?$AAo?$AAk?$AA?9?$AAi?$AAn?$AA?$AA@ 1004d574     LIBCMT:winapinls.obj
 0002:0000b584       ??_C@_1M@DMHAEOGC@?$AAk?$AAo?$AA?9?$AAk?$AAr?$AA?$AA@ 1004d584     LIBCMT:winapinls.obj
 0002:0000b590       ??_C@_1M@HBAHBIGA@?$AAk?$AAy?$AA?9?$AAk?$AAg?$AA?$AA@ 1004d590     LIBCMT:winapinls.obj
 0002:0000b59c       ??_C@_1M@KPMILCJG@?$AAl?$AAt?$AA?9?$AAl?$AAt?$AA?$AA@ 1004d59c     LIBCMT:winapinls.obj
 0002:0000b5a8       ??_C@_1M@BDEKKCA@?$AAl?$AAv?$AA?9?$AAl?$AAv?$AA?$AA@ 1004d5a8     LIBCMT:winapinls.obj
 0002:0000b5b4       ??_C@_1M@ELCKCCJJ@?$AAm?$AAi?$AA?9?$AAn?$AAz?$AA?$AA@ 1004d5b4     LIBCMT:winapinls.obj
 0002:0000b5c0       ??_C@_1M@CBOOLAPA@?$AAm?$AAk?$AA?9?$AAm?$AAk?$AA?$AA@ 1004d5c0     LIBCMT:winapinls.obj
 0002:0000b5cc       ??_C@_1M@GPHNBJKN@?$AAm?$AAl?$AA?9?$AAi?$AAn?$AA?$AA@ 1004d5cc     LIBCMT:winapinls.obj
 0002:0000b5d8       ??_C@_1M@PABJILIG@?$AAm?$AAn?$AA?9?$AAm?$AAn?$AA?$AA@ 1004d5d8     LIBCMT:winapinls.obj
 0002:0000b5e4       ??_C@_1M@FGBKKIPG@?$AAm?$AAr?$AA?9?$AAi?$AAn?$AA?$AA@ 1004d5e4     LIBCMT:winapinls.obj
 0002:0000b5f0       ??_C@_1M@NDBPDDAL@?$AAm?$AAs?$AA?9?$AAb?$AAn?$AA?$AA@ 1004d5f0     LIBCMT:winapinls.obj
 0002:0000b5fc       ??_C@_1M@OPIHOOPI@?$AAm?$AAs?$AA?9?$AAm?$AAy?$AA?$AA@ 1004d5fc     LIBCMT:winapinls.obj
 0002:0000b608       ??_C@_1M@PPDBCNFM@?$AAm?$AAt?$AA?9?$AAm?$AAt?$AA?$AA@ 1004d608     LIBCMT:winapinls.obj
 0002:0000b614       ??_C@_1M@KDJDKMDD@?$AAn?$AAb?$AA?9?$AAn?$AAo?$AA?$AA@ 1004d614     LIBCMT:winapinls.obj
 0002:0000b620       ??_C@_1M@KFCFLMJP@?$AAn?$AAl?$AA?9?$AAb?$AAe?$AA?$AA@ 1004d620     LIBCMT:winapinls.obj
 0002:0000b62c       ??_C@_1M@KPOPDDGO@?$AAn?$AAl?$AA?9?$AAn?$AAl?$AA?$AA@ 1004d62c     LIBCMT:winapinls.obj
 0002:0000b638       ??_C@_1M@LJKPEMLN@?$AAn?$AAn?$AA?9?$AAn?$AAo?$AA?$AA@ 1004d638     LIBCMT:winapinls.obj
 0002:0000b644       ??_C@_1M@BDGHHBFL@?$AAn?$AAs?$AA?9?$AAz?$AAa?$AA?$AA@ 1004d644     LIBCMT:winapinls.obj
 0002:0000b650       ??_C@_1M@IDEHOAP@?$AAp?$AAa?$AA?9?$AAi?$AAn?$AA?$AA@ 1004d650     LIBCMT:winapinls.obj
 0002:0000b65c       ??_C@_1M@HDBKGOGH@?$AAp?$AAl?$AA?9?$AAp?$AAl?$AA?$AA@ 1004d65c     LIBCMT:winapinls.obj
 0002:0000b668       ??_C@_1M@LJLLCMEH@?$AAp?$AAt?$AA?9?$AAb?$AAr?$AA?$AA@ 1004d668     LIBCMT:winapinls.obj
 0002:0000b674       ??_C@_1M@NCMONAAL@?$AAp?$AAt?$AA?9?$AAp?$AAt?$AA?$AA@ 1004d674     LIBCMT:winapinls.obj
 0002:0000b680       ??_C@_1O@EAKMAJDN@?$AAq?$AAu?$AAz?$AA?9?$AAb?$AAo?$AA?$AA@ 1004d680     LIBCMT:winapinls.obj
 0002:0000b690       ??_C@_1O@BHHPIGDN@?$AAq?$AAu?$AAz?$AA?9?$AAe?$AAc?$AA?$AA@ 1004d690     LIBCMT:winapinls.obj
 0002:0000b6a0       ??_C@_1O@GBAPEKMJ@?$AAq?$AAu?$AAz?$AA?9?$AAp?$AAe?$AA?$AA@ 1004d6a0     LIBCMT:winapinls.obj
 0002:0000b6b0       ??_C@_1M@CLGLEFBO@?$AAr?$AAo?$AA?9?$AAr?$AAo?$AA?$AA@ 1004d6b0     LIBCMT:winapinls.obj
 0002:0000b6bc       ??_C@_1M@CEEDODME@?$AAr?$AAu?$AA?9?$AAr?$AAu?$AA?$AA@ 1004d6bc     LIBCMT:winapinls.obj
 0002:0000b6c8       ??_C@_1M@HPKKKMPP@?$AAs?$AAa?$AA?9?$AAi?$AAn?$AA?$AA@ 1004d6c8     LIBCMT:winapinls.obj
 0002:0000b6d4       ??_C@_1M@BKMAIGOJ@?$AAs?$AAe?$AA?9?$AAf?$AAi?$AA?$AA@ 1004d6d4     LIBCMT:winapinls.obj
 0002:0000b6e0       ??_C@_1M@NDPIFLFI@?$AAs?$AAe?$AA?9?$AAn?$AAo?$AA?$AA@ 1004d6e0     LIBCMT:winapinls.obj
 0002:0000b6ec       ??_C@_1M@DANKKHJ@?$AAs?$AAe?$AA?9?$AAs?$AAe?$AA?$AA@ 1004d6ec     LIBCMT:winapinls.obj
 0002:0000b6f8       ??_C@_1M@PNBLONPJ@?$AAs?$AAk?$AA?9?$AAs?$AAk?$AA?$AA@ 1004d6f8     LIBCMT:winapinls.obj
 0002:0000b704       ??_C@_1M@LFMODOAL@?$AAs?$AAl?$AA?9?$AAs?$AAi?$AA?$AA@ 1004d704     LIBCMT:winapinls.obj
 0002:0000b710       ??_C@_1O@DFKOMPG@?$AAs?$AAm?$AAa?$AA?9?$AAn?$AAo?$AA?$AA@ 1004d710     LIBCMT:winapinls.obj
 0002:0000b720       ??_C@_1O@NDKPBNNH@?$AAs?$AAm?$AAa?$AA?9?$AAs?$AAe?$AA?$AA@ 1004d720     LIBCMT:winapinls.obj
 0002:0000b730       ??_C@_1O@PLLKBHAB@?$AAs?$AAm?$AAj?$AA?9?$AAn?$AAo?$AA?$AA@ 1004d730     LIBCMT:winapinls.obj
 0002:0000b740       ??_C@_1O@CLEPOGCA@?$AAs?$AAm?$AAj?$AA?9?$AAs?$AAe?$AA?$AA@ 1004d740     LIBCMT:winapinls.obj
 0002:0000b750       ??_C@_1O@DLGJGKMK@?$AAs?$AAm?$AAn?$AA?9?$AAf?$AAi?$AA?$AA@ 1004d750     LIBCMT:winapinls.obj
 0002:0000b760       ??_C@_1O@OJDJGAJC@?$AAs?$AAm?$AAs?$AA?9?$AAf?$AAi?$AA?$AA@ 1004d760     LIBCMT:winapinls.obj
 0002:0000b770       ??_C@_1M@BOFOGHPB@?$AAs?$AAq?$AA?9?$AAa?$AAl?$AA?$AA@ 1004d770     LIBCMT:winapinls.obj
 0002:0000b77c       ??_C@_1BG@LJBBIPGB@?$AAs?$AAr?$AA?9?$AAb?$AAa?$AA?9?$AAc?$AAy?$AAr?$AAl?$AA?$AA@ 1004d77c     LIBCMT:winapinls.obj
 0002:0000b794       ??_C@_1BG@JLBENFOE@?$AAs?$AAr?$AA?9?$AAb?$AAa?$AA?9?$AAl?$AAa?$AAt?$AAn?$AA?$AA@ 1004d794     LIBCMT:winapinls.obj
 0002:0000b7ac       ??_C@_1BG@KODPNHE@?$AAs?$AAr?$AA?9?$AAs?$AAp?$AA?9?$AAc?$AAy?$AAr?$AAl?$AA?$AA@ 1004d7ac     LIBCMT:winapinls.obj
 0002:0000b7c4       ??_C@_1BG@CIOGKHPB@?$AAs?$AAr?$AA?9?$AAs?$AAp?$AA?9?$AAl?$AAa?$AAt?$AAn?$AA?$AA@ 1004d7c4     LIBCMT:winapinls.obj
 0002:0000b7dc       ??_C@_1M@NGFJLMAC@?$AAs?$AAv?$AA?9?$AAf?$AAi?$AA?$AA@ 1004d7dc     LIBCMT:winapinls.obj
 0002:0000b7e8       ??_C@_1M@MPJEJAJC@?$AAs?$AAv?$AA?9?$AAs?$AAe?$AA?$AA@ 1004d7e8     LIBCMT:winapinls.obj
 0002:0000b7f4       ??_C@_1M@MPNDHLFK@?$AAs?$AAw?$AA?9?$AAk?$AAe?$AA?$AA@ 1004d7f4     LIBCMT:winapinls.obj
 0002:0000b800       ??_C@_1O@KOHBJJI@?$AAs?$AAy?$AAr?$AA?9?$AAs?$AAy?$AA?$AA@ 1004d800     LIBCMT:winapinls.obj
 0002:0000b810       ??_C@_1M@LDCEFHA@?$AAt?$AAa?$AA?9?$AAi?$AAn?$AA?$AA@ 1004d810     LIBCMT:winapinls.obj
 0002:0000b81c       ??_C@_1M@CNJOFAK@?$AAt?$AAe?$AA?9?$AAi?$AAn?$AA?$AA@ 1004d81c     LIBCMT:winapinls.obj
 0002:0000b828       ??_C@_1M@GNAECACD@?$AAt?$AAh?$AA?9?$AAt?$AAh?$AA?$AA@ 1004d828     LIBCMT:winapinls.obj
 0002:0000b834       ??_C@_1M@CHBIHOJO@?$AAt?$AAn?$AA?9?$AAz?$AAa?$AA?$AA@ 1004d834     LIBCMT:winapinls.obj
 0002:0000b840       ??_C@_1M@GCCMIGPJ@?$AAt?$AAr?$AA?9?$AAt?$AAr?$AA?$AA@ 1004d840     LIBCMT:winapinls.obj
 0002:0000b84c       ??_C@_1M@CELMCNBK@?$AAt?$AAt?$AA?9?$AAr?$AAu?$AA?$AA@ 1004d84c     LIBCMT:winapinls.obj
 0002:0000b858       ??_C@_1M@KLMCELGA@?$AAu?$AAk?$AA?9?$AAu?$AAa?$AA?$AA@ 1004d858     LIBCMT:winapinls.obj
 0002:0000b864       ??_C@_1M@EPAJJAJF@?$AAu?$AAr?$AA?9?$AAp?$AAk?$AA?$AA@ 1004d864     LIBCMT:winapinls.obj
 0002:0000b870       ??_C@_1BG@GEGPMCDJ@?$AAu?$AAz?$AA?9?$AAu?$AAz?$AA?9?$AAc?$AAy?$AAr?$AAl?$AA?$AA@ 1004d870     LIBCMT:winapinls.obj
 0002:0000b888       ??_C@_1BG@EGGKJILM@?$AAu?$AAz?$AA?9?$AAu?$AAz?$AA?9?$AAl?$AAa?$AAt?$AAn?$AA?$AA@ 1004d888     LIBCMT:winapinls.obj
 0002:0000b8a0       ??_C@_1M@GFOCLFF@?$AAv?$AAi?$AA?9?$AAv?$AAn?$AA?$AA@ 1004d8a0     LIBCMT:winapinls.obj
 0002:0000b8ac       ??_C@_1M@CPAMEDFI@?$AAx?$AAh?$AA?9?$AAz?$AAa?$AA?$AA@ 1004d8ac     LIBCMT:winapinls.obj
 0002:0000b8b8       ??_C@_1O@EBKIFIGN@?$AAz?$AAh?$AA?9?$AAc?$AAh?$AAs?$AA?$AA@ 1004d8b8     LIBCMT:winapinls.obj
 0002:0000b8c8       ??_C@_1O@NMHPGANE@?$AAz?$AAh?$AA?9?$AAc?$AAh?$AAt?$AA?$AA@ 1004d8c8     LIBCMT:winapinls.obj
 0002:0000b8d8       ??_C@_1M@LPINJOMC@?$AAz?$AAh?$AA?9?$AAc?$AAn?$AA?$AA@ 1004d8d8     LIBCMT:winapinls.obj
 0002:0000b8e4       ??_C@_1M@OCJEJODD@?$AAz?$AAh?$AA?9?$AAh?$AAk?$AA?$AA@ 1004d8e4     LIBCMT:winapinls.obj
 0002:0000b8f0       ??_C@_1M@DNDLJINH@?$AAz?$AAh?$AA?9?$AAm?$AAo?$AA?$AA@ 1004d8f0     LIBCMT:winapinls.obj
 0002:0000b8fc       ??_C@_1M@MBFDNDND@?$AAz?$AAh?$AA?9?$AAs?$AAg?$AA?$AA@ 1004d8fc     LIBCMT:winapinls.obj
 0002:0000b908       ??_C@_1M@IMEPLEPE@?$AAz?$AAh?$AA?9?$AAt?$AAw?$AA?$AA@ 1004d908     LIBCMT:winapinls.obj
 0002:0000b914       ??_C@_1M@BBGHNHJP@?$AAz?$AAu?$AA?9?$AAz?$AAa?$AA?$AA@ 1004d914     LIBCMT:winapinls.obj
 0002:0000b920       ___newctype                1004d920     LIBCMT:ctype.obj
 0002:0000bc20       __wctype                   1004dc20     LIBCMT:ctype.obj
 0002:0000be28       ___newclmap                1004de28     LIBCMT:ctype.obj
 0002:0000bfa8       ___newcumap                1004dfa8     LIBCMT:ctype.obj
 0002:0000c128       ___lc_category             1004e128     LIBCMT:wsetloca.obj
 0002:0000c170       ??_C@_1O@GIFLHMA@?$AAL?$AAC?$AA_?$AAA?$AAL?$AAL?$AA?$AA@ 1004e170     LIBCMT:wsetloca.obj
 0002:0000c180       ??_C@_1BG@PPOMIBNJ@?$AAL?$AAC?$AA_?$AAC?$AAO?$AAL?$AAL?$AAA?$AAT?$AAE?$AA?$AA@ 1004e180     LIBCMT:wsetloca.obj
 0002:0000c198       ??_C@_1BC@FFJGAPJM@?$AAL?$AAC?$AA_?$AAC?$AAT?$AAY?$AAP?$AAE?$AA?$AA@ 1004e198     LIBCMT:wsetloca.obj
 0002:0000c1ac       ??_C@_1BI@PCKFNJFB@?$AAL?$AAC?$AA_?$AAM?$AAO?$AAN?$AAE?$AAT?$AAA?$AAR?$AAY?$AA?$AA@ 1004e1ac     LIBCMT:wsetloca.obj
 0002:0000c1c4       ??_C@_1BG@ENIEDKID@?$AAL?$AAC?$AA_?$AAN?$AAU?$AAM?$AAE?$AAR?$AAI?$AAC?$AA?$AA@ 1004e1c4     LIBCMT:wsetloca.obj
 0002:0000c1dc       ??_C@_1BA@HAAOMIIG@?$AAL?$AAC?$AA_?$AAT?$AAI?$AAM?$AAE?$AA?$AA@ 1004e1dc     LIBCMT:wsetloca.obj
 0002:0000c270       ??_C@_15NBPDDFIP@?$AA?$DN?$AA?$DL?$AA?$AA@ 1004e270     LIBCMT:wsetloca.obj
 0002:0000c278       ??_C@_13PJJBFPED@?$AA?$DL?$AA?$AA@ 1004e278     LIBCMT:wsetloca.obj
 0002:0000c27c       ??_C@_13NMPKAAJP@?$AA?$DN?$AA?$AA@ 1004e27c     LIBCMT:wsetloca.obj
 0002:0000c280       ??_C@_13FHBKNHDA@?$AAC?$AA?$AA@ 1004e280     LIBCMT:wsetloca.obj
 0002:0000c284       ??_C@_17MBJJLFDM@?$AA_?$AA?4?$AA?0?$AA?$AA@ 1004e284     LIBCMT:wsetloca.obj
 0002:0000c28c       ??_C@_13ENNFDPBH@?$AA_?$AA?$AA@ 1004e28c     LIBCMT:wsetloca.obj
 0002:0000c290       ??_C@_13JOFGPIOO@?$AA?4?$AA?$AA@ 1004e290     LIBCMT:wsetloca.obj
 0002:0000c294       ??_C@_06PGGFOGJG@1?$CDSNAN?$AA@ 1004e294     LIBCMT:x10fout.obj
 0002:0000c29c       ??_C@_05PHHOCPM@1?$CDIND?$AA@ 1004e29c     LIBCMT:x10fout.obj
 0002:0000c2a4       ??_C@_05DNEBIAHO@1?$CDINF?$AA@ 1004e2a4     LIBCMT:x10fout.obj
 0002:0000c2ac       ??_C@_06IMKFLFPG@1?$CDQNAN?$AA@ 1004e2ac     LIBCMT:x10fout.obj
 0002:0000c2b4       ??_C@_0M@HHGEPIBF@CreateFile2?$AA@ 1004e2b4     LIBCMT:wopen.obj
 0002:0000c2c0       ??_C@_1BA@BALFACEM@?$AAC?$AAO?$AAN?$AAO?$AAU?$AAT?$AA$?$AA?$AA@ 1004e2c0     LIBCMT:initcon.obj
 0002:0000c2d0       ___rg_language             1004e2d0     LIBCMT:getqloc.obj
 0002:0000c5dc       ??_C@_1BC@LLOKLNP@?$AAa?$AAm?$AAe?$AAr?$AAi?$AAc?$AAa?$AAn?$AA?$AA@ 1004e5dc     LIBCMT:getqloc.obj
 0002:0000c5f0       ??_C@_1CC@HEIGCDGG@?$AAa?$AAm?$AAe?$AAr?$AAi?$AAc?$AAa?$AAn?$AA?5?$AAe?$AAn?$AAg?$AAl?$AAi?$AAs?$AAh?$AA?$AA@ 1004e5f0     LIBCMT:getqloc.obj
 0002:0000c614       ??_C@_1CC@IHCNOMIN@?$AAa?$AAm?$AAe?$AAr?$AAi?$AAc?$AAa?$AAn?$AA?9?$AAe?$AAn?$AAg?$AAl?$AAi?$AAs?$AAh?$AA?$AA@ 1004e614     LIBCMT:getqloc.obj
 0002:0000c638       ??_C@_1BG@GKAGPCGG@?$AAa?$AAu?$AAs?$AAt?$AAr?$AAa?$AAl?$AAi?$AAa?$AAn?$AA?$AA@ 1004e638     LIBCMT:getqloc.obj
 0002:0000c650       ??_C@_1BA@GMENCENF@?$AAb?$AAe?$AAl?$AAg?$AAi?$AAa?$AAn?$AA?$AA@ 1004e650     LIBCMT:getqloc.obj
 0002:0000c660       ??_C@_1BC@PJMIIAAN@?$AAc?$AAa?$AAn?$AAa?$AAd?$AAi?$AAa?$AAn?$AA?$AA@ 1004e660     LIBCMT:getqloc.obj
 0002:0000c674       ??_C@_17NOIMNFBF@?$AAc?$AAh?$AAh?$AA?$AA@ 1004e674     LIBCMT:getqloc.obj
 0002:0000c67c       ??_C@_17GGDALCHA@?$AAc?$AAh?$AAi?$AA?$AA@ 1004e67c     LIBCMT:getqloc.obj
 0002:0000c684       ??_C@_1BA@NPNJKIBL@?$AAc?$AAh?$AAi?$AAn?$AAe?$AAs?$AAe?$AA?$AA@ 1004e684     LIBCMT:getqloc.obj
 0002:0000c694       ??_C@_1CC@DINBAMMJ@?$AAc?$AAh?$AAi?$AAn?$AAe?$AAs?$AAe?$AA?9?$AAh?$AAo?$AAn?$AAg?$AAk?$AAo?$AAn?$AAg?$AA?$AA@ 1004e694     LIBCMT:getqloc.obj
 0002:0000c6b8       ??_C@_1CG@IOBJPACO@?$AAc?$AAh?$AAi?$AAn?$AAe?$AAs?$AAe?$AA?9?$AAs?$AAi?$AAm?$AAp?$AAl?$AAi?$AAf?$AAi?$AAe?$AAd?$AA?$AA@ 1004e6b8     LIBCMT:getqloc.obj
 0002:0000c6e0       ??_C@_1CE@GAJNDCKG@?$AAc?$AAh?$AAi?$AAn?$AAe?$AAs?$AAe?$AA?9?$AAs?$AAi?$AAn?$AAg?$AAa?$AAp?$AAo?$AAr?$AAe?$AA?$AA@ 1004e6e0     LIBCMT:getqloc.obj
 0002:0000c704       ??_C@_1CI@PAJPIOOD@?$AAc?$AAh?$AAi?$AAn?$AAe?$AAs?$AAe?$AA?9?$AAt?$AAr?$AAa?$AAd?$AAi?$AAt?$AAi?$AAo?$AAn?$AAa?$AAl?$AA?$AA@ 1004e704     LIBCMT:getqloc.obj
 0002:0000c72c       ??_C@_1BM@NILJBMMD@?$AAd?$AAu?$AAt?$AAc?$AAh?$AA?9?$AAb?$AAe?$AAl?$AAg?$AAi?$AAa?$AAn?$AA?$AA@ 1004e72c     LIBCMT:getqloc.obj
 0002:0000c748       ??_C@_1CC@OOJPJNEJ@?$AAe?$AAn?$AAg?$AAl?$AAi?$AAs?$AAh?$AA?9?$AAa?$AAm?$AAe?$AAr?$AAi?$AAc?$AAa?$AAn?$AA?$AA@ 1004e748     LIBCMT:getqloc.obj
 0002:0000c76c       ??_C@_1BI@IOLFEEM@?$AAe?$AAn?$AAg?$AAl?$AAi?$AAs?$AAh?$AA?9?$AAa?$AAu?$AAs?$AA?$AA@ 1004e76c     LIBCMT:getqloc.obj
 0002:0000c784       ??_C@_1BO@HFFNLENJ@?$AAe?$AAn?$AAg?$AAl?$AAi?$AAs?$AAh?$AA?9?$AAb?$AAe?$AAl?$AAi?$AAz?$AAe?$AA?$AA@ 1004e784     LIBCMT:getqloc.obj
 0002:0000c7a4       ??_C@_1BI@HAPKJMPO@?$AAe?$AAn?$AAg?$AAl?$AAi?$AAs?$AAh?$AA?9?$AAc?$AAa?$AAn?$AA?$AA@ 1004e7a4     LIBCMT:getqloc.obj
 0002:0000c7bc       ??_C@_1CE@HLNDMIOJ@?$AAe?$AAn?$AAg?$AAl?$AAi?$AAs?$AAh?$AA?9?$AAc?$AAa?$AAr?$AAi?$AAb?$AAb?$AAe?$AAa?$AAn?$AA?$AA@ 1004e7bc     LIBCMT:getqloc.obj
 0002:0000c7e0       ??_C@_1BI@LDHJHHAC@?$AAe?$AAn?$AAg?$AAl?$AAi?$AAs?$AAh?$AA?9?$AAi?$AAr?$AAe?$AA?$AA@ 1004e7e0     LIBCMT:getqloc.obj
 0002:0000c7f8       ??_C@_1CA@NJMMCFOC@?$AAe?$AAn?$AAg?$AAl?$AAi?$AAs?$AAh?$AA?9?$AAj?$AAa?$AAm?$AAa?$AAi?$AAc?$AAa?$AA?$AA@ 1004e7f8     LIBCMT:getqloc.obj
 0002:0000c818       ??_C@_1BG@BHJEBBGG@?$AAe?$AAn?$AAg?$AAl?$AAi?$AAs?$AAh?$AA?9?$AAn?$AAz?$AA?$AA@ 1004e818     LIBCMT:getqloc.obj
 0002:0000c830       ??_C@_1CK@FGOEJJCO@?$AAe?$AAn?$AAg?$AAl?$AAi?$AAs?$AAh?$AA?9?$AAs?$AAo?$AAu?$AAt?$AAh?$AA?5?$AAa?$AAf?$AAr?$AAi?$AAc?$AAa?$AA?$AA@ 1004e830     LIBCMT:getqloc.obj
 0002:0000c85c       ??_C@_1DE@PDBJPCJ@?$AAe?$AAn?$AAg?$AAl?$AAi?$AAs?$AAh?$AA?9?$AAt?$AAr?$AAi?$AAn?$AAi?$AAd?$AAa?$AAd?$AA?5?$AAy?$AA?5?$AAt?$AAo?$AAb?$AAa?$AAg?$AAo?$AA?$AA@ 1004e85c     LIBCMT:getqloc.obj
 0002:0000c890       ??_C@_1BG@JGCANDME@?$AAe?$AAn?$AAg?$AAl?$AAi?$AAs?$AAh?$AA?9?$AAu?$AAk?$AA?$AA@ 1004e890     LIBCMT:getqloc.obj
 0002:0000c8a8       ??_C@_1BG@DINKMLE@?$AAe?$AAn?$AAg?$AAl?$AAi?$AAs?$AAh?$AA?9?$AAu?$AAs?$AA?$AA@ 1004e8a8     LIBCMT:getqloc.obj
 0002:0000c8c0       ??_C@_1BI@NMFDBHJE@?$AAe?$AAn?$AAg?$AAl?$AAi?$AAs?$AAh?$AA?9?$AAu?$AAs?$AAa?$AA?$AA@ 1004e8c0     LIBCMT:getqloc.obj
 0002:0000c8d8       ??_C@_1BO@OIHKJKII@?$AAf?$AAr?$AAe?$AAn?$AAc?$AAh?$AA?9?$AAb?$AAe?$AAl?$AAg?$AAi?$AAa?$AAn?$AA?$AA@ 1004e8d8     LIBCMT:getqloc.obj
 0002:0000c8f8       ??_C@_1CA@NKAELJKI@?$AAf?$AAr?$AAe?$AAn?$AAc?$AAh?$AA?9?$AAc?$AAa?$AAn?$AAa?$AAd?$AAi?$AAa?$AAn?$AA?$AA@ 1004e8f8     LIBCMT:getqloc.obj
 0002:0000c918       ??_C@_1CE@MGKCNLGN@?$AAf?$AAr?$AAe?$AAn?$AAc?$AAh?$AA?9?$AAl?$AAu?$AAx?$AAe?$AAm?$AAb?$AAo?$AAu?$AAr?$AAg?$AA?$AA@ 1004e918     LIBCMT:getqloc.obj
 0002:0000c93c       ??_C@_1BK@CEGEAILM@?$AAf?$AAr?$AAe?$AAn?$AAc?$AAh?$AA?9?$AAs?$AAw?$AAi?$AAs?$AAs?$AA?$AA@ 1004e93c     LIBCMT:getqloc.obj
 0002:0000c958       ??_C@_1CA@PAFKEOCC@?$AAg?$AAe?$AAr?$AAm?$AAa?$AAn?$AA?9?$AAa?$AAu?$AAs?$AAt?$AAr?$AAi?$AAa?$AAn?$AA?$AA@ 1004e958     LIBCMT:getqloc.obj
 0002:0000c978       ??_C@_1CI@HCFHGOFD@?$AAg?$AAe?$AAr?$AAm?$AAa?$AAn?$AA?9?$AAl?$AAi?$AAc?$AAh?$AAt?$AAe?$AAn?$AAs?$AAt?$AAe?$AAi?$AAn?$AA?$AA@ 1004e978     LIBCMT:getqloc.obj
 0002:0000c9a0       ??_C@_1CE@FEDDNPDG@?$AAg?$AAe?$AAr?$AAm?$AAa?$AAn?$AA?9?$AAl?$AAu?$AAx?$AAe?$AAm?$AAb?$AAo?$AAu?$AAr?$AAg?$AA?$AA@ 1004e9a0     LIBCMT:getqloc.obj
 0002:0000c9c4       ??_C@_1BK@LIMINNMN@?$AAg?$AAe?$AAr?$AAm?$AAa?$AAn?$AA?9?$AAs?$AAw?$AAi?$AAs?$AAs?$AA?$AA@ 1004e9c4     LIBCMT:getqloc.obj
 0002:0000c9e0       ??_C@_1BM@LGMDBEPD@?$AAi?$AAr?$AAi?$AAs?$AAh?$AA?9?$AAe?$AAn?$AAg?$AAl?$AAi?$AAs?$AAh?$AA?$AA@ 1004e9e0     LIBCMT:getqloc.obj
 0002:0000c9fc       ??_C@_1BM@NNCFBAEE@?$AAi?$AAt?$AAa?$AAl?$AAi?$AAa?$AAn?$AA?9?$AAs?$AAw?$AAi?$AAs?$AAs?$AA?$AA@ 1004e9fc     LIBCMT:getqloc.obj
 0002:0000ca18       ??_C@_1BE@FEDJNPIB@?$AAn?$AAo?$AAr?$AAw?$AAe?$AAg?$AAi?$AAa?$AAn?$AA?$AA@ 1004ea18     LIBCMT:getqloc.obj
 0002:0000ca2c       ??_C@_1CC@CILKDEIE@?$AAn?$AAo?$AAr?$AAw?$AAe?$AAg?$AAi?$AAa?$AAn?$AA?9?$AAb?$AAo?$AAk?$AAm?$AAa?$AAl?$AA?$AA@ 1004ea2c     LIBCMT:getqloc.obj
 0002:0000ca50       ??_C@_1CE@DHMMHEPL@?$AAn?$AAo?$AAr?$AAw?$AAe?$AAg?$AAi?$AAa?$AAn?$AA?9?$AAn?$AAy?$AAn?$AAo?$AAr?$AAs?$AAk?$AA?$AA@ 1004ea50     LIBCMT:getqloc.obj
 0002:0000ca74       ??_C@_1CK@OPNMHECD@?$AAp?$AAo?$AAr?$AAt?$AAu?$AAg?$AAu?$AAe?$AAs?$AAe?$AA?9?$AAb?$AAr?$AAa?$AAz?$AAi?$AAl?$AAi?$AAa?$AAn?$AA?$AA@ 1004ea74     LIBCMT:getqloc.obj
 0002:0000caa0       ??_C@_1CE@KEEHCDB@?$AAs?$AAp?$AAa?$AAn?$AAi?$AAs?$AAh?$AA?9?$AAa?$AAr?$AAg?$AAe?$AAn?$AAt?$AAi?$AAn?$AAa?$AA?$AA@ 1004eaa0     LIBCMT:getqloc.obj
 0002:0000cac4       ??_C@_1CA@GIAOLHJD@?$AAs?$AAp?$AAa?$AAn?$AAi?$AAs?$AAh?$AA?9?$AAb?$AAo?$AAl?$AAi?$AAv?$AAi?$AAa?$AA?$AA@ 1004eac4     LIBCMT:getqloc.obj
 0002:0000cae4       ??_C@_1BM@OJNDFNPD@?$AAs?$AAp?$AAa?$AAn?$AAi?$AAs?$AAh?$AA?9?$AAc?$AAh?$AAi?$AAl?$AAe?$AA?$AA@ 1004eae4     LIBCMT:getqloc.obj
 0002:0000cb00       ??_C@_1CC@OCOLPALL@?$AAs?$AAp?$AAa?$AAn?$AAi?$AAs?$AAh?$AA?9?$AAc?$AAo?$AAl?$AAo?$AAm?$AAb?$AAi?$AAa?$AA?$AA@ 1004eb00     LIBCMT:getqloc.obj
 0002:0000cb24       ??_C@_1CG@BPOFMKBB@?$AAs?$AAp?$AAa?$AAn?$AAi?$AAs?$AAh?$AA?9?$AAc?$AAo?$AAs?$AAt?$AAa?$AA?5?$AAr?$AAi?$AAc?$AAa?$AA?$AA@ 1004eb24     LIBCMT:getqloc.obj
 0002:0000cb4c       ??_C@_1DG@IGOBAPBB@?$AAs?$AAp?$AAa?$AAn?$AAi?$AAs?$AAh?$AA?9?$AAd?$AAo?$AAm?$AAi?$AAn?$AAi?$AAc?$AAa?$AAn?$AA?5?$AAr?$AAe?$AAp?$AAu?$AAb?$AAl?$AAi?$AAc?$AA?$AA@ 1004eb4c     LIBCMT:getqloc.obj
 0002:0000cb84       ??_C@_1CA@JHAPGEGI@?$AAs?$AAp?$AAa?$AAn?$AAi?$AAs?$AAh?$AA?9?$AAe?$AAc?$AAu?$AAa?$AAd?$AAo?$AAr?$AA?$AA@ 1004eb84     LIBCMT:getqloc.obj
 0002:0000cba4       ??_C@_1CI@LAPALJPP@?$AAs?$AAp?$AAa?$AAn?$AAi?$AAs?$AAh?$AA?9?$AAe?$AAl?$AA?5?$AAs?$AAa?$AAl?$AAv?$AAa?$AAd?$AAo?$AAr?$AA?$AA@ 1004eba4     LIBCMT:getqloc.obj
 0002:0000cbcc       ??_C@_1CE@PDGBOFOM@?$AAs?$AAp?$AAa?$AAn?$AAi?$AAs?$AAh?$AA?9?$AAg?$AAu?$AAa?$AAt?$AAe?$AAm?$AAa?$AAl?$AAa?$AA?$AA@ 1004ebcc     LIBCMT:getqloc.obj
 0002:0000cbf0       ??_C@_1CC@NBEBAODI@?$AAs?$AAp?$AAa?$AAn?$AAi?$AAs?$AAh?$AA?9?$AAh?$AAo?$AAn?$AAd?$AAu?$AAr?$AAa?$AAs?$AA?$AA@ 1004ebf0     LIBCMT:getqloc.obj
 0002:0000cc14       ??_C@_1CA@LLKGHBMF@?$AAs?$AAp?$AAa?$AAn?$AAi?$AAs?$AAh?$AA?9?$AAm?$AAe?$AAx?$AAi?$AAc?$AAa?$AAn?$AA?$AA@ 1004ec14     LIBCMT:getqloc.obj
 0002:0000cc34       ??_C@_1BO@LKNDOIGD@?$AAs?$AAp?$AAa?$AAn?$AAi?$AAs?$AAh?$AA?9?$AAm?$AAo?$AAd?$AAe?$AAr?$AAn?$AA?$AA@ 1004ec34     LIBCMT:getqloc.obj
 0002:0000cc54       ??_C@_1CE@NMDMOEEB@?$AAs?$AAp?$AAa?$AAn?$AAi?$AAs?$AAh?$AA?9?$AAn?$AAi?$AAc?$AAa?$AAr?$AAa?$AAg?$AAu?$AAa?$AA?$AA@ 1004ec54     LIBCMT:getqloc.obj
 0002:0000cc78       ??_C@_1BO@LLCBEJGB@?$AAs?$AAp?$AAa?$AAn?$AAi?$AAs?$AAh?$AA?9?$AAp?$AAa?$AAn?$AAa?$AAm?$AAa?$AA?$AA@ 1004ec78     LIBCMT:getqloc.obj
 0002:0000cc98       ??_C@_1CC@FKPGGIHO@?$AAs?$AAp?$AAa?$AAn?$AAi?$AAs?$AAh?$AA?9?$AAp?$AAa?$AAr?$AAa?$AAg?$AAu?$AAa?$AAy?$AA?$AA@ 1004ec98     LIBCMT:getqloc.obj
 0002:0000ccbc       ??_C@_1BK@CDEIHOOP@?$AAs?$AAp?$AAa?$AAn?$AAi?$AAs?$AAh?$AA?9?$AAp?$AAe?$AAr?$AAu?$AA?$AA@ 1004ecbc     LIBCMT:getqloc.obj
 0002:0000ccd8       ??_C@_1CI@GAHAKKGP@?$AAs?$AAp?$AAa?$AAn?$AAi?$AAs?$AAh?$AA?9?$AAp?$AAu?$AAe?$AAr?$AAt?$AAo?$AA?5?$AAr?$AAi?$AAc?$AAo?$AA?$AA@ 1004ecd8     LIBCMT:getqloc.obj
 0002:0000cd00       ??_C@_1CA@NKJBCAGP@?$AAs?$AAp?$AAa?$AAn?$AAi?$AAs?$AAh?$AA?9?$AAu?$AAr?$AAu?$AAg?$AAu?$AAa?$AAy?$AA?$AA@ 1004ed00     LIBCMT:getqloc.obj
 0002:0000cd20       ??_C@_1CE@ODILCONM@?$AAs?$AAp?$AAa?$AAn?$AAi?$AAs?$AAh?$AA?9?$AAv?$AAe?$AAn?$AAe?$AAz?$AAu?$AAe?$AAl?$AAa?$AA?$AA@ 1004ed20     LIBCMT:getqloc.obj
 0002:0000cd44       ??_C@_1CA@OBNMCGFO@?$AAs?$AAw?$AAe?$AAd?$AAi?$AAs?$AAh?$AA?9?$AAf?$AAi?$AAn?$AAl?$AAa?$AAn?$AAd?$AA?$AA@ 1004ed44     LIBCMT:getqloc.obj
 0002:0000cd64       ??_C@_1M@PIPDDPPI@?$AAs?$AAw?$AAi?$AAs?$AAs?$AA?$AA@ 1004ed64     LIBCMT:getqloc.obj
 0002:0000cd70       ??_C@_15GMFIMNFM@?$AAu?$AAs?$AA?$AA@ 1004ed70     LIBCMT:getqloc.obj
 0002:0000cd78       ??_C@_17HAEBFAGL@?$AAu?$AAs?$AAa?$AA?$AA@ 1004ed78     LIBCMT:getqloc.obj
 0002:0000cd80       ___rg_country              1004ed80     LIBCMT:getqloc.obj
 0002:0000ce94       ??_C@_1BA@DPFJEPHB@?$AAa?$AAm?$AAe?$AAr?$AAi?$AAc?$AAa?$AA?$AA@ 1004ee94     LIBCMT:getqloc.obj
 0002:0000cea4       ??_C@_1BA@ELOGGFK@?$AAb?$AAr?$AAi?$AAt?$AAa?$AAi?$AAn?$AA?$AA@ 1004eea4     LIBCMT:getqloc.obj
 0002:0000ceb4       ??_C@_1M@GHBGIGDA@?$AAc?$AAh?$AAi?$AAn?$AAa?$AA?$AA@ 1004eeb4     LIBCMT:getqloc.obj
 0002:0000cec0       ??_C@_1M@NCHEJOPO@?$AAc?$AAz?$AAe?$AAc?$AAh?$AA?$AA@ 1004eec0     LIBCMT:getqloc.obj
 0002:0000cecc       ??_C@_1BA@BKPAPBLA@?$AAe?$AAn?$AAg?$AAl?$AAa?$AAn?$AAd?$AA?$AA@ 1004eecc     LIBCMT:getqloc.obj
 0002:0000cedc       ??_C@_1BM@HKBCKIPC@?$AAg?$AAr?$AAe?$AAa?$AAt?$AA?5?$AAb?$AAr?$AAi?$AAt?$AAa?$AAi?$AAn?$AA?$AA@ 1004eedc     LIBCMT:getqloc.obj
 0002:0000cef8       ??_C@_1BA@PPCHPGJB@?$AAh?$AAo?$AAl?$AAl?$AAa?$AAn?$AAd?$AA?$AA@ 1004eef8     LIBCMT:getqloc.obj
 0002:0000cf08       ??_C@_1BE@JBMPEGDG@?$AAh?$AAo?$AAn?$AAg?$AA?9?$AAk?$AAo?$AAn?$AAg?$AA?$AA@ 1004ef08     LIBCMT:getqloc.obj
 0002:0000cf1c       ??_C@_1BI@KOELBBPJ@?$AAn?$AAe?$AAw?$AA?9?$AAz?$AAe?$AAa?$AAl?$AAa?$AAn?$AAd?$AA?$AA@ 1004ef1c     LIBCMT:getqloc.obj
 0002:0000cf34       ??_C@_15HIEBHAIO@?$AAn?$AAz?$AA?$AA@ 1004ef34     LIBCMT:getqloc.obj
 0002:0000cf3c       ??_C@_1BC@CHBCPFPI@?$AAp?$AAr?$AA?5?$AAc?$AAh?$AAi?$AAn?$AAa?$AA?$AA@ 1004ef3c     LIBCMT:getqloc.obj
 0002:0000cf50       ??_C@_1BC@JAOIIFKD@?$AAp?$AAr?$AA?9?$AAc?$AAh?$AAi?$AAn?$AAa?$AA?$AA@ 1004ef50     LIBCMT:getqloc.obj
 0002:0000cf64       ??_C@_1BI@BEHPPHKC@?$AAp?$AAu?$AAe?$AAr?$AAt?$AAo?$AA?9?$AAr?$AAi?$AAc?$AAo?$AA?$AA@ 1004ef64     LIBCMT:getqloc.obj
 0002:0000cf7c       ??_C@_1O@PAEOFKDI@?$AAs?$AAl?$AAo?$AAv?$AAa?$AAk?$AA?$AA@ 1004ef7c     LIBCMT:getqloc.obj
 0002:0000cf8c       ??_C@_1BK@FIHMCKAM@?$AAs?$AAo?$AAu?$AAt?$AAh?$AA?5?$AAa?$AAf?$AAr?$AAi?$AAc?$AAa?$AA?$AA@ 1004ef8c     LIBCMT:getqloc.obj
 0002:0000cfa8       ??_C@_1BI@NAEOODKB@?$AAs?$AAo?$AAu?$AAt?$AAh?$AA?5?$AAk?$AAo?$AAr?$AAe?$AAa?$AA?$AA@ 1004efa8     LIBCMT:getqloc.obj
 0002:0000cfc0       ??_C@_1BK@FBDGGIFF@?$AAs?$AAo?$AAu?$AAt?$AAh?$AA?9?$AAa?$AAf?$AAr?$AAi?$AAc?$AAa?$AA?$AA@ 1004efc0     LIBCMT:getqloc.obj
 0002:0000cfdc       ??_C@_1BI@GHLEJDPK@?$AAs?$AAo?$AAu?$AAt?$AAh?$AA?9?$AAk?$AAo?$AAr?$AAe?$AAa?$AA?$AA@ 1004efdc     LIBCMT:getqloc.obj
 0002:0000cff4       ??_C@_1CE@PLHLOMJF@?$AAt?$AAr?$AAi?$AAn?$AAi?$AAd?$AAa?$AAd?$AA?5?$AA?$CG?$AA?5?$AAt?$AAo?$AAb?$AAa?$AAg?$AAo?$AA?$AA@ 1004eff4     LIBCMT:getqloc.obj
 0002:0000d018       ??_C@_1BO@MODIMHHI@?$AAu?$AAn?$AAi?$AAt?$AAe?$AAd?$AA?9?$AAk?$AAi?$AAn?$AAg?$AAd?$AAo?$AAm?$AA?$AA@ 1004f018     LIBCMT:getqloc.obj
 0002:0000d038       ??_C@_1BM@FFHJONBJ@?$AAu?$AAn?$AAi?$AAt?$AAe?$AAd?$AA?9?$AAs?$AAt?$AAa?$AAt?$AAe?$AAs?$AA?$AA@ 1004f038     LIBCMT:getqloc.obj
 0002:0000d054       ___rg_language_count       1004f054     LIBCMT:getqloc.obj
 0002:0000d058       ___rg_country_count        1004f058     LIBCMT:getqloc.obj
 0002:0000d05c       ??_C@_17DNCLJFIF@?$AAA?$AAC?$AAP?$AA?$AA@ 1004f05c     LIBCMT:getqloc.obj
 0002:0000d064       ??_C@_17CIKBIHLH@?$AAO?$AAC?$AAP?$AA?$AA@ 1004f064     LIBCMT:getqloc.obj
 0002:0000d06c       ___rglangidNotDefault      1004f06c     LIBCMT:getqloc_downlevel.obj
 0002:0000d080       __real@00000000            1004f080     LIBCMT:wcstoq.obj
 0002:0000d088       __load_config_used         1004f088     LIBCMT:loadcfg.obj
 0002:0000e7b0       ___safe_se_handler_table   100507b0     <linker-defined>
 0002:0000e8c0       ___rtc_iaa                 100508c0     LIBCMT:initsect.obj
 0002:0000e9c4       ___rtc_izz                 100509c4     LIBCMT:initsect.obj
 0002:0000eac8       ___rtc_taa                 10050ac8     LIBCMT:initsect.obj
 0002:0000ebcc       ___rtc_tzz                 10050bcc     LIBCMT:initsect.obj
 0003:000004f8       _Pos_PID_P                 100524f8     Pos_PID_data.obj
 0003:000017d0       _pci20041digout            100537d0     xpctarget.obj
 0003:000017d4       _nipcdio24cnfg             100537d4     xpctarget.obj
 0003:000017d8       _rtddm6604cnfg             100537d8     xpctarget.obj
 0003:000018fc       _DefaultCOMIOBase          100538fc     xpcruntime:xpcimports.obj
 0003:0000190c       _DefaultCOMIRQ             1005390c     xpcruntime:xpcimports.obj
 0003:00001920       __fltused                  10053920     LIBCMT:fpinit.obj
 0003:00001924       __ldused                   10053924     LIBCMT:fpinit.obj
 0003:00001930       __iob                      10053930     LIBCMT:_file.obj
 0003:00001bb0       ___isa_enabled             10053bb0     LIBCMT:cpu_disp.obj
 0003:00001bb4       ___security_cookie         10053bb4     LIBCMT:gs_cookie.obj
 0003:00001bb8       ___security_cookie_complement 10053bb8     LIBCMT:gs_cookie.obj
 0003:00001d90       ___nullstring              10053d90     LIBCMT:output.obj
 0003:00001d94       ___wnullstring             10053d94     LIBCMT:output.obj
 0003:00001da0       __cfltcvt_tab              10053da0     LIBCMT:cmiscdat.obj
 0003:00001ef0       __mbctype                  10053ef0     LIBCMT:mbctype.obj
 0003:00001ff8       __mbcasemap                10053ff8     LIBCMT:mbctype.obj
 0003:000020f8       ___initialmbcinfo          100540f8     LIBCMT:mbctype.obj
 0003:0000231c       ___ptmbcinfo               1005431c     LIBCMT:mbctype.obj
 0003:00002410       ___badioinfo               10054410     LIBCMT:ioinit.obj
 0003:00002450       __lookuptrailbytes         10054450     LIBCMT:read.obj
 0003:00002550       __d_inf                    10054550     LIBCMT:util.obj
 0003:00002558       __d_ind                    10054558     LIBCMT:util.obj
 0003:00002560       __d_max                    10054560     LIBCMT:util.obj
 0003:00002568       __d_min                    10054568     LIBCMT:util.obj
 0003:00002570       __d_mzero                  10054570     LIBCMT:util.obj
 0003:0000267c       ___abort_behavior          1005467c     LIBCMT:abort.obj
 0003:00002680       ___flsindex                10054680     LIBCMT:tidtable.obj
 0003:00002690       ___mb_cur_max              10054690     LIBCMT:nlsdata.obj
 0003:00002694       ___wclocalestr             10054694     LIBCMT:nlsdata.obj
 0003:00002698       ___lc_time_c               10054698     LIBCMT:nlsdata.obj
 0003:000027fc       ___ptlocinfo               100547fc     LIBCMT:nlsdata.obj
 0003:00002800       ___initiallocinfo          10054800     LIBCMT:nlsdata.obj
 0003:000028b8       ___initiallocalestructinfo 100548b8     LIBCMT:nlsdata.obj
 0003:000028c0       ___globallocalestatus      100548c0     LIBCMT:glstatus.obj
 0003:000028d0       __NLG_Destination          100548d0     LIBCMT:exsup.obj
 0003:000028e0       __matherr_flag             100548e0     LIBCMT:matherr.obj
 0003:000028e8       ___lconv                   100548e8     LIBCMT:lconv.obj
 0003:000028ec       ___lconv_static_decimal    100548ec     LIBCMT:lconv.obj
 0003:000028f0       ___lconv_c                 100548f0     LIBCMT:lconv.obj
 0003:00002940       ___lconv_static_W_decimal  10054940     LIBCMT:lconv.obj
 0003:00002944       __pctype                   10054944     LIBCMT:ctype.obj
 0003:00002948       __pwctype                  10054948     LIBCMT:ctype.obj
 0003:00002980       __confh                    10054980     LIBCMT:initcon.obj
 0003:00002988       __pow10pos                 10054988     LIBCMT:constpow.obj
 0003:00002ae8       __pow10neg                 10054ae8     LIBCMT:constpow.obj
 0003:00002c50       __HUGE                     10054c50     LIBCMT:huge.obj
 0003:0000319c       ___isa_available_default   1005519c     rt_logging.obj
 0003:000031ac       _pci20098PortA             100551ac     xpctarget.obj
 0003:000031b0       _pci20098PortB             100551b0     xpctarget.obj
 0003:000031b4       _siepowercan_firmware_initialized 100551b4     xpctarget.obj
 0003:000031b8       _siepowercan_port1_configured 100551b8     xpctarget.obj
 0003:000031bc       _siepowercan_port2_configured 100551bc     xpctarget.obj
 0003:000031c0       _CANAC2_FIRMWARE_LOADED    100551c0     xpctarget.obj
 0003:000031c4       _rs232ports                100551c4     xpctarget.obj
 0003:000031d4       _NI_AT_MIO_16F_5_commreg2  100551d4     xpctarget.obj
 0003:000031d8       _RTD_DM6430_init           100551d8     xpctarget.obj
 0003:000031dc       _RTD_DM6420_init           100551dc     xpctarget.obj
 0003:000031e0       _CANAC2_FIRMWARE_LOADED_mb1 100551e0     xpctarget.obj
 0003:000031e4       _CANAC2_FIRMWARE_LOADED_mb2 100551e4     xpctarget.obj
 0003:000031e8       _CANAC2_FIRMWARE_LOADED_mb3 100551e8     xpctarget.obj
 0003:000031ec       _xmlsize                   100551ec     xpctarget.obj
 0003:000036f8       ___fastflag                100556f8     LIBCMT:fpinit.obj
 0003:00003a20       __C_Exit_Done              10055a20     LIBCMT:crt0dat.obj
 0003:00003a24       ___argc                    10055a24     LIBCMT:crt0dat.obj
 0003:00003a28       ___argv                    10055a28     LIBCMT:crt0dat.obj
 0003:00003a2c       ___wargv                   10055a2c     LIBCMT:crt0dat.obj
 0003:00003a30       __environ                  10055a30     LIBCMT:crt0dat.obj
 0003:00003a34       __wenviron                 10055a34     LIBCMT:crt0dat.obj
 0003:00003a38       __pgmptr                   10055a38     LIBCMT:crt0dat.obj
 0003:00003a3c       __wpgmptr                  10055a3c     LIBCMT:crt0dat.obj
 0003:00003a40       __umaskval                 10055a40     LIBCMT:crt0dat.obj
 0003:00003a44       __exitflag                 10055a44     LIBCMT:crt0dat.obj
 0003:00003a48       __C_Termination_Done       10055a48     LIBCMT:crt0dat.obj
 0003:00003a4c       ___winitenv                10055a4c     LIBCMT:crt0dat.obj
 0003:00003a50       ___initenv                 10055a50     LIBCMT:crt0dat.obj
 0003:00003a54       __cflush                   10055a54     LIBCMT:_file.obj
 0003:00003a58       ___isa_available           10055a58     LIBCMT:cpu_disp.obj
 0003:00003a5c       ___favor                   10055a5c     LIBCMT:cpu_disp.obj
 0003:00003a64       __aenvptr                  10055a64     LIBCMT:dllcrt0.obj
 0003:00003a68       __wenvptr                  10055a68     LIBCMT:dllcrt0.obj
 0003:00003a6c       ?_pnhHeap@@3P6AHI@ZA       10055a6c     LIBCMT:handler.obj
 0003:00003a70       ___app_type                10055a70     LIBCMT:crt0msg.obj
 0003:000040a0       __newmode                  100560a0     LIBCMT:_newmode.obj
 0003:000040a4       __crtheap                  100560a4     LIBCMT:heapinit.obj
 0003:000040a8       ___pInvalidArgHandler      100560a8     LIBCMT:invarg.obj
 0003:000040ac       __stdbuf                   100560ac     LIBCMT:_sftbuf.obj
 0003:00004208       __maxwait                  10056208     LIBCMT:crtheap.obj
 0003:0000420c       ?__pInconsistency@@3P6AXXZA 1005620c     LIBCMT:hooks.obj
 0003:00004210       ___pPurecall               10056210     LIBCMT:inithelp.obj
 0003:0000422c       ___mbcodepage              1005622c     LIBCMT:mbctype.obj
 0003:00004230       ___ismbcodepage            10056230     LIBCMT:mbctype.obj
 0003:00004234       ___mbulinfo                10056234     LIBCMT:mbctype.obj
 0003:00004240       ___mblocalename            10056240     LIBCMT:mbctype.obj
 0003:00004248       ___pioinfo                 10056248     LIBCMT:ioinit.obj
 0003:00004348       ___error_mode              10056348     LIBCMT:errmode.obj
 0003:00004468       __outputformat             10056468     LIBCMT:outputformat.obj
 0003:00004470       __commode                  10056470     LIBCMT:ncommode.obj
 0003:00004474       ___lconv_static_null       10056474     LIBCMT:lconv.obj
 0003:00004478       ___lconv_static_W_null     10056478     LIBCMT:lconv.obj
 0003:0000447c       ___locale_changed          1005647c     LIBCMT:wsetloca.obj
 0003:00004480       __fmode                    10056480     LIBCMT:txtmode.obj
 0003:000044a0       _CANAC2_2_receiveindex_mb3 100564a0     <common>
 0003:00007574       _CANAC2_2_receivemaxindex_mb3 10059574     <common>
 0003:00007580       _CANAC2_2_sendindex_mb3    10059580     <common>
 0003:000078a0       _CANAC2_2_sendmaxindex_mb3 100598a0     <common>
 0003:000078c0       _CANAC2_1_receiveindex_mb3 100598c0     <common>
 0003:00007be0       _CANAC2_1_receivemaxindex_mb3 10059be0     <common>
 0003:00007c00       _CANAC2_1_sendindex_mb3    10059c00     <common>
 0003:00007f20       _CANAC2_1_sendmaxindex_mb3 10059f20     <common>
 0003:00007f40       _CANAC2_2_receive_mb3      10059f40     <common>
 0003:00008260       _CANAC2_2_send_mb3         1005a260     <common>
 0003:00008580       _CANAC2_1_receive_mb3      1005a580     <common>
 0003:000088a0       _CANAC2_1_send_mb3         1005a8a0     <common>
 0003:00008bc0       _CANAC2_2_receiveindex_mb2 1005abc0     <common>
 0003:00008ee0       _CANAC2_2_receivemaxindex_mb2 1005aee0     <common>
 0003:00008f00       _CANAC2_2_sendindex_mb2    1005af00     <common>
 0003:00009220       _CANAC2_2_sendmaxindex_mb2 1005b220     <common>
 0003:00009240       _CANAC2_1_receiveindex_mb2 1005b240     <common>
 0003:00009560       _CANAC2_1_receivemaxindex_mb2 1005b560     <common>
 0003:00009580       _CANAC2_1_sendindex_mb2    1005b580     <common>
 0003:000098a0       _CANAC2_1_sendmaxindex_mb2 1005b8a0     <common>
 0003:000098c0       _CANAC2_2_receive_mb2      1005b8c0     <common>
 0003:00009be0       _CANAC2_2_send_mb2         1005bbe0     <common>
 0003:00009f00       _CANAC2_1_receive_mb2      1005bf00     <common>
 0003:0000a220       _CANAC2_1_send_mb2         1005c220     <common>
 0003:0000a540       _CANAC2_2_receiveindex_mb1 1005c540     <common>
 0003:0000a860       _CANAC2_2_receivemaxindex_mb1 1005c860     <common>
 0003:0000a880       _CANAC2_2_sendindex_mb1    1005c880     <common>
 0003:0000aba0       _CANAC2_2_sendmaxindex_mb1 1005cba0     <common>
 0003:0000abc0       _CANAC2_1_receiveindex_mb1 1005cbc0     <common>
 0003:0000aee0       _CANAC2_1_receivemaxindex_mb1 1005cee0     <common>
 0003:0000af00       _CANAC2_1_sendindex_mb1    1005cf00     <common>
 0003:0000b220       _CANAC2_1_sendmaxindex_mb1 1005d220     <common>
 0003:0000b240       _CANAC2_2_receive_mb1      1005d240     <common>
 0003:0000b560       _CANAC2_2_send_mb1         1005d560     <common>
 0003:0000b880       _CANAC2_1_receive_mb1      1005d880     <common>
 0003:0000bba0       _CANAC2_1_send_mb1         1005dba0     <common>
 0003:0000bec0       _CANAC2_2_receiveindex     1005dec0     <common>
 0003:0000c1e0       _CANAC2_2_receivemaxindex  1005e1e0     <common>
 0003:0000c200       _CANAC2_2_sendindex        1005e200     <common>
 0003:0000c520       _CANAC2_2_sendmaxindex     1005e520     <common>
 0003:0000c540       _CANAC2_1_receiveindex     1005e540     <common>
 0003:0000c860       _CANAC2_1_receivemaxindex  1005e860     <common>
 0003:0000c880       _CANAC2_1_sendindex        1005e880     <common>
 0003:0000cba0       _CANAC2_1_sendmaxindex     1005eba0     <common>
 0003:0000cbc0       _CANAC2_2_receive          1005ebc0     <common>
 0003:0000cee0       _CANAC2_2_send             1005eee0     <common>
 0003:0000d200       _CANAC2_1_receive          1005f200     <common>
 0003:0000d520       _CANAC2_1_send             1005f520     <common>
 0003:0000d840       _siepowercan_can_object_buffer_port2 1005f840     <common>
 0003:00011860       _siepowercan_can_object_buffer_port1 10063860     <common>
 0003:00015860       _rtNaNF                    10067860     <common>
 0003:00015874       _rtMinusInfF               10067874     <common>
 0003:00015878       _rtInfF                    10067878     <common>
 0003:00015880       _rtNaN                     10067880     <common>
 0003:00015888       _rtMinusInf                10067888     <common>
 0003:00015890       _rtInf                     10067890     <common>
 0003:000158a0       _Pos_PID_M_                100678a0     <common>
 0003:00018a80       _Pos_PID_DW                1006aa80     <common>
 0003:00018be0       _Pos_PID_X                 1006abe0     <common>
 0003:00018c20       _Pos_PID_B                 1006ac20     <common>
 0003:00018dd0       _xpceaddEvent              1006add0     <common>
 0003:00018e20       _xpceDeRegisterISR         1006ae20     <common>
 0003:00018e24       _xpceRegisterISR           1006ae24     <common>
 0003:00018e28       _xpcIsModelInit            1006ae28     <common>
 0003:00018e2c       _xpcGetElapsedTime         1006ae2c     <common>
 0003:00018e30       _xpcBusyWait               1006ae30     <common>
 0003:00018e34       _xpcFreePhysicalMemory     1006ae34     <common>
 0003:00018e38       _xpcAllocPhysicalMemory    1006ae38     <common>
 0003:00018e3c       _xpcReserveMemoryRegion    1006ae3c     <common>
 0003:00018e40       _xpcOutpB                  1006ae40     <common>
 0003:00018e44       _xpcOutpW                  1006ae44     <common>
 0003:00018e48       _xpcOutpDW                 1006ae48     <common>
 0003:00018e4c       _xpcInpB                   1006ae4c     <common>
 0003:00018e50       _xpcInpW                   1006ae50     <common>
 0003:00018e54       _xpcInpDW                  1006ae54     <common>
 0003:00018e58       _slTestRegAssessment       1006ae58     <common>
 0003:00018e5c       _slTestTerminate           1006ae5c     <common>
 0003:00018e60       _slTestEvalOnFail          1006ae60     <common>
 0003:00018e64       _slTestLogAssessments      1006ae64     <common>
 0003:00018e68       _slTestInitialize          1006ae68     <common>
 0003:00018e6c       _unRegisterPTPTimeRead     1006ae6c     <common>
 0003:00018e70       _registerPTPTimeRead       1006ae70     <common>
 0003:00018e74       _slrteGetCurrentStepSize   1006ae74     <common>
 0003:00018e78       _slrteSetStepSizeDelta     1006ae78     <common>
 0003:00018e7c       _xpceGetIntTimerGranularityNS 1006ae7c     <common>
 0003:00018e80       _sendToAsyncQueueTgtAppSvc 1006ae80     <common>
 0003:00018e84       _terminateToAsyncQueueTgtAppSvc 1006ae84     <common>
 0003:00018e88       _startToAsyncQueueTgtAppSvc 1006ae88     <common>
 0003:00018e8c       _getStatusFlags            1006ae8c     <common>
 0003:00018e90       _getCommService            1006ae90     <common>
 0003:00018e94       _getMemoryService          1006ae94     <common>
 0003:00018e98       _StreamVideo               1006ae98     <common>
 0003:00018e9c       _StopVideoDisplay          1006ae9c     <common>
 0003:00018ea0       _StartVideoDisplay         1006aea0     <common>
 0003:00018ea4       _DestroyVideoDisplay       1006aea4     <common>
 0003:00018ea8       _CreateVideoDisplay        1006aea8     <common>
 0003:00018eac       _ConvertUImage             1006aeac     <common>
 0003:00018eb0       _StopVideo                 1006aeb0     <common>
 0003:00018eb4       _ReadFrameBuffer           1006aeb4     <common>
 0003:00018eb8       _StartVideo                1006aeb8     <common>
 0003:00018ebc       _GetVideoConfigs           1006aebc     <common>
 0003:00018ec0       _FindUsbVideoDevice        1006aec0     <common>
 0003:00018ec4       _xpceDeleteSemaphore       1006aec4     <common>
 0003:00018ec8       _xpceSignalSemaphore       1006aec8     <common>
 0003:00018ecc       _xpceWaitSemaphore         1006aecc     <common>
 0003:00018ed0       _xpceCreateSemaphore       1006aed0     <common>
 0003:00018ed4       _TBGiveSpinFast            1006aed4     <common>
 0003:00018ed8       _TBTakeSpinFast            1006aed8     <common>
 0003:00018edc       _TBDeleteSpin              1006aedc     <common>
 0003:00018ee0       _TBCreateSpin              1006aee0     <common>
 0003:00018ee4       _xpceScopeAcqOK            1006aee4     <common>
 0003:00018ee8       _rl32eRestartAcquisition   1006aee8     <common>
 0003:00018eec       _rl32eSetTargetScopeSigFt  1006aeec     <common>
 0003:00018ef0       _rl32eSetTargetScope       1006aef0     <common>
 0003:00018ef4       _xpceFSScopeSet            1006aef4     <common>
 0003:00018ef8       _rl32eSetScope             1006aef8     <common>
 0003:00018efc       _rl32eAddSignal            1006aefc     <common>
 0003:00018f00       _rl32eGetSignalNo          1006af00     <common>
 0003:00018f04       _rl32eDefScope             1006af04     <common>
 0003:00018f08       _rl32eScopeExists          1006af08     <common>
 0003:00018f0c       _xpceUDPClose              1006af0c     <common>
 0003:00018f10       _xpceUDPReceive            1006af10     <common>
 0003:00018f14       _xpceUDPSend               1006af14     <common>
 0003:00018f18       _xpceUDPOpenReceive        1006af18     <common>
 0003:00018f1c       _xpceUDPOpenSend           1006af1c     <common>
 0003:00018f20       _rl32eSendBlock            1006af20     <common>
 0003:00018f24       _rl32eLineStatus           1006af24     <common>
 0003:00018f28       _rl32eReceiveBufferCount   1006af28     <common>
 0003:00018f2c       _rl32eReceiveChar          1006af2c     <common>
 0003:00018f30       _rl32eSendChar             1006af30     <common>
 0003:00018f34       _rl32eCloseCOMPort         1006af34     <common>
 0003:00018f38       _rl32eInitCOMPort          1006af38     <common>
 0003:00018f3c       _xpceGetParamDims          1006af3c     <common>
 0003:00018f40       _xpceGetParameter          1006af40     <common>
 0003:00018f44       _xpceSetParameter          1006af44     <common>
 0003:00018f48       _xpceGetSignalValue        1006af48     <common>
 0003:00018f4c       _xpceAssignPCIInterrupt    1006af4c     <common>
 0003:00018f50       _rl32eGetPCIInfoAtSlot     1006af50     <common>
 0003:00018f54       _rl32eGetPCIInfo           1006af54     <common>
 0003:00018f58       _rl32eShowPCIInfo          1006af58     <common>
 0003:00018f5c       _rl32eShowPCIDev           1006af5c     <common>
 0003:00018f60       _xpceGetTET                1006af60     <common>
 0003:00018f64       _xpceFTSubtract            1006af64     <common>
 0003:00018f68       _xpceFTAdd                 1006af68     <common>
 0003:00018f6c       _xpceFTReadTime            1006af6c     <common>
 0003:00018f70       ___unguarded_readlc_active 1006af70     <common>
 0003:00018f80       ___setlc_active            1006af80     <common>
 0003:00018f84       __nhandle                  1006af84     <common>
 0003:00018fa0       _encodedKERNEL32Functions  1006afa0     <common>
 0003:00019048       __debugger_hook_dummy      1006b048     <common>
 0003:00019054       __pDestructExceptionObject 1006b054     <common>
 0003:00019060       __acmdln                   1006b060     <common>
 0003:00019080       __bufin                    1006b080     <common>
 0003:0001a3bc       ___piob                    1006c3bc     <common>
 0003:0001a3c0       __nstream                  1006c3c0     <common>
 0003:0001a3c4       ___dyn_tls_init_callback   1006c3c4     <common>
 0003:0001a3d4       ___onexitend               1006c3d4     <common>
 0003:0001a3d8       ___onexitbegin             1006c3d8     <common>
 0003:0001a3dc       ___mbctype_initialized     1006c3dc     <common>
 0003:0001a3e0       ___env_initialized         1006c3e0     <common>
 0004:00000000       __imp__GetModuleHandleA@4  1006d000     kernel32:KERNEL32.dll
 0004:00000004       __imp__GetProcAddress@8    1006d004     kernel32:KERNEL32.dll
 0004:00000008       __imp__HeapAlloc@12        1006d008     kernel32:KERNEL32.dll
 0004:0000000c       __imp__IsDebuggerPresent@0 1006d00c     kernel32:KERNEL32.dll
 0004:00000010       __imp__IsProcessorFeaturePresent@4 1006d010     kernel32:KERNEL32.dll
 0004:00000014       __imp__EncodePointer@4     1006d014     kernel32:KERNEL32.dll
 0004:00000018       __imp__DecodePointer@4     1006d018     kernel32:KERNEL32.dll
 0004:0000001c       __imp__GetLastError@0      1006d01c     kernel32:KERNEL32.dll
 0004:00000020       __imp__ExitProcess@4       1006d020     kernel32:KERNEL32.dll
 0004:00000024       __imp__GetModuleHandleExW@12 1006d024     kernel32:KERNEL32.dll
 0004:00000028       __imp__AreFileApisANSI@0   1006d028     kernel32:KERNEL32.dll
 0004:0000002c       __imp__MultiByteToWideChar@24 1006d02c     kernel32:KERNEL32.dll
 0004:00000030       __imp__WideCharToMultiByte@32 1006d030     kernel32:KERNEL32.dll
 0004:00000034       __imp__HeapFree@12         1006d034     kernel32:KERNEL32.dll
 0004:00000038       __imp__HeapReAlloc@16      1006d038     kernel32:KERNEL32.dll
 0004:0000003c       __imp__EnterCriticalSection@4 1006d03c     kernel32:KERNEL32.dll
 0004:00000040       __imp__LeaveCriticalSection@4 1006d040     kernel32:KERNEL32.dll
 0004:00000044       __imp__GetStdHandle@4      1006d044     kernel32:KERNEL32.dll
 0004:00000048       __imp__GetFileType@4       1006d048     kernel32:KERNEL32.dll
 0004:0000004c       __imp__GetModuleFileNameW@12 1006d04c     kernel32:KERNEL32.dll
 0004:00000050       __imp__WriteConsoleW@20    1006d050     kernel32:KERNEL32.dll
 0004:00000054       __imp__GetCommandLineA@0   1006d054     kernel32:KERNEL32.dll
 0004:00000058       __imp__GetCurrentThreadId@0 1006d058     kernel32:KERNEL32.dll
 0004:0000005c       __imp__WriteFile@20        1006d05c     kernel32:KERNEL32.dll
 0004:00000060       __imp__GetProcessHeap@0    1006d060     kernel32:KERNEL32.dll
 0004:00000064       __imp__UnhandledExceptionFilter@4 1006d064     kernel32:KERNEL32.dll
 0004:00000068       __imp__SetUnhandledExceptionFilter@4 1006d068     kernel32:KERNEL32.dll
 0004:0000006c       __imp__SetLastError@4      1006d06c     kernel32:KERNEL32.dll
 0004:00000070       __imp__InitializeCriticalSectionAndSpinCount@8 1006d070     kernel32:KERNEL32.dll
 0004:00000074       __imp__CreateEventW@16     1006d074     kernel32:KERNEL32.dll
 0004:00000078       __imp__Sleep@4             1006d078     kernel32:KERNEL32.dll
 0004:0000007c       __imp__GetCurrentProcess@0 1006d07c     kernel32:KERNEL32.dll
 0004:00000080       __imp__TerminateProcess@8  1006d080     kernel32:KERNEL32.dll
 0004:00000084       __imp__TlsAlloc@0          1006d084     kernel32:KERNEL32.dll
 0004:00000088       __imp__TlsGetValue@4       1006d088     kernel32:KERNEL32.dll
 0004:0000008c       __imp__TlsSetValue@8       1006d08c     kernel32:KERNEL32.dll
 0004:00000090       __imp__TlsFree@4           1006d090     kernel32:KERNEL32.dll
 0004:00000094       __imp__GetStartupInfoW@4   1006d094     kernel32:KERNEL32.dll
 0004:00000098       __imp__GetTickCount@0      1006d098     kernel32:KERNEL32.dll
 0004:0000009c       __imp__GetModuleHandleW@4  1006d09c     kernel32:KERNEL32.dll
 0004:000000a0       __imp__CreateSemaphoreW@16 1006d0a0     kernel32:KERNEL32.dll
 0004:000000a4       __imp__DeleteCriticalSection@4 1006d0a4     kernel32:KERNEL32.dll
 0004:000000a8       __imp__FatalAppExitA@8     1006d0a8     kernel32:KERNEL32.dll
 0004:000000ac       __imp__SetConsoleCtrlHandler@8 1006d0ac     kernel32:KERNEL32.dll
 0004:000000b0       __imp__FreeLibrary@4       1006d0b0     kernel32:KERNEL32.dll
 0004:000000b4       __imp__LoadLibraryExW@12   1006d0b4     kernel32:KERNEL32.dll
 0004:000000b8       __imp__IsValidCodePage@4   1006d0b8     kernel32:KERNEL32.dll
 0004:000000bc       __imp__GetACP@0            1006d0bc     kernel32:KERNEL32.dll
 0004:000000c0       __imp__GetOEMCP@0          1006d0c0     kernel32:KERNEL32.dll
 0004:000000c4       __imp__GetCPInfo@8         1006d0c4     kernel32:KERNEL32.dll
 0004:000000c8       __imp__CloseHandle@4       1006d0c8     kernel32:KERNEL32.dll
 0004:000000cc       __imp__RtlUnwind@16        1006d0cc     kernel32:KERNEL32.dll
 0004:000000d0       __imp__ReadFile@20         1006d0d0     kernel32:KERNEL32.dll
 0004:000000d4       __imp__GetConsoleMode@8    1006d0d4     kernel32:KERNEL32.dll
 0004:000000d8       __imp__ReadConsoleW@20     1006d0d8     kernel32:KERNEL32.dll
 0004:000000dc       __imp__GetConsoleCP@0      1006d0dc     kernel32:KERNEL32.dll
 0004:000000e0       __imp__DeleteFileW@4       1006d0e0     kernel32:KERNEL32.dll
 0004:000000e4       __imp__SetFilePointerEx@20 1006d0e4     kernel32:KERNEL32.dll
 0004:000000e8       __imp__RaiseException@16   1006d0e8     kernel32:KERNEL32.dll
 0004:000000ec       __imp__OutputDebugStringW@4 1006d0ec     kernel32:KERNEL32.dll
 0004:000000f0       __imp__GetCurrentThread@0  1006d0f0     kernel32:KERNEL32.dll
 0004:000000f4       __imp__GetModuleFileNameA@12 1006d0f4     kernel32:KERNEL32.dll
 0004:000000f8       __imp__QueryPerformanceCounter@4 1006d0f8     kernel32:KERNEL32.dll
 0004:000000fc       __imp__GetCurrentProcessId@0 1006d0fc     kernel32:KERNEL32.dll
 0004:00000100       __imp__GetSystemTimeAsFileTime@4 1006d100     kernel32:KERNEL32.dll
 0004:00000104       __imp__GetEnvironmentStringsW@0 1006d104     kernel32:KERNEL32.dll
 0004:00000108       __imp__FreeEnvironmentStringsW@4 1006d108     kernel32:KERNEL32.dll
 0004:0000010c       __imp__HeapSize@12         1006d10c     kernel32:KERNEL32.dll
 0004:00000110       __imp__GetDateFormatW@24   1006d110     kernel32:KERNEL32.dll
 0004:00000114       __imp__GetTimeFormatW@24   1006d114     kernel32:KERNEL32.dll
 0004:00000118       __imp__CompareStringW@24   1006d118     kernel32:KERNEL32.dll
 0004:0000011c       __imp__LCMapStringW@24     1006d11c     kernel32:KERNEL32.dll
 0004:00000120       __imp__GetLocaleInfoW@16   1006d120     kernel32:KERNEL32.dll
 0004:00000124       __imp__IsValidLocale@8     1006d124     kernel32:KERNEL32.dll
 0004:00000128       __imp__GetUserDefaultLCID@0 1006d128     kernel32:KERNEL32.dll
 0004:0000012c       __imp__EnumSystemLocalesW@8 1006d12c     kernel32:KERNEL32.dll
 0004:00000130       __imp__GetStringTypeW@16   1006d130     kernel32:KERNEL32.dll
 0004:00000134       __imp__FlushFileBuffers@4  1006d134     kernel32:KERNEL32.dll
 0004:00000138       __imp__SetStdHandle@8      1006d138     kernel32:KERNEL32.dll
 0004:0000013c       __imp__CreateFileW@28      1006d13c     kernel32:KERNEL32.dll
 0004:00000140       __imp__SetEndOfFile@4      1006d140     kernel32:KERNEL32.dll
 0004:00000144       \177KERNEL32_NULL_THUNK_DATA 1006d144     kernel32:KERNEL32.dll
 0004:000001b0       __IMPORT_DESCRIPTOR_KERNEL32 1006d1b0     kernel32:KERNEL32.dll
 0004:000001c4       __NULL_IMPORT_DESCRIPTOR   1006d1c4     kernel32:KERNEL32.dll

 entry point at        0001:00016f2a

