 CenterLimit_xpc

 Timestamp is 584a593d (Fri Dec 09 02:11:57 2016)

 Preferred load address is 10000000

 Start         Length     Name                   Class
 0001:00000000 0003cd67H .text$mn                CODE
 0002:00000000 00000104H .CRT$XCA                DATA
 0002:00000104 00000104H .CRT$XCZ                DATA
 0002:00000208 00000104H .CRT$XIA                DATA
 0002:0000030c 00000113H .CRT$XIC                DATA
 0002:00000420 00000104H .CRT$XIZ                DATA
 0002:00000524 00000104H .CRT$XPA                DATA
 0002:00000628 00000109H .CRT$XPX                DATA
 0002:00000734 00000104H .CRT$XPXA               DATA
 0002:00000838 00000104H .CRT$XPZ                DATA
 0002:0000093c 00000104H .CRT$XTA                DATA
 0002:00000a40 00000104H .CRT$XTZ                DATA
 0002:00000b50 0000a489H .rdata                  DATA
 0002:0000afdc 000001b1H .rdata$debug            DATA
 0002:0000b190 0000010eH .rdata$sxdata           DATA
 0002:0000b2a0 00000104H .rtc$IAA                DATA
 0002:0000b3a4 00000104H .rtc$IZZ                DATA
 0002:0000b4a8 00000104H .rtc$TAA                DATA
 0002:0000b5ac 00000104H .rtc$TZZ                DATA
 0002:0000b6b0 00000991H .xdata$x                DATA
 0002:0000c050 00000218H .edata                  DATA
 0003:00000000 0000214dH .data                   DATA
 0003:00002160 00016184H .bss                    DATA
 0004:00000000 000001b0H .idata$5                DATA
 0004:000001b0 00000014H .idata$2                DATA
 0004:000001c4 00000014H .idata$3                DATA
 0004:000001d8 000001b0H .idata$4                DATA
 0004:00000388 0000076bH .idata$6                DATA

  Address         Publics by Value              Rva+Base       Lib:Object

 0000:00000000       ___guard_fids_count        00000000     <absolute>
 0000:00000000       ___guard_fids_table        00000000     <absolute>
 0000:00000000       __except_list              00000000     <absolute>
 0000:00000000       ___guard_flags             00000000     <absolute>
 0000:00000003       ___safe_se_handler_count   00000003     <absolute>
 0000:00000000       ___ImageBase               10000000     <linker-defined>
 0001:00000330       _CenterLimit               10001330 f   CenterLimit.obj
 0001:00001eb0       _MdlInitialize             10002eb0 f   CenterLimit.obj
 0001:00001ec0       _MdlInitializeSampleTimes  10002ec0 f   CenterLimit.obj
 0001:00001ed0       _MdlInitializeSizes        10002ed0 f   CenterLimit.obj
 0001:00001ee0       _MdlOutputs                10002ee0 f   CenterLimit.obj
 0001:00001ef0       _MdlStart                  10002ef0 f   CenterLimit.obj
 0001:00001f00       _MdlTerminate              10002f00 f   CenterLimit.obj
 0001:00001f10       _MdlUpdate                 10002f10 f   CenterLimit.obj
 0001:00001fa0       _CenterLimit_GetCAPIStaticMap 10002fa0 f   CenterLimit_capi.obj
 0001:00001fb0       _CenterLimit_InitializeDataMapInfo 10002fb0 f   CenterLimit_capi.obj
 0001:00002040       _TgtConnBackgroundTask     10003040 f   CenterLimit_tgtconn.obj
 0001:00002050       _TgtConnInit               10003050 f   CenterLimit_tgtconn.obj
 0001:00002070       _TgtConnPostStep           10003070 f   CenterLimit_tgtconn.obj
 0001:00002080       _TgtConnPreStep            10003080 f   CenterLimit_tgtconn.obj
 0001:00002090       _TgtConnTerm               10003090 f   CenterLimit_tgtconn.obj
 0001:000020a0       _rtGetInf                  100030a0 f   rtGetInf.obj
 0001:000020d0       _rtGetInfF                 100030d0 f   rtGetInf.obj
 0001:000020f0       _rtGetMinusInf             100030f0 f   rtGetInf.obj
 0001:00002120       _rtGetMinusInfF            10003120 f   rtGetInf.obj
 0001:00002140       _rtGetNaN                  10003140 f   rtGetNaN.obj
 0001:00002170       _rtGetNaNF                 10003170 f   rtGetNaN.obj
 0001:00002aa0       _rt_CreateLogVar           10003aa0 f   rt_logging.obj
 0001:00002b30       _rt_CreateLogVarWithConvert 10003b30 f   rt_logging.obj
 0001:000034b0       _rt_CreateStructLogVar     100044b0 f   rt_logging.obj
 0001:00004220       _rt_GetMxIdFromDTypeId     10005220 f   rt_logging.obj
 0001:00004250       _rt_GetMxIdFromDTypeIdForRSim 10005250 f   rt_logging.obj
 0001:00006b90       _rt_StartDataLogging       10007b90 f   rt_logging.obj
 0001:00007050       _rt_StartDataLoggingWithStartTime 10008050 f   rt_logging.obj
 0001:000079b0       _rt_StopDataLogging        100089b0 f   rt_logging.obj
 0001:000079d0       _rt_StopDataLoggingImpl    100089d0 f   rt_logging.obj
 0001:00007cf0       _rt_UpdateLogVar           10008cf0 f   rt_logging.obj
 0001:000090b0       _rt_UpdateStructLogVar     1000a0b0 f   rt_logging.obj
 0001:00009140       _rt_UpdateTXXFYLogVars     1000a140 f   rt_logging.obj
 0001:00009480       _rt_UpdateTXYLogVars       1000a480 f   rt_logging.obj
 0001:000096d0       _rt_CleanUpForStateLogWithMMI 1000a6d0 f   rt_logging_mmi.obj
 0001:000097e0       _rt_FillStateSigInfoFromMMI 1000a7e0 f   rt_logging_mmi.obj
 0001:00009b90       _rt_mxCreateCharMatrixFromStrings 1000ab90 f   rt_matrx.obj
 0001:00009ce0       _rt_mxCreateDoubleMatrix   1000ace0 f   rt_matrx.obj
 0001:00009d40       _rt_mxCreateNumericArray   1000ad40 f   rt_matrx.obj
 0001:00009dc0       _rt_mxCreateString         1000adc0 f   rt_matrx.obj
 0001:00009e50       _rt_mxDuplicateArray       1000ae50 f   rt_matrx.obj
 0001:00009eb0       _rt_mxGetDimensions        1000aeb0 f   rt_matrx.obj
 0001:00009ef0       _rt_mxGetEps               1000aef0 f   rt_matrx.obj
 0001:00009f00       _rt_mxGetString            1000af00 f   rt_matrx.obj
 0001:00009f80       _rtIsInf                   1000af80 f   rt_nonfinite.obj
 0001:00009fc0       _rtIsInfF                  1000afc0 f   rt_nonfinite.obj
 0001:0000a000       _rtIsNaN                   1000b000 f   rt_nonfinite.obj
 0001:0000a020       _rtIsNaNF                  1000b020 f   rt_nonfinite.obj
 0001:0000a040       _rt_InitInfAndNaN          1000b040 f   rt_nonfinite.obj
 0001:0000a0a0       _rtPrintfNoOp              1000b0a0 f   rt_printf.obj
 0001:0000a0b0       _rtwCAPI_CountSysRan       1000b0b0 f   rtw_modelmap_utils.obj
 0001:0000a150       _rtwCAPI_EncodePath        1000b150 f   rtw_modelmap_utils.obj
 0001:0000a240       _rtwCAPI_FillSysRan        1000b240 f   rtw_modelmap_utils.obj
 0001:0000a330       _rtwCAPI_FreeFullPaths     1000b330 f   rtw_modelmap_utils.obj
 0001:0000a3c0       _rtwCAPI_GetFullStateBlockPath 1000b3c0 f   rtw_modelmap_utils.obj
 0001:0000a570       _rtwCAPI_GetNumContStateRecords 1000b570 f   rtw_modelmap_utils.obj
 0001:0000a630       _rtwCAPI_GetNumSigLogRecords 1000b630 f   rtw_modelmap_utils.obj
 0001:0000a680       _rtwCAPI_GetNumSigLogRecordsForRTWLogging 1000b680 f   rtw_modelmap_utils.obj
 0001:0000a710       _rtwCAPI_GetNumStateRecords 1000b710 f   rtw_modelmap_utils.obj
 0001:0000a760       _rtwCAPI_GetNumStateRecordsForRTWLogging 1000b760 f   rtw_modelmap_utils.obj
 0001:0000a7f0       _rtwCAPI_GetSigAddrFromMap 1000b7f0 f   rtw_modelmap_utils.obj
 0001:0000a8b0       _rtwCAPI_GetSigLogRecordInfo 1000b8b0 f   rtw_modelmap_utils.obj
 0001:0000ace0       _rtwCAPI_GetStateRecordInfo 1000bce0 f   rtw_modelmap_utils.obj
 0001:0000b190       _rtwCAPI_GetStateWidth     1000c190 f   rtw_modelmap_utils.obj
 0001:0000b1f0       _rtwCAPI_HasStates         1000c1f0 f   rtw_modelmap_utils.obj
 0001:0000b260       _rtwCAPI_UpdateFullPaths   1000c260 f   rtw_modelmap_utils.obj
 0001:0000b440       _CenterLimit_ChangeStepSize 1000c440 f   xpctarget.obj
 0001:0000b490       _DllMain@12                1000c490 f   xpctarget.obj
 0001:0000b4a0       _SLRTSetErrorStatus        1000c4a0 f   xpctarget.obj
 0001:0000b4c0       _changeStepSize            1000c4c0 f   xpctarget.obj
 0001:0000b510       _getDLMVersion             1000c510 f   xpctarget.obj
 0001:0000b520       _getRefMdlPath             1000c520 f   xpctarget.obj
 0001:0000b5a0       _getRefMdlSignalNumber     1000c5a0 f   xpctarget.obj
 0001:0000b650       _getrlmdlinfo              1000c650 f   xpctarget.obj
 0001:0000b830       _updateDiscreteEvents      1000c830 f   xpctarget.obj
 0001:0000b840       _getNumRef                 1000c840 f   appmappingData.obj
 0001:0000bc80       _xpcudpbytereceive         1000cc80 f   xpcudpbytereceive.obj
 0001:0000c0c0       _dacbpcidda0x12            1000d0c0 f   dacbpcidda0x12.obj
 0001:0000cc60       _dipci8255                 1000dc60 f   dipci8255.obj
 0001:0000d800       _dopci8255                 1000e800 f   dopci8255.obj
 0001:0000e710       _GetPCIDeviceFull          1000f710 f   xpcruntime:xpcimports.obj
 0001:0000e740       _ShowPCIDevice             1000f740 f   xpcruntime:xpcimports.obj
 0001:0000edb0       _xpcGetPciConfigAtSlot     1000fdb0 f   xpcruntime:xpcimports.obj
 0001:0000f030       _xpcInitProcs              10010030 f   xpcruntime:xpcimports.obj
 0001:0000fb90       _xpceuploadevent           10010b90 f   xpcruntime:xpcimports.obj
 0001:0000fb91       __heap_alloc               10010b91 f i LIBCMT:malloc.obj
 0001:0000fbce       _malloc                    10010bce f   LIBCMT:malloc.obj
 0001:0000fc60       __get_printf_count_output  10010c60 f   LIBCMT:printf.obj
 0001:0000fc75       __printf_l                 10010c75 f   LIBCMT:printf.obj
 0001:0000fc8c       __printf_p                 10010c8c f   LIBCMT:printf.obj
 0001:0000fca2       __printf_p_l               10010ca2 f   LIBCMT:printf.obj
 0001:0000fcb9       __printf_s_l               10010cb9 f   LIBCMT:printf.obj
 0001:0000fcd0       __set_printf_count_output  10010cd0 f   LIBCMT:printf.obj
 0001:0000fcf8       _printf                    10010cf8 f   LIBCMT:printf.obj
 0001:0000fda7       _printf_s                  10010da7 f   LIBCMT:printf.obj
 0001:0000fdc0       _memset                    10010dc0 f   LIBCMT:memset.obj
 0001:0000fe50       __fpmath                   10010e50 f   LIBCMT:fpinit.obj
 0001:0000fe67       ___setfflag                10010e67 f   LIBCMT:fpinit.obj
 0001:0000fe7a       __cfltcvt_init             10010e7a f   LIBCMT:fpinit.obj
 0001:0000feda       ___raise_securityfailure   10010eda f   LIBCMT:gs_report.obj
 0001:0000ff17       ___report_gsfailure        10010f17 f   LIBCMT:gs_report.obj
 0001:00010012       ___report_rangecheckfailure 10011012 f   LIBCMT:gs_report.obj
 0001:0001001e       ___report_securityfailure  1001101e f   LIBCMT:gs_report.obj
 0001:000100ee       ___report_securityfailureEx 100110ee f   LIBCMT:gs_report.obj
 0001:00010204       ___copy_path_to_wide_string 10011204 f   LIBCMT:crt0dat.obj
 0001:000102b6       ___copy_to_char            100112b6 f   LIBCMT:crt0dat.obj
 0001:0001036b       ___crtCorExitProcess       1001136b f   LIBCMT:crt0dat.obj
 0001:0001039f       ___crtExitProcess          1001139f f   LIBCMT:crt0dat.obj
 0001:000103b5       ___freeCrtMemory           100113b5 f   LIBCMT:crt0dat.obj
 0001:000104c2       __amsg_exit                100114c2 f   LIBCMT:crt0dat.obj
 0001:000104de       __c_exit                   100114de f   LIBCMT:crt0dat.obj
 0001:000104ed       __cexit                    100114ed f   LIBCMT:crt0dat.obj
 0001:000104fc       __cinit                    100114fc f   LIBCMT:crt0dat.obj
 0001:00010580       __exit                     10011580 f   LIBCMT:crt0dat.obj
 0001:00010594       __exit_app                 10011594 f   LIBCMT:crt0dat.obj
 0001:000105a2       __get_pgmptr               100115a2 f   LIBCMT:crt0dat.obj
 0001:000105d1       __get_wpgmptr              100115d1 f   LIBCMT:crt0dat.obj
 0001:00010600       __init_pointers            10011600 f   LIBCMT:crt0dat.obj
 0001:0001066e       __initterm_e               1001166e f   LIBCMT:crt0dat.obj
 0001:00010690       __lockexit                 10011690 f   LIBCMT:crt0dat.obj
 0001:00010699       __unlockexit               10011699 f   LIBCMT:crt0dat.obj
 0001:000107d1       _exit                      100117d1 f   LIBCMT:crt0dat.obj
 0001:000107e5       _calloc                    100117e5 f   LIBCMT:calloc.obj
 0001:00010825       _free                      10011825 f   LIBCMT:free.obj
 0001:0001085d       _realloc                   1001185d f   LIBCMT:realloc.obj
 0001:00010910       _memmove                   10011910 f   LIBCMT:memmove.obj
 0001:00010f60       _strchr                    10011f60 f   LIBCMT:strchr.obj
 0001:00010fce       ___from_strstr_to_strchr   10011fce     LIBCMT:strchr.obj
 0001:00011090       _strncat                   10012090 f   LIBCMT:strncat.obj
 0001:000111d0       _strncpy                   100121d0 f   LIBCMT:strncpy.obj
 0001:000112f4       ___initstdio               100122f4 f   LIBCMT:_file.obj
 0001:00011367       ___endstdio                10012367 f   LIBCMT:_file.obj
 0001:0001138e       ___iob_func                1001238e f   LIBCMT:_file.obj
 0001:00011394       __lock_file                10012394 f   LIBCMT:_file.obj
 0001:000113d3       __lock_file2               100123d3 f   LIBCMT:_file.obj
 0001:00011403       __unlock_file              10012403 f   LIBCMT:_file.obj
 0001:0001143d       __unlock_file2             1001243d f   LIBCMT:_file.obj
 0001:0001146a       __fclose_nolock            1001246a f   LIBCMT:fclose.obj
 0001:000114d6       _fclose                    100124d6 f   LIBCMT:fclose.obj
 0001:0001154d       __fsopen                   1001254d f   LIBCMT:fopen.obj
 0001:00011611       _fopen                     10012611 f   LIBCMT:fopen.obj
 0001:00011626       _fopen_s                   10012626 f   LIBCMT:fopen.obj
 0001:0001166b       __fprintf_l                1001266b f   LIBCMT:fprintf.obj
 0001:00011685       __fprintf_p                10012685 f   LIBCMT:fprintf.obj
 0001:0001169e       __fprintf_p_l              1001269e f   LIBCMT:fprintf.obj
 0001:000116b8       __fprintf_s_l              100126b8 f   LIBCMT:fprintf.obj
 0001:000116d2       _fprintf                   100126d2 f   LIBCMT:fprintf.obj
 0001:000117e4       _fprintf_s                 100127e4 f   LIBCMT:fprintf.obj
 0001:000117fd       __fread_nolock             100127fd f   LIBCMT:fread.obj
 0001:00011818       __fread_nolock_s           10012818 f   LIBCMT:fread.obj
 0001:000119dd       _fread                     100129dd f   LIBCMT:fread.obj
 0001:000119f8       _fread_s                   100129f8 f   LIBCMT:fread.obj
 0001:00011a89       __fwrite_nolock            10012a89 f   LIBCMT:fwrite.obj
 0001:00011be2       _fwrite                    10012be2 f   LIBCMT:fwrite.obj
 0001:00011c64       __unlink                   10012c64 f   LIBCMT:unlink.obj
 0001:00011c6d       _remove                    10012c6d f   LIBCMT:unlink.obj
 0001:00011caf       _rewind                    10012caf f   LIBCMT:rewind.obj
 0001:00011d6e       __scprintf                 10012d6e f   LIBCMT:sprintf.obj
 0001:00011d81       __scprintf_l               10012d81 f   LIBCMT:sprintf.obj
 0001:00011d98       __scprintf_p               10012d98 f   LIBCMT:sprintf.obj
 0001:00011dab       __scprintf_p_l             10012dab f   LIBCMT:sprintf.obj
 0001:00011dc2       __snprintf_s               10012dc2 f   LIBCMT:sprintf.obj
 0001:00011de1       __snprintf_s_l             10012de1 f   LIBCMT:sprintf.obj
 0001:00011e01       __sprintf_l                10012e01 f   LIBCMT:sprintf.obj
 0001:00011e1b       __sprintf_p                10012e1b f   LIBCMT:sprintf.obj
 0001:00011e37       __sprintf_p_l              10012e37 f   LIBCMT:sprintf.obj
 0001:00011e54       __sprintf_s_l              10012e54 f   LIBCMT:sprintf.obj
 0001:00011e71       _sprintf                   10012e71 f   LIBCMT:sprintf.obj
 0001:00011ef5       _sprintf_s                 10012ef5 f   LIBCMT:sprintf.obj
 0001:00011f11       _ldexp                     10012f11 f   LIBCMT:ldexp.obj
 0001:000120fd       @__security_check_cookie@4 100130fd f   LIBCMT:secchk.obj
 0001:00012110       __ftoui3                   10013110 f   LIBCMT:ftol3.obj
 0001:0001211f       __ftoul3                   1001311f f   LIBCMT:ftol3.obj
 0001:0001212e       __ftol3                    1001312e f   LIBCMT:ftol3.obj
 0001:0001213b       __ftol3_NaN                1001313b f   LIBCMT:ftol3.obj
 0001:00012153       __ftol3_work               10013153 f   LIBCMT:ftol3.obj
 0001:000121d9       __ftol3_common             100131d9 f   LIBCMT:ftol3.obj
 0001:0001229b       __ftol3_arg_error          1001329b f   LIBCMT:ftol3.obj
 0001:000122ad       __ftol3_except             100132ad f   LIBCMT:ftol3.obj
 0001:000122ef       __dtoui3                   100132ef f   LIBCMT:ftol3.obj
 0001:000122fe       __dtoul3                   100132fe f   LIBCMT:ftol3.obj
 0001:0001230d       __dtol3                    1001330d f   LIBCMT:ftol3.obj
 0001:0001231a       __dtol3_NaN                1001331a f   LIBCMT:ftol3.obj
 0001:00012337       __dtol3_work               10013337 f   LIBCMT:ftol3.obj
 0001:0001241c       __ultod3                   1001341c f   LIBCMT:ftol3.obj
 0001:000124ad       __ltod3                    100134ad f   LIBCMT:ftol3.obj
 0001:000124e0       _memcpy                    100134e0 f   LIBCMT:memcpy.obj
 0001:00012b24       ___isa_available_init      10013b24 f   LIBCMT:cpu_disp.obj
 0001:00012c9d       __invoke_watson_if_error   10013c9d f i LIBCMT:wassert.obj
 0001:00012cbd       __wassert                  10013cbd f   LIBCMT:wassert.obj
 0001:00013361       __CRT_INIT@12              10014361 f   LIBCMT:dllcrt0.obj
 0001:000134d3       __DllMainCRTStartup@12     100144d3 f   LIBCMT:dllcrt0.obj
 0001:00013604       ___DllXcptFilter           10014604 f   LIBCMT:dllcrt0.obj
 0001:00013629       ?_query_new_handler@@YAP6AHI@ZXZ 10014629 f   LIBCMT:handler.obj
 0001:00013636       ?_set_new_handler@@YAP6AHI@ZH@Z 10014636 f   LIBCMT:handler.obj
 0001:0001363f       ?_set_new_handler@@YAP6AHI@ZP6AHI@Z@Z 1001463f f   LIBCMT:handler.obj
 0001:00013674       __callnewh                 10014674 f   LIBCMT:handler.obj
 0001:0001369a       __initp_heap_handler       1001469a f   LIBCMT:handler.obj
 0001:000136a7       __FF_MSGBANNER             100146a7 f   LIBCMT:crt0msg.obj
 0001:000136e0       __GET_RTERRMSG             100146e0 f   LIBCMT:crt0msg.obj
 0001:00013704       __NMSG_WRITE               10014704 f   LIBCMT:crt0msg.obj
 0001:000138c1       ___doserrno                100148c1 f   LIBCMT:dosmap.obj
 0001:000138d4       __dosmaperr                100148d4 f   LIBCMT:dosmap.obj
 0001:000138f5       __errno                    100148f5 f   LIBCMT:dosmap.obj
 0001:00013908       __get_doserrno             10014908 f   LIBCMT:dosmap.obj
 0001:0001392b       __get_errno                1001492b f   LIBCMT:dosmap.obj
 0001:0001394e       __get_errno_from_oserr     1001494e f   LIBCMT:dosmap.obj
 0001:0001398f       __set_doserrno             1001498f f   LIBCMT:dosmap.obj
 0001:000139ae       __set_errno                100149ae f   LIBCMT:dosmap.obj
 0001:000139cd       __get_heap_handle          100149cd f   LIBCMT:heapinit.obj
 0001:000139d3       __heap_init                100149d3 f   LIBCMT:heapinit.obj
 0001:000139e8       __heap_term                100149e8 f   LIBCMT:heapinit.obj
 0001:000139f0       ?_invalid_parameter@@YAXPBG00II@Z 100149f0 f   LIBCMT:invarg.obj
 0001:000139f5       ?_invoke_watson@@YAXPBG00II@Z 100149f5 f   LIBCMT:invarg.obj
 0001:00013a0d       __call_reportfault         10014a0d f   LIBCMT:invarg.obj
 0001:00013b32       __get_invalid_parameter_handler 10014b32 f   LIBCMT:invarg.obj
 0001:00013b3f       __initp_misc_invarg        10014b3f f   LIBCMT:invarg.obj
 0001:00013b4c       __invalid_parameter        10014b4c f   LIBCMT:invarg.obj
 0001:00013b77       __invalid_parameter_noinfo 10014b77 f   LIBCMT:invarg.obj
 0001:00013b87       __invalid_parameter_noinfo_noreturn 10014b87 f   LIBCMT:invarg.obj
 0001:00013ba2       __invoke_watson            10014ba2 f   LIBCMT:invarg.obj
 0001:00013bcd       __set_invalid_parameter_handler 10014bcd f   LIBCMT:invarg.obj
 0001:00013bf2       __vprintf_l                10014bf2 f   LIBCMT:vprintf.obj
 0001:00013c0d       __vprintf_p                10014c0d f   LIBCMT:vprintf.obj
 0001:00013c27       __vprintf_p_l              10014c27 f   LIBCMT:vprintf.obj
 0001:00013c42       __vprintf_s_l              10014c42 f   LIBCMT:vprintf.obj
 0001:00013c5d       _vprintf                   10014c5d f   LIBCMT:vprintf.obj
 0001:00013c77       _vprintf_helper            10014c77 f   LIBCMT:vprintf.obj
 0001:00013d04       _vprintf_s                 10014d04 f   LIBCMT:vprintf.obj
 0001:00013d1e       __ftbuf                    10014d1e f   LIBCMT:_sftbuf.obj
 0001:00013d4f       __stbuf                    10014d4f f   LIBCMT:_sftbuf.obj
 0001:00013df5       ??0_LocaleUpdate@@QAE@PAUlocaleinfo_struct@@@Z 10014df5 f i LIBCMT:output.obj
 0001:00013e7d       ??1_LocaleUpdate@@QAE@XZ   10014e7d f i LIBCMT:output.obj
 0001:00013e8b       ?GetLocaleT@_LocaleUpdate@@QAEPAUlocaleinfo_struct@@XZ 10014e8b f i LIBCMT:output.obj
 0001:00013e8e       __output_l                 10014e8e f   LIBCMT:output.obj
 0001:00014a0e       _get_int64_arg             10015a0e f i LIBCMT:output.obj
 0001:00014a21       _get_int_arg               10015a21 f i LIBCMT:output.obj
 0001:00014a31       _get_short_arg             10015a31 f i LIBCMT:output.obj
 0001:00014b30       __SEH_prolog4              10015b30 f   LIBCMT:sehprolg4.obj
 0001:00014b75       __SEH_epilog4              10015b75 f   LIBCMT:sehprolg4.obj
 0001:00014bd0       __except_handler4          10015bd0 f   LIBCMT:chandler4.obj
 0001:00014d64       __VEC_memset               10015d64 f   LIBCMT:p4_memset.obj
 0001:00014e2c       ?strrchr@@YAPADPADH@Z      10015e2c f i LIBCMT:cvt.obj
 0001:00014e35       __cfltcvt                  10015e35 f   LIBCMT:cvt.obj
 0001:00014e56       __cfltcvt_l                10015e56 f   LIBCMT:cvt.obj
 0001:00014edc       __cftoa                    10015edc f   LIBCMT:cvt.obj
 0001:00014efa       __cftoa_l                  10015efa f   LIBCMT:cvt.obj
 0001:00015256       __cftoe                    10016256 f   LIBCMT:cvt.obj
 0001:000153c5       __cftoe_l                  100163c5 f   LIBCMT:cvt.obj
 0001:00015493       __cftof                    10016493 f   LIBCMT:cvt.obj
 0001:0001559a       __cftof_l                  1001659a f   LIBCMT:cvt.obj
 0001:0001565b       __cftog                    1001665b f   LIBCMT:cvt.obj
 0001:00015679       __cftog_l                  10016679 f   LIBCMT:cvt.obj
 0001:00015778       __cropzeros                10016778 f   LIBCMT:cvt.obj
 0001:00015789       __cropzeros_l              10016789 f   LIBCMT:cvt.obj
 0001:00015809       __fassign                  10016809 f   LIBCMT:cvt.obj
 0001:00015821       __fassign_l                10016821 f   LIBCMT:cvt.obj
 0001:00015863       __forcdecpt                10016863 f   LIBCMT:cvt.obj
 0001:00015874       __forcdecpt_l              10016874 f   LIBCMT:cvt.obj
 0001:000158e8       __positive                 100168e8 f   LIBCMT:cvt.obj
 0001:0001592a       __setdefaultprecision      1001692a f   LIBCMT:fp8.obj
 0001:00015951       __initp_misc_cfltcvt_tab   10016951 f   LIBCMT:cmiscdat.obj
 0001:00015970       __crt_debugger_hook        10016970 f   LIBCMT:dbghook.obj
 0001:000159a5       ___crtCloseThreadpoolTimer 100169a5 f   LIBCMT:winapisupp.obj
 0001:000159bc       ___crtCloseThreadpoolWait  100169bc f   LIBCMT:winapisupp.obj
 0001:000159d3       ___crtCreateEventExW       100169d3 f   LIBCMT:winapisupp.obj
 0001:00015a0e       ___crtCreateSemaphoreExW   10016a0e f   LIBCMT:winapisupp.obj
 0001:00015a48       ___crtCreateSymbolicLinkW  10016a48 f   LIBCMT:winapisupp.obj
 0001:00015a71       ___crtCreateThreadpoolTimer 10016a71 f   LIBCMT:winapisupp.obj
 0001:00015a92       ___crtCreateThreadpoolWait 10016a92 f   LIBCMT:winapisupp.obj
 0001:00015ab3       ___crtFlsAlloc             10016ab3 f   LIBCMT:winapisupp.obj
 0001:00015ad1       ___crtFlsFree              10016ad1 f   LIBCMT:winapisupp.obj
 0001:00015af0       ___crtFlsGetValue          10016af0 f   LIBCMT:winapisupp.obj
 0001:00015b0f       ___crtFlsSetValue          10016b0f f   LIBCMT:winapisupp.obj
 0001:00015b31       ___crtFlushProcessWriteBuffers 10016b31 f   LIBCMT:winapisupp.obj
 0001:00015b41       ___crtFreeLibraryWhenCallbackReturns 10016b41 f   LIBCMT:winapisupp.obj
 0001:00015b5b       ___crtGetCurrentProcessorNumber 10016b5b f   LIBCMT:winapisupp.obj
 0001:00015b6d       ___crtGetFileInformationByHandleEx 10016b6d f   LIBCMT:winapisupp.obj
 0001:00015b99       ___crtGetLogicalProcessorInformation 10016b99 f   LIBCMT:winapisupp.obj
 0001:00015bbf       ___crtGetShowWindowMode    10016bbf f   LIBCMT:winapisupp.obj
 0001:00015be2       ___crtGetTickCount64       10016be2 f   LIBCMT:winapisupp.obj
 0001:00015bfa       ___crtInitializeCriticalSectionEx 10016bfa f   LIBCMT:winapisupp.obj
 0001:00015c28       ___crtIsPackagedApp        10016c28 f   LIBCMT:winapisupp.obj
 0001:00015c68       ___crtLoadWinApiPointers   10016c68 f   LIBCMT:winapisupp.obj
 0001:00015ef3       ___crtSetFileInformationByHandle 10016ef3 f   LIBCMT:winapisupp.obj
 0001:00015f1f       ___crtSetThreadStackGuarantee 10016f1f f   LIBCMT:winapisupp.obj
 0001:00015f3a       ___crtSetThreadpoolTimer   10016f3a f   LIBCMT:winapisupp.obj
 0001:00015f5a       ___crtSetThreadpoolWait    10016f5a f   LIBCMT:winapisupp.obj
 0001:00015f77       ___crtSetUnhandledExceptionFilter 10016f77 f   LIBCMT:winapisupp.obj
 0001:00015f85       ___crtSleep                10016f85 f   LIBCMT:winapisupp.obj
 0001:00015f93       ___crtTerminateProcess     10016f93 f   LIBCMT:winapisupp.obj
 0001:00015fa8       ___crtUnhandledException   10016fa8 f   LIBCMT:winapisupp.obj
 0001:00015fbe       ___crtWaitForThreadpoolTimerCallbacks 10016fbe f   LIBCMT:winapisupp.obj
 0001:00015fd8       __RTC_Initialize           10016fd8 f   LIBCMT:initsect.obj
 0001:00015ff8       __RTC_Terminate            10016ff8 f   LIBCMT:initsect.obj
 0001:00016018       __lock                     10017018 f   LIBCMT:mlock.obj
 0001:0001604c       __lockerr_exit             1001704c f   LIBCMT:mlock.obj
 0001:0001606c       __mtdeletelocks            1001706c f   LIBCMT:mlock.obj
 0001:000160c0       __mtinitlocknum            100170c0 f   LIBCMT:mlock.obj
 0001:00016169       __mtinitlocks              10017169 f   LIBCMT:mlock.obj
 0001:000161a2       __unlock                   100171a2 f   LIBCMT:mlock.obj
 0001:000161c0       __FindPESection            100171c0 f   LIBCMT:pesect.obj
 0001:00016210       __IsNonwritableInCurrentImage 10017210 f   LIBCMT:pesect.obj
 0001:000162d0       __ValidateImageBase        100172d0 f   LIBCMT:pesect.obj
 0001:00016301       ___onexitinit              10017301 f   LIBCMT:onexit.obj
 0001:00016330       __onexit                   10017330 f   LIBCMT:onexit.obj
 0001:0001642c       _atexit                    1001742c f   LIBCMT:onexit.obj
 0001:00016441       __calloc_crt               10017441 f   LIBCMT:crtheap.obj
 0001:00016489       __malloc_crt               10017489 f   LIBCMT:crtheap.obj
 0001:000164d0       __realloc_crt              100174d0 f   LIBCMT:crtheap.obj
 0001:0001651a       __recalloc_crt             1001751a f   LIBCMT:crtheap.obj
 0001:00016568       __set_malloc_crt_max_wait  10017568 f   LIBCMT:crtheap.obj
 0001:0001657b       _wait_a_bit                1001757b f i LIBCMT:crtheap.obj
 0001:0001659f       ?_inconsistency@@YAXXZ     1001759f f   LIBCMT:hooks.obj
 0001:000165d7       ?terminate@@YAXXZ          100175d7 f   LIBCMT:hooks.obj
 0001:0001660b       ?unexpected@@YAXXZ         1001760b f   LIBCMT:hooks.obj
 0001:0001661e       __initp_eh_hooks           1001761e f   LIBCMT:hooks.obj
 0001:0001662f       ___getlocaleinfo           1001762f f   LIBCMT:inithelp.obj
 0001:00016808       __initp_misc_purevirt      10017808 f   LIBCMT:inithelp.obj
 0001:00016815       ___fpecode                 10017815 f   LIBCMT:winsig.obj
 0001:0001681e       ___get_sigabrt             1001781e f   LIBCMT:winsig.obj
 0001:0001682b       ___pxcptinfoptrs           1001782b f   LIBCMT:winsig.obj
 0001:00016834       __initp_misc_winsig        10017834 f   LIBCMT:winsig.obj
 0001:000168f5       _raise                     100178f5 f   LIBCMT:winsig.obj
 0001:00016aea       _signal                    10017aea f   LIBCMT:winsig.obj
 0001:00016d41       __initp_misc_rand_s        10017d41 f   LIBCMT:rand_s.obj
 0001:00016d4e       _rand_s                    10017d4e f   LIBCMT:rand_s.obj
 0001:00016e54       ___initmbctable            10017e54 f   LIBCMT:mbctype.obj
 0001:0001710b       ___updatetmbcinfo          1001810b f   LIBCMT:mbctype.obj
 0001:000171b1       __getmbcp                  100181b1 f   LIBCMT:mbctype.obj
 0001:000171e2       __setmbcp                  100181e2 f   LIBCMT:mbctype.obj
 0001:0001738a       __setmbcp_nolock           1001838a f   LIBCMT:mbctype.obj
 0001:00017575       __calloc_impl              10018575 f   LIBCMT:calloc_impl.obj
 0001:000175ef       __fcloseall                100185ef f   LIBCMT:closeall.obj
 0001:0001768c       __fflush_nolock            1001868c f   LIBCMT:fflush.obj
 0001:000176d2       __flush                    100186d2 f   LIBCMT:fflush.obj
 0001:00017736       __flushall                 10018736 f   LIBCMT:fflush.obj
 0001:0001773f       _fflush                    1001873f f   LIBCMT:fflush.obj
 0001:0001787c       __fileno                   1001887c f   LIBCMT:fileno.obj
 0001:000178a0       __close                    100188a0 f   LIBCMT:close.obj
 0001:0001797b       __close_nolock             1001897b f   LIBCMT:close.obj
 0001:00017a15       __freebuf                  10018a15 f   LIBCMT:_freebuf.obj
 0001:00017a45       __getstream                10018a45 f   LIBCMT:stream.obj
 0001:00017b64       __openfile                 10018b64 f   LIBCMT:_open.obj
 0001:00017de0       __local_unwind4            10018de0 f   LIBCMT:exsup4.obj
 0001:00017eb6       __seh_longjmp_unwind4@4    10018eb6 f   LIBCMT:exsup4.obj
 0001:00017ed2       @_EH4_CallFilterFunc@8     10018ed2 f   LIBCMT:exsup4.obj
 0001:00017ee9       @_EH4_TransferToHandler@8  10018ee9 f   LIBCMT:exsup4.obj
 0001:00017f02       @_EH4_GlobalUnwind2@8      10018f02 f   LIBCMT:exsup4.obj
 0001:00017f1b       @_EH4_LocalUnwind@16       10018f1b f   LIBCMT:exsup4.obj
 0001:00017f32       __vfprintf_l               10018f32 f   LIBCMT:vfprintf.obj
 0001:00017f50       __vfprintf_p               10018f50 f   LIBCMT:vfprintf.obj
 0001:00017f6d       __vfprintf_p_l             10018f6d f   LIBCMT:vfprintf.obj
 0001:00017f8b       __vfprintf_s_l             10018f8b f   LIBCMT:vfprintf.obj
 0001:00017fa9       _vfprintf                  10018fa9 f   LIBCMT:vfprintf.obj
 0001:00017fc6       _vfprintf_helper           10018fc6 f   LIBCMT:vfprintf.obj
 0001:000180d7       _vfprintf_s                100190d7 f   LIBCMT:vfprintf.obj
 0001:000180f4       __ioinit                   100190f4 f   LIBCMT:ioinit.obj
 0001:000183a8       __ioterm                   100193a8 f   LIBCMT:ioinit.obj
 0001:000183fa       __filbuf                   100193fa f   LIBCMT:_filbuf.obj
 0001:0001851b       _memcpy_s                  1001951b f   LIBCMT:memcpy_s.obj
 0001:0001859a       __read                     1001959a f   LIBCMT:read.obj
 0001:000186ae       __read_nolock              100196ae f   LIBCMT:read.obj
 0001:00018e3f       __flsbuf                   10019e3f f   LIBCMT:_flsbuf.obj
 0001:00018f8e       __write                    10019f8e f   LIBCMT:write.obj
 0001:0001907d       __write_nolock             1001a07d f   LIBCMT:write.obj
 0001:000198e2       __wremove                  1001a8e2 f   LIBCMT:wunlink.obj
 0001:00019910       __wunlink                  1001a910 f   LIBCMT:wunlink.obj
 0001:00019919       __lseek                    1001a919 f   LIBCMT:lseek.obj
 0001:00019a08       __lseek_nolock             1001aa08 f   LIBCMT:lseek.obj
 0001:00019aaf       __vscprintf                1001aaaf f   LIBCMT:vsprintf.obj
 0001:00019ac9       __vscprintf_helper         1001aac9 f   LIBCMT:vsprintf.obj
 0001:00019b25       __vscprintf_l              1001ab25 f   LIBCMT:vsprintf.obj
 0001:00019b40       __vscprintf_p              1001ab40 f   LIBCMT:vsprintf.obj
 0001:00019b5a       __vscprintf_p_l            1001ab5a f   LIBCMT:vsprintf.obj
 0001:00019b75       __vsprintf_l               1001ab75 f   LIBCMT:vsprintf.obj
 0001:00019bf9       _vsprintf                  1001abf9 f   LIBCMT:vsprintf.obj
 0001:00019c11       __vsnprintf_c              1001ac11 f   LIBCMT:vsnprnc.obj
 0001:00019c38       __vsnprintf_c_l            1001ac38 f   LIBCMT:vsnprnc.obj
 0001:00019c60       __vsnprintf_helper         1001ac60 f   LIBCMT:vsnprnc.obj
 0001:00019d2a       __vsnprintf_s              1001ad2a f   LIBCMT:vsnprnc.obj
 0001:00019d48       __vsnprintf_s_l            1001ad48 f   LIBCMT:vsnprnc.obj
 0001:00019e48       __vsprintf_p               1001ae48 f   LIBCMT:vsnprnc.obj
 0001:00019e6f       __vsprintf_p_l             1001ae6f f   LIBCMT:vsnprnc.obj
 0001:00019e97       __vsprintf_s_l             1001ae97 f   LIBCMT:vsnprnc.obj
 0001:00019f0c       _vsprintf_s                1001af0c f   LIBCMT:vsnprnc.obj
 0001:00019f27       __chgsign                  1001af27 f   LIBCMT:ieeemisc.obj
 0001:00019f54       __chgsignf                 1001af54 f   LIBCMT:ieeemisc.obj
 0001:00019f75       __copysign                 1001af75 f   LIBCMT:ieeemisc.obj
 0001:00019f9d       __copysignf                1001af9d f   LIBCMT:ieeemisc.obj
 0001:00019fb9       __finite                   1001afb9 f   LIBCMT:ieeemisc.obj
 0001:00019fd1       __fpclass                  1001afd1 f   LIBCMT:ieeemisc.obj
 0001:0001a06d       __isnan                    1001b06d f   LIBCMT:ieeemisc.obj
 0001:0001a0a0       __logb                     1001b0a0 f   LIBCMT:ieeemisc.obj
 0001:0001a181       __nextafter                1001b181 f   LIBCMT:ieeemisc.obj
 0001:0001a421       __scalb                    1001b421 f   LIBCMT:ieeemisc.obj
 0001:0001a439       __add_exp                  1001b439 f   LIBCMT:util.obj
 0001:0001a468       __decomp                   1001b468 f   LIBCMT:util.obj
 0001:0001a53a       __get_exp                  1001b53a f   LIBCMT:util.obj
 0001:0001a553       __set_bexp                 1001b553 f   LIBCMT:util.obj
 0001:0001a57c       __set_exp                  1001b57c f   LIBCMT:util.obj
 0001:0001a5ab       __sptype                   1001b5ab f   LIBCMT:util.obj
 0001:0001a606       __errcode                  1001b606 f   LIBCMT:fpexcept.obj
 0001:0001a638       __except1                  1001b638 f   LIBCMT:fpexcept.obj
 0001:0001a700       __except2                  1001b700 f   LIBCMT:fpexcept.obj
 0001:0001a800       __handle_exc               1001b800 f   LIBCMT:fpexcept.obj
 0001:0001a9de       __handle_qnan1             1001b9de f   LIBCMT:fpexcept.obj
 0001:0001aa2e       __handle_qnan2             1001ba2e f   LIBCMT:fpexcept.obj
 0001:0001aa8e       __raise_exc                1001ba8e f   LIBCMT:fpexcept.obj
 0001:0001aaaf       __raise_exc_ex             1001baaf f   LIBCMT:fpexcept.obj
 0001:0001ad94       __raise_excf               1001bd94 f   LIBCMT:fpexcept.obj
 0001:0001adb5       __set_errno_from_matherr   1001bdb5 f   LIBCMT:fpexcept.obj
 0001:0001ade2       __umatherr                 1001bde2 f   LIBCMT:fpexcept.obj
 0001:0001ae82       ___clrfp_sse2              1001be82 f   LIBCMT:fpctrl.obj
 0001:0001aea3       ___ctrlfp_sse2             1001bea3 f   LIBCMT:fpctrl.obj
 0001:0001aedc       ___fclrf_sse2              1001bedc f   LIBCMT:fpctrl.obj
 0001:0001aef9       ___get_fpsr_sse2           1001bef9 f   LIBCMT:fpctrl.obj
 0001:0001af15       ___set_fpsr_sse2           1001bf15 f   LIBCMT:fpctrl.obj
 0001:0001af8b       ___set_statfp_sse2         1001bf8b f   LIBCMT:fpctrl.obj
 0001:0001afa4       ___statfp_sse2             1001bfa4 f   LIBCMT:fpctrl.obj
 0001:0001afb9       __clrfp                    1001bfb9 f   LIBCMT:fpctrl.obj
 0001:0001afca       __ctrlfp                   1001bfca f   LIBCMT:fpctrl.obj
 0001:0001aff5       __set_statfp               1001bff5 f   LIBCMT:fpctrl.obj
 0001:0001b04d       __statfp                   1001c04d f   LIBCMT:fpctrl.obj
 0001:0001b05d       _wcscat_s                  1001c05d f   LIBCMT:wcscat_s.obj
 0001:0001b0c9       _wcscpy_s                  1001c0c9 f   LIBCMT:wcscpy_s.obj
 0001:0001b125       _wcslen                    1001c125 f   LIBCMT:wcslen.obj
 0001:0001b13e       _wcsncat_s                 1001c13e f   LIBCMT:wcsncat_s.obj
 0001:0001b20c       __set_abort_behavior       1001c20c f   LIBCMT:abort.obj
 0001:0001b22b       _abort                     1001c22b f   LIBCMT:abort.obj
 0001:0001b26e       ___set_app_type            1001c26e f   LIBCMT:errmode.obj
 0001:0001b27b       __set_error_mode           1001c27b f   LIBCMT:errmode.obj
 0001:0001b3d7       __i64tow_s                 1001c3d7 f   LIBCMT:xtows.obj
 0001:0001b408       __itow_s                   1001c408 f   LIBCMT:xtows.obj
 0001:0001b431       __ltow_s                   1001c431 f   LIBCMT:xtows.obj
 0001:0001b45b       __ui64tow_s                1001c45b f   LIBCMT:xtows.obj
 0001:0001b476       __ultow_s                  1001c476 f   LIBCMT:xtows.obj
 0001:0001b581       _setvbuf                   1001c581 f   LIBCMT:setvbuf.obj
 0001:0001b687       __fwprintf_l               1001c687 f   LIBCMT:fwprintf.obj
 0001:0001b6a1       __fwprintf_p               1001c6a1 f   LIBCMT:fwprintf.obj
 0001:0001b6ba       __fwprintf_p_l             1001c6ba f   LIBCMT:fwprintf.obj
 0001:0001b6d4       __fwprintf_s_l             1001c6d4 f   LIBCMT:fwprintf.obj
 0001:0001b6ee       _fwprintf                  1001c6ee f   LIBCMT:fwprintf.obj
 0001:0001b782       _fwprintf_s                1001c782 f   LIBCMT:fwprintf.obj
 0001:0001b79b       __vsnwprintf_s             1001c79b f   LIBCMT:vswprnc.obj
 0001:0001b7b9       __vsnwprintf_s_l           1001c7b9 f   LIBCMT:vswprnc.obj
 0001:0001b8bd       __vswprintf_c              1001c8bd f   LIBCMT:vswprnc.obj
 0001:0001b8e4       __vswprintf_c_l            1001c8e4 f   LIBCMT:vswprnc.obj
 0001:0001b90c       __vswprintf_helper         1001c90c f   LIBCMT:vswprnc.obj
 0001:0001ba07       __vswprintf_p              1001ca07 f   LIBCMT:vswprnc.obj
 0001:0001ba2e       __vswprintf_p_l            1001ca2e f   LIBCMT:vswprnc.obj
 0001:0001ba56       __vswprintf_s_l            1001ca56 f   LIBCMT:vswprnc.obj
 0001:0001bacd       _vswprintf_s               1001cacd f   LIBCMT:vswprnc.obj
 0001:0001bae8       ___crtMessageBoxW          1001cae8 f   LIBCMT:crtmboxw.obj
 0001:0001bcce       ___crtMessageBoxWaitThreadW@4 1001ccce f   LIBCMT:crtmboxw.obj
 0001:0001bcec       __XcptFilter               1001ccec f   LIBCMT:winxfltr.obj
 0001:0001be47       ___CppXcptFilter           1001ce47 f   LIBCMT:winxfltr.obj
 0001:0001be99       ___get_flsindex            1001ce99 f   LIBCMT:tidtable.obj
 0001:0001be9f       ___threadhandle            1001ce9f f   LIBCMT:tidtable.obj
 0001:0001bea5       ___threadid                1001cea5 f   LIBCMT:tidtable.obj
 0001:0001beab       __freefls@4                1001ceab f   LIBCMT:tidtable.obj
 0001:0001bfe0       __freeptd                  1001cfe0 f   LIBCMT:tidtable.obj
 0001:0001c016       __getptd                   1001d016 f   LIBCMT:tidtable.obj
 0001:0001c02e       __getptd_noexit            1001d02e f   LIBCMT:tidtable.obj
 0001:0001c09d       __initptd                  1001d09d f   LIBCMT:tidtable.obj
 0001:0001c150       __mtinit                   1001d150 f   LIBCMT:tidtable.obj
 0001:0001c1c6       __mtterm                   1001d1c6 f   LIBCMT:tidtable.obj
 0001:0001c1e3       __set_pgmptr               1001d1e3 f i LIBCMT:stdargv.obj
 0001:0001c1f0       __setargv                  1001d1f0 f   LIBCMT:stdargv.obj
 0001:0001c41f       __setenvp                  1001d41f f   LIBCMT:stdenvp.obj
 0001:0001c500       ___security_init_cookie    1001d500 f   LIBCMT:gs_support.obj
 0001:0001c59c       ___crtGetEnvironmentStringsA 1001d59c f   LIBCMT:a_env.obj
 0001:0001c630       _strlen                    1001d630 f   LIBCMT:strlen.obj
 0001:0001c6bb       _wcsncpy_s                 1001d6bb f   LIBCMT:wcsncpy_s.obj
 0001:0001c779       __output_s_l               1001d779 f   LIBCMT:outputs.obj
 0001:0001d401       __output_p_l               1001e401 f   LIBCMT:outputp.obj
 0001:0001e739       __validate_param_reuseA    1001f739 f   LIBCMT:outputp.obj
 0001:0001e86f       _get_crtdouble_arg         1001f86f f i LIBCMT:outputp.obj
 0001:0001e96e       __isatty                   1001f96e f   LIBCMT:isatty.obj
 0001:0001e9c2       ___addlocaleref            1001f9c2 f   LIBCMT:localref.obj
 0001:0001ea57       ___freetlocinfo            1001fa57 f   LIBCMT:localref.obj
 0001:0001ebb1       ___removelocaleref         1001fbb1 f   LIBCMT:localref.obj
 0001:0001ec51       ___updatetlocinfo          1001fc51 f   LIBCMT:localref.obj
 0001:0001ecd1       __updatetlocinfoEx_nolock  1001fcd1 f   LIBCMT:localref.obj
 0001:0001ed1c       ___iswcsym                 1001fd1c f i LIBCMT:_wctype.obj
 0001:0001ed40       ___iswcsymf                1001fd40 f i LIBCMT:_wctype.obj
 0001:0001ed64       __isleadbyte_l             1001fd64 f i LIBCMT:_wctype.obj
 0001:0001ed9e       __iswalnum_l               1001fd9e f i LIBCMT:_wctype.obj
 0001:0001edb2       __iswalpha_l               1001fdb2 f i LIBCMT:_wctype.obj
 0001:0001edc6       __iswblank_l               1001fdc6 f i LIBCMT:_wctype.obj
 0001:0001ede1       __iswcntrl_l               1001fde1 f i LIBCMT:_wctype.obj
 0001:0001edf2       __iswcsym_l                1001fdf2 f i LIBCMT:_wctype.obj
 0001:0001ee16       __iswcsymf_l               1001fe16 f i LIBCMT:_wctype.obj
 0001:0001ee3a       __iswdigit_l               1001fe3a f i LIBCMT:_wctype.obj
 0001:0001ee4b       __iswgraph_l               1001fe4b f i LIBCMT:_wctype.obj
 0001:0001ee5f       __iswlower_l               1001fe5f f i LIBCMT:_wctype.obj
 0001:0001ee70       __iswprint_l               1001fe70 f i LIBCMT:_wctype.obj
 0001:0001ee84       __iswpunct_l               1001fe84 f i LIBCMT:_wctype.obj
 0001:0001ee95       __iswspace_l               1001fe95 f i LIBCMT:_wctype.obj
 0001:0001eea6       __iswupper_l               1001fea6 f i LIBCMT:_wctype.obj
 0001:0001eeb7       __iswxdigit_l              1001feb7 f i LIBCMT:_wctype.obj
 0001:0001eecb       _isleadbyte                1001fecb f i LIBCMT:_wctype.obj
 0001:0001eedc       _iswalnum                  1001fedc f i LIBCMT:_wctype.obj
 0001:0001eef0       _iswalpha                  1001fef0 f i LIBCMT:_wctype.obj
 0001:0001ef04       _iswascii                  1001ff04 f i LIBCMT:_wctype.obj
 0001:0001ef16       _iswblank                  1001ff16 f i LIBCMT:_wctype.obj
 0001:0001ef31       _iswcntrl                  1001ff31 f i LIBCMT:_wctype.obj
 0001:0001ef42       _iswdigit                  1001ff42 f i LIBCMT:_wctype.obj
 0001:0001ef53       _iswgraph                  1001ff53 f i LIBCMT:_wctype.obj
 0001:0001ef67       _iswlower                  1001ff67 f i LIBCMT:_wctype.obj
 0001:0001ef78       _iswprint                  1001ff78 f i LIBCMT:_wctype.obj
 0001:0001ef8c       _iswpunct                  1001ff8c f i LIBCMT:_wctype.obj
 0001:0001ef9d       _iswspace                  1001ff9d f i LIBCMT:_wctype.obj
 0001:0001efae       _iswupper                  1001ffae f i LIBCMT:_wctype.obj
 0001:0001efbf       _iswxdigit                 1001ffbf f i LIBCMT:_wctype.obj
 0001:0001efd3       __wctomb_l                 1001ffd3 f   LIBCMT:wctomb.obj
 0001:0001f022       __wctomb_s_l               10020022 f   LIBCMT:wctomb.obj
 0001:0001f146       _wctomb                    10020146 f   LIBCMT:wctomb.obj
 0001:0001f179       _wctomb_s                  10020179 f   LIBCMT:wctomb.obj
 0001:0001f1a0       __aulldvrm                 100201a0 f   LIBCMT:ulldvrm.obj
 0001:0001f235       ___isascii                 10020235 f i LIBCMT:_ctype.obj
 0001:0001f245       ___iscsym                  10020245 f i LIBCMT:_ctype.obj
 0001:0001f265       ___iscsymf                 10020265 f i LIBCMT:_ctype.obj
 0001:0001f282       ___toascii                 10020282 f i LIBCMT:_ctype.obj
 0001:0001f28d       __isalnum_l                1002028d f i LIBCMT:_ctype.obj
 0001:0001f2e5       __isalpha_l                100202e5 f i LIBCMT:_ctype.obj
 0001:0001f33d       __isblank_l                1002033d f i LIBCMT:_ctype.obj
 0001:0001f397       __iscntrl_l                10020397 f i LIBCMT:_ctype.obj
 0001:0001f3e9       __iscsym_l                 100203e9 f i LIBCMT:_ctype.obj
 0001:0001f40a       __iscsymf_l                1002040a f i LIBCMT:_ctype.obj
 0001:0001f42b       __isdigit_l                1002042b f i LIBCMT:_ctype.obj
 0001:0001f47d       __isgraph_l                1002047d f i LIBCMT:_ctype.obj
 0001:0001f4d5       __islower_l                100204d5 f i LIBCMT:_ctype.obj
 0001:0001f527       __isprint_l                10020527 f i LIBCMT:_ctype.obj
 0001:0001f57f       __ispunct_l                1002057f f i LIBCMT:_ctype.obj
 0001:0001f5d1       __isspace_l                100205d1 f i LIBCMT:_ctype.obj
 0001:0001f623       __isupper_l                10020623 f i LIBCMT:_ctype.obj
 0001:0001f675       __isxdigit_l               10020675 f i LIBCMT:_ctype.obj
 0001:0001f6cd       _isalnum                   100206cd f i LIBCMT:_ctype.obj
 0001:0001f6fa       _isalpha                   100206fa f i LIBCMT:_ctype.obj
 0001:0001f727       _isblank                   10020727 f i LIBCMT:_ctype.obj
 0001:0001f75c       _iscntrl                   1002075c f i LIBCMT:_ctype.obj
 0001:0001f787       _isdigit                   10020787 f i LIBCMT:_ctype.obj
 0001:0001f7b2       _isgraph                   100207b2 f i LIBCMT:_ctype.obj
 0001:0001f7df       _islower                   100207df f i LIBCMT:_ctype.obj
 0001:0001f80a       _isprint                   1002080a f i LIBCMT:_ctype.obj
 0001:0001f837       _ispunct                   10020837 f i LIBCMT:_ctype.obj
 0001:0001f862       _isspace                   10020862 f i LIBCMT:_ctype.obj
 0001:0001f88d       _isupper                   1002088d f i LIBCMT:_ctype.obj
 0001:0001f8b8       _isxdigit                  100208b8 f i LIBCMT:_ctype.obj
 0001:0001f8e5       __tolower                  100208e5 f   LIBCMT:tolower.obj
 0001:0001f8f0       __tolower_l                100208f0 f   LIBCMT:tolower.obj
 0001:0001fa33       _tolower                   10020a33 f   LIBCMT:tolower.obj
 0001:0001fa5f       _strcpy_s                  10020a5f f   LIBCMT:strcpy_s.obj
 0001:0001fac0       _strrchr                   10020ac0 f   LIBCMT:strrchr.obj
 0001:0001fbf7       __fptostr                  10020bf7 f   LIBCMT:_fptostr.obj
 0001:0001fca7       ___crt_atoflt_l            10020ca7 f   LIBCMT:atodbl.obj
 0001:0001fd4b       __atodbl                   10020d4b f   LIBCMT:atodbl.obj
 0001:0001fd60       __atodbl_l                 10020d60 f   LIBCMT:atodbl.obj
 0001:0001fdee       __atoflt                   10020dee f   LIBCMT:atodbl.obj
 0001:0001fe03       __atoflt_l                 10020e03 f   LIBCMT:atodbl.obj
 0001:0001fe1b       __atoldbl                  10020e1b f   LIBCMT:atodbl.obj
 0001:0001fe30       __atoldbl_l                10020e30 f   LIBCMT:atodbl.obj
 0001:0001febf       ___dtold                   10020ebf f   LIBCMT:cfout.obj
 0001:0001ff87       __fltout2                  10020f87 f   LIBCMT:cfout.obj
 0001:00020020       __alldvrm                  10021020 f   LIBCMT:lldvrm.obj
 0001:00020100       __aullshr                  10021100 f   LIBCMT:ullshr.obj
 0001:0002011f       __get_output_format        1002111f f   LIBCMT:outputformat.obj
 0001:00020125       __set_output_format        10021125 f   LIBCMT:outputformat.obj
 0001:00020157       __controlfp_s              10021157 f   LIBCMT:contrlfp.obj
 0001:000201b4       __fptrap                   100211b4 f   LIBCMT:crt0fp.obj
 0001:000201bd       __msize                    100211bd f   LIBCMT:msize.obj
 0001:000201ee       __recalloc                 100211ee f   LIBCMT:recalloc.obj
 0001:00020257       _strncpy_s                 10021257 f   LIBCMT:strncpy_s.obj
 0001:000203df       __MallocaIsSizeInRange     100213df f i LIBCMT:a_loc.obj
 0001:000203f0       __MarkAllocaS              100213f0 f i LIBCMT:a_loc.obj
 0001:00020404       ___crtGetLocaleInfoA       10021404 f   LIBCMT:a_loc.obj
 0001:0002043e       __freea                    1002143e f i LIBCMT:a_loc.obj
 0001:0002045c       _GetTableIndexFromLcid     1002145c f   LIBCMT:winapinls.obj
 0001:00020491       _GetTableIndexFromLocaleName 10021491 f   LIBCMT:winapinls.obj
 0001:000204df       ___crtCompareStringEx      100214df f   LIBCMT:winapinls.obj
 0001:0002052b       ___crtDownlevelLCIDToLocaleName 1002152b f   LIBCMT:winapinls.obj
 0001:000205a7       ___crtDownlevelLocaleNameToLCID 100215a7 f   LIBCMT:winapinls.obj
 0001:000205e5       ___crtEnumSystemLocalesEx  100215e5 f   LIBCMT:winapinls.obj
 0001:00020622       ___crtGetDateFormatEx      10021622 f   LIBCMT:winapinls.obj
 0001:0002066b       ___crtGetLocaleInfoEx      1002166b f   LIBCMT:winapinls.obj
 0001:0002069a       ___crtGetTimeFormatEx      1002169a f   LIBCMT:winapinls.obj
 0001:000206cf       ___crtGetUserDefaultLocaleName 100216cf f   LIBCMT:winapinls.obj
 0001:000206fa       ___crtIsValidLocaleName    100216fa f   LIBCMT:winapinls.obj
 0001:00020725       ___crtLCMapStringEx        10021725 f   LIBCMT:winapinls.obj
 0001:00020771       ___wcsnicmp_ascii          10021771 f   LIBCMT:winapinls.obj
 0001:00020a03       ___crtLCMapStringA         10021a03 f   LIBCMT:a_map.obj
 0001:00020b41       ___crtGetStringTypeA       10021b41 f   LIBCMT:a_str.obj
 0001:00020b81       __commit                   10021b81 f   LIBCMT:commit.obj
 0001:00020c6a       ___lock_fhandle            10021c6a f   LIBCMT:osfinfo.obj
 0001:00020cf8       __alloc_osfhnd             10021cf8 f   LIBCMT:osfinfo.obj
 0001:00020ea1       __free_osfhnd              10021ea1 f   LIBCMT:osfinfo.obj
 0001:00020f27       __get_osfhandle            10021f27 f   LIBCMT:osfinfo.obj
 0001:00020f8e       __open_osfhandle           10021f8e f   LIBCMT:osfinfo.obj
 0001:000210a4       __set_osfhnd               100220a4 f   LIBCMT:osfinfo.obj
 0001:00021126       __unlock_fhandle           10022126 f   LIBCMT:osfinfo.obj
 0001:0002114c       __open                     1002214c f   LIBCMT:open.obj
 0001:000211fc       __sopen                    100221fc f   LIBCMT:open.obj
 0001:0002122f       __sopen_helper             1002222f f   LIBCMT:open.obj
 0001:000212f8       __sopen_nolock             100222f8 f   LIBCMT:open.obj
 0001:00021346       __sopen_s                  10022346 f   LIBCMT:open.obj
 0001:00021364       __mbsnbcmp                 10022364 f   LIBCMT:mbsnbcmp.obj
 0001:0002137c       __mbsnbcmp_l               1002237c f   LIBCMT:mbsnbcmp.obj
 0001:00021493       __mbsnbicmp                10022493 f   LIBCMT:mbsnbicm.obj
 0001:000214ab       __mbsnbicmp_l              100224ab f   LIBCMT:mbsnbicm.obj
 0001:00021670       __global_unwind2           10022670 f   LIBCMT:exsup.obj
 0001:000216d5       __local_unwind2            100226d5 f   LIBCMT:exsup.obj
 0001:00021759       __abnormal_termination     10022759 f   LIBCMT:exsup.obj
 0001:0002177c       __NLG_Notify1              1002277c f   LIBCMT:exsup.obj
 0001:00021785       __NLG_Notify               10022785 f   LIBCMT:exsup.obj
 0001:0002179c       __NLG_Dispatch2            1002279c     LIBCMT:exsup.obj
 0001:0002179c       __NLG_Dispatch             1002279c     LIBCMT:exsup.obj
 0001:000217a4       __NLG_Call                 100227a4 f   LIBCMT:exsup.obj
 0001:000217a6       __NLG_Return2              100227a6     LIBCMT:exsup.obj
 0001:000217a7       __getbuf                   100227a7 f   LIBCMT:_getbuf.obj
 0001:000217ed       __lseeki64                 100227ed f   LIBCMT:lseeki64.obj
 0001:000218e9       __lseeki64_nolock          100228e9 f   LIBCMT:lseeki64.obj
 0001:0002195c       __mbtowc_l                 1002295c f   LIBCMT:mbtowc.obj
 0001:00021a51       _mbtowc                    10022a51 f   LIBCMT:mbtowc.obj
 0001:00021a69       __putwch                   10022a69 f   LIBCMT:putwch.obj
 0001:00021ab5       __putwch_nolock            10022ab5 f   LIBCMT:putwch.obj
 0001:00021b00       __chkstk                   10022b00 f   LIBCMT:chkstk.obj
 0001:00021b00       __alloca_probe             10022b00 f   LIBCMT:chkstk.obj
 0001:00021b2b       __matherr                  10022b2b f   LIBCMT:matherr.obj
 0001:00021b2e       __vfwprintf_l              10022b2e f   LIBCMT:vfwprint.obj
 0001:00021b4c       __vfwprintf_p              10022b4c f   LIBCMT:vfwprint.obj
 0001:00021b69       __vfwprintf_p_l            10022b69 f   LIBCMT:vfwprint.obj
 0001:00021b87       __vfwprintf_s_l            10022b87 f   LIBCMT:vfwprint.obj
 0001:00021ba5       _vfwprintf                 10022ba5 f   LIBCMT:vfwprint.obj
 0001:00021bc2       _vfwprintf_helper          10022bc2 f   LIBCMT:vfwprint.obj
 0001:00021c55       _vfwprintf_s               10022c55 f   LIBCMT:vfwprint.obj
 0001:00021c72       __woutput_l                10022c72 f   LIBCMT:woutput.obj
 0001:00022951       __woutput_s_l              10023951 f   LIBCMT:woutputs.obj
 0001:00023668       __validate_param_reuseW    10024668 f   LIBCMT:woutputp.obj
 0001:000237e0       __woutput_p_l              100247e0 f   LIBCMT:woutputp.obj
 0001:00024c09       __ismbbalnum               10025c09 f   LIBCMT:ismbbyte.obj
 0001:00024c22       __ismbbalnum_l             10025c22 f   LIBCMT:ismbbyte.obj
 0001:00024c3c       __ismbbalpha               10025c3c f   LIBCMT:ismbbyte.obj
 0001:00024c55       __ismbbalpha_l             10025c55 f   LIBCMT:ismbbyte.obj
 0001:00024c6f       __ismbbblank               10025c6f f   LIBCMT:ismbbyte.obj
 0001:00024c90       __ismbbblank_l             10025c90 f   LIBCMT:ismbbyte.obj
 0001:00024cb2       __ismbbgraph               10025cb2 f   LIBCMT:ismbbyte.obj
 0001:00024ccb       __ismbbgraph_l             10025ccb f   LIBCMT:ismbbyte.obj
 0001:00024ce5       __ismbbkalnum              10025ce5 f   LIBCMT:ismbbyte.obj
 0001:00024cfb       __ismbbkalnum_l            10025cfb f   LIBCMT:ismbbyte.obj
 0001:00024d12       __ismbbkana                10025d12 f   LIBCMT:ismbbyte.obj
 0001:00024d23       __ismbbkana_l              10025d23 f   LIBCMT:ismbbyte.obj
 0001:00024d6f       __ismbbkprint              10025d6f f   LIBCMT:ismbbyte.obj
 0001:00024d85       __ismbbkprint_l            10025d85 f   LIBCMT:ismbbyte.obj
 0001:00024d9c       __ismbbkpunct              10025d9c f   LIBCMT:ismbbyte.obj
 0001:00024db2       __ismbbkpunct_l            10025db2 f   LIBCMT:ismbbyte.obj
 0001:00024dc9       __ismbblead                10025dc9 f   LIBCMT:ismbbyte.obj
 0001:00024ddf       __ismbblead_l              10025ddf f   LIBCMT:ismbbyte.obj
 0001:00024df6       __ismbbprint               10025df6 f   LIBCMT:ismbbyte.obj
 0001:00024e0f       __ismbbprint_l             10025e0f f   LIBCMT:ismbbyte.obj
 0001:00024e29       __ismbbpunct               10025e29 f   LIBCMT:ismbbyte.obj
 0001:00024e3f       __ismbbpunct_l             10025e3f f   LIBCMT:ismbbyte.obj
 0001:00024e56       __ismbbtrail               10025e56 f   LIBCMT:ismbbyte.obj
 0001:00024e6c       __ismbbtrail_l             10025e6c f   LIBCMT:ismbbyte.obj
 0001:000250a9       __strtol_l                 100260a9 f   LIBCMT:strtol.obj
 0001:000250c4       __strtoul_l                100260c4 f   LIBCMT:strtol.obj
 0001:000250df       _strtol                    100260df f   LIBCMT:strtol.obj
 0001:00025109       _strtoul                   10026109 f   LIBCMT:strtol.obj
 0001:00025133       ___free_lconv_mon          10026133 f   LIBCMT:initmon.obj
 0001:0002522f       ___init_monetary           1002622f f   LIBCMT:initmon.obj
 0001:00025608       ___free_lconv_num          10026608 f   LIBCMT:initnum.obj
 0001:0002566f       ___init_numeric            1002666f f   LIBCMT:initnum.obj
 0001:000258ad       ___free_lc_time            100268ad f   LIBCMT:inittime.obj
 0001:00025c2d       ___init_time               10026c2d f   LIBCMT:inittime.obj
 0001:0002649c       _localeconv                1002749c f   LIBCMT:lconv.obj
 0001:000264c2       __iswctype_l               100274c2 f   LIBCMT:iswctype.obj
 0001:000264d4       _is_wctype                 100274d4 f   LIBCMT:iswctype.obj
 0001:000264dd       _iswctype                  100274dd f   LIBCMT:iswctype.obj
 0001:00026533       ____lc_codepage_func       10027533 f   LIBCMT:initctyp.obj
 0001:00026559       ____lc_collate_cp_func     10027559 f   LIBCMT:initctyp.obj
 0001:0002657f       ____lc_locale_name_func    1002757f f   LIBCMT:initctyp.obj
 0001:000265a7       ____mb_cur_max_func        100275a7 f   LIBCMT:initctyp.obj
 0001:000265cd       ____mb_cur_max_l_func      100275cd f   LIBCMT:initctyp.obj
 0001:000265e4       ___init_ctype              100275e4 f   LIBCMT:initctyp.obj
 0001:0002697c       ___pctype_func             1002797c f   LIBCMT:ctype.obj
 0001:000269a5       ___pwctype_func            100279a5 f   LIBCMT:ctype.obj
 0001:000269ab       __isctype                  100279ab f   LIBCMT:isctype.obj
 0001:000269da       __isctype_l                100279da f   LIBCMT:isctype.obj
 0001:00026a8b       ___init_dummy              10027a8b f   LIBCMT:wsetloca.obj
 0001:00026a8e       __locterm                  10027a8e f   LIBCMT:wsetloca.obj
 0001:00026ae0       ____setlc_active_func      10027ae0 f   LIBCMT:wsetloca.obj
 0001:00026ae6       ____unguarded_readlc_active_add_func 10027ae6 f   LIBCMT:wsetloca.obj
 0001:00026aec       ___copy_locale_name        10027aec f   LIBCMT:wsetloca.obj
 0001:00026b50       ___create_locale           10027b50 f   LIBCMT:wsetloca.obj
 0001:00026b59       ___free_locale             10027b59 f   LIBCMT:wsetloca.obj
 0001:00026b5e       ___get_current_locale      10027b5e f   LIBCMT:wsetloca.obj
 0001:00026b63       ___lc_lctowcs              10027b63 f   LIBCMT:wsetloca.obj
 0001:00026bd1       ___lc_wcstolc              10027bd1 f   LIBCMT:wsetloca.obj
 0001:00026cfd       __configthreadlocale       10027cfd f   LIBCMT:wsetloca.obj
 0001:00026d83       __create_locale            10027d83 f   LIBCMT:wsetloca.obj
 0001:00026de5       __expandlocale             10027de5 f   LIBCMT:wsetloca.obj
 0001:000270dc       __free_locale              100280dc f   LIBCMT:wsetloca.obj
 0001:00027193       __get_current_locale       10028193 f   LIBCMT:wsetloca.obj
 0001:00027242       __wcreate_locale           10028242 f   LIBCMT:wsetloca.obj
 0001:00027319       __wcscats                  10028319 f   LIBCMT:wsetloca.obj
 0001:00027358       __wsetlocale               10028358 f   LIBCMT:wsetloca.obj
 0001:00027c9a       __CopyMan                  10028c9a f i LIBCMT:intrncvt.obj
 0001:00027cb7       __FillZeroMan              10028cb7 f i LIBCMT:intrncvt.obj
 0001:00027cc6       __IncMan                   10028cc6 f i LIBCMT:intrncvt.obj
 0001:00027d28       __IsZeroMan                10028d28 f i LIBCMT:intrncvt.obj
 0001:00027d45       __RoundMan                 10028d45 f i LIBCMT:intrncvt.obj
 0001:00027e46       __ShrMan                   10028e46 f i LIBCMT:intrncvt.obj
 0001:00027ed4       __ZeroTail                 10028ed4 f i LIBCMT:intrncvt.obj
 0001:00027f1c       ___addl                    10028f1c f i LIBCMT:intrncvt.obj
 0001:00027f40       __ld12cvt                  10028f40 f i LIBCMT:intrncvt.obj
 0001:000284ab       __ld12tod                  100294ab f   LIBCMT:intrncvt.obj
 0001:00028a1d       __ld12tof                  10029a1d f   LIBCMT:intrncvt.obj
 0001:00028f8f       __ld12told                 10029f8f f   LIBCMT:intrncvt.obj
 0001:0002905e       ___STRINGTOLD_L            1002a05e f   LIBCMT:strgtold.obj
 0001:000290b9       ___ld12mul                 1002a0b9 f i LIBCMT:strgtold.obj
 0001:00029385       ___multtenpow12            1002a385 f i LIBCMT:strgtold.obj
 0001:000296d8       ___shl_12                  1002a6d8 f i LIBCMT:strgtold.obj
 0001:00029709       ___shr_12                  1002a709 f i LIBCMT:strgtold.obj
 0001:00029739       ___strgtold12_l            1002a739 f   LIBCMT:strgtold.obj
 0001:00029ee1       _$I10_OUTPUT               1002aee1 f   LIBCMT:x10fout.obj
 0001:0002a8b5       ___add_12                  1002b8b5 f i LIBCMT:x10fout.obj
 0001:0002aa61       ___control87_2             1002ba61 f   LIBCMT:ieee87.obj
 0001:0002b0d5       __clearfp                  1002c0d5 f   LIBCMT:ieee87.obj
 0001:0002b1b5       __control87                1002c1b5 f i LIBCMT:ieee87.obj
 0001:0002b4b7       __controlfp                1002c4b7 f   LIBCMT:ieee87.obj
 0001:0002b7c2       __fpreset                  1002c7c2 f   LIBCMT:ieee87.obj
 0001:0002b88f       __set_controlfp            1002c88f f   LIBCMT:ieee87.obj
 0001:0002b902       __statusfp                 1002c902 f   LIBCMT:ieee87.obj
 0001:0002b99c       __statusfp2                1002c99c f   LIBCMT:ieee87.obj
 0001:0002ba00       __alloca_probe_16          1002ca00 f   LIBCMT:alloca16.obj
 0001:0002ba16       __alloca_probe_8           1002ca16     LIBCMT:alloca16.obj
 0001:0002ba2c       _wcsnlen                   1002ca2c f   LIBCMT:wcslen_s.obj
 0001:0002bad3       __wopen                    1002cad3 f   LIBCMT:wopen.obj
 0001:0002bb83       __wsopen                   1002cb83 f   LIBCMT:wopen.obj
 0001:0002bbb6       __wsopen_helper            1002cbb6 f   LIBCMT:wopen.obj
 0001:0002bc7f       __wsopen_nolock            1002cc7f f   LIBCMT:wopen.obj
 0001:0002c3d2       __wsopen_s                 1002d3d2 f   LIBCMT:wopen.obj
 0001:0002c3f0       _strncmp                   1002d3f0 f   LIBCMT:strncmp.obj
 0001:0002c468       __strnicmp                 1002d468 f   LIBCMT:strnicmp.obj
 0001:0002c4d3       __strnicmp_l               1002d4d3 f   LIBCMT:strnicmp.obj
 0001:0002c584       ___termconout              1002d584 f   LIBCMT:initcon.obj
 0001:0002c59b       ___initconout              1002d59b f   LIBCMT:initcon.obj
 0001:0002c5ba       __fputwc_nolock            1002d5ba f   LIBCMT:fputwc.obj
 0001:0002c740       _fputwc                    1002d740 f   LIBCMT:fputwc.obj
 0001:0002c7b7       _putwc                     1002d7b7 f   LIBCMT:fputwc.obj
 0001:0002c9a1       __wcstol_l                 1002d9a1 f   LIBCMT:wcstol.obj
 0001:0002c9b9       __wcstoul_l                1002d9b9 f   LIBCMT:wcstol.obj
 0001:0002c9d1       _wcstol                    1002d9d1 f   LIBCMT:wcstol.obj
 0001:0002c9e9       _wcstoul                   1002d9e9 f   LIBCMT:wcstol.obj
 0001:0002ca01       ___init_collate            1002da01 f   LIBCMT:initcoll.obj
 0001:0002cb21       _memcmp                    1002db21 f   LIBCMT:memcmp.obj
 0001:0002fa35       _wcscmp                    10030a35 f   LIBCMT:wcscmp.obj
 0001:0002fa73       _wcscspn                   10030a73 f   LIBCMT:wcscspn.obj
 0001:0002fabe       _wcsncmp                   10030abe f   LIBCMT:wcsncmp.obj
 0001:0002faf4       _wcspbrk                   10030af4 f   LIBCMT:wcspbrk.obj
 0001:000300f8       ___get_qualified_locale    100310f8 f   LIBCMT:getqloc.obj
 0001:00030968       ___get_qualified_locale_downlevel 10031968 f   LIBCMT:getqloc_downlevel.obj
 0001:00030b84       ___mtold12                 10031b84 f   LIBCMT:mantold.obj
 0001:00030d64       __chsize                   10031d64 f   LIBCMT:chsize.obj
 0001:00030d7e       __chsize_nolock            10031d7e f   LIBCMT:chsize.obj
 0001:00030f34       __chsize_s                 10031f34 f   LIBCMT:chsize.obj
 0001:00031022       __get_fmode                10032022 f   LIBCMT:setmode.obj
 0001:0003104c       __set_fmode                1003204c f   LIBCMT:setmode.obj
 0001:00031087       __setmode                  10032087 f   LIBCMT:setmode.obj
 0001:0003118c       __setmode_nolock           1003218c f   LIBCMT:setmode.obj
 0001:00031260       ___ascii_strnicmp          10032260 f   LIBCMT:_strnicm.obj
 0001:000312c1       __flswbuf                  100322c1 f   LIBCMT:_flswbuf.obj
 0001:00031423       __wchartodigit             10032423 f   LIBCMT:wchtodig.obj
 0001:000315c2       __wtoi                     100325c2 f   LIBCMT:wtox.obj
 0001:000315cb       __wtoi64                   100325cb f   LIBCMT:wtox.obj
 0001:000315df       __wtoi64_l                 100325df f   LIBCMT:wtox.obj
 0001:000315f6       __wtoi_l                   100325f6 f   LIBCMT:wtox.obj
 0001:000315ff       __wtol                     100325ff f   LIBCMT:wtox.obj
 0001:00031613       __wtol_l                   10032613 f   LIBCMT:wtox.obj
 0001:0003162a       __wtoll                    1003262a f   LIBCMT:wtox.obj
 0001:0003163e       __wtoll_l                  1003263e f   LIBCMT:wtox.obj
 0001:00031655       _wcschr                    10032655 f   LIBCMT:wcschr.obj
 0001:00031703       __wcsicmp                  10032703 f   LIBCMT:wcsicmp.obj
 0001:00031796       __wcsicmp_l                10032796 f   LIBCMT:wcsicmp.obj
 0001:00031871       __wcsnicmp                 10032871 f   LIBCMT:wcsnicmp.obj
 0001:00031927       __wcsnicmp_l               10032927 f   LIBCMT:wcsnicmp.obj
 0001:00031cf0       __wcstof_l                 10032cf0 f   LIBCMT:wcstoq.obj
 0001:00031da3       __wcstoi64                 10032da3 f   LIBCMT:wcstoq.obj
 0001:00031dcd       __wcstoi64_l               10032dcd f   LIBCMT:wcstoq.obj
 0001:00031de8       __wcstoimax_l              10032de8 f   LIBCMT:wcstoq.obj
 0001:00031df1       __wcstold_l                10032df1 f   LIBCMT:wcstoq.obj
 0001:00031dfa       __wcstoll_l                10032dfa f   LIBCMT:wcstoq.obj
 0001:00031e03       __wcstoui64                10032e03 f   LIBCMT:wcstoq.obj
 0001:00031e2d       __wcstoui64_l              10032e2d f   LIBCMT:wcstoq.obj
 0001:00031e48       __wcstoull_l               10032e48 f   LIBCMT:wcstoq.obj
 0001:00031e51       __wcstoumax_l              10032e51 f   LIBCMT:wcstoq.obj
 0001:00031e5a       _wcstof                    10032e5a f   LIBCMT:wcstoq.obj
 0001:00031e6f       _wcstoimax                 10032e6f f   LIBCMT:wcstoq.obj
 0001:00031e78       _wcstold                   10032e78 f   LIBCMT:wcstoq.obj
 0001:00031e81       _wcstoll                   10032e81 f   LIBCMT:wcstoq.obj
 0001:00031e8a       _wcstoull                  10032e8a f   LIBCMT:wcstoq.obj
 0001:00031e93       _wcstoumax                 10032e93 f   LIBCMT:wcstoq.obj
 0001:00031e9c       __towlower_l               10032e9c f   LIBCMT:towlower.obj
 0001:00031f4d       _towlower                  10032f4d f   LIBCMT:towlower.obj
 0001:00031f5e       __wcstod_l                 10032f5e f   LIBCMT:wcstod.obj
 0001:00032059       _wcstod                    10033059 f   LIBCMT:wcstod.obj
 0001:00032070       __allmul                   10033070 f   LIBCMT:llmul.obj
 0001:000320a4       ___crtLCMapStringW         100330a4 f   LIBCMT:w_map.obj
 0001:000320d3       __wfltin2                  100330d3 f   LIBCMT:wcfin.obj
 0001:00032180       ___WSTRINGTOLD_L           10033180 f   LIBCMT:wstrgtold.obj
 0001:000321db       ___wstrgtold12_l           100331db f   LIBCMT:wstrgtold.obj
 0001:00032a2c       _GetModuleHandleA@4        10033a2c f   kernel32:KERNEL32.dll
 0001:00032a32       _GetProcAddress@8          10033a32 f   kernel32:KERNEL32.dll
 0001:00032a38       _HeapAlloc@12              10033a38 f   kernel32:KERNEL32.dll
 0001:00032a3e       _IsDebuggerPresent@0       10033a3e f   kernel32:KERNEL32.dll
 0001:00032a44       _IsProcessorFeaturePresent@4 10033a44 f   kernel32:KERNEL32.dll
 0001:00032a4a       _EncodePointer@4           10033a4a f   kernel32:KERNEL32.dll
 0001:00032a50       _DecodePointer@4           10033a50 f   kernel32:KERNEL32.dll
 0001:00032a56       _GetLastError@0            10033a56 f   kernel32:KERNEL32.dll
 0001:00032a5c       _ExitProcess@4             10033a5c f   kernel32:KERNEL32.dll
 0001:00032a62       _GetModuleHandleExW@12     10033a62 f   kernel32:KERNEL32.dll
 0001:00032a68       _AreFileApisANSI@0         10033a68 f   kernel32:KERNEL32.dll
 0001:00032a6e       _MultiByteToWideChar@24    10033a6e f   kernel32:KERNEL32.dll
 0001:00032a74       _WideCharToMultiByte@32    10033a74 f   kernel32:KERNEL32.dll
 0001:00032a7a       _HeapFree@12               10033a7a f   kernel32:KERNEL32.dll
 0001:00032a80       _HeapReAlloc@16            10033a80 f   kernel32:KERNEL32.dll
 0001:00032a86       _EnterCriticalSection@4    10033a86 f   kernel32:KERNEL32.dll
 0001:00032a8c       _LeaveCriticalSection@4    10033a8c f   kernel32:KERNEL32.dll
 0001:00032a92       _GetStdHandle@4            10033a92 f   kernel32:KERNEL32.dll
 0001:00032a98       _GetFileType@4             10033a98 f   kernel32:KERNEL32.dll
 0001:00032a9e       _GetModuleFileNameW@12     10033a9e f   kernel32:KERNEL32.dll
 0001:00032aa4       _WriteConsoleW@20          10033aa4 f   kernel32:KERNEL32.dll
 0001:00032aaa       _GetCommandLineA@0         10033aaa f   kernel32:KERNEL32.dll
 0001:00032ab0       _GetCurrentThreadId@0      10033ab0 f   kernel32:KERNEL32.dll
 0001:00032ab6       _WriteFile@20              10033ab6 f   kernel32:KERNEL32.dll
 0001:00032abc       _GetProcessHeap@0          10033abc f   kernel32:KERNEL32.dll
 0001:00032ac2       _UnhandledExceptionFilter@4 10033ac2 f   kernel32:KERNEL32.dll
 0001:00032ac8       _SetUnhandledExceptionFilter@4 10033ac8 f   kernel32:KERNEL32.dll
 0001:00032ace       _SetLastError@4            10033ace f   kernel32:KERNEL32.dll
 0001:00032ad4       _InitializeCriticalSectionAndSpinCount@8 10033ad4 f   kernel32:KERNEL32.dll
 0001:00032ada       _CreateEventW@16           10033ada f   kernel32:KERNEL32.dll
 0001:00032ae0       _Sleep@4                   10033ae0 f   kernel32:KERNEL32.dll
 0001:00032ae6       _GetCurrentProcess@0       10033ae6 f   kernel32:KERNEL32.dll
 0001:00032aec       _TerminateProcess@8        10033aec f   kernel32:KERNEL32.dll
 0001:00032af2       _TlsAlloc@0                10033af2 f   kernel32:KERNEL32.dll
 0001:00032af8       _TlsGetValue@4             10033af8 f   kernel32:KERNEL32.dll
 0001:00032afe       _TlsSetValue@8             10033afe f   kernel32:KERNEL32.dll
 0001:00032b04       _TlsFree@4                 10033b04 f   kernel32:KERNEL32.dll
 0001:00032b0a       _GetStartupInfoW@4         10033b0a f   kernel32:KERNEL32.dll
 0001:00032b10       _GetTickCount@0            10033b10 f   kernel32:KERNEL32.dll
 0001:00032b16       _GetModuleHandleW@4        10033b16 f   kernel32:KERNEL32.dll
 0001:00032b1c       _CreateSemaphoreW@16       10033b1c f   kernel32:KERNEL32.dll
 0001:00032b22       _DeleteCriticalSection@4   10033b22 f   kernel32:KERNEL32.dll
 0001:00032b28       _FatalAppExitA@8           10033b28 f   kernel32:KERNEL32.dll
 0001:00032b2e       _SetConsoleCtrlHandler@8   10033b2e f   kernel32:KERNEL32.dll
 0001:00032b34       _FreeLibrary@4             10033b34 f   kernel32:KERNEL32.dll
 0001:00032b3a       _LoadLibraryExW@12         10033b3a f   kernel32:KERNEL32.dll
 0001:00032b40       _IsValidCodePage@4         10033b40 f   kernel32:KERNEL32.dll
 0001:00032b46       _GetACP@0                  10033b46 f   kernel32:KERNEL32.dll
 0001:00032b4c       _GetOEMCP@0                10033b4c f   kernel32:KERNEL32.dll
 0001:00032b52       _GetCPInfo@8               10033b52 f   kernel32:KERNEL32.dll
 0001:00032b58       _CloseHandle@4             10033b58 f   kernel32:KERNEL32.dll
 0001:00032b5e       _RtlUnwind@16              10033b5e f   kernel32:KERNEL32.dll
 0001:00032b64       _ReadFile@20               10033b64 f   kernel32:KERNEL32.dll
 0001:00032b6a       _GetConsoleMode@8          10033b6a f   kernel32:KERNEL32.dll
 0001:00032b70       _ReadConsoleW@20           10033b70 f   kernel32:KERNEL32.dll
 0001:00032b76       _GetConsoleCP@0            10033b76 f   kernel32:KERNEL32.dll
 0001:00032b7c       _DeleteFileW@4             10033b7c f   kernel32:KERNEL32.dll
 0001:00032b82       _SetFilePointerEx@20       10033b82 f   kernel32:KERNEL32.dll
 0001:00032b88       _RaiseException@16         10033b88 f   kernel32:KERNEL32.dll
 0001:00032b8e       _OutputDebugStringW@4      10033b8e f   kernel32:KERNEL32.dll
 0001:00032b94       _GetCurrentThread@0        10033b94 f   kernel32:KERNEL32.dll
 0001:00032b9a       _GetModuleFileNameA@12     10033b9a f   kernel32:KERNEL32.dll
 0001:00032ba0       _QueryPerformanceCounter@4 10033ba0 f   kernel32:KERNEL32.dll
 0001:00032ba6       _GetCurrentProcessId@0     10033ba6 f   kernel32:KERNEL32.dll
 0001:00032bac       _GetSystemTimeAsFileTime@4 10033bac f   kernel32:KERNEL32.dll
 0001:00032bb2       _GetEnvironmentStringsW@0  10033bb2 f   kernel32:KERNEL32.dll
 0001:00032bb8       _FreeEnvironmentStringsW@4 10033bb8 f   kernel32:KERNEL32.dll
 0001:00032bbe       _HeapSize@12               10033bbe f   kernel32:KERNEL32.dll
 0001:00032bc4       _GetDateFormatW@24         10033bc4 f   kernel32:KERNEL32.dll
 0001:00032bca       _GetTimeFormatW@24         10033bca f   kernel32:KERNEL32.dll
 0001:00032bd0       _CompareStringW@24         10033bd0 f   kernel32:KERNEL32.dll
 0001:00032bd6       _LCMapStringW@24           10033bd6 f   kernel32:KERNEL32.dll
 0001:00032bdc       _GetLocaleInfoW@16         10033bdc f   kernel32:KERNEL32.dll
 0001:00032be2       _IsValidLocale@8           10033be2 f   kernel32:KERNEL32.dll
 0001:00032be8       _GetUserDefaultLCID@0      10033be8 f   kernel32:KERNEL32.dll
 0001:00032bee       _EnumSystemLocalesW@8      10033bee f   kernel32:KERNEL32.dll
 0001:00032bf4       _GetStringTypeW@16         10033bf4 f   kernel32:KERNEL32.dll
 0001:00032bfa       _FlushFileBuffers@4        10033bfa f   kernel32:KERNEL32.dll
 0001:00032c00       _SetStdHandle@8            10033c00 f   kernel32:KERNEL32.dll
 0001:00032c06       _CreateFileW@28            10033c06 f   kernel32:KERNEL32.dll
 0001:00032c0c       _SetEndOfFile@4            10033c0c f   kernel32:KERNEL32.dll
 0002:00000000       ___xc_a                    1003e000     LIBCMT:crt0init.obj
 0002:00000104       ___xc_z                    1003e104     LIBCMT:crt0init.obj
 0002:00000208       ___xi_a                    1003e208     LIBCMT:crt0init.obj
 0002:00000420       ___xi_z                    1003e420     LIBCMT:crt0init.obj
 0002:00000524       ___xp_a                    1003e524     LIBCMT:crt0init.obj
 0002:00000838       ___xp_z                    1003e838     LIBCMT:crt0init.obj
 0002:0000093c       ___xt_a                    1003e93c     LIBCMT:crt0init.obj
 0002:00000a40       ___xt_z                    1003ea40     LIBCMT:crt0init.obj
 0002:00000b88       _CenterLimit_M             1003eb88     CenterLimit.obj
 0002:00000b8c       ??_C@_0BI@PFNCELAG@Error?5creating?5scope?52?6?$AA@ 1003eb8c     CenterLimit.obj
 0002:00000ba8       ??_C@_0BE@FCJPLBLD@Byte?5Unpacking?51?1s3?$AA@ 1003eba8     CenterLimit.obj
 0002:00000bc0       ??_C@_06KFNFIEK@?$CF15?46f?$AA@ 1003ebc0     CenterLimit.obj
 0002:00000bc8       ??_C@_0BI@PHJEPFFP@Error?5creating?5scope?51?6?$AA@ 1003ebc8     CenterLimit.obj
 0002:00000be4       ??_C@_0BE@GAKJNDDB@Byte?5Unpacking?51?1s1?$AA@ 1003ebe4     CenterLimit.obj
 0002:00000bfc       ??_C@_0BE@ELIEIAPC@Byte?5Unpacking?51?1s2?$AA@ 1003ebfc     CenterLimit.obj
 0002:00000c14       ??_C@_0BE@BNNOCHHE@Byte?5Unpacking?51?1s4?$AA@ 1003ec14     CenterLimit.obj
 0002:00000c2c       ??_C@_0BE@EMFBGDF@Byte?5Unpacking?51?1s5?$AA@ 1003ec2c     CenterLimit.obj
 0002:00000c44       ??_C@_0BE@CPOIEFPG@Byte?5Unpacking?51?1s6?$AA@ 1003ec44     CenterLimit.obj
 0002:00000c5c       ??_C@_0BC@OJJPBDHH@FixedStepDiscrete?$AA@ 1003ec5c     CenterLimit.obj
 0002:00000c74       ??_C@_04EPKDLPPB@tout?$AA@ 1003ec74     CenterLimit.obj
 0002:00000c7a       ??_C@_00CNPNBAHC@?$AA@     1003ec7a     CenterLimit.obj
 0002:00000c7c       ??_C@_03HBFGMJOD@rt_?$AA@  1003ec7c     CenterLimit.obj
 0002:00000c80       ??_C@_09JLALMMJD@Receive?51?$AA@ 1003ec80     CenterLimit.obj
 0002:00000c8c       ??_C@_0BG@OEAOANMD@CenterLimit?1Receive?51?$AA@ 1003ec8c     CenterLimit.obj
 0002:00000ca8       ??_C@_0O@GDKFENNN@PCI?9DDA08?512?5?$AA@ 1003eca8     CenterLimit.obj
 0002:00000cb8       ??_C@_0BK@IFAICGOA@CenterLimit?1PCI?9DDA08?512?5?$AA@ 1003ecb8     CenterLimit.obj
 0002:00000cd8       ??_C@_0P@BFHBFPFF@PCI?9DDA08?512?52?$AA@ 1003ecd8     CenterLimit.obj
 0002:00000cec       ??_C@_0BL@ENPPLOCP@CenterLimit?1PCI?9DDA08?512?52?$AA@ 1003ecec     CenterLimit.obj
 0002:00000d0c       ??_C@_0BA@KOPDHJJN@PCI?9DDA?508?512?53?$AA@ 1003ed0c     CenterLimit.obj
 0002:00000d20       ??_C@_0BM@BOHLGPFO@CenterLimit?1PCI?9DDA?508?512?53?$AA@ 1003ed20     CenterLimit.obj
 0002:00000d44       ??_C@_0P@DOFMAMJG@PCI?9DDA08?512?51?$AA@ 1003ed44     CenterLimit.obj
 0002:00000d58       ??_C@_0BL@GGNCONOM@CenterLimit?1PCI?9DDA08?512?51?$AA@ 1003ed58     CenterLimit.obj
 0002:00000d78       ??_C@_0BA@OBLCOPFK@PCI?9DDA?508?512?54?$AA@ 1003ed78     CenterLimit.obj
 0002:00000d8c       ??_C@_0BM@FBDKPJJJ@CenterLimit?1PCI?9DDA?508?512?54?$AA@ 1003ed8c     CenterLimit.obj
 0002:00000db0       __real@3f50624dd2f1a9fc    1003edb0     CenterLimit.obj
 0002:00000dc0       __real@3ff0000000000000    1003edc0     CenterLimit.obj
 0002:00000dd0       __real@4008000000000000    1003edd0     CenterLimit.obj
 0002:00000de0       __real@40c3880000000000    1003ede0     CenterLimit.obj
 0002:00000df0       __real@41f0000000000000    1003edf0     CenterLimit.obj
 0002:00000e00       __real@bff0000000000000    1003ee00     CenterLimit.obj
 0002:00000e10       __xmm@00000000000000003f50624dd2f1a9fc 1003ee10     CenterLimit.obj
 0002:00000e30       __xmm@000000a7000000060000000a00000001 1003ee30     CenterLimit.obj
 0002:00000e50       __xmm@41f00000000000000000000000000000 1003ee50     CenterLimit.obj
 0002:00001538       ??_C@_08CHMPKCOC@Constant?$AA@ 1003f538     CenterLimit_capi.obj
 0002:00001544       ??_C@_0BB@BHLBHFIE@Byte?5Unpacking?51?$AA@ 1003f544     CenterLimit_capi.obj
 0002:00001558       ??_C@_09GDHNBGIO@orce?5Data?$AA@ 1003f558     CenterLimit_capi.obj
 0002:00001564       ??_C@_0N@GFDFJHHC@Receive?51?1p1?$AA@ 1003f564     CenterLimit_capi.obj
 0002:00001574       ??_C@_0N@EOBIMELB@Receive?51?1p2?$AA@ 1003f574     CenterLimit_capi.obj
 0002:00001584       ??_C@_05LPIJGKJ@Value?$AA@ 1003f584     CenterLimit_capi.obj
 0002:0000158c       ??_C@_02KKFPAPOP@P1?$AA@   1003f58c     CenterLimit_capi.obj
 0002:00001590       ??_C@_02IBHCFMCM@P2?$AA@   1003f590     CenterLimit_capi.obj
 0002:00001594       ??_C@_02JIGJGNGN@P3?$AA@   1003f594     CenterLimit_capi.obj
 0002:00001598       ??_C@_02NHCIPLKK@P4?$AA@   1003f598     CenterLimit_capi.obj
 0002:0000159c       ??_C@_02MODDMKOL@P5?$AA@   1003f59c     CenterLimit_capi.obj
 0002:000015a0       ??_C@_02OFBOJJCI@P6?$AA@   1003f5a0     CenterLimit_capi.obj
 0002:000015a4       ??_C@_02PMAFKIGJ@P7?$AA@   1003f5a4     CenterLimit_capi.obj
 0002:000015a8       ??_C@_02HLJNLEKG@P8?$AA@   1003f5a8     CenterLimit_capi.obj
 0002:000015ac       ??_C@_02GCIGIFOH@P9?$AA@   1003f5ac     CenterLimit_capi.obj
 0002:000015b0       ??_C@_03OPFJJGBF@P10?$AA@  1003f5b0     CenterLimit_capi.obj
 0002:000015b4       ??_C@_06BNJCAIGJ@double?$AA@ 1003f5b4     CenterLimit_capi.obj
 0002:000015bc       ??_C@_06CNMIJIPB@real_T?$AA@ 1003f5bc     CenterLimit_capi.obj
 0002:000015c4       ??_C@_0O@PPAIJIHF@unsigned?5char?$AA@ 1003f5c4     CenterLimit_capi.obj
 0002:000015d4       ??_C@_07NCEHLPOC@uint8_T?$AA@ 1003f5d4     CenterLimit_capi.obj
 0002:000015e0       ??_C@_05KNFBNCOH@float?$AA@ 1003f5e0     CenterLimit_capi.obj
 0002:000015e8       ??_C@_0CJ@GGPBKPNK@Could?5not?5start?5ToAsyncQueue?5app@ 1003f5e8     CenterLimit_tgtconn.obj
 0002:00001e80       ??_C@_0DJ@FHKINPLE@Unexpected?5itemKind?5?$DN?5DATA_ITEM?5@ 1003fe80     rt_logging.obj
 0002:00001ec4       ??_C@_0DA@IEHFPFCJ@Unexpected?5itemKind?$DN?$CFd?5in?5rt_Pro@ 1003fec4     rt_logging.obj
 0002:00001f00       ??_C@_0DA@IFLHJPBO@Unexpected?5itemKind?$DN?$CFd?5in?5rt_Pro@ 1003ff00     rt_logging.obj
 0002:00001f3c       ??_C@_0DA@IAPIIJJL@Unexpected?5itemKind?$DN?$CFd?5in?5rt_Pro@ 1003ff3c     rt_logging.obj
 0002:00001f78       ??_C@_0BE@LCIGPJIG@MATLAB?55?40?5MAT?9file?$AA@ 1003ff78     rt_logging.obj
 0002:00001f90       ??_C@_0FB@PCJEAJIB@?$CK?$CK?$CK?5Log?5variable?5?$CFs?5has?5wrapped?5@ 1003ff90     rt_logging.obj
 0002:00001ff8       ??_C@_0MG@NKMLMOGF@?$CK?$CK?$CK?5To?5avoid?5wrapping?0?5explicitl@ 1003fff8     rt_logging.obj
 0002:000020e8       ??_C@_0N@IPAEOLLP@_rtw_tmw?4tmw?$AA@ 100400e8     rt_logging.obj
 0002:000020f8       ??_C@_04HDOCAJNK@?$CFs?$CFs?$AA@ 100400f8     rt_logging.obj
 0002:00002100       ??_C@_03ELIABIOC@w?$CLb?$AA@ 10040100     rt_logging.obj
 0002:00002104       ??_C@_0BF@JPILDDFA@?$CK?$CK?$CK?5Error?5opening?5?$CFs?$AA@ 10040104     rt_logging.obj
 0002:00002120       ??_C@_0BK@EEMDELA@unable?5to?5open?5data?5file?6?$AA@ 10040120     rt_logging.obj
 0002:00002140       ??_C@_04CGFJFPFD@none?$AA@ 10040140     rt_logging.obj
 0002:00002148       ??_C@_0EE@LCGFPNON@?$CK?$CK?$CK?5Error?5creating?5signals?5struc@ 10040148     rt_logging.obj
 0002:0000219c       ??_C@_0CE@NHECEDMK@?$CK?$CK?$CK?5Error?5creating?5log?5variable?5@ 1004019c     rt_logging.obj
 0002:000021c8       ??_C@_0DB@IOCGKAGH@?$CK?$CK?$CK?5Errors?5occurred?5when?5startin@ 100401c8     rt_logging.obj
 0002:00002204       ??_C@_0BO@BBLOGEBK@?$CK?$CK?$CK?5Memory?5allocation?5error?4?6?$AA@ 10040204     rt_logging.obj
 0002:00002228       ??_C@_0N@LGFBAGEL@?5?$CIreal?5part?$CJ?$AA@ 10040228     rt_logging.obj
 0002:00002238       ??_C@_0KH@CGNMHNFE@?5?5?5?5varName?5?5?5?5?5?5?5?5?5?5?$DN?5?$CFs?$CFs?6?5?5?5?5@ 10040238     rt_logging.obj
 0002:00002300       ??_C@_0LE@OALKKEFM@?5?5?5?5varName?5?5?5?5?5?5?5?5?5?5?$DN?5?$CFs?5?$CIcompl@ 10040300     rt_logging.obj
 0002:000023d8       ??_C@_0KF@JDDLEOKO@?5?5?5?5varName?5?5?5?5?5?5?5?5?5?5?$DN?5?$CFs?6?5?5?5?5nR@ 100403d8     rt_logging.obj
 0002:000024a0       ??_C@_0DP@HPDMIOFM@?$CK?$CK?$CK?5Using?5a?5default?5buffer?5of?5si@ 100404a0     rt_logging.obj
 0002:000024f0       ??_C@_0KE@JEFOLKNF@?6?$CK?$CK?$CK?5Memory?5required?5to?5log?5vari@ 100404f0     rt_logging.obj
 0002:000025b8       ??_C@_0JP@DKLMHCBI@?$CK?$CK?$CK?5Details?3?6?5?5?5?5?5?5?5varName?5?5?5?5?5@ 100405b8     rt_logging.obj
 0002:00002678       ??_C@_0CM@CAMILBED@?$CK?$CK?$CK?5Error?5allocating?5memory?5for?5@ 10040678     rt_logging.obj
 0002:000026ac       ??_C@_0DF@BBCNMOPM@?$CK?$CK?$CK?5Error?5allocating?5memory?5for?5@ 100406ac     rt_logging.obj
 0002:000026f0       ??_C@_0JP@DBCLPCCI@?$CK?$CK?$CK?5Details?3?6?5?5?5?5?5?5?5varName?5?5?5?5?5@ 100406f0     rt_logging.obj
 0002:000027b0       ??_C@_0FK@DPGAOBGA@?$CK?$CK?$CK?5Error?5allocating?5memory?5for?5@ 100407b0     rt_logging.obj
 0002:0000281c       ??_C@_0BI@GGDNPHLJ@?$CK?$CK?$CK?5Error?5writing?5to?5?$CFs?$AA@ 1004081c     rt_logging.obj
 0002:00002838       ??_C@_0CB@IBGJGELG@?$CK?$CK?$CK?5Error?5writing?5?$CFs?5due?5to?3?5?$CFs?6@ 10040838     rt_logging.obj
 0002:00002860       ??_C@_0CN@FLMCHCPB@?$CK?$CK?$CK?5Error?5writing?5log?5variable?5?$CF@ 10040860     rt_logging.obj
 0002:00002898       ??_C@_0DH@GAJCNOJP@?$CK?$CK?$CK?5Error?5writing?5structure?5log?5@ 10040898     rt_logging.obj
 0002:000028dc       ??_C@_0BD@POEALECL@?$CK?$CK?5created?5?$CFs?5?$CK?$CK?6?6?$AA@ 100408dc     rt_logging.obj
 0002:000028f8       __real@0000000000000000    100408f8     rt_logging.obj
 0002:00002908       __real@4020000000000000    10040908     rt_logging.obj
 0002:00002918       __real@41dfffffffc00000    10040918     rt_logging.obj
 0002:00002928       __real@41efffffffe00000    10040928     rt_logging.obj
 0002:00002938       __real@4330000000000000    10040938     rt_logging.obj
 0002:00002948       __real@8000000000000000    10040948     rt_logging.obj
 0002:00002958       __real@bfbf9add3afd2773    10040958     rt_logging.obj
 0002:00002968       __real@c000000000000000    10040968     rt_logging.obj
 0002:00002980       __xmm@20202020202020202020202020202020 10040980     rt_logging.obj
 0002:000029b0       __real@3cb0000000000000    100409b0     rt_matrx.obj
 0002:000029c0       __real@3fe0000000000000    100409c0     rt_matrx.obj
 0002:000029cc       ??_C@_0BI@INNPNFJN@Memory?5Allocation?5Error?$AA@ 100409cc     rtw_modelmap_utils.obj
 0002:000029e8       ??_C@_1HC@OAPLBLFC@?$AAC?$AA?3?$AA?2?$AAP?$AAR?$AAO?$AAG?$AAR?$AAA?$AA?$HO?$AA1?$AA?2?$AAM?$AAA?$AAT?$AAL?$AAA?$AAB?$AA?2?$AAR?$AA2?$AA0?$AA1?$AA6?$AAa?$AA?2?$AAr?$AAt?$AAw?$AA?2?$AAc?$AA?2@ 100409e8     rtw_modelmap_utils.obj
 0002:00002a70       ??_C@_1CI@OEAJCJND@?$AAj?$AA?5?$AA?$DN?$AA?$DN?$AA?5?$AAe?$AAn?$AAc?$AAo?$AAd?$AAe?$AAd?$AAP?$AAa?$AAt?$AAh?$AAL?$AAe?$AAn?$AA?$AA@ 10040a70     rtw_modelmap_utils.obj
 0002:00002aa0       ??_C@_1DC@NFAOIFKB@?$AAe?$AAn?$AAc?$AAo?$AAd?$AAe?$AAd?$AAP?$AAa?$AAt?$AAh?$AA?$FL?$AAj?$AA?9?$AA1?$AA?$FN?$AA?5?$AA?$DN?$AA?$DN?$AA?5?$AA?8?$AA?2?$AA0?$AA?8?$AA?$AA@ 10040aa0     rtw_modelmap_utils.obj
 0002:00002adc       ??_C@_1DI@FLNJGPEE@?$AAs?$AAi?$AAg?$AAC?$AAo?$AAm?$AAp?$AAl?$AAe?$AAx?$AAi?$AAt?$AAy?$AA?$FL?$AA?$CK?$AAs?$AAi?$AAg?$AAI?$AAd?$AAx?$AA?$FN?$AA?5?$AA?$CB?$AA?$DN?$AA?5?$AA1?$AA?$AA@ 10040adc     rtw_modelmap_utils.obj
 0002:00002b20       ??_C@_1KI@OFELMGBG@?$AA?$CI?$AA?$CI?$AA?$CI?$AAd?$AAa?$AAt?$AAa?$AAT?$AAy?$AAp?$AAe?$AAM?$AAa?$AAp?$AA?$CJ?$AA?$FL?$AA?$CI?$AA?$CI?$AA?$CI?$AAs?$AAt?$AAa?$AAt?$AAe?$AAs?$AA?$CJ?$AA?$FL?$AA?$CI?$AAi?$AA?$CJ?$AA?$FN?$AA?4@ 10040b20     rtw_modelmap_utils.obj
 0002:00002bec       ??_C@_1DA@ILCMPHNE@?$AAf?$AAu?$AAl?$AAl?$AAP?$AAa?$AAt?$AAh?$AA?5?$AA?$CB?$AA?$DN?$AA?5?$AA?$CI?$AA?$CI?$AAv?$AAo?$AAi?$AAd?$AA?5?$AA?$CK?$AA?$CJ?$AA0?$AA?$CJ?$AA?$AA@ 10040bec     rtw_modelmap_utils.obj
 0002:00002c28       ??_C@_1CI@OEPPFCCA@?$AAp?$AAa?$AAt?$AAh?$AA?5?$AA?$CB?$AA?$DN?$AA?5?$AA?$CI?$AA?$CI?$AAv?$AAo?$AAi?$AAd?$AA?5?$AA?$CK?$AA?$CJ?$AA0?$AA?$CJ?$AA?$AA@ 10040c28     rtw_modelmap_utils.obj
 0002:00002c58       ??_C@_1FK@GLJIMFHB@?$AA?$CI?$AA?$CI?$AAm?$AAm?$AAi?$AA?$CJ?$AA?9?$AA?$DO?$AAI?$AAn?$AAs?$AAt?$AAa?$AAn?$AAc?$AAe?$AAM?$AAa?$AAp?$AA?4?$AAf?$AAu?$AAl?$AAl?$AAP?$AAa?$AAt?$AAh?$AA?$CJ?$AA?5?$AA?$DN?$AA?$DN@ 10040c58     rtw_modelmap_utils.obj
 0002:00002cc4       ??_C@_1DG@HPCJGNCE@?$AAm?$AAm?$AAi?$AAP?$AAa?$AAt?$AAh?$AA?$FL?$AAp?$AAa?$AAt?$AAh?$AAL?$AAe?$AAn?$AA?9?$AA1?$AA?$FN?$AA?5?$AA?$DN?$AA?$DN?$AA?5?$AA?8?$AA?2?$AA0?$AA?8?$AA?$AA@ 10040cc4     rtw_modelmap_utils.obj
 0002:00002d04       ??_C@_1DM@DBAOGGOO@?$AAm?$AAm?$AAi?$AAP?$AAa?$AAt?$AAh?$AA?$FL?$AAm?$AAm?$AAi?$AAP?$AAa?$AAt?$AAh?$AAL?$AAe?$AAn?$AA?9?$AA1?$AA?$FN?$AA?5?$AA?$DN?$AA?$DN?$AA?5?$AA?8?$AA?2?$AA0?$AA?8?$AA?$AA@ 10040d04     rtw_modelmap_utils.obj
 0002:00002d4c       ??_C@_1DC@LHIAKAFE@?$AAb?$AAl?$AAo?$AAc?$AAk?$AAP?$AAa?$AAt?$AAh?$AA?5?$AA?$CB?$AA?$DN?$AA?5?$AA?$CI?$AA?$CI?$AAv?$AAo?$AAi?$AAd?$AA?5?$AA?$CK?$AA?$CJ?$AA0?$AA?$CJ?$AA?$AA@ 10040d4c     rtw_modelmap_utils.obj
 0002:00002d88       ??_C@_1GI@KIEJKPGC@?$AAf?$AAu?$AAl?$AAl?$AAS?$AAt?$AAa?$AAt?$AAe?$AAB?$AAl?$AAo?$AAc?$AAk?$AAP?$AAa?$AAt?$AAh?$AA?$FL?$AAf?$AAu?$AAl?$AAl?$AAS?$AAt?$AAa?$AAt?$AAe?$AAB?$AAl?$AAo?$AAc@ 10040d88     rtw_modelmap_utils.obj
 0002:00002e08       ??_C@_1EE@DNPIBJHC@?$AA?$CI?$AA?$CI?$AAd?$AAi?$AAm?$AAM?$AAa?$AAp?$AA?$CJ?$AA?$FL?$AA?$CI?$AAm?$AAa?$AAp?$AAI?$AAd?$AAx?$AA?$CJ?$AA?$FN?$AA?4?$AAn?$AAu?$AAm?$AAD?$AAi?$AAm?$AAs?$AA?$CJ?$AA?5?$AA?$DN?$AA?$DN?$AA?5@ 10040e08     rtw_modelmap_utils.obj
 0002:00002e5c       ??_C@_06JFOKFOED@CSTATE?$AA@ 10040e5c     rtw_modelmap_utils.obj
 0002:00002e64       ??_C@_06FAENGAMN@DSTATE?$AA@ 10040e64     rtw_modelmap_utils.obj
 0002:00002e6c       ??_C@_1BI@LEBJNOGG@?$AAc?$AAs?$AAv?$AAI?$AAd?$AAx?$AA?5?$AA?$DO?$AA?$DN?$AA?5?$AA0?$AA?$AA@ 10040e6c     rtw_modelmap_utils.obj
 0002:00002e88       ??_C@_1BA@KDMGHCHP@?$AAT?$AAI?$AAD?$AA?$DN?$AA?$DN?$AA?9?$AA1?$AA?$AA@ 10040e88     rtw_modelmap_utils.obj
 0002:00002e9c       ??_C@_1DM@DHGKBPCE@?$AAs?$AAi?$AAg?$AAP?$AAa?$AAt?$AAh?$AA?$FL?$AAs?$AAi?$AAg?$AAP?$AAa?$AAt?$AAh?$AAL?$AAe?$AAn?$AA?9?$AA1?$AA?$FN?$AA?5?$AA?$DN?$AA?$DN?$AA?5?$AA?8?$AA?2?$AA0?$AA?8?$AA?$AA@ 10040e9c     rtw_modelmap_utils.obj
 0002:00002ee4       _serialfifoground          10040ee4     xpc_datatype_ground.obj
 0002:00002ef0       _bcmsg1553ground           10040ef0     xpc_datatype_ground.obj
 0002:00002f00       _bcstatground              10040f00     xpc_datatype_ground.obj
 0002:00002f18       _bmmsg1553ground           10040f18     xpc_datatype_ground.obj
 0002:00002f38       _ptsetfilename             10040f38     xpctarget.obj
 0002:00002f3c       _xmlfile                   10040f3c     xpctarget.obj
 0002:00002f44       ??_C@_0M@EKGIBDIF@CenterLimit?$AA@ 10040f44     xpctarget.obj
 0002:00002f54       ??_C@_0L@CHBJKKFC@xpceSetVar?$AA@ 10040f54     xpctarget.obj
 0002:00002f64       ??_C@_03ICACBPID@6?44?$AA@ 10040f64     xpctarget.obj
 0002:00002f68       __real@3fb999999999999a    10040f68     xpctarget.obj
 0002:00002f78       __real@408f400000000000    10040f78     xpctarget.obj
 0002:00002f88       _CenterLimit_BIOMAP        10040f88     appmappingData.obj
 0002:00002fdc       _CenterLimit_SBIO          10040fdc     appmappingData.obj
 0002:00002ff8       _CenterLimit_LBLMAP        10040ff8     appmappingData.obj
 0002:0000304c       _CenterLimit_SLBL          1004104c     appmappingData.obj
 0002:00003068       _CenterLimit_SIDMAP        10041068     appmappingData.obj
 0002:000030c0       _CenterLimit_PTIDSMAP      100410c0     appmappingData.obj
 0002:00003250       _CenterLimit_PTNAMESMAP    10041250     appmappingData.obj
 0002:000033e0       _CenterLimit_SPTMAP        100413e0     appmappingData.obj
 0002:000034a8       _CenterLimit_dtmap         100414a8     appmappingData.obj
 0002:000034c0       _appInfo                   100414c0     appmappingData.obj
 0002:00003628       ??_C@_0ED@LKHIFFLC@Wrong?5number?5of?5input?5arguments?5@ 10041628     xpcudpbytereceive.obj
 0002:00003678       ??_C@_0CN@MHEKKFIE@Output?5port?5width?5argument?5must?5@ 10041678     xpcudpbytereceive.obj
 0002:000036b0       ??_C@_0DC@KNMLNALJ@Error?5in?5udpbytereceive?3?5memory?5@ 100416b0     xpcudpbytereceive.obj
 0002:000036ec       ??_C@_0CI@CAMPNCMJ@Error?3?5No?5UDP?5channel?5free?5or?5UD@ 100416ec     xpcudpbytereceive.obj
 0002:0000371c       ??_C@_0BA@MBPMNBMJ@CB?5PCI?9DDA02?112?$AA@ 1004171c     dacbpcidda0x12.obj
 0002:00003730       ??_C@_0BA@EOLMCEGJ@CB?5PCI?9DDA04?112?$AA@ 10041730     dacbpcidda0x12.obj
 0002:00003744       ??_C@_0BA@ILEMMJGI@CB?5PCI?9DDA08?112?$AA@ 10041744     dacbpcidda0x12.obj
 0002:00003758       ??_C@_0BA@KFJABEMN@CB?5PCI?9DDA02?116?$AA@ 10041758     dacbpcidda0x12.obj
 0002:0000376c       ??_C@_0BA@CKNAOBGN@CB?5PCI?9DDA04?116?$AA@ 1004176c     dacbpcidda0x12.obj
 0002:00003780       ??_C@_0BA@OPCAAMGM@CB?5PCI?9DDA08?116?$AA@ 10041780     dacbpcidda0x12.obj
 0002:00003794       ??_C@_0BB@IGAELBME@CB?5PCIM?9DDA06?116?$AA@ 10041794     dacbpcidda0x12.obj
 0002:000037a8       ??_C@_0BD@IPMBHKCA@CB?5PCIM?9DAS1602?116?$AA@ 100417a8     dacbpcidda0x12.obj
 0002:000037c0       ??_C@_0BG@EPCOHGPO@?$CFs?3?5board?5not?5present?$AA@ 100417c0     dacbpcidda0x12.obj
 0002:000037dc       ??_C@_0CI@NFFNBHJA@?$CFs?5?$CIbus?5?$CFd?0?5slot?5?$CFd?$CJ?3?5board?5not?5@ 100417dc     dacbpcidda0x12.obj
 0002:00003810       __real@3ee4f8b588e368f1    10041810     dacbpcidda0x12.obj
 0002:00003820       __real@4004000000000000    10041820     dacbpcidda0x12.obj
 0002:00003830       __real@4014000000000000    10041830     dacbpcidda0x12.obj
 0002:00003840       __real@4024000000000000    10041840     dacbpcidda0x12.obj
 0002:00003850       __real@4034000000000000    10041850     dacbpcidda0x12.obj
 0002:00003860       __real@40b0000000000000    10041860     dacbpcidda0x12.obj
 0002:00003870       __real@40f0000000000000    10041870     dacbpcidda0x12.obj
 0002:0000387c       ??_C@_0BC@JCHLEIED@MC?5PCI?9DAS1602?116?$AA@ 1004187c     dipci8255.obj
 0002:00003894       ??_C@_0P@KEALKDG@MC?5PCI?9DAS1200?$AA@ 10041894     dipci8255.obj
 0002:000038a8       ??_C@_0BC@EFMBBGCC@MC?5PCI?9DAS1200?1JR?$AA@ 100418a8     dipci8255.obj
 0002:000038c0       ??_C@_0O@PCCBFPNG@MC?5PCI?9DIO48H?$AA@ 100418c0     dipci8255.obj
 0002:000038d0       ??_C@_0BA@FIIFPMIK@MC?5PCI?9DDA02?112?$AA@ 100418d0     dipci8255.obj
 0002:000038e4       ??_C@_0BA@NHMFAJCK@MC?5PCI?9DDA04?112?$AA@ 100418e4     dipci8255.obj
 0002:000038f8       ??_C@_0BA@BCDFOECL@MC?5PCI?9DDA08?112?$AA@ 100418f8     dipci8255.obj
 0002:0000390c       ??_C@_0O@NOFAPJGO@MC?5PCI?9DIO24H?$AA@ 1004190c     dipci8255.obj
 0002:0000391c       ??_C@_0O@KNFKKAB@MC?5PCI?9DIO96H?$AA@ 1004191c     dipci8255.obj
 0002:0000392c       ??_C@_0N@JDGAGCEP@MC?5PCI?9DIO24?$AA@ 1004192c     dipci8255.obj
 0002:0000393c       ??_C@_0BC@PGBHINEH@MC?5PCI?9DAS1602?112?$AA@ 1004193c     dipci8255.obj
 0002:00003954       ??_C@_0M@DJFFBOOL@NI?5PCI?96503?$AA@ 10041954     dipci8255.obj
 0002:00003964       ??_C@_0O@CJHADKHB@NI?5PCI?9DIO?996?$AA@ 10041964     dipci8255.obj
 0002:00003974       ??_C@_0M@PLHAOKFN@NI?5PXI?96508?$AA@ 10041974     dipci8255.obj
 0002:00003984       ??_C@_0N@NMILOOOH@NI?5PCI?96025E?$AA@ 10041984     dipci8255.obj
 0002:00003994       ??_C@_0BA@LFAJKKBP@MC?5PCI?9DUAL?9AC5?$AA@ 10041994     dipci8255.obj
 0002:000039a8       ??_C@_0BA@DMOJDJIO@MC?5PCI?9DDA02?116?$AA@ 100419a8     dipci8255.obj
 0002:000039bc       ??_C@_0BA@LDKJMMCO@MC?5PCI?9DDA04?116?$AA@ 100419bc     dipci8255.obj
 0002:000039d0       ??_C@_0BA@HGFJCBCP@MC?5PCI?9DDA08?116?$AA@ 100419d0     dipci8255.obj
 0002:000039e4       ??_C@_0BB@GJEINIMD@MC?5PCIM?9DDA06?116?$AA@ 100419e4     dipci8255.obj
 0002:000039f8       ??_C@_0BD@PEOONKFH@MC?5PCIM?9DAS1602?116?$AA@ 100419f8     dipci8255.obj
 0002:00003a10       ??_C@_0N@KNADOPCM@MC?5PCI?9DIO96?$AA@ 10041a10     dipci8255.obj
 0002:00003a20       ??_C@_0P@LJFCEDPM@MC?5PCI?9DAS1001?$AA@ 10041a20     dipci8255.obj
 0002:00003a34       ??_C@_0P@JCHPBADP@MC?5PCI?9DAS1002?$AA@ 10041a34     dipci8255.obj
 0002:00003a48       ??_C@_0BI@IHCNPKCM@No?5?$CFs?5at?5bus?5?$CFd?5slot?5?$CFd?$AA@ 10041a48     dipci8255.obj
 0002:00003a64       ??_C@_0BC@MPAJBIJ@CB?5PCI?9DAS1602?116?$AA@ 10041a64     dopci8255.obj
 0002:00003a7c       ??_C@_0P@HKDMEDDF@CB?5PCI?9DAS1200?$AA@ 10041a7c     dopci8255.obj
 0002:00003a90       ??_C@_0BC@NLEKMPOI@CB?5PCI?9DAS1200?1JR?$AA@ 10041a90     dopci8255.obj
 0002:00003aa8       ??_C@_0O@OECMNDND@CB?5PCI?9DIO48H?$AA@ 10041aa8     dopci8255.obj
 0002:00003ab8       ??_C@_0O@MIFNHFGL@CB?5PCI?9DIO24H?$AA@ 10041ab8     dopci8255.obj
 0002:00003ac8       ??_C@_0O@BMNICGAE@CB?5PCI?9DIO96H?$AA@ 10041ac8     dopci8255.obj
 0002:00003ad8       ??_C@_0N@PCCDCCJA@CB?5PCI?9DIO24?$AA@ 10041ad8     dopci8255.obj
 0002:00003ae8       ??_C@_0BC@GIJMFEIN@CB?5PCI?9DAS1602?112?$AA@ 10041ae8     dopci8255.obj
 0002:00003b00       ??_C@_0BA@CMHAIHFM@CB?5PCI?9DUAL?9AC5?$AA@ 10041b00     dopci8255.obj
 0002:00003b14       ??_C@_0N@MMEAKPPD@CB?5PCI?9DIO96?$AA@ 10041b14     dopci8255.obj
 0002:00003b24       ??_C@_0BE@MDOBOAKD@CB?5?$CIMC?$CJ?5PCI?9DAS1001?$AA@ 10041b24     dopci8255.obj
 0002:00003b3c       ??_C@_0BE@OIMMLDGA@CB?5?$CIMC?$CJ?5PCI?9DAS1002?$AA@ 10041b3c     dopci8255.obj
 0002:00003b54       ??_C@_0CJ@MHHCOHM@Board?5base?5address?5came?5up?50?0?5ca@ 10041b54     dopci8255.obj
 0002:00003b88       ??_C@_0CC@DMFKNLL@VendorId?5?$DN?50x?$CFx?0?5DeviceId?5?$DN?50x?$CFx@ 10041b88     xpcruntime:xpcimports.obj
 0002:00003bac       ??_C@_0DH@OHCBLNMG@Subsystem?5Device?5ID?5?$DN?50x?$CFx?6Subsy@ 10041bac     xpcruntime:xpcimports.obj
 0002:00003be4       ??_C@_0BD@MMMMEFCM@Class?5Code?5?$DN?50x?$CFx?6?$AA@ 10041be4     xpcruntime:xpcimports.obj
 0002:00003bf8       ??_C@_0BE@OLDDDNHM@InterruptLine?5?$DN?5?$CFd?6?$AA@ 10041bf8     xpcruntime:xpcimports.obj
 0002:00003c0c       ??_C@_0BF@OLKLEKBD@bus?5?$DN?5?$CFd?0?5slot?5?$DN?5?$CFd?6?$AA@ 10041c0c     xpcruntime:xpcimports.obj
 0002:00003c24       ??_C@_0CE@DGLLGDFH@?5?5?5?5Phys?5?5?5Virtual?5?5?5Length?5IO?1M@ 10041c24     xpcruntime:xpcimports.obj
 0002:00003c48       ??_C@_0BI@FEOPLEMG@?$CF08x?5?$CF08x?5?$CF08x?5?5?5?5?5?5?$CFc?6?$AA@ 10041c48     xpcruntime:xpcimports.obj
 0002:00003c60       ??_C@_0BB@BNNCEDPC@rl32eScopeExists?$AA@ 10041c60     xpcruntime:xpcimports.obj
 0002:00003c74       ??_C@_0BM@FJBFEGFG@rl32eScopeExists?5not?5found?6?$AA@ 10041c74     xpcruntime:xpcimports.obj
 0002:00003c90       ??_C@_0O@BNNGKJEA@rl32eDefScope?$AA@ 10041c90     xpcruntime:xpcimports.obj
 0002:00003ca0       ??_C@_0BJ@CDNOENKA@rl32eDefScope?5not?5found?6?$AA@ 10041ca0     xpcruntime:xpcimports.obj
 0002:00003cbc       ??_C@_0P@CKNKILDP@rl32eAddSignal?$AA@ 10041cbc     xpcruntime:xpcimports.obj
 0002:00003ccc       ??_C@_0BK@GMJAJBAI@rl32eAddSignal?5not?5found?6?$AA@ 10041ccc     xpcruntime:xpcimports.obj
 0002:00003ce8       ??_C@_0BB@LDMIHGCE@rl32eGetSignalNo?$AA@ 10041ce8     xpcruntime:xpcimports.obj
 0002:00003cfc       ??_C@_0BM@LGAMBAID@rl32eGetSignalNo?5not?5found?6?$AA@ 10041cfc     xpcruntime:xpcimports.obj
 0002:00003d18       ??_C@_0O@CFDGALBP@rl32eSetScope?$AA@ 10041d18     xpcruntime:xpcimports.obj
 0002:00003d28       ??_C@_0BJ@JCLHHIN@rl32eSetScope?5not?5found?6?$AA@ 10041d28     xpcruntime:xpcimports.obj
 0002:00003d44       ??_C@_0P@IKMCBMHH@xpceFSScopeSet?$AA@ 10041d44     xpcruntime:xpcimports.obj
 0002:00003d54       ??_C@_0BK@JODJPNNH@xpceFSScopeSet?5not?5found?6?$AA@ 10041d54     xpcruntime:xpcimports.obj
 0002:00003d70       ??_C@_0BE@DLACEEJM@rl32eSetTargetScope?$AA@ 10041d70     xpcruntime:xpcimports.obj
 0002:00003d84       ??_C@_0BP@JCHFMKPJ@rl32eSetTargetScope?5not?5found?6?$AA@ 10041d84     xpcruntime:xpcimports.obj
 0002:00003da4       ??_C@_0BJ@LIDLNDHC@rl32eSetTargetScopeSigFt?$AA@ 10041da4     xpcruntime:xpcimports.obj
 0002:00003dc0       ??_C@_0CE@JLGHCFHI@rl32eSetTargetScopeSigFt?5not?5fou@ 10041dc0     xpcruntime:xpcimports.obj
 0002:00003de4       ??_C@_0BI@JAPOIDNG@rl32eRestartAcquisition?$AA@ 10041de4     xpcruntime:xpcimports.obj
 0002:00003dfc       ??_C@_0CD@LLBEFFBO@rl32eRestartAcquisition?5not?5foun@ 10041dfc     xpcruntime:xpcimports.obj
 0002:00003e20       ??_C@_0P@IEIIADJB@xpceScopeAcqOK?$AA@ 10041e20     xpcruntime:xpcimports.obj
 0002:00003e30       ??_C@_0BK@NJCKNFPN@xpceScopeAcqOK?5not?5found?6?$AA@ 10041e30     xpcruntime:xpcimports.obj
 0002:00003e4c       ??_C@_0BA@IJINKAHF@xpceRegisterISR?$AA@ 10041e4c     xpcruntime:xpcimports.obj
 0002:00003e5c       ??_C@_0BL@NNDLOEJE@xpceRegisterISR?5not?5found?6?$AA@ 10041e5c     xpcruntime:xpcimports.obj
 0002:00003e78       ??_C@_0BC@NLBADGKF@xpceDeRegisterISR?$AA@ 10041e78     xpcruntime:xpcimports.obj
 0002:00003e8c       ??_C@_0BN@DCAIKFFD@xpceDeRegisterISR?5not?5found?6?$AA@ 10041e8c     xpcruntime:xpcimports.obj
 0002:00003eac       ??_C@_0P@CPGPNKEB@xpceFTReadTime?$AA@ 10041eac     xpcruntime:xpcimports.obj
 0002:00003ebc       ??_C@_0BK@NMABIODN@xpceFTReadTime?5not?5found?6?$AA@ 10041ebc     xpcruntime:xpcimports.obj
 0002:00003ed8       ??_C@_09PHNHCHFH@xpceFTAdd?$AA@ 10041ed8     xpcruntime:xpcimports.obj
 0002:00003ee4       ??_C@_0BF@FJLEIILA@xpceFTAdd?5not?5found?6?$AA@ 10041ee4     xpcruntime:xpcimports.obj
 0002:00003efc       ??_C@_0P@KEODBLHO@xpceFTSubtract?$AA@ 10041efc     xpcruntime:xpcimports.obj
 0002:00003f0c       ??_C@_0BK@HONODOKP@xpceFTSubtract?5not?5found?6?$AA@ 10041f0c     xpcruntime:xpcimports.obj
 0002:00003f28       ??_C@_07JPMEPILD@xpcInpB?$AA@ 10041f28     xpcruntime:xpcimports.obj
 0002:00003f30       ??_C@_0BD@PGABEJOL@xpcInpB?5not?5found?6?$AA@ 10041f30     xpcruntime:xpcimports.obj
 0002:00003f44       ??_C@_07KIHBBOKH@xpcInpW?$AA@ 10041f44     xpcruntime:xpcimports.obj
 0002:00003f4c       ??_C@_0BD@FPCJFMCC@xpcInpW?5not?5found?6?$AA@ 10041f4c     xpcruntime:xpcimports.obj
 0002:00003f60       ??_C@_08KDIAJBOP@xpcInpDW?$AA@ 10041f60     xpcruntime:xpcimports.obj
 0002:00003f6c       ??_C@_0BE@PIELDNIL@xpcInpDW?5not?5found?6?$AA@ 10041f6c     xpcruntime:xpcimports.obj
 0002:00003f80       ??_C@_08PJFMOIGO@xpcOutpB?$AA@ 10041f80     xpcruntime:xpcimports.obj
 0002:00003f8c       ??_C@_0BE@HCKNCEKF@xpcOutpB?5not?5found?6?$AA@ 10041f8c     xpcruntime:xpcimports.obj
 0002:00003fa0       ??_C@_08MOOJAOHK@xpcOutpW?$AA@ 10041fa0     xpcruntime:xpcimports.obj
 0002:00003fac       ??_C@_0BE@NLIFDBGM@xpcOutpW?5not?5found?6?$AA@ 10041fac     xpcruntime:xpcimports.obj
 0002:00003fc0       ??_C@_09FLIEKHJG@xpcOutpDW?$AA@ 10041fc0     xpcruntime:xpcimports.obj
 0002:00003fcc       ??_C@_0BF@GJKLPNHB@xpcOutpDW?5not?5found?6?$AA@ 10041fcc     xpcruntime:xpcimports.obj
 0002:00003fe4       ??_C@_0BH@EHOLELHH@xpcReserveMemoryRegion?$AA@ 10041fe4     xpcruntime:xpcimports.obj
 0002:00003ffc       ??_C@_0CC@KAAAGPI@xpcReserveMemoryRegion?5not?5found@ 10041ffc     xpcruntime:xpcimports.obj
 0002:00004020       ??_C@_0BA@JGPMHGAF@rl32eShowPCIDev?$AA@ 10042020     xpcruntime:xpcimports.obj
 0002:00004030       ??_C@_0BL@DDFFLNHI@rl32eShowPCIDev?5not?5found?6?$AA@ 10042030     xpcruntime:xpcimports.obj
 0002:0000404c       ??_C@_0BB@KBCOJPFB@rl32eShowPCIInfo?$AA@ 1004204c     xpcruntime:xpcimports.obj
 0002:00004060       ??_C@_0BM@IFDMAGLO@rl32eShowPCIInfo?5not?5found?6?$AA@ 10042060     xpcruntime:xpcimports.obj
 0002:0000407c       ??_C@_0BA@BGPAADB@rl32eGetPCIInfo?$AA@ 1004207c     xpcruntime:xpcimports.obj
 0002:0000408c       ??_C@_0BL@IGOMLDCK@rl32eGetPCIInfo?5not?5found?6?$AA@ 1004208c     xpcruntime:xpcimports.obj
 0002:000040a8       ??_C@_0BG@NJPFKFDP@rl32eGetPCIInfoAtSlot?$AA@ 100420a8     xpcruntime:xpcimports.obj
 0002:000040c0       ??_C@_0CB@BBKIPMLA@rl32eGetPCIInfoAtSlot?5not?5found?6@ 100420c0     xpcruntime:xpcimports.obj
 0002:000040e4       ??_C@_0BH@OKBOPNFG@xpceAssignPCIInterrupt?$AA@ 100420e4     xpcruntime:xpcimports.obj
 0002:000040fc       ??_C@_0CC@CDNDNJBJ@xpceAssignPCIInterrupt?5not?5found@ 100420fc     xpcruntime:xpcimports.obj
 0002:00004120       ??_C@_0BB@FCHHFAAH@rl32eInitCOMPort?$AA@ 10042120     xpcruntime:xpcimports.obj
 0002:00004134       ??_C@_0BM@DDJGKAHB@rl32eInitCOMPort?5not?5found?6?$AA@ 10042134     xpcruntime:xpcimports.obj
 0002:00004150       ??_C@_0BC@CHEEFCP@rl32eCloseCOMPort?$AA@ 10042150     xpcruntime:xpcimports.obj
 0002:00004164       ??_C@_0BN@KCOFELEM@rl32eCloseCOMPort?5not?5found?6?$AA@ 10042164     xpcruntime:xpcimports.obj
 0002:00004184       ??_C@_0O@LLJGKFOG@rl32eSendChar?$AA@ 10042184     xpcruntime:xpcimports.obj
 0002:00004194       ??_C@_0BJ@JCJKDACJ@rl32eSendChar?5not?5found?6?$AA@ 10042194     xpcruntime:xpcimports.obj
 0002:000041b0       ??_C@_0BB@OMFKCOEK@rl32eReceiveChar?$AA@ 100421b0     xpcruntime:xpcimports.obj
 0002:000041c4       ??_C@_0BM@HGAIOAND@rl32eReceiveChar?5not?5found?6?$AA@ 100421c4     xpcruntime:xpcimports.obj
 0002:000041e0       ??_C@_0BI@PKEJFHMJ@rl32eReceiveBufferCount?$AA@ 100421e0     xpcruntime:xpcimports.obj
 0002:000041f8       ??_C@_0CD@LNMOFLAH@rl32eReceiveBufferCount?5not?5foun@ 100421f8     xpcruntime:xpcimports.obj
 0002:0000421c       ??_C@_0BA@CFIJOJPK@rl32eLineStatus?$AA@ 1004221c     xpcruntime:xpcimports.obj
 0002:0000422c       ??_C@_0BL@PLIDKKGI@rl32eLineStatus?5not?5found?6?$AA@ 1004222c     xpcruntime:xpcimports.obj
 0002:00004248       ??_C@_0P@MDMKIJF@rl32eSendBlock?$AA@ 10042248     xpcruntime:xpcimports.obj
 0002:00004258       ??_C@_0BK@KNBNFIKH@rl32eSendBlock?5not?5found?6?$AA@ 10042258     xpcruntime:xpcimports.obj
 0002:00004274       ??_C@_0BD@PCKOKHO@xpceGetSignalValue?$AA@ 10042274     xpcruntime:xpcimports.obj
 0002:00004288       ??_C@_0BO@GCBDJHMB@xpceGetSignalValue?5not?5found?6?$AA@ 10042288     xpcruntime:xpcimports.obj
 0002:000042a8       ??_C@_0BB@BJONJAGA@xpceSetParameter?$AA@ 100422a8     xpcruntime:xpcimports.obj
 0002:000042bc       ??_C@_0BM@BJIKDLHA@xpceSetParameter?5not?5found?6?$AA@ 100422bc     xpcruntime:xpcimports.obj
 0002:000042d8       ??_C@_0BB@GNFDFMCM@xpceGetParameter?$AA@ 100422d8     xpcruntime:xpcimports.obj
 0002:000042ec       ??_C@_0BM@POHNKBC@xpceGetParameter?5not?5found?6?$AA@ 100422ec     xpcruntime:xpcimports.obj
 0002:00004308       ??_C@_0BB@CEIJLFCD@xpceGetParamDims?$AA@ 10042308     xpcruntime:xpcimports.obj
 0002:0000431c       ??_C@_0BM@OABDBKAO@xpceGetParamDims?5not?5found?6?$AA@ 1004231c     xpcruntime:xpcimports.obj
 0002:00004338       ??_C@_0L@OCBLLHBM@xpceGetTET?$AA@ 10042338     xpcruntime:xpcimports.obj
 0002:00004344       ??_C@_0BG@HNOFBOB@xpceGetTET?5not?5found?6?$AA@ 10042344     xpcruntime:xpcimports.obj
 0002:0000435c       ??_C@_0BA@FHMIOKFL@xpceUDPOpenSend?$AA@ 1004235c     xpcruntime:xpcimports.obj
 0002:0000436c       ??_C@_0BL@HNLPFEK@xpceUDPOpenSend?5not?5found?6?$AA@ 1004236c     xpcruntime:xpcimports.obj
 0002:00004388       ??_C@_0BD@BCELJJJL@xpceUDPOpenReceive?$AA@ 10042388     xpcruntime:xpcimports.obj
 0002:0000439c       ??_C@_0BO@IFKJBHKC@xpceUDPOpenReceive?5not?5found?6?$AA@ 1004239c     xpcruntime:xpcimports.obj
 0002:000043bc       ??_C@_0M@OFPFLJGN@xpceUDPSend?$AA@ 100423bc     xpcruntime:xpcimports.obj
 0002:000043c8       ??_C@_0BH@NOIKLPAB@xpceUDPSend?5not?5found?6?$AA@ 100423c8     xpcruntime:xpcimports.obj
 0002:000043e0       ??_C@_0P@PLFDECIN@xpceUDPReceive?$AA@ 100423e0     xpcruntime:xpcimports.obj
 0002:000043f0       ??_C@_0BK@OPJMLDLH@xpceUDPReceive?5not?5found?6?$AA@ 100423f0     xpcruntime:xpcimports.obj
 0002:0000440c       ??_C@_0N@IEHPMFME@xpceUDPClose?$AA@ 1004240c     xpcruntime:xpcimports.obj
 0002:0000441c       ??_C@_0BI@FHPFHECO@xpceUDPClose?5not?5found?6?$AA@ 1004241c     xpcruntime:xpcimports.obj
 0002:00004434       ??_C@_0P@OKGNGAGH@xpcIsModelInit?$AA@ 10042434     xpcruntime:xpcimports.obj
 0002:00004444       ??_C@_0BK@DHEMLBIM@xpcIsModelInit?5not?5found?6?$AA@ 10042444     xpcruntime:xpcimports.obj
 0002:00004460       ??_C@_0BH@KJJLCAOJ@xpcAllocPhysicalMemory?$AA@ 10042460     xpcruntime:xpcimports.obj
 0002:00004478       ??_C@_0CC@MOJPNHKL@xpcAllocPhysicalMemory?5not?5found@ 10042478     xpcruntime:xpcimports.obj
 0002:0000449c       ??_C@_0BG@CBNPGAEL@xpcFreePhysicalMemory?$AA@ 1004249c     xpcruntime:xpcimports.obj
 0002:000044b4       ??_C@_0CB@PKJEBPOG@xpcFreePhysicalMemory?5not?5found?6@ 100424b4     xpcruntime:xpcimports.obj
 0002:000044d8       ??_C@_0BC@JGKNLICL@xpcGetElapsedTime?$AA@ 100424d8     xpcruntime:xpcimports.obj
 0002:000044ec       ??_C@_0BN@OEOAHCIO@xpcGetElapsedTime?5not?5found?6?$AA@ 100424ec     xpcruntime:xpcimports.obj
 0002:0000450c       ??_C@_0M@ICBLMODA@xpcBusyWait?$AA@ 1004250c     xpcruntime:xpcimports.obj
 0002:00004518       ??_C@_0BH@FBOPECBI@xpcBusyWait?5not?5found?6?$AA@ 10042518     xpcruntime:xpcimports.obj
 0002:00004530       ??_C@_0N@LKKJEKKA@TBCreateSpin?$AA@ 10042530     xpcruntime:xpcimports.obj
 0002:00004540       ??_C@_0BI@FHKMLKOE@TBCreateSpin?5not?5found?6?$AA@ 10042540     xpcruntime:xpcimports.obj
 0002:00004558       ??_C@_0N@HOAJHNBD@TBDeleteSpin?$AA@ 10042558     xpcruntime:xpcimports.obj
 0002:00004568       ??_C@_0BI@BKCPAAG@TBDeleteSpin?5not?5found?6?$AA@ 10042568     xpcruntime:xpcimports.obj
 0002:00004580       ??_C@_0P@DAHDDBJG@TBTakeSpinFast?$AA@ 10042580     xpcruntime:xpcimports.obj
 0002:00004590       ??_C@_0BK@NKAIBHGB@TBTakeSpinFast?5not?5found?6?$AA@ 10042590     xpcruntime:xpcimports.obj
 0002:000045ac       ??_C@_0P@FKNAAELA@TBGiveSpinFast?$AA@ 100425ac     xpcruntime:xpcimports.obj
 0002:000045bc       ??_C@_0BK@KGPJBJND@TBGiveSpinFast?5not?5found?6?$AA@ 100425bc     xpcruntime:xpcimports.obj
 0002:000045d8       ??_C@_0BE@IIGBFDHK@xpceCreateSemaphore?$AA@ 100425d8     xpcruntime:xpcimports.obj
 0002:000045ec       ??_C@_0BP@KFBAFFKJ@xpceCreateSemaphore?5not?5found?6?$AA@ 100425ec     xpcruntime:xpcimports.obj
 0002:0000460c       ??_C@_0BC@IFNIONKJ@xpceWaitSemaphore?$AA@ 1004260c     xpcruntime:xpcimports.obj
 0002:00004620       ??_C@_0BN@NMFAADIO@xpceWaitSemaphore?5not?5found?6?$AA@ 10042620     xpcruntime:xpcimports.obj
 0002:00004640       ??_C@_0BE@NNDIOBKE@xpceSignalSemaphore?$AA@ 10042640     xpcruntime:xpcimports.obj
 0002:00004654       ??_C@_0BP@LBANMHJP@xpceSignalSemaphore?5not?5found?6?$AA@ 10042654     xpcruntime:xpcimports.obj
 0002:00004674       ??_C@_0BE@MEBEKOIM@xpceDeleteSemaphore?$AA@ 10042674     xpcruntime:xpcimports.obj
 0002:00004688       ??_C@_0BP@OFNCKOJH@xpceDeleteSemaphore?5not?5found?6?$AA@ 10042688     xpcruntime:xpcimports.obj
 0002:000046a8       ??_C@_0BD@MFNDMBOF@FindUsbVideoDevice?$AA@ 100426a8     xpcruntime:xpcimports.obj
 0002:000046bc       ??_C@_0BO@POKLDHMI@FindUsbVideoDevice?5not?5found?6?$AA@ 100426bc     xpcruntime:xpcimports.obj
 0002:000046dc       ??_C@_0BA@PLPAPNAB@GetVideoConfigs?$AA@ 100426dc     xpcruntime:xpcimports.obj
 0002:000046ec       ??_C@_0BL@DALDHKHC@GetVideoConfigs?5not?5found?6?$AA@ 100426ec     xpcruntime:xpcimports.obj
 0002:00004708       ??_C@_0L@GBAEMHMH@StartVideo?$AA@ 10042708     xpcruntime:xpcimports.obj
 0002:00004714       ??_C@_0BG@HDCELEBP@StartVideo?5not?5found?6?$AA@ 10042714     xpcruntime:xpcimports.obj
 0002:0000472c       ??_C@_0BA@FDNPOCLN@ReadFrameBuffer?$AA@ 1004272c     xpcruntime:xpcimports.obj
 0002:0000473c       ??_C@_0BL@JHGHPNBI@ReadFrameBuffer?5not?5found?6?$AA@ 1004273c     xpcruntime:xpcimports.obj
 0002:00004758       ??_C@_09FAHCLKAG@StopVideo?$AA@ 10042758     xpcruntime:xpcimports.obj
 0002:00004764       ??_C@_0BF@NKGKKADL@StopVideo?5not?5found?6?$AA@ 10042764     xpcruntime:xpcimports.obj
 0002:0000477c       ??_C@_0O@MCPKDLLL@ConvertUImage?$AA@ 1004277c     xpcruntime:xpcimports.obj
 0002:0000478c       ??_C@_0BJ@PHJKOAFL@ConvertUImage?5not?5found?6?$AA@ 1004278c     xpcruntime:xpcimports.obj
 0002:000047a8       ??_C@_0BD@NKCBPBJJ@CreateVideoDisplay?$AA@ 100427a8     xpcruntime:xpcimports.obj
 0002:000047bc       ??_C@_0BO@HPPLLNFP@CreateVideoDisplay?5not?5found?6?$AA@ 100427bc     xpcruntime:xpcimports.obj
 0002:000047dc       ??_C@_0BE@KJCKGPHA@DestroyVideoDisplay?$AA@ 100427dc     xpcruntime:xpcimports.obj
 0002:000047f0       ??_C@_0BP@FMGLJAIJ@DestroyVideoDisplay?5not?5found?6?$AA@ 100427f0     xpcruntime:xpcimports.obj
 0002:00004810       ??_C@_0BC@HCMIMIDN@StartVideoDisplay?$AA@ 10042810     xpcruntime:xpcimports.obj
 0002:00004824       ??_C@_0BN@EFIEBGOO@StartVideoDisplay?5not?5found?6?$AA@ 10042824     xpcruntime:xpcimports.obj
 0002:00004844       ??_C@_0BB@JBBLMILG@StopVideoDisplay?$AA@ 10042844     xpcruntime:xpcimports.obj
 0002:00004858       ??_C@_0BM@DBJBPLEL@StopVideoDisplay?5not?5found?6?$AA@ 10042858     xpcruntime:xpcimports.obj
 0002:00004874       ??_C@_0M@MFJEGMHC@StreamVideo?$AA@ 10042874     xpcruntime:xpcimports.obj
 0002:00004880       ??_C@_0BH@OINCDMLA@StreamVideo?5not?5found?6?$AA@ 10042880     xpcruntime:xpcimports.obj
 0002:00004898       ??_C@_0N@IGGLCIGE@xpceaddEvent?$AA@ 10042898     xpcruntime:xpcimports.obj
 0002:000048a8       ??_C@_0BI@NHJNFMKH@xpceaddEvent?5not?5found?6?$AA@ 100428a8     xpcruntime:xpcimports.obj
 0002:000048c0       ??_C@_0BB@LCMHHHFN@getMemoryService?$AA@ 100428c0     xpcruntime:xpcimports.obj
 0002:000048d4       ??_C@_0BM@MPLCNIIE@getMemoryService?5not?5found?6?$AA@ 100428d4     xpcruntime:xpcimports.obj
 0002:000048f0       ??_C@_0P@KIKONDKK@getCommService?$AA@ 100428f0     xpcruntime:xpcimports.obj
 0002:00004900       ??_C@_0BK@NCECBKNM@getCommService?5not?5found?6?$AA@ 10042900     xpcruntime:xpcimports.obj
 0002:0000491c       ??_C@_0P@GDLHFECE@getStatusFlags?$AA@ 1004291c     xpcruntime:xpcimports.obj
 0002:0000492c       ??_C@_0BK@NEKDLJHG@getStatusFlags?5not?5found?6?$AA@ 1004292c     xpcruntime:xpcimports.obj
 0002:00004948       ??_C@_0BL@CDFCLKOL@startToAsyncQueueTgtAppSvc?$AA@ 10042948     xpcruntime:xpcimports.obj
 0002:00004964       ??_C@_0CG@JGOFFKEL@startToAsyncQueueTgtAppSvc?5not?5f@ 10042964     xpcruntime:xpcimports.obj
 0002:0000498c       ??_C@_0BP@IJNGPPPE@terminateToAsyncQueueTgtAppSvc?$AA@ 1004298c     xpcruntime:xpcimports.obj
 0002:000049ac       ??_C@_0CK@NDEMAMKF@terminateToAsyncQueueTgtAppSvc?5n@ 100429ac     xpcruntime:xpcimports.obj
 0002:000049d8       ??_C@_0BK@IDACEHAO@sendToAsyncQueueTgtAppSvc?$AA@ 100429d8     xpcruntime:xpcimports.obj
 0002:000049f4       ??_C@_0CF@PNCKPEHN@sendToAsyncQueueTgtAppSvc?5not?5fo@ 100429f4     xpcruntime:xpcimports.obj
 0002:00004a1c       ??_C@_0BN@HJOHIFOM@xpceGetIntTimerGranularityNS?$AA@ 10042a1c     xpcruntime:xpcimports.obj
 0002:00004a3c       ??_C@_0CI@OADDPMKB@xpceGetIntTimerGranularityNS?5not@ 10042a3c     xpcruntime:xpcimports.obj
 0002:00004a64       ??_C@_0BG@CCHICKPN@slrteSetStepSizeDelta?$AA@ 10042a64     xpcruntime:xpcimports.obj
 0002:00004a7c       ??_C@_0CB@MKHINEIJ@slrteSetStepSizeDelta?5not?5found?6@ 10042a7c     xpcruntime:xpcimports.obj
 0002:00004aa0       ??_C@_0BI@CLNBLDKJ@slrteGetCurrentStepSize?$AA@ 10042aa0     xpcruntime:xpcimports.obj
 0002:00004ab8       ??_C@_0CD@GIOJPGJA@slrteGetCurrentStepSize?5not?5foun@ 10042ab8     xpcruntime:xpcimports.obj
 0002:00004adc       ??_C@_0BE@FCLCBOC@registerPTPTimeRead?$AA@ 10042adc     xpcruntime:xpcimports.obj
 0002:00004af0       ??_C@_0BP@LHPKAJIP@registerPTPTimeRead?5not?5found?6?$AA@ 10042af0     xpcruntime:xpcimports.obj
 0002:00004b10       ??_C@_0BG@KIGCDDJI@unRegisterPTPTimeRead?$AA@ 10042b10     xpcruntime:xpcimports.obj
 0002:00004b28       ??_C@_0CB@MLFFBFCM@unRegisterPTPTimeRead?5not?5found?6@ 10042b28     xpcruntime:xpcimports.obj
 0002:00004b4c       ??_C@_0BB@IPMDDBHK@slTestInitialize?$AA@ 10042b4c     xpcruntime:xpcimports.obj
 0002:00004b60       ??_C@_0BM@LAJFCCJH@slTestInitialize?5not?5found?6?$AA@ 10042b60     xpcruntime:xpcimports.obj
 0002:00004b7c       ??_C@_0BF@OOMPMEBC@slTestLogAssessments?$AA@ 10042b7c     xpcruntime:xpcimports.obj
 0002:00004b94       ??_C@_0CA@FGJCEBAG@slTestLogAssessments?5not?5found?6?$AA@ 10042b94     xpcruntime:xpcimports.obj
 0002:00004bb4       ??_C@_0BB@HJHKONHO@slTestEvalOnFail?$AA@ 10042bb4     xpcruntime:xpcimports.obj
 0002:00004bc8       ??_C@_0BM@JIKCFFNJ@slTestEvalOnFail?5not?5found?6?$AA@ 10042bc8     xpcruntime:xpcimports.obj
 0002:00004be4       ??_C@_0BA@LBHLABFP@slTestTerminate?$AA@ 10042be4     xpcruntime:xpcimports.obj
 0002:00004bf4       ??_C@_0BL@EMFGKAPA@slTestTerminate?5not?5found?6?$AA@ 10042bf4     xpcruntime:xpcimports.obj
 0002:00004c10       ??_C@_0BE@JPNPBBEO@slTestRegAssessment?$AA@ 10042c10     xpcruntime:xpcimports.obj
 0002:00004c24       ??_C@_0BP@FBDEJJJH@slTestRegAssessment?5not?5found?6?$AA@ 10042c24     xpcruntime:xpcimports.obj
 0002:00004c44       __FPinit                   10042c44     LIBCMT:fpinit.obj
 0002:00004c50       ??_C@_1BI@BGOHAHKC@?$AAm?$AAs?$AAc?$AAo?$AAr?$AAe?$AAe?$AA?4?$AAd?$AAl?$AAl?$AA?$AA@ 10042c50     LIBCMT:crt0dat.obj
 0002:00004c68       ??_C@_0P@MIGLKIOC@CorExitProcess?$AA@ 10042c68     LIBCMT:crt0dat.obj
 0002:00004d04       ??_C@_17LGKOMLJ@?$AA?4?$AA?4?$AA?4?$AA?$AA@ 10042d04     LIBCMT:wassert.obj
 0002:00004d0c       ??_C@_13LBAGMAIH@?$AA?6?$AA?$AA@ 10042d0c     LIBCMT:wassert.obj
 0002:00004d10       ??_C@_15IABLJNFO@?$AA?6?$AA?6?$AA?$AA@ 10042d10     LIBCMT:wassert.obj
 0002:00004d18       ??_C@_1CE@OJBNHDMO@?$AAA?$AAs?$AAs?$AAe?$AAr?$AAt?$AAi?$AAo?$AAn?$AA?5?$AAf?$AAa?$AAi?$AAl?$AAe?$AAd?$AA?$CB?$AA?$AA@ 10042d18     LIBCMT:wassert.obj
 0002:00004d3c       ??_C@_1BE@PHKBBGE@?$AAP?$AAr?$AAo?$AAg?$AAr?$AAa?$AAm?$AA?3?$AA?5?$AA?$AA@ 10042d3c     LIBCMT:wassert.obj
 0002:00004d50       ??_C@_1CO@EAEJAADC@?$AA?$DM?$AAp?$AAr?$AAo?$AAg?$AAr?$AAa?$AAm?$AA?5?$AAn?$AAa?$AAm?$AAe?$AA?5?$AAu?$AAn?$AAk?$AAn?$AAo?$AAw?$AAn?$AA?$DO?$AA?$AA@ 10042d50     LIBCMT:wassert.obj
 0002:00004d80       ??_C@_1O@HEMHKNDC@?$AAF?$AAi?$AAl?$AAe?$AA?3?$AA?5?$AA?$AA@ 10042d80     LIBCMT:wassert.obj
 0002:00004d90       ??_C@_1O@KCAFKHJE@?$AAL?$AAi?$AAn?$AAe?$AA?3?$AA?5?$AA?$AA@ 10042d90     LIBCMT:wassert.obj
 0002:00004da0       ??_C@_1BK@PEDCIPMA@?$AAE?$AAx?$AAp?$AAr?$AAe?$AAs?$AAs?$AAi?$AAo?$AAn?$AA?3?$AA?5?$AA?$AA@ 10042da0     LIBCMT:wassert.obj
 0002:00004dc0       ??_C@_1OA@EGMLFBHJ@?$AAF?$AAo?$AAr?$AA?5?$AAi?$AAn?$AAf?$AAo?$AAr?$AAm?$AAa?$AAt?$AAi?$AAo?$AAn?$AA?5?$AAo?$AAn?$AA?5?$AAh?$AAo?$AAw?$AA?5?$AAy?$AAo?$AAu?$AAr?$AA?5?$AAp?$AAr?$AAo?$AAg@ 10042dc0     LIBCMT:wassert.obj
 0002:00004ea0       ??_C@_1HK@POCJMFGK@?$AA?$CI?$AAP?$AAr?$AAe?$AAs?$AAs?$AA?5?$AAR?$AAe?$AAt?$AAr?$AAy?$AA?5?$AAt?$AAo?$AA?5?$AAd?$AAe?$AAb?$AAu?$AAg?$AA?5?$AAt?$AAh?$AAe?$AA?5?$AAa?$AAp?$AAp?$AAl?$AAi?$AAc@ 10042ea0     LIBCMT:wassert.obj
 0002:00004f20       ??_C@_1EK@MBDPDCGA@?$AAM?$AAi?$AAc?$AAr?$AAo?$AAs?$AAo?$AAf?$AAt?$AA?5?$AAV?$AAi?$AAs?$AAu?$AAa?$AAl?$AA?5?$AAC?$AA?$CL?$AA?$CL?$AA?5?$AAR?$AAu?$AAn?$AAt?$AAi?$AAm?$AAe?$AA?5?$AAL?$AAi?$AAb@ 10042f20     LIBCMT:wassert.obj
 0002:00004f6c       __pDefaultRawDllMain       10042f6c     LIBCMT:dllcrt0.obj
 0002:00004f6c       __pRawDllMain              10042f6c     LIBCMT:dllcrt0.obj
 0002:00004f70       ?ProcessDetach@NativeDll@<CrtImplementationDetails>@@0IB 10042f70     LIBCMT:handler.obj
 0002:00004f74       ?ProcessAttach@NativeDll@<CrtImplementationDetails>@@0IB 10042f74     LIBCMT:handler.obj
 0002:00004f78       ?ThreadAttach@NativeDll@<CrtImplementationDetails>@@0IB 10042f78     LIBCMT:handler.obj
 0002:00004f7c       ?ThreadDetach@NativeDll@<CrtImplementationDetails>@@0IB 10042f7c     LIBCMT:handler.obj
 0002:00004f80       ?ProcessVerifier@NativeDll@<CrtImplementationDetails>@@0IB 10042f80     LIBCMT:handler.obj
 0002:00005040       ??_C@_1FK@PGACCAFB@?$AAR?$AA6?$AA0?$AA0?$AA2?$AA?$AN?$AA?6?$AA?9?$AA?5?$AAf?$AAl?$AAo?$AAa?$AAt?$AAi?$AAn?$AAg?$AA?5?$AAp?$AAo?$AAi?$AAn?$AAt?$AA?5?$AAs?$AAu?$AAp?$AAp?$AAo?$AAr?$AAt?$AA?5@ 10043040     LIBCMT:crt0msg.obj
 0002:000050a0       ??_C@_1FE@LLNEDJMD@?$AAR?$AA6?$AA0?$AA0?$AA8?$AA?$AN?$AA?6?$AA?9?$AA?5?$AAn?$AAo?$AAt?$AA?5?$AAe?$AAn?$AAo?$AAu?$AAg?$AAh?$AA?5?$AAs?$AAp?$AAa?$AAc?$AAe?$AA?5?$AAf?$AAo?$AAr?$AA?5?$AAa?$AAr@ 100430a0     LIBCMT:crt0msg.obj
 0002:000050f8       ??_C@_1FI@HONFMGBI@?$AAR?$AA6?$AA0?$AA0?$AA9?$AA?$AN?$AA?6?$AA?9?$AA?5?$AAn?$AAo?$AAt?$AA?5?$AAe?$AAn?$AAo?$AAu?$AAg?$AAh?$AA?5?$AAs?$AAp?$AAa?$AAc?$AAe?$AA?5?$AAf?$AAo?$AAr?$AA?5?$AAe?$AAn@ 100430f8     LIBCMT:crt0msg.obj
 0002:00005150       ??_C@_1EG@BEHAGFJD@?$AAR?$AA6?$AA0?$AA1?$AA0?$AA?$AN?$AA?6?$AA?9?$AA?5?$AAa?$AAb?$AAo?$AAr?$AAt?$AA?$CI?$AA?$CJ?$AA?5?$AAh?$AAa?$AAs?$AA?5?$AAb?$AAe?$AAe?$AAn?$AA?5?$AAc?$AAa?$AAl?$AAl?$AAe?$AAd@ 10043150     LIBCMT:crt0msg.obj
 0002:00005198       ??_C@_1FI@LOGNIKDM@?$AAR?$AA6?$AA0?$AA1?$AA6?$AA?$AN?$AA?6?$AA?9?$AA?5?$AAn?$AAo?$AAt?$AA?5?$AAe?$AAn?$AAo?$AAu?$AAg?$AAh?$AA?5?$AAs?$AAp?$AAa?$AAc?$AAe?$AA?5?$AAf?$AAo?$AAr?$AA?5?$AAt?$AAh@ 10043198     LIBCMT:crt0msg.obj
 0002:000051f0       ??_C@_1FK@BEOGODMC@?$AAR?$AA6?$AA0?$AA1?$AA7?$AA?$AN?$AA?6?$AA?9?$AA?5?$AAu?$AAn?$AAe?$AAx?$AAp?$AAe?$AAc?$AAt?$AAe?$AAd?$AA?5?$AAm?$AAu?$AAl?$AAt?$AAi?$AAt?$AAh?$AAr?$AAe?$AAa?$AAd?$AA?5@ 100431f0     LIBCMT:crt0msg.obj
 0002:00005250       ??_C@_1EC@JIBHAOPH@?$AAR?$AA6?$AA0?$AA1?$AA8?$AA?$AN?$AA?6?$AA?9?$AA?5?$AAu?$AAn?$AAe?$AAx?$AAp?$AAe?$AAc?$AAt?$AAe?$AAd?$AA?5?$AAh?$AAe?$AAa?$AAp?$AA?5?$AAe?$AAr?$AAr?$AAo?$AAr?$AA?$AN?$AA?6@ 10043250     LIBCMT:crt0msg.obj
 0002:00005298       ??_C@_1FC@ECHBIFBC@?$AAR?$AA6?$AA0?$AA1?$AA9?$AA?$AN?$AA?6?$AA?9?$AA?5?$AAu?$AAn?$AAa?$AAb?$AAl?$AAe?$AA?5?$AAt?$AAo?$AA?5?$AAo?$AAp?$AAe?$AAn?$AA?5?$AAc?$AAo?$AAn?$AAs?$AAo?$AAl?$AAe?$AA?5@ 10043298     LIBCMT:crt0msg.obj
 0002:000052f0       ??_C@_1GK@FHCKBEFA@?$AAR?$AA6?$AA0?$AA2?$AA4?$AA?$AN?$AA?6?$AA?9?$AA?5?$AAn?$AAo?$AAt?$AA?5?$AAe?$AAn?$AAo?$AAu?$AAg?$AAh?$AA?5?$AAs?$AAp?$AAa?$AAc?$AAe?$AA?5?$AAf?$AAo?$AAr?$AA?5?$AA_?$AAo@ 100432f0     LIBCMT:crt0msg.obj
 0002:00005360       ??_C@_1EM@MAADIHMB@?$AAR?$AA6?$AA0?$AA2?$AA5?$AA?$AN?$AA?6?$AA?9?$AA?5?$AAp?$AAu?$AAr?$AAe?$AA?5?$AAv?$AAi?$AAr?$AAt?$AAu?$AAa?$AAl?$AA?5?$AAf?$AAu?$AAn?$AAc?$AAt?$AAi?$AAo?$AAn?$AA?5?$AAc@ 10043360     LIBCMT:crt0msg.obj
 0002:000053b0       ??_C@_1GK@MCAAGJMO@?$AAR?$AA6?$AA0?$AA2?$AA6?$AA?$AN?$AA?6?$AA?9?$AA?5?$AAn?$AAo?$AAt?$AA?5?$AAe?$AAn?$AAo?$AAu?$AAg?$AAh?$AA?5?$AAs?$AAp?$AAa?$AAc?$AAe?$AA?5?$AAf?$AAo?$AAr?$AA?5?$AAs?$AAt@ 100433b0     LIBCMT:crt0msg.obj
 0002:00005420       ??_C@_1GK@MFGOKLAG@?$AAR?$AA6?$AA0?$AA2?$AA7?$AA?$AN?$AA?6?$AA?9?$AA?5?$AAn?$AAo?$AAt?$AA?5?$AAe?$AAn?$AAo?$AAu?$AAg?$AAh?$AA?5?$AAs?$AAp?$AAa?$AAc?$AAe?$AA?5?$AAf?$AAo?$AAr?$AA?5?$AAl?$AAo@ 10043420     LIBCMT:crt0msg.obj
 0002:00005490       ??_C@_1EK@HHFLMAOL@?$AAR?$AA6?$AA0?$AA2?$AA8?$AA?$AN?$AA?6?$AA?9?$AA?5?$AAu?$AAn?$AAa?$AAb?$AAl?$AAe?$AA?5?$AAt?$AAo?$AA?5?$AAi?$AAn?$AAi?$AAt?$AAi?$AAa?$AAl?$AAi?$AAz?$AAe?$AA?5?$AAh?$AAe@ 10043490     LIBCMT:crt0msg.obj
 0002:000054dc       ??_C@_1DO@BMFCDCD@?$AAR?$AA6?$AA0?$AA3?$AA0?$AA?$AN?$AA?6?$AA?9?$AA?5?$AAC?$AAR?$AAT?$AA?5?$AAn?$AAo?$AAt?$AA?5?$AAi?$AAn?$AAi?$AAt?$AAi?$AAa?$AAl?$AAi?$AAz?$AAe?$AAd?$AA?$AN?$AA?6?$AA?$AA@ 100434dc     LIBCMT:crt0msg.obj
 0002:00005520       ??_C@_1MG@ENCOOIDF@?$AAR?$AA6?$AA0?$AA3?$AA1?$AA?$AN?$AA?6?$AA?9?$AA?5?$AAA?$AAt?$AAt?$AAe?$AAm?$AAp?$AAt?$AA?5?$AAt?$AAo?$AA?5?$AAi?$AAn?$AAi?$AAt?$AAi?$AAa?$AAl?$AAi?$AAz?$AAe?$AA?5?$AAt@ 10043520     LIBCMT:crt0msg.obj
 0002:000055e8       ??_C@_1GG@GOPILAJP@?$AAR?$AA6?$AA0?$AA3?$AA2?$AA?$AN?$AA?6?$AA?9?$AA?5?$AAn?$AAo?$AAt?$AA?5?$AAe?$AAn?$AAo?$AAu?$AAg?$AAh?$AA?5?$AAs?$AAp?$AAa?$AAc?$AAe?$AA?5?$AAf?$AAo?$AAr?$AA?5?$AAl?$AAo@ 100435e8     LIBCMT:crt0msg.obj
 0002:00005650       ??_C@_1BOO@KGEDBGAJ@?$AAR?$AA6?$AA0?$AA3?$AA3?$AA?$AN?$AA?6?$AA?9?$AA?5?$AAA?$AAt?$AAt?$AAe?$AAm?$AAp?$AAt?$AA?5?$AAt?$AAo?$AA?5?$AAu?$AAs?$AAe?$AA?5?$AAM?$AAS?$AAI?$AAL?$AA?5?$AAc?$AAo?$AAd@ 10043650     LIBCMT:crt0msg.obj
 0002:00005840       ??_C@_1GG@MKFPEKFO@?$AAR?$AA6?$AA0?$AA3?$AA4?$AA?$AN?$AA?6?$AA?9?$AA?5?$AAi?$AAn?$AAc?$AAo?$AAn?$AAs?$AAi?$AAs?$AAt?$AAe?$AAn?$AAt?$AA?5?$AAo?$AAn?$AAe?$AAx?$AAi?$AAt?$AA?5?$AAb?$AAe?$AAg@ 10043840     LIBCMT:crt0msg.obj
 0002:000058a8       ??_C@_1BO@BFCDCGC@?$AAD?$AAO?$AAM?$AAA?$AAI?$AAN?$AA?5?$AAe?$AAr?$AAr?$AAo?$AAr?$AA?$AN?$AA?6?$AA?$AA@ 100438a8     LIBCMT:crt0msg.obj
 0002:000058c8       ??_C@_1BK@KMOMNAAI@?$AAS?$AAI?$AAN?$AAG?$AA?5?$AAe?$AAr?$AAr?$AAo?$AAr?$AA?$AN?$AA?6?$AA?$AA@ 100438c8     LIBCMT:crt0msg.obj
 0002:000058e4       ??_C@_1BM@JBBEPPHI@?$AAT?$AAL?$AAO?$AAS?$AAS?$AA?5?$AAe?$AAr?$AAr?$AAo?$AAr?$AA?$AN?$AA?6?$AA?$AA@ 100438e4     LIBCMT:crt0msg.obj
 0002:00005900       ??_C@_15JNBOKNOG@?$AA?$AN?$AA?6?$AA?$AA@ 10043900     LIBCMT:crt0msg.obj
 0002:00005908       ??_C@_1BO@BKOMIGKJ@?$AAr?$AAu?$AAn?$AAt?$AAi?$AAm?$AAe?$AA?5?$AAe?$AAr?$AAr?$AAo?$AAr?$AA?5?$AA?$AA@ 10043908     LIBCMT:crt0msg.obj
 0002:00005928       ??_C@_1DE@JNGNBFGO@?$AAR?$AAu?$AAn?$AAt?$AAi?$AAm?$AAe?$AA?5?$AAE?$AAr?$AAr?$AAo?$AAr?$AA?$CB?$AA?6?$AA?6?$AAP?$AAr?$AAo?$AAg?$AAr?$AAa?$AAm?$AA?3?$AA?5?$AA?$AA@ 10043928     LIBCMT:crt0msg.obj
 0002:0000595c       ??_C@_06OJHGLDPL@?$CInull?$CJ?$AA@ 1004395c     LIBCMT:output.obj
 0002:00005964       ??_C@_1O@CEDCILHN@?$AA?$CI?$AAn?$AAu?$AAl?$AAl?$AA?$CJ?$AA?$AA@ 10043964     LIBCMT:output.obj
 0002:00005978       ___lookuptable             10043978     LIBCMT:output.obj
 0002:000059d4       ??_C@_05KLBDPFGC@e?$CL000?$AA@ 100439d4     LIBCMT:cvt.obj
 0002:000059dc       ??_C@_1BK@MGMFAEKH@?$AAk?$AAe?$AAr?$AAn?$AAe?$AAl?$AA3?$AA2?$AA?4?$AAd?$AAl?$AAl?$AA?$AA@ 100439dc     LIBCMT:winapisupp.obj
 0002:000059f8       ??_C@_08KNHFBNJ@FlsAlloc?$AA@ 100439f8     LIBCMT:winapisupp.obj
 0002:00005a04       ??_C@_07PEJMOBNF@FlsFree?$AA@ 10043a04     LIBCMT:winapisupp.obj
 0002:00005a0c       ??_C@_0M@GDNOONDI@FlsGetValue?$AA@ 10043a0c     LIBCMT:winapisupp.obj
 0002:00005a18       ??_C@_0M@JCPCPOEF@FlsSetValue?$AA@ 10043a18     LIBCMT:winapisupp.obj
 0002:00005a24       ??_C@_0BM@HCFOFFN@InitializeCriticalSectionEx?$AA@ 10043a24     LIBCMT:winapisupp.obj
 0002:00005a40       ??_C@_0P@DLHPPCNH@CreateEventExW?$AA@ 10043a40     LIBCMT:winapisupp.obj
 0002:00005a50       ??_C@_0BD@KIEEOEEH@CreateSemaphoreExW?$AA@ 10043a50     LIBCMT:winapisupp.obj
 0002:00005a64       ??_C@_0BI@BKLFFAPO@SetThreadStackGuarantee?$AA@ 10043a64     LIBCMT:winapisupp.obj
 0002:00005a7c       ??_C@_0BG@OGFAJCKC@CreateThreadpoolTimer?$AA@ 10043a7c     LIBCMT:winapisupp.obj
 0002:00005a94       ??_C@_0BD@LPLEMMDI@SetThreadpoolTimer?$AA@ 10043a94     LIBCMT:winapisupp.obj
 0002:00005aa8       ??_C@_0CA@FMNJENH@WaitForThreadpoolTimerCallbacks?$AA@ 10043aa8     LIBCMT:winapisupp.obj
 0002:00005ac8       ??_C@_0BF@DCFCCNOC@CloseThreadpoolTimer?$AA@ 10043ac8     LIBCMT:winapisupp.obj
 0002:00005ae0       ??_C@_0BF@FLABGKKM@CreateThreadpoolWait?$AA@ 10043ae0     LIBCMT:winapisupp.obj
 0002:00005af8       ??_C@_0BC@MGCOHNA@SetThreadpoolWait?$AA@ 10043af8     LIBCMT:winapisupp.obj
 0002:00005b0c       ??_C@_0BE@OCIOMIMP@CloseThreadpoolWait?$AA@ 10043b0c     LIBCMT:winapisupp.obj
 0002:00005b20       ??_C@_0BJ@LKGHFHBO@FlushProcessWriteBuffers?$AA@ 10043b20     LIBCMT:winapisupp.obj
 0002:00005b3c       ??_C@_0BP@KALKKPMO@FreeLibraryWhenCallbackReturns?$AA@ 10043b3c     LIBCMT:winapisupp.obj
 0002:00005b5c       ??_C@_0BK@DFNBACLA@GetCurrentProcessorNumber?$AA@ 10043b5c     LIBCMT:winapisupp.obj
 0002:00005b78       ??_C@_0BP@KHGALBC@GetLogicalProcessorInformation?$AA@ 10043b78     LIBCMT:winapisupp.obj
 0002:00005b98       ??_C@_0BE@FKKLLFLM@CreateSymbolicLinkW?$AA@ 10043b98     LIBCMT:winapisupp.obj
 0002:00005bac       ??_C@_0BJ@OHNKDLIJ@SetDefaultDllDirectories?$AA@ 10043bac     LIBCMT:winapisupp.obj
 0002:00005bc8       ??_C@_0BE@LJANKFHF@EnumSystemLocalesEx?$AA@ 10043bc8     LIBCMT:winapisupp.obj
 0002:00005bdc       ??_C@_0BA@IHGNDAEB@CompareStringEx?$AA@ 10043bdc     LIBCMT:winapisupp.obj
 0002:00005bec       ??_C@_0BA@EPCJIIPD@GetDateFormatEx?$AA@ 10043bec     LIBCMT:winapisupp.obj
 0002:00005bfc       ??_C@_0BA@ONOKGCMP@GetLocaleInfoEx?$AA@ 10043bfc     LIBCMT:winapisupp.obj
 0002:00005c0c       ??_C@_0BA@CIJJKCJJ@GetTimeFormatEx?$AA@ 10043c0c     LIBCMT:winapisupp.obj
 0002:00005c1c       ??_C@_0BJ@PBCCBIPI@GetUserDefaultLocaleName?$AA@ 10043c1c     LIBCMT:winapisupp.obj
 0002:00005c38       ??_C@_0BC@CELBKLLA@IsValidLocaleName?$AA@ 10043c38     LIBCMT:winapisupp.obj
 0002:00005c4c       ??_C@_0O@KKBNKAPF@LCMapStringEx?$AA@ 10043c4c     LIBCMT:winapisupp.obj
 0002:00005c5c       ??_C@_0BE@JOGNEJCI@GetCurrentPackageId?$AA@ 10043c5c     LIBCMT:winapisupp.obj
 0002:00005c70       ??_C@_0P@CDHHOHKP@GetTickCount64?$AA@ 10043c70     LIBCMT:winapisupp.obj
 0002:00005c80       ??_C@_0BO@KPCLFDJJ@GetFileInformationByHandleExW?$AA@ 10043c80     LIBCMT:winapisupp.obj
 0002:00005ca0       ??_C@_0BM@MHIDLABK@SetFileInformationByHandleW?$AA@ 10043ca0     LIBCMT:winapisupp.obj
 0002:00005cbc       ??_C@_1BK@GAEMIDIL@?$AAA?$AAD?$AAV?$AAA?$AAP?$AAI?$AA3?$AA2?$AA?4?$AAD?$AAL?$AAL?$AA?$AA@ 10043cbc     LIBCMT:rand_s.obj
 0002:00005cd8       ??_C@_0BC@JEAENNKH@SystemFunction036?$AA@ 10043cd8     LIBCMT:rand_s.obj
 0002:00005cfc       ??_C@_1M@HPNHIDJI@?$AAj?$AAa?$AA?9?$AAJ?$AAP?$AA?$AA@ 10043cfc     LIBCMT:mbctype.obj
 0002:00005d08       ??_C@_1M@BIBDDEMK@?$AAz?$AAh?$AA?9?$AAC?$AAN?$AA?$AA@ 10043d08     LIBCMT:mbctype.obj
 0002:00005d14       ??_C@_1M@JLOOOEGK@?$AAk?$AAo?$AA?9?$AAK?$AAR?$AA?$AA@ 10043d14     LIBCMT:mbctype.obj
 0002:00005d20       ??_C@_1M@CLNBBOPM@?$AAz?$AAh?$AA?9?$AAT?$AAW?$AA?$AA@ 10043d20     LIBCMT:mbctype.obj
 0002:00005d4c       ??_C@_04FJHINJAO@tanh?$AA@ 10043d4c     LIBCMT:fpexcept.obj
 0002:00005d54       ??_C@_04FIHNOPOL@asin?$AA@ 10043d54     LIBCMT:fpexcept.obj
 0002:00005d5c       ??_C@_04PDIFKINK@acos?$AA@ 10043d5c     LIBCMT:fpexcept.obj
 0002:00005d64       ??_C@_04MLLJIGOK@atan?$AA@ 10043d64     LIBCMT:fpexcept.obj
 0002:00005d6c       ??_C@_05KNGEOGJB@atan2?$AA@ 10043d6c     LIBCMT:fpexcept.obj
 0002:00005d74       ??_C@_04EIAKFFMI@sqrt?$AA@ 10043d74     LIBCMT:fpexcept.obj
 0002:00005d7c       ??_C@_03BLEJJJBH@sin?$AA@  10043d7c     LIBCMT:fpexcept.obj
 0002:00005d80       ??_C@_03LALBNOCG@cos?$AA@  10043d80     LIBCMT:fpexcept.obj
 0002:00005d84       ??_C@_03IIINPABG@tan?$AA@  10043d84     LIBCMT:fpexcept.obj
 0002:00005d88       ??_C@_04GFPJNGEK@ceil?$AA@ 10043d88     LIBCMT:fpexcept.obj
 0002:00005d90       ??_C@_05PBJFFIGL@floor?$AA@ 10043d90     LIBCMT:fpexcept.obj
 0002:00005d98       ??_C@_04ODHECPBC@fabs?$AA@ 10043d98     LIBCMT:fpexcept.obj
 0002:00005da0       ??_C@_04EHEDPDJG@modf?$AA@ 10043da0     LIBCMT:fpexcept.obj
 0002:00005da8       ??_C@_05CEJMAHNP@ldexp?$AA@ 10043da8     LIBCMT:fpexcept.obj
 0002:00005db0       ??_C@_05KBKMEMPO@_cabs?$AA@ 10043db0     LIBCMT:fpexcept.obj
 0002:00005db8       ??_C@_06MEIMCGCF@_hypot?$AA@ 10043db8     LIBCMT:fpexcept.obj
 0002:00005dc0       ??_C@_04KEPJIHGP@fmod?$AA@ 10043dc0     LIBCMT:fpexcept.obj
 0002:00005dc8       ??_C@_05GKKHEGJL@frexp?$AA@ 10043dc8     LIBCMT:fpexcept.obj
 0002:00005dd0       ??_C@_03MJLDFKDL@_y0?$AA@  10043dd0     LIBCMT:fpexcept.obj
 0002:00005dd4       ??_C@_03NAKIGLHK@_y1?$AA@  10043dd4     LIBCMT:fpexcept.obj
 0002:00005dd8       ??_C@_03ONILCKOB@_yn?$AA@  10043dd8     LIBCMT:fpexcept.obj
 0002:00005ddc       ??_C@_05JGDBENOH@_logb?$AA@ 10043ddc     LIBCMT:fpexcept.obj
 0002:00005de4       ??_C@_0L@KDOEJCKC@_nextafter?$AA@ 10043de4     LIBCMT:fpexcept.obj
 0002:00005df0       ??_C@_03KHJOGHMM@exp?$AA@  10043df0     LIBCMT:fpexcept.obj
 0002:00005df4       ??_C@_03JGHBODFD@pow?$AA@  10043df4     LIBCMT:fpexcept.obj
 0002:00005df8       ??_C@_03MGHMBJCF@log?$AA@  10043df8     LIBCMT:fpexcept.obj
 0002:00005dfc       ??_C@_05HGHHAHAP@log10?$AA@ 10043dfc     LIBCMT:fpexcept.obj
 0002:00005e04       ??_C@_04COOMCNPB@sinh?$AA@ 10043e04     LIBCMT:fpexcept.obj
 0002:00005e0c       ??_C@_04HPJJNFIM@cosh?$AA@ 10043e0c     LIBCMT:fpexcept.obj
 0002:00005e14       ??_C@_1BG@GOEBHBDC@?$AAU?$AAS?$AAE?$AAR?$AA3?$AA2?$AA?4?$AAD?$AAL?$AAL?$AA?$AA@ 10043e14     LIBCMT:crtmboxw.obj
 0002:00005e2c       ??_C@_0M@DLDCCGNP@MessageBoxW?$AA@ 10043e2c     LIBCMT:crtmboxw.obj
 0002:00005e38       ??_C@_0BA@HNOPNCHB@GetActiveWindow?$AA@ 10043e38     LIBCMT:crtmboxw.obj
 0002:00005e48       ??_C@_0BD@HHGDFDBJ@GetLastActivePopup?$AA@ 10043e48     LIBCMT:crtmboxw.obj
 0002:00005e5c       ??_C@_0BK@DEKFELLI@GetUserObjectInformationW?$AA@ 10043e5c     LIBCMT:crtmboxw.obj
 0002:00005e78       ??_C@_0BI@DFKBFLJE@GetProcessWindowStation?$AA@ 10043e78     LIBCMT:crtmboxw.obj
 0002:00005e90       __XcptActTab               10043e90     LIBCMT:winxfltr.obj
 0002:00005f20       __XcptActTabCount          10043f20     LIBCMT:winxfltr.obj
 0002:00005f24       __XcptActTabSize           10043f24     LIBCMT:winxfltr.obj
 0002:00005f28       __First_FPE_Indx           10043f28     LIBCMT:winxfltr.obj
 0002:00005f2c       __Num_FPE                  10043f2c     LIBCMT:winxfltr.obj
 0002:00005f30       ___lookuptable_s           10043f30     LIBCMT:outputs.obj
 0002:00005f8c       ??_C@_03KOEHGMDN@Sun?$AA@  10043f8c     LIBCMT:nlsdata.obj
 0002:00005f90       ??_C@_03PDAGKDH@Mon?$AA@   10043f90     LIBCMT:nlsdata.obj
 0002:00005f94       ??_C@_03NAGEINEP@Tue?$AA@  10043f94     LIBCMT:nlsdata.obj
 0002:00005f98       ??_C@_03MHOMLAJA@Wed?$AA@  10043f98     LIBCMT:nlsdata.obj
 0002:00005f9c       ??_C@_03IOFIKPDN@Thu?$AA@  10043f9c     LIBCMT:nlsdata.obj
 0002:00005fa0       ??_C@_03IDIOELNC@Fri?$AA@  10043fa0     LIBCMT:nlsdata.obj
 0002:00005fa4       ??_C@_03FEFJNEK@Sat?$AA@   10043fa4     LIBCMT:nlsdata.obj
 0002:00005fa8       ??_C@_06OOPIFAJ@Sunday?$AA@ 10043fa8     LIBCMT:nlsdata.obj
 0002:00005fb0       ??_C@_06JLEDEDGH@Monday?$AA@ 10043fb0     LIBCMT:nlsdata.obj
 0002:00005fb8       ??_C@_07BAAGCFCM@Tuesday?$AA@ 10043fb8     LIBCMT:nlsdata.obj
 0002:00005fc0       ??_C@_09DLIGFAKA@Wednesday?$AA@ 10043fc0     LIBCMT:nlsdata.obj
 0002:00005fcc       ??_C@_08HACCIKIA@Thursday?$AA@ 10043fcc     LIBCMT:nlsdata.obj
 0002:00005fd8       ??_C@_06JECMNKMI@Friday?$AA@ 10043fd8     LIBCMT:nlsdata.obj
 0002:00005fe0       ??_C@_08INBOOONO@Saturday?$AA@ 10043fe0     LIBCMT:nlsdata.obj
 0002:00005fec       ??_C@_03JIHJHPIE@Jan?$AA@  10043fec     LIBCMT:nlsdata.obj
 0002:00005ff0       ??_C@_03HJBDCHOM@Feb?$AA@  10043ff0     LIBCMT:nlsdata.obj
 0002:00005ff4       ??_C@_03ODNJBKGA@Mar?$AA@  10043ff4     LIBCMT:nlsdata.obj
 0002:00005ff8       ??_C@_03LEOLGMJP@Apr?$AA@  10043ff8     LIBCMT:nlsdata.obj
 0002:00005ffc       ??_C@_03CNMDKL@May?$AA@    10043ffc     LIBCMT:nlsdata.obj
 0002:00006000       ??_C@_03IDFGHECI@Jun?$AA@  10044000     LIBCMT:nlsdata.obj
 0002:00006004       ??_C@_03LBGABGKK@Jul?$AA@  10044004     LIBCMT:nlsdata.obj
 0002:00006008       ??_C@_03IFJFEIGA@Aug?$AA@  10044008     LIBCMT:nlsdata.obj
 0002:0000600c       ??_C@_03GGCAPAJC@Sep?$AA@  1004400c     LIBCMT:nlsdata.obj
 0002:00006010       ??_C@_03BMAOKBAD@Oct?$AA@  10044010     LIBCMT:nlsdata.obj
 0002:00006014       ??_C@_03JPJOFNIA@Nov?$AA@  10044014     LIBCMT:nlsdata.obj
 0002:00006018       ??_C@_03MKABNOCG@Dec?$AA@  10044018     LIBCMT:nlsdata.obj
 0002:0000601c       ??_C@_07CGJPFGJA@January?$AA@ 1004401c     LIBCMT:nlsdata.obj
 0002:00006024       ??_C@_08GNJGEPFN@February?$AA@ 10044024     LIBCMT:nlsdata.obj
 0002:00006030       ??_C@_05HPCKOFNC@March?$AA@ 10044030     LIBCMT:nlsdata.obj
 0002:00006038       ??_C@_05DMJDNLEJ@April?$AA@ 10044038     LIBCMT:nlsdata.obj
 0002:00006040       ??_C@_04CNLMGBGM@June?$AA@ 10044040     LIBCMT:nlsdata.obj
 0002:00006048       ??_C@_04MIEPOIFP@July?$AA@ 10044048     LIBCMT:nlsdata.obj
 0002:00006050       ??_C@_06LBBHFDDG@August?$AA@ 10044050     LIBCMT:nlsdata.obj
 0002:00006058       ??_C@_09BHHEALKD@September?$AA@ 10044058     LIBCMT:nlsdata.obj
 0002:00006064       ??_C@_07JJNFCEND@October?$AA@ 10044064     LIBCMT:nlsdata.obj
 0002:0000606c       ??_C@_08HCHEGEOA@November?$AA@ 1004406c     LIBCMT:nlsdata.obj
 0002:00006078       ??_C@_08EDHMEBNP@December?$AA@ 10044078     LIBCMT:nlsdata.obj
 0002:00006084       ??_C@_02DEDBPAFC@AM?$AA@   10044084     LIBCMT:nlsdata.obj
 0002:00006088       ??_C@_02CJNFDJBF@PM?$AA@   10044088     LIBCMT:nlsdata.obj
 0002:0000608c       ??_C@_08BPBNCDIB@MM?1dd?1yy?$AA@ 1004408c     LIBCMT:nlsdata.obj
 0002:00006098       ??_C@_0BE@CKGJFCPC@dddd?0?5MMMM?5dd?0?5yyyy?$AA@ 10044098     LIBCMT:nlsdata.obj
 0002:000060ac       ??_C@_08JCCMCCIL@HH?3mm?3ss?$AA@ 100440ac     LIBCMT:nlsdata.obj
 0002:000060b8       ??_C@_17MBGCMIPB@?$AAS?$AAu?$AAn?$AA?$AA@ 100440b8     LIBCMT:nlsdata.obj
 0002:000060c0       ??_C@_17KBOMKBF@?$AAM?$AAo?$AAn?$AA?$AA@ 100440c0     LIBCMT:nlsdata.obj
 0002:000060c8       ??_C@_17BMKGEGOJ@?$AAT?$AAu?$AAe?$AA?$AA@ 100440c8     LIBCMT:nlsdata.obj
 0002:000060d0       ??_C@_17CJEDCEPE@?$AAW?$AAe?$AAd?$AA?$AA@ 100440d0     LIBCMT:nlsdata.obj
 0002:000060d8       ??_C@_17PDPHAADD@?$AAT?$AAh?$AAu?$AA?$AA@ 100440d8     LIBCMT:nlsdata.obj
 0002:000060e0       ??_C@_17HFOLPPLP@?$AAF?$AAr?$AAi?$AA?$AA@ 100440e0     LIBCMT:nlsdata.obj
 0002:000060e8       ??_C@_17GGIBDPIH@?$AAS?$AAa?$AAt?$AA?$AA@ 100440e8     LIBCMT:nlsdata.obj
 0002:000060f0       ??_C@_1O@IHNHDHPB@?$AAS?$AAu?$AAn?$AAd?$AAa?$AAy?$AA?$AA@ 100440f0     LIBCMT:nlsdata.obj
 0002:00006100       ??_C@_1O@MMNBFLIA@?$AAM?$AAo?$AAn?$AAd?$AAa?$AAy?$AA?$AA@ 10044100     LIBCMT:nlsdata.obj
 0002:00006110       ??_C@_1BA@ENFBFFEK@?$AAT?$AAu?$AAe?$AAs?$AAd?$AAa?$AAy?$AA?$AA@ 10044110     LIBCMT:nlsdata.obj
 0002:00006120       ??_C@_1BE@EBOGMDOH@?$AAW?$AAe?$AAd?$AAn?$AAe?$AAs?$AAd?$AAa?$AAy?$AA?$AA@ 10044120     LIBCMT:nlsdata.obj
 0002:00006134       ??_C@_1BC@HHMNLIHE@?$AAT?$AAh?$AAu?$AAr?$AAs?$AAd?$AAa?$AAy?$AA?$AA@ 10044134     LIBCMT:nlsdata.obj
 0002:00006148       ??_C@_1O@PDICJHAG@?$AAF?$AAr?$AAi?$AAd?$AAa?$AAy?$AA?$AA@ 10044148     LIBCMT:nlsdata.obj
 0002:00006158       ??_C@_1BC@ENMNNPAJ@?$AAS?$AAa?$AAt?$AAu?$AAr?$AAd?$AAa?$AAy?$AA?$AA@ 10044158     LIBCMT:nlsdata.obj
 0002:0000616c       ??_C@_17DKNBKCHM@?$AAJ?$AAa?$AAn?$AA?$AA@ 1004416c     LIBCMT:nlsdata.obj
 0002:00006174       ??_C@_17LMDJEKJN@?$AAF?$AAe?$AAb?$AA?$AA@ 10044174     LIBCMT:nlsdata.obj
 0002:0000617c       ??_C@_17CKNLEDEC@?$AAM?$AAa?$AAr?$AA?$AA@ 1004417c     LIBCMT:nlsdata.obj
 0002:00006184       ??_C@_17LFPOIHDD@?$AAA?$AAp?$AAr?$AA?$AA@ 10044184     LIBCMT:nlsdata.obj
 0002:0000618c       ??_C@_17PNNKMEED@?$AAM?$AAa?$AAy?$AA?$AA@ 1004418c     LIBCMT:nlsdata.obj
 0002:00006194       ??_C@_17KCJGOCPB@?$AAJ?$AAu?$AAn?$AA?$AA@ 10044194     LIBCMT:nlsdata.obj
 0002:0000619c       ??_C@_17IJPCKHK@?$AAJ?$AAu?$AAl?$AA?$AA@ 1004419c     LIBCMT:nlsdata.obj
 0002:000061a4       ??_C@_17ICPELBCN@?$AAA?$AAu?$AAg?$AA?$AA@ 100441a4     LIBCMT:nlsdata.obj
 0002:000061ac       ??_C@_17HCHCOKMG@?$AAS?$AAe?$AAp?$AA?$AA@ 100441ac     LIBCMT:nlsdata.obj
 0002:000061b4       ??_C@_17FNLKOI@?$AAO?$AAc?$AAt?$AA?$AA@ 100441b4     LIBCMT:nlsdata.obj
 0002:000061bc       ??_C@_17BBDMLCIG@?$AAN?$AAo?$AAv?$AA?$AA@ 100441bc     LIBCMT:nlsdata.obj
 0002:000061c4       ??_C@_17EGKACKIF@?$AAD?$AAe?$AAc?$AA?$AA@ 100441c4     LIBCMT:nlsdata.obj
 0002:000061cc       ??_C@_1BA@EFMEIEBA@?$AAJ?$AAa?$AAn?$AAu?$AAa?$AAr?$AAy?$AA?$AA@ 100441cc     LIBCMT:nlsdata.obj
 0002:000061dc       ??_C@_1BC@JGDDFFAM@?$AAF?$AAe?$AAb?$AAr?$AAu?$AAa?$AAr?$AAy?$AA?$AA@ 100441dc     LIBCMT:nlsdata.obj
 0002:000061f0       ??_C@_1M@IKEENEDF@?$AAM?$AAa?$AAr?$AAc?$AAh?$AA?$AA@ 100441f0     LIBCMT:nlsdata.obj
 0002:000061fc       ??_C@_1M@GJNLMHFD@?$AAA?$AAp?$AAr?$AAi?$AAl?$AA?$AA@ 100441fc     LIBCMT:nlsdata.obj
 0002:00006208       ??_C@_19EPFLPGAP@?$AAJ?$AAu?$AAn?$AAe?$AA?$AA@ 10044208     LIBCMT:nlsdata.obj
 0002:00006214       ??_C@_19BIFMLPCD@?$AAJ?$AAu?$AAl?$AAy?$AA?$AA@ 10044214     LIBCMT:nlsdata.obj
 0002:00006220       ??_C@_1O@PAHLKOAC@?$AAA?$AAu?$AAg?$AAu?$AAs?$AAt?$AA?$AA@ 10044220     LIBCMT:nlsdata.obj
 0002:00006230       ??_C@_1BE@DKAAMBJL@?$AAS?$AAe?$AAp?$AAt?$AAe?$AAm?$AAb?$AAe?$AAr?$AA?$AA@ 10044230     LIBCMT:nlsdata.obj
 0002:00006244       ??_C@_1BA@EPANDLNG@?$AAO?$AAc?$AAt?$AAo?$AAb?$AAe?$AAr?$AA?$AA@ 10044244     LIBCMT:nlsdata.obj
 0002:00006254       ??_C@_1BC@BGLIFPF@?$AAN?$AAo?$AAv?$AAe?$AAm?$AAb?$AAe?$AAr?$AA?$AA@ 10044254     LIBCMT:nlsdata.obj
 0002:00006268       ??_C@_1BC@FEMKIFH@?$AAD?$AAe?$AAc?$AAe?$AAm?$AAb?$AAe?$AAr?$AA?$AA@ 10044268     LIBCMT:nlsdata.obj
 0002:0000627c       ??_C@_15ODEHAHHF@?$AAA?$AAM?$AA?$AA@ 1004427c     LIBCMT:nlsdata.obj
 0002:00006284       ??_C@_15CLMNNGEL@?$AAP?$AAM?$AA?$AA@ 10044284     LIBCMT:nlsdata.obj
 0002:0000628c       ??_C@_1BC@IEBCMHCM@?$AAM?$AAM?$AA?1?$AAd?$AAd?$AA?1?$AAy?$AAy?$AA?$AA@ 1004428c     LIBCMT:nlsdata.obj
 0002:000062a0       ??_C@_1CI@KNAKOEBC@?$AAd?$AAd?$AAd?$AAd?$AA?0?$AA?5?$AAM?$AAM?$AAM?$AAM?$AA?5?$AAd?$AAd?$AA?0?$AA?5?$AAy?$AAy?$AAy?$AAy?$AA?$AA@ 100442a0     LIBCMT:nlsdata.obj
 0002:000062c8       ??_C@_1BC@GDGBMEMK@?$AAH?$AAH?$AA?3?$AAm?$AAm?$AA?3?$AAs?$AAs?$AA?$AA@ 100442c8     LIBCMT:nlsdata.obj
 0002:000062dc       ??_C@_1M@BMHNFIME@?$AAe?$AAn?$AA?9?$AAU?$AAS?$AA?$AA@ 100442dc     LIBCMT:nlsdata.obj
 0002:000062e8       _LcidToLocaleNameTable     100442e8     LIBCMT:winapinls.obj
 0002:00006a08       _LocaleNameToIndexTable    10044a08     LIBCMT:winapinls.obj
 0002:00007128       ??_C@_15EMKDOKLE@?$AAa?$AAr?$AA?$AA@ 10045128     LIBCMT:winapinls.obj
 0002:00007130       ??_C@_15KNPADPLH@?$AAb?$AAg?$AA?$AA@ 10045130     LIBCMT:winapinls.obj
 0002:00007138       ??_C@_15EDMHLDMO@?$AAc?$AAa?$AA?$AA@ 10045138     LIBCMT:winapinls.obj
 0002:00007140       ??_C@_1O@BPEAJADD@?$AAz?$AAh?$AA?9?$AAC?$AAH?$AAS?$AA?$AA@ 10045140     LIBCMT:winapinls.obj
 0002:00007150       ??_C@_15LJNHCMNK@?$AAc?$AAs?$AA?$AA@ 10045150     LIBCMT:winapinls.obj
 0002:00007158       ??_C@_15FOMCIDHG@?$AAd?$AAa?$AA?$AA@ 10045158     LIBCMT:winapinls.obj
 0002:00007160       ??_C@_15NBKABECB@?$AAd?$AAe?$AA?$AA@ 10045160     LIBCMT:winapinls.obj
 0002:00007168       ??_C@_15GHPEIIAO@?$AAe?$AAl?$AA?$AA@ 10045168     LIBCMT:winapinls.obj
 0002:00007170       ??_C@_15MNPNEAIF@?$AAe?$AAn?$AA?$AA@ 10045170     LIBCMT:winapinls.obj
 0002:00007178       ??_C@_15GPIOMPMH@?$AAe?$AAs?$AA?$AA@ 10045178     LIBCMT:winapinls.obj
 0002:00007180       ??_C@_15NGLOAKJC@?$AAf?$AAi?$AA?$AA@ 10045180     LIBCMT:winapinls.obj
 0002:00007188       ??_C@_15FBKGNKAM@?$AAf?$AAr?$AA?$AA@ 10045188     LIBCMT:winapinls.obj
 0002:00007190       ??_C@_15KGGCNEFK@?$AAh?$AAe?$AA?$AA@ 10045190     LIBCMT:winapinls.obj
 0002:00007198       ??_C@_15PGHLIDMF@?$AAh?$AAu?$AA?$AA@ 10045198     LIBCMT:winapinls.obj
 0002:000071a0       ??_C@_15BIEMAPLM@?$AAi?$AAs?$AA?$AA@ 100451a0     LIBCMT:winapinls.obj
 0002:000071a8       ??_C@_15IFJLDHAF@?$AAi?$AAt?$AA?$AA@ 100451a8     LIBCMT:winapinls.obj
 0002:000071b0       ??_C@_15GEMIOCAG@?$AAj?$AAa?$AA?$AA@ 100451b0     LIBCMT:winapinls.obj
 0002:000071b8       ??_C@_15EPELEGJA@?$AAk?$AAo?$AA?$AA@ 100451b8     LIBCMT:winapinls.obj
 0002:000071c0       ??_C@_15NDDHIMN@?$AAn?$AAl?$AA?$AA@ 100451c0     LIBCMT:winapinls.obj
 0002:000071c8       ??_C@_15BPIGNHCD@?$AAn?$AAo?$AA?$AA@ 100451c8     LIBCMT:winapinls.obj
 0002:000071d0       ??_C@_15DEOPBLCG@?$AAp?$AAl?$AA?$AA@ 100451d0     LIBCMT:winapinls.obj
 0002:000071d8       ??_C@_15KBECGEFG@?$AAp?$AAt?$AA?$AA@ 100451d8     LIBCMT:winapinls.obj
 0002:000071e0       ??_C@_15GLJCBFMD@?$AAr?$AAo?$AA?$AA@ 100451e0     LIBCMT:winapinls.obj
 0002:000071e8       ??_C@_15FEDGKCDI@?$AAr?$AAu?$AA?$AA@ 100451e8     LIBCMT:winapinls.obj
 0002:000071f0       ??_C@_15GLKMLLHM@?$AAh?$AAr?$AA?$AA@ 100451f0     LIBCMT:winapinls.obj
 0002:000071f8       ??_C@_15CPKMFBDB@?$AAs?$AAk?$AA?$AA@ 100451f8     LIBCMT:winapinls.obj
 0002:00007200       ??_C@_15BAAIOGMK@?$AAs?$AAq?$AA?$AA@ 10045200     LIBCMT:winapinls.obj
 0002:00007208       ??_C@_15INNPNOHD@?$AAs?$AAv?$AA?$AA@ 10045208     LIBCMT:winapinls.obj
 0002:00007210       ??_C@_15CABMMOGH@?$AAt?$AAh?$AA?$AA@ 10045210     LIBCMT:winapinls.obj
 0002:00007218       ??_C@_15BPLIHJJM@?$AAt?$AAr?$AA?$AA@ 10045218     LIBCMT:winapinls.obj
 0002:00007220       ??_C@_15NEOEKKDJ@?$AAu?$AAr?$AA?$AA@ 10045220     LIBCMT:winapinls.obj
 0002:00007228       ??_C@_15NFICGAJK@?$AAi?$AAd?$AA?$AA@ 10045228     LIBCMT:winapinls.obj
 0002:00007230       ??_C@_15PJPFLCCM@?$AAu?$AAk?$AA?$AA@ 10045230     LIBCMT:winapinls.obj
 0002:00007238       ??_C@_15HPJPHDM@?$AAb?$AAe?$AA?$AA@ 10045238     LIBCMT:winapinls.obj
 0002:00007240       ??_C@_15LCHLGJII@?$AAs?$AAl?$AA?$AA@ 10045240     LIBCMT:winapinls.obj
 0002:00007248       ??_C@_15PCFJPHHO@?$AAe?$AAt?$AA?$AA@ 10045248     LIBCMT:winapinls.obj
 0002:00007250       ??_C@_15HPFPGODN@?$AAl?$AAv?$AA?$AA@ 10045250     LIBCMT:winapinls.obj
 0002:00007258       ??_C@_15NFFGKGLG@?$AAl?$AAt?$AA?$AA@ 10045258     LIBCMT:winapinls.obj
 0002:00007260       ??_C@_15BDAKCCHN@?$AAf?$AAa?$AA?$AA@ 10045260     LIBCMT:winapinls.obj
 0002:00007268       ??_C@_15NFGIAIAJ@?$AAv?$AAi?$AA?$AA@ 10045268     LIBCMT:winapinls.obj
 0002:00007270       ??_C@_15LMKNDMHN@?$AAh?$AAy?$AA?$AA@ 10045270     LIBCMT:winapinls.obj
 0002:00007278       ??_C@_15IJBHMCFL@?$AAa?$AAz?$AA?$AA@ 10045278     LIBCMT:winapinls.obj
 0002:00007280       ??_C@_15EKOFJABL@?$AAe?$AAu?$AA?$AA@ 10045280     LIBCMT:winapinls.obj
 0002:00007288       ??_C@_15BGHADCNK@?$AAm?$AAk?$AA?$AA@ 10045288     LIBCMT:winapinls.obj
 0002:00007290       ??_C@_15JDNICKHM@?$AAa?$AAf?$AA?$AA@ 10045290     LIBCMT:winapinls.obj
 0002:00007298       ??_C@_15KPJEDBKD@?$AAk?$AAa?$AA?$AA@ 10045298     LIBCMT:winapinls.obj
 0002:000072a0       ??_C@_15PDNFFFEO@?$AAf?$AAo?$AA?$AA@ 100452a0     LIBCMT:winapinls.obj
 0002:000072a8       ??_C@_15OMLEGLOC@?$AAh?$AAi?$AA?$AA@ 100452a8     LIBCMT:winapinls.obj
 0002:000072b0       ??_C@_15IDNNENKK@?$AAm?$AAs?$AA?$AA@ 100452b0     LIBCMT:winapinls.obj
 0002:000072b8       ??_C@_15MACJNBMH@?$AAk?$AAk?$AA?$AA@ 100452b8     LIBCMT:winapinls.obj
 0002:000072c0       ??_C@_15DKDJEOND@?$AAk?$AAy?$AA?$AA@ 100452c0     LIBCMT:winapinls.obj
 0002:000072c8       ??_C@_15DFGDLJBG@?$AAs?$AAw?$AA?$AA@ 100452c8     LIBCMT:winapinls.obj
 0002:000072d0       ??_C@_15BBFAICNG@?$AAu?$AAz?$AA?$AA@ 100452d0     LIBCMT:winapinls.obj
 0002:000072d8       ??_C@_15DKNDCGEA@?$AAt?$AAt?$AA?$AA@ 100452d8     LIBCMT:winapinls.obj
 0002:000072e0       ??_C@_15MGIFMDPL@?$AAp?$AAa?$AA?$AA@ 100452e0     LIBCMT:winapinls.obj
 0002:000072e8       ??_C@_15HCNDBBA@?$AAg?$AAu?$AA?$AA@ 100452e8     LIBCMT:winapinls.obj
 0002:000072f0       ??_C@_15FNBEIBON@?$AAt?$AAa?$AA?$AA@ 100452f0     LIBCMT:winapinls.obj
 0002:000072f8       ??_C@_15NCHGBGLK@?$AAt?$AAe?$AA?$AA@ 100452f8     LIBCMT:winapinls.obj
 0002:00007300       ??_C@_15PHPHCBPF@?$AAk?$AAn?$AA?$AA@ 10045300     LIBCMT:winapinls.obj
 0002:00007308       ??_C@_15DLGBCKMP@?$AAm?$AAr?$AA?$AA@ 10045308     LIBCMT:winapinls.obj
 0002:00007310       ??_C@_15EABBLBFF@?$AAs?$AAa?$AA?$AA@ 10045310     LIBCMT:winapinls.obj
 0002:00007318       ??_C@_15CBKOMCOI@?$AAm?$AAn?$AA?$AA@ 10045318     LIBCMT:winapinls.obj
 0002:00007320       ??_C@_15CKDMCJAF@?$AAg?$AAl?$AA?$AA@ 10045320     LIBCMT:winapinls.obj
 0002:00007328       ??_C@_17CNJFBPG@?$AAk?$AAo?$AAk?$AA?$AA@ 10045328     LIBCMT:winapinls.obj
 0002:00007330       ??_C@_17FFBJICPL@?$AAs?$AAy?$AAr?$AA?$AA@ 10045330     LIBCMT:winapinls.obj
 0002:00007338       ??_C@_17KPNDCPAF@?$AAd?$AAi?$AAv?$AA?$AA@ 10045338     LIBCMT:winapinls.obj
 0002:00007340       ??_C@_11LOCGONAA@?$AA?$AA@ 10045340     LIBCMT:winapinls.obj
 0002:00007344       ??_C@_1M@OKAHONE@?$AAa?$AAr?$AA?9?$AAS?$AAA?$AA?$AA@ 10045344     LIBCMT:winapinls.obj
 0002:00007350       ??_C@_1M@FFFIGIGK@?$AAb?$AAg?$AA?9?$AAB?$AAG?$AA?$AA@ 10045350     LIBCMT:winapinls.obj
 0002:0000735c       ??_C@_1M@BJNKEDC@?$AAc?$AAa?$AA?9?$AAE?$AAS?$AA?$AA@ 1004535c     LIBCMT:winapinls.obj
 0002:00007368       ??_C@_1M@IJJHFJHA@?$AAc?$AAs?$AA?9?$AAC?$AAZ?$AA?$AA@ 10045368     LIBCMT:winapinls.obj
 0002:00007374       ??_C@_1M@CLPEOBGI@?$AAd?$AAa?$AA?9?$AAD?$AAK?$AA?$AA@ 10045374     LIBCMT:winapinls.obj
 0002:00007380       ??_C@_1M@MCMADGCB@?$AAd?$AAe?$AA?9?$AAD?$AAE?$AA?$AA@ 10045380     LIBCMT:winapinls.obj
 0002:0000738c       ??_C@_1M@OOCKEMAM@?$AAe?$AAl?$AA?9?$AAG?$AAR?$AA?$AA@ 1004538c     LIBCMT:winapinls.obj
 0002:00007398       ??_C@_1M@DDNJFGID@?$AAf?$AAi?$AA?9?$AAF?$AAI?$AA?$AA@ 10045398     LIBCMT:winapinls.obj
 0002:000073a4       ??_C@_1M@GLIPPMAC@?$AAf?$AAr?$AA?9?$AAF?$AAR?$AA?$AA@ 100453a4     LIBCMT:winapinls.obj
 0002:000073b0       ??_C@_1M@GFMCHPE@?$AAh?$AAe?$AA?9?$AAI?$AAL?$AA?$AA@ 100453b0     LIBCMT:winapinls.obj
 0002:000073bc       ??_C@_1M@MHLPGNKM@?$AAh?$AAu?$AA?9?$AAH?$AAU?$AA?$AA@ 100453bc     LIBCMT:winapinls.obj
 0002:000073c8       ??_C@_1M@LPDDNNPN@?$AAi?$AAs?$AA?9?$AAI?$AAS?$AA?$AA@ 100453c8     LIBCMT:winapinls.obj
 0002:000073d4       ??_C@_1M@MADIPODN@?$AAi?$AAt?$AA?9?$AAI?$AAT?$AA?$AA@ 100453d4     LIBCMT:winapinls.obj
 0002:000073e0       ??_C@_1M@IHBJJGG@?$AAn?$AAl?$AA?9?$AAN?$AAL?$AA?$AA@ 100453e0     LIBCMT:winapinls.obj
 0002:000073ec       ??_C@_1M@EANAGDL@?$AAn?$AAb?$AA?9?$AAN?$AAO?$AA?$AA@ 100453ec     LIBCMT:winapinls.obj
 0002:000073f8       ??_C@_1M@NEIEMEGP@?$AAp?$AAl?$AA?9?$AAP?$AAL?$AA?$AA@ 100453f8     LIBCMT:winapinls.obj
 0002:00007404       ??_C@_1M@BOCFIGEP@?$AAp?$AAt?$AA?9?$AAB?$AAR?$AA?$AA@ 10045404     LIBCMT:winapinls.obj
 0002:00007410       ??_C@_1M@IMPFOPBG@?$AAr?$AAo?$AA?9?$AAR?$AAO?$AA?$AA@ 10045410     LIBCMT:winapinls.obj
 0002:0000741c       ??_C@_1M@IDNNEJMM@?$AAr?$AAu?$AA?9?$AAR?$AAU?$AA?$AA@ 1004541c     LIBCMT:winapinls.obj
 0002:00007428       ??_C@_1M@LILEEOGM@?$AAh?$AAr?$AA?9?$AAH?$AAR?$AA?$AA@ 10045428     LIBCMT:winapinls.obj
 0002:00007434       ??_C@_1M@FKIFEHPB@?$AAs?$AAk?$AA?9?$AAS?$AAK?$AA?$AA@ 10045434     LIBCMT:winapinls.obj
 0002:00007440       ??_C@_1M@LJMAMNPJ@?$AAs?$AAq?$AA?9?$AAA?$AAL?$AA?$AA@ 10045440     LIBCMT:winapinls.obj
 0002:0000744c       ??_C@_1M@GIAKDKJK@?$AAs?$AAv?$AA?9?$AAS?$AAE?$AA?$AA@ 1004544c     LIBCMT:winapinls.obj
 0002:00007458       ??_C@_1M@MKJKIKCL@?$AAt?$AAh?$AA?9?$AAT?$AAH?$AA?$AA@ 10045458     LIBCMT:winapinls.obj
 0002:00007464       ??_C@_1M@MFLCCMPB@?$AAt?$AAr?$AA?9?$AAT?$AAR?$AA?$AA@ 10045464     LIBCMT:winapinls.obj
 0002:00007470       ??_C@_1M@OIJHDKJN@?$AAu?$AAr?$AA?9?$AAP?$AAK?$AA?$AA@ 10045470     LIBCMT:winapinls.obj
 0002:0000747c       ??_C@_1M@LHIPCIEK@?$AAi?$AAd?$AA?9?$AAI?$AAD?$AA?$AA@ 1004547c     LIBCMT:winapinls.obj
 0002:00007488       ??_C@_1M@MFMOBGI@?$AAu?$AAk?$AA?9?$AAU?$AAA?$AA?$AA@ 10045488     LIBCMT:winapinls.obj
 0002:00007494       ??_C@_1M@OBGLJIPL@?$AAb?$AAe?$AA?9?$AAB?$AAY?$AA?$AA@ 10045494     LIBCMT:winapinls.obj
 0002:000074a0       ??_C@_1M@BCFAJEAD@?$AAs?$AAl?$AA?9?$AAS?$AAI?$AA?$AA@ 100454a0     LIBCMT:winapinls.obj
 0002:000074ac       ??_C@_1M@FKFFEDDN@?$AAe?$AAt?$AA?9?$AAE?$AAE?$AA?$AA@ 100454ac     LIBCMT:winapinls.obj
 0002:000074b8       ??_C@_1M@KGKKAACI@?$AAl?$AAv?$AA?9?$AAL?$AAV?$AA?$AA@ 100454b8     LIBCMT:winapinls.obj
 0002:000074c4       ??_C@_1M@IFGBIJO@?$AAl?$AAt?$AA?9?$AAL?$AAT?$AA?$AA@ 100454c4     LIBCMT:winapinls.obj
 0002:000074d0       ??_C@_1M@FGEAHEDM@?$AAf?$AAa?$AA?9?$AAI?$AAR?$AA?$AA@ 100454d0     LIBCMT:winapinls.obj
 0002:000074dc       ??_C@_1M@KBMAIBFN@?$AAv?$AAi?$AA?9?$AAV?$AAN?$AA?$AA@ 100454dc     LIBCMT:winapinls.obj
 0002:000074e8       ??_C@_1M@GPCBKDJK@?$AAh?$AAy?$AA?9?$AAA?$AAM?$AA?$AA@ 100454e8     LIBCMT:winapinls.obj
 0002:000074f4       ??_C@_1BG@BECMDDJB@?$AAa?$AAz?$AA?9?$AAA?$AAZ?$AA?9?$AAL?$AAa?$AAt?$AAn?$AA?$AA@ 100454f4     LIBCMT:winapinls.obj
 0002:0000750c       ??_C@_1M@MAOFCAEA@?$AAe?$AAu?$AA?9?$AAE?$AAS?$AA?$AA@ 1004550c     LIBCMT:winapinls.obj
 0002:00007518       ??_C@_1M@IGHABKPI@?$AAm?$AAk?$AA?9?$AAM?$AAK?$AA?$AA@ 10045518     LIBCMT:winapinls.obj
 0002:00007524       ??_C@_1M@IAIGNEJG@?$AAt?$AAn?$AA?9?$AAZ?$AAA?$AA?$AA@ 10045524     LIBCMT:winapinls.obj
 0002:00007530       ??_C@_1M@IIJCOJFA@?$AAx?$AAh?$AA?9?$AAZ?$AAA?$AA?$AA@ 10045530     LIBCMT:winapinls.obj
 0002:0000753c       ??_C@_1M@LGPJHNJH@?$AAz?$AAu?$AA?9?$AAZ?$AAA?$AA?$AA@ 1004553c     LIBCMT:winapinls.obj
 0002:00007548       ??_C@_1M@HOKAOIO@?$AAa?$AAf?$AA?9?$AAZ?$AAA?$AA?$AA@ 10045548     LIBCMT:winapinls.obj
 0002:00007554       ??_C@_1M@DPCLHLIE@?$AAk?$AAa?$AA?9?$AAG?$AAE?$AA?$AA@ 10045554     LIBCMT:winapinls.obj
 0002:00007560       ??_C@_1M@BLKMHJBI@?$AAf?$AAo?$AA?9?$AAF?$AAO?$AA?$AA@ 10045560     LIBCMT:winapinls.obj
 0002:0000756c       ??_C@_1M@LGGJAPPB@?$AAh?$AAi?$AA?9?$AAI?$AAN?$AA?$AA@ 1004556c     LIBCMT:winapinls.obj
 0002:00007578       ??_C@_1M@FIKPIHFE@?$AAm?$AAt?$AA?9?$AAM?$AAT?$AA?$AA@ 10045578     LIBCMT:winapinls.obj
 0002:00007584       ??_C@_1M@HEGGPBFA@?$AAs?$AAe?$AA?9?$AAN?$AAO?$AA?$AA@ 10045584     LIBCMT:winapinls.obj
 0002:00007590       ??_C@_1M@EIBJEEPA@?$AAm?$AAs?$AA?9?$AAM?$AAY?$AA?$AA@ 10045590     LIBCMT:winapinls.obj
 0002:0000759c       ??_C@_1M@FHLBGMPP@?$AAk?$AAk?$AA?9?$AAK?$AAZ?$AA?$AA@ 1004559c     LIBCMT:winapinls.obj
 0002:000075a8       ??_C@_1M@NGJJLCGI@?$AAk?$AAy?$AA?9?$AAK?$AAG?$AA?$AA@ 100455a8     LIBCMT:winapinls.obj
 0002:000075b4       ??_C@_1M@GIENNBFC@?$AAs?$AAw?$AA?9?$AAK?$AAE?$AA?$AA@ 100455b4     LIBCMT:winapinls.obj
 0002:000075c0       ??_C@_1BG@NDGMJIMJ@?$AAu?$AAz?$AA?9?$AAU?$AAZ?$AA?9?$AAL?$AAa?$AAt?$AAn?$AA?$AA@ 100455c0     LIBCMT:winapinls.obj
 0002:000075d8       ??_C@_1M@IDCCIHBC@?$AAt?$AAt?$AA?9?$AAR?$AAU?$AA?$AA@ 100455d8     LIBCMT:winapinls.obj
 0002:000075e4       ??_C@_1M@LOICPMOJ@?$AAb?$AAn?$AA?9?$AAI?$AAN?$AA?$AA@ 100455e4     LIBCMT:winapinls.obj
 0002:000075f0       ??_C@_1M@KPKKNEAH@?$AAp?$AAa?$AA?9?$AAI?$AAN?$AA?$AA@ 100455f0     LIBCMT:winapinls.obj
 0002:000075fc       ??_C@_1M@PJGPPBOG@?$AAg?$AAu?$AA?9?$AAI?$AAN?$AA?$AA@ 100455fc     LIBCMT:winapinls.obj
 0002:00007608       ??_C@_1M@KMKMOPHI@?$AAt?$AAa?$AA?9?$AAI?$AAN?$AA?$AA@ 10045608     LIBCMT:winapinls.obj
 0002:00007614       ??_C@_1M@KFEHEPAC@?$AAt?$AAe?$AA?9?$AAI?$AAN?$AA?$AA@ 10045614     LIBCMT:winapinls.obj
 0002:00007620       ??_C@_1M@CDCLMGHI@?$AAk?$AAn?$AA?9?$AAI?$AAN?$AA?$AA@ 10045620     LIBCMT:winapinls.obj
 0002:0000762c       ??_C@_1M@MIODLDKF@?$AAm?$AAl?$AA?9?$AAI?$AAN?$AA?$AA@ 1004562c     LIBCMT:winapinls.obj
 0002:00007638       ??_C@_1M@PBIEACPO@?$AAm?$AAr?$AA?9?$AAI?$AAN?$AA?$AA@ 10045638     LIBCMT:winapinls.obj
 0002:00007644       ??_C@_1M@NIDEAGPH@?$AAs?$AAa?$AA?9?$AAI?$AAN?$AA?$AA@ 10045644     LIBCMT:winapinls.obj
 0002:00007650       ??_C@_1M@FHIHCBIO@?$AAm?$AAn?$AA?9?$AAM?$AAN?$AA?$AA@ 10045650     LIBCMT:winapinls.obj
 0002:0000765c       ??_C@_1M@JAIJPENP@?$AAc?$AAy?$AA?9?$AAG?$AAB?$AA?$AA@ 1004565c     LIBCMT:winapinls.obj
 0002:00007668       ??_C@_1M@PHGFBEPN@?$AAg?$AAl?$AA?9?$AAE?$AAS?$AA?$AA@ 10045668     LIBCMT:winapinls.obj
 0002:00007674       ??_C@_1O@KPIPDNCP@?$AAk?$AAo?$AAk?$AA?9?$AAI?$AAN?$AA?$AA@ 10045674     LIBCMT:winapinls.obj
 0002:00007684       ??_C@_1O@KNHJLDJA@?$AAs?$AAy?$AAr?$AA?9?$AAS?$AAY?$AA?$AA@ 10045684     LIBCMT:winapinls.obj
 0002:00007694       ??_C@_1O@MKEKBLAH@?$AAd?$AAi?$AAv?$AA?9?$AAM?$AAV?$AA?$AA@ 10045694     LIBCMT:winapinls.obj
 0002:000076a4       ??_C@_1O@OHDCKDDF@?$AAq?$AAu?$AAz?$AA?9?$AAB?$AAO?$AA?$AA@ 100456a4     LIBCMT:winapinls.obj
 0002:000076b4       ??_C@_1M@LEPJNLFD@?$AAn?$AAs?$AA?9?$AAZ?$AAA?$AA?$AA@ 100456b4     LIBCMT:winapinls.obj
 0002:000076c0       ??_C@_1M@OMLEIIJB@?$AAm?$AAi?$AA?9?$AAN?$AAZ?$AA?$AA@ 100456c0     LIBCMT:winapinls.obj
 0002:000076cc       ??_C@_1M@PMPEAILG@?$AAa?$AAr?$AA?9?$AAI?$AAQ?$AA?$AA@ 100456cc     LIBCMT:winapinls.obj
 0002:000076d8       ??_C@_1M@CNKPNOEE@?$AAd?$AAe?$AA?9?$AAC?$AAH?$AA?$AA@ 100456d8     LIBCMT:winapinls.obj
 0002:000076e4       ??_C@_1M@LKMGMLKO@?$AAe?$AAn?$AA?9?$AAG?$AAB?$AA?$AA@ 100456e4     LIBCMT:winapinls.obj
 0002:000076f0       ??_C@_1M@PGKJFFGL@?$AAe?$AAs?$AA?9?$AAM?$AAX?$AA?$AA@ 100456f0     LIBCMT:winapinls.obj
 0002:000076fc       ??_C@_1M@DNNANBDC@?$AAf?$AAr?$AA?9?$AAB?$AAE?$AA?$AA@ 100456fc     LIBCMT:winapinls.obj
 0002:00007708       ??_C@_1M@HLGMDFHM@?$AAi?$AAt?$AA?9?$AAC?$AAH?$AA?$AA@ 10045708     LIBCMT:winapinls.obj
 0002:00007714       ??_C@_1M@CLLBGJH@?$AAn?$AAl?$AA?9?$AAB?$AAE?$AA?$AA@ 10045714     LIBCMT:winapinls.obj
 0002:00007720       ??_C@_1M@BODBOGLF@?$AAn?$AAn?$AA?9?$AAN?$AAO?$AA?$AA@ 10045720     LIBCMT:winapinls.obj
 0002:0000772c       ??_C@_1M@HFFAHKAD@?$AAp?$AAt?$AA?9?$AAP?$AAT?$AA?$AA@ 1004572c     LIBCMT:winapinls.obj
 0002:00007738       ??_C@_1BG@LNOAKHIE@?$AAs?$AAr?$AA?9?$AAS?$AAP?$AA?9?$AAL?$AAa?$AAt?$AAn?$AA?$AA@ 10045738     LIBCMT:winapinls.obj
 0002:00007750       ??_C@_1M@HBMHBGAK@?$AAs?$AAv?$AA?9?$AAF?$AAI?$AA?$AA@ 10045750     LIBCMT:winapinls.obj
 0002:0000775c       ??_C@_1BG@DGCJGJBE@?$AAa?$AAz?$AA?9?$AAA?$AAZ?$AA?9?$AAC?$AAy?$AAr?$AAl?$AA?$AA@ 1004575c     LIBCMT:winapinls.obj
 0002:00007774       ??_C@_1M@KEJDAAHB@?$AAs?$AAe?$AA?9?$AAS?$AAE?$AA?$AA@ 10045774     LIBCMT:winapinls.obj
 0002:00007780       ??_C@_1M@HEIBJJAD@?$AAm?$AAs?$AA?9?$AAB?$AAN?$AA?$AA@ 10045780     LIBCMT:winapinls.obj
 0002:0000778c       ??_C@_1BG@PBGJMCEM@?$AAu?$AAz?$AA?9?$AAU?$AAZ?$AA?9?$AAC?$AAy?$AAr?$AAl?$AA?$AA@ 1004578c     LIBCMT:winapinls.obj
 0002:000077a4       ??_C@_1O@LAOBCMDF@?$AAq?$AAu?$AAz?$AA?9?$AAE?$AAC?$AA?$AA@ 100457a4     LIBCMT:winapinls.obj
 0002:000077b4       ??_C@_1M@POEEMAIO@?$AAa?$AAr?$AA?9?$AAE?$AAG?$AA?$AA@ 100457b4     LIBCMT:winapinls.obj
 0002:000077c0       ??_C@_1M@EFAKDEDL@?$AAz?$AAh?$AA?9?$AAH?$AAK?$AA?$AA@ 100457c0     LIBCMT:winapinls.obj
 0002:000077cc       ??_C@_1M@HKKIJHGI@?$AAd?$AAe?$AA?9?$AAA?$AAT?$AA?$AA@ 100457cc     LIBCMT:winapinls.obj
 0002:000077d8       ??_C@_1M@KBFBEHJF@?$AAe?$AAn?$AA?9?$AAA?$AAU?$AA?$AA@ 100457d8     LIBCMT:winapinls.obj
 0002:000077e4       ??_C@_1M@MNPLFAAH@?$AAe?$AAs?$AA?9?$AAE?$AAS?$AA?$AA@ 100457e4     LIBCMT:winapinls.obj
 0002:000077f0       ??_C@_1M@HJOOJFMA@?$AAf?$AAr?$AA?9?$AAC?$AAA?$AA?$AA@ 100457f0     LIBCMT:winapinls.obj
 0002:000077fc       ??_C@_1BG@JPOFPNAB@?$AAs?$AAr?$AA?9?$AAS?$AAP?$AA?9?$AAC?$AAy?$AAr?$AAl?$AA?$AA@ 100457fc     LIBCMT:winapinls.obj
 0002:00007814       ??_C@_1M@LNFOCMOB@?$AAs?$AAe?$AA?9?$AAF?$AAI?$AA?$AA@ 10045814     LIBCMT:winapinls.obj
 0002:00007820       ??_C@_1O@MGJBOAMB@?$AAq?$AAu?$AAz?$AA?9?$AAP?$AAE?$AA?$AA@ 10045820     LIBCMT:winapinls.obj
 0002:00007830       ??_C@_1M@GJINLBOK@?$AAa?$AAr?$AA?9?$AAL?$AAY?$AA?$AA@ 10045830     LIBCMT:winapinls.obj
 0002:0000783c       ??_C@_1M@GGMNHJNL@?$AAz?$AAh?$AA?9?$AAS?$AAG?$AA?$AA@ 1004583c     LIBCMT:winapinls.obj
 0002:00007848       ??_C@_1M@HOIKODND@?$AAd?$AAe?$AA?9?$AAL?$AAU?$AA?$AA@ 10045848     LIBCMT:winapinls.obj
 0002:00007854       ??_C@_1M@DDOCCGFG@?$AAe?$AAn?$AA?9?$AAC?$AAA?$AA?$AA@ 10045854     LIBCMT:winapinls.obj
 0002:00007860       ??_C@_1M@BNOEMJLF@?$AAe?$AAs?$AA?9?$AAG?$AAT?$AA?$AA@ 10045860     LIBCMT:winapinls.obj
 0002:0000786c       ??_C@_1M@EOGNKEK@?$AAf?$AAr?$AA?9?$AAC?$AAH?$AA?$AA@ 1004586c     LIBCMT:winapinls.obj
 0002:00007878       ??_C@_1M@FLIDJFHL@?$AAh?$AAr?$AA?9?$AAB?$AAA?$AA?$AA@ 10045878     LIBCMT:winapinls.obj
 0002:00007884       ??_C@_1O@FMCELNAJ@?$AAs?$AAm?$AAj?$AA?9?$AAN?$AAO?$AA?$AA@ 10045884     LIBCMT:winapinls.obj
 0002:00007894       ??_C@_1M@JHGLJMGJ@?$AAa?$AAr?$AA?9?$AAD?$AAZ?$AA?$AA@ 10045894     LIBCMT:winapinls.obj
 0002:000078a0       ??_C@_1M@JKKFDCNP@?$AAz?$AAh?$AA?9?$AAM?$AAO?$AA?$AA@ 100458a0     LIBCMT:winapinls.obj
 0002:000078ac       ??_C@_1M@GEEFALPE@?$AAd?$AAe?$AA?9?$AAL?$AAI?$AA?$AA@ 100458ac     LIBCMT:winapinls.obj
 0002:000078b8       ??_C@_1M@IGEOFBG@?$AAe?$AAn?$AA?9?$AAN?$AAZ?$AA?$AA@ 100458b8     LIBCMT:winapinls.obj
 0002:000078c4       ??_C@_1M@KDBONEHP@?$AAe?$AAs?$AA?9?$AAC?$AAR?$AA?$AA@ 100458c4     LIBCMT:winapinls.obj
 0002:000078d0       ??_C@_1M@FHMDOHNN@?$AAf?$AAr?$AA?9?$AAL?$AAU?$AA?$AA@ 100458d0     LIBCMT:winapinls.obj
 0002:000078dc       ??_C@_1BG@NFKKMAFG@?$AAb?$AAs?$AA?9?$AAB?$AAA?$AA?9?$AAL?$AAa?$AAt?$AAn?$AA?$AA@ 100458dc     LIBCMT:winapinls.obj
 0002:000078f4       ??_C@_1O@IMNBEMCI@?$AAs?$AAm?$AAj?$AA?9?$AAS?$AAE?$AA?$AA@ 100458f4     LIBCMT:winapinls.obj
 0002:00007904       ??_C@_1M@DHHMBNDP@?$AAa?$AAr?$AA?9?$AAM?$AAA?$AA?$AA@ 10045904     LIBCMT:winapinls.obj
 0002:00007910       ??_C@_1M@BNBLJCGH@?$AAe?$AAn?$AA?9?$AAI?$AAE?$AA?$AA@ 10045910     LIBCMT:winapinls.obj
 0002:0000791c       ??_C@_1M@GEPAFMDL@?$AAe?$AAs?$AA?9?$AAP?$AAA?$AA?$AA@ 1004591c     LIBCMT:winapinls.obj
 0002:00007928       ??_C@_1M@OJONDMDL@?$AAf?$AAr?$AA?9?$AAM?$AAC?$AA?$AA@ 10045928     LIBCMT:winapinls.obj
 0002:00007934       ??_C@_1BG@OBCNFJB@?$AAs?$AAr?$AA?9?$AAB?$AAA?$AA?9?$AAL?$AAa?$AAt?$AAn?$AA?$AA@ 10045934     LIBCMT:winapinls.obj
 0002:0000794c       ??_C@_1O@KEMEEGPO@?$AAs?$AAm?$AAa?$AA?9?$AAN?$AAO?$AA?$AA@ 1004594c     LIBCMT:winapinls.obj
 0002:0000795c       ??_C@_1M@ELMGFODK@?$AAa?$AAr?$AA?9?$AAT?$AAN?$AA?$AA@ 1004595c     LIBCMT:winapinls.obj
 0002:00007968       ??_C@_1M@BHDLHFAF@?$AAe?$AAn?$AA?9?$AAZ?$AAA?$AA?$AA@ 10045968     LIBCMT:winapinls.obj
 0002:00007974       ??_C@_1M@BMGIGLIF@?$AAe?$AAs?$AA?9?$AAD?$AAO?$AA?$AA@ 10045974     LIBCMT:winapinls.obj
 0002:00007980       ??_C@_1BG@CMBHIPBE@?$AAs?$AAr?$AA?9?$AAB?$AAA?$AA?9?$AAC?$AAy?$AAr?$AAl?$AA?$AA@ 10045980     LIBCMT:winapinls.obj
 0002:00007998       ??_C@_1O@HEDBLHNP@?$AAs?$AAm?$AAa?$AA?9?$AAS?$AAE?$AA?$AA@ 10045998     LIBCMT:winapinls.obj
 0002:000079a8       ??_C@_1M@DAGCADIM@?$AAa?$AAr?$AA?9?$AAO?$AAM?$AA?$AA@ 100459a8     LIBCMT:winapinls.obj
 0002:000079b4       ??_C@_1M@FODLMICG@?$AAe?$AAn?$AA?9?$AAJ?$AAM?$AA?$AA@ 100459b4     LIBCMT:winapinls.obj
 0002:000079c0       ??_C@_1M@DNMLCIHB@?$AAe?$AAs?$AA?9?$AAV?$AAE?$AA?$AA@ 100459c0     LIBCMT:winapinls.obj
 0002:000079cc       ??_C@_1O@EOKHMKJK@?$AAs?$AAm?$AAs?$AA?9?$AAF?$AAI?$AA?$AA@ 100459cc     LIBCMT:winapinls.obj
 0002:000079dc       ??_C@_1M@CAFJMKOF@?$AAa?$AAr?$AA?9?$AAY?$AAE?$AA?$AA@ 100459dc     LIBCMT:winapinls.obj
 0002:000079e8       ??_C@_1M@CBFHIJLI@?$AAe?$AAn?$AA?9?$AAC?$AAB?$AA?$AA@ 100459e8     LIBCMT:winapinls.obj
 0002:000079f4       ??_C@_1M@BGNFLDN@?$AAe?$AAs?$AA?9?$AAC?$AAO?$AA?$AA@ 100459f4     LIBCMT:winapinls.obj
 0002:00007a00       ??_C@_1O@JMPHMAMC@?$AAs?$AAm?$AAn?$AA?9?$AAF?$AAI?$AA?$AA@ 10045a00     LIBCMT:winapinls.obj
 0002:00007a10       ??_C@_1M@JLANABKE@?$AAa?$AAr?$AA?9?$AAS?$AAY?$AA?$AA@ 10045a10     LIBCMT:winapinls.obj
 0002:00007a1c       ??_C@_1M@HPKGCFGN@?$AAe?$AAn?$AA?9?$AAB?$AAZ?$AA?$AA@ 10045a1c     LIBCMT:winapinls.obj
 0002:00007a28       ??_C@_1M@OLJCMLGM@?$AAe?$AAs?$AA?9?$AAP?$AAE?$AA?$AA@ 10045a28     LIBCMT:winapinls.obj
 0002:00007a34       ??_C@_1M@MKKGFKLE@?$AAa?$AAr?$AA?9?$AAJ?$AAO?$AA?$AA@ 10045a34     LIBCMT:winapinls.obj
 0002:00007a40       ??_C@_1M@EKPGLDNI@?$AAe?$AAn?$AA?9?$AAT?$AAT?$AA?$AA@ 10045a40     LIBCMT:winapinls.obj
 0002:00007a4c       ??_C@_1M@OONGHFHE@?$AAe?$AAs?$AA?9?$AAA?$AAR?$AA?$AA@ 10045a4c     LIBCMT:winapinls.obj
 0002:00007a58       ??_C@_1M@OOJFGBHE@?$AAa?$AAr?$AA?9?$AAL?$AAB?$AA?$AA@ 10045a58     LIBCMT:winapinls.obj
 0002:00007a64       ??_C@_1M@GCEJHNEG@?$AAe?$AAn?$AA?9?$AAZ?$AAW?$AA?$AA@ 10045a64     LIBCMT:winapinls.obj
 0002:00007a70       ??_C@_1M@JNOCAHJI@?$AAe?$AAs?$AA?9?$AAE?$AAC?$AA?$AA@ 10045a70     LIBCMT:winapinls.obj
 0002:00007a7c       ??_C@_1M@JEFHPGGB@?$AAa?$AAr?$AA?9?$AAK?$AAW?$AA?$AA@ 10045a7c     LIBCMT:winapinls.obj
 0002:00007a88       ??_C@_1M@MLKIBJOJ@?$AAe?$AAn?$AA?9?$AAP?$AAH?$AA?$AA@ 10045a88     LIBCMT:winapinls.obj
 0002:00007a94       ??_C@_1M@BDNIPEND@?$AAe?$AAs?$AA?9?$AAC?$AAL?$AA?$AA@ 10045a94     LIBCMT:winapinls.obj
 0002:00007aa0       ??_C@_1M@MPNMEKBD@?$AAa?$AAr?$AA?9?$AAA?$AAE?$AA?$AA@ 10045aa0     LIBCMT:winapinls.obj
 0002:00007aac       ??_C@_1M@KBJALCPI@?$AAe?$AAs?$AA?9?$AAU?$AAY?$AA?$AA@ 10045aac     LIBCMT:winapinls.obj
 0002:00007ab8       ??_C@_1M@LLCCOAGA@?$AAa?$AAr?$AA?9?$AAB?$AAH?$AA?$AA@ 10045ab8     LIBCMT:winapinls.obj
 0002:00007ac4       ??_C@_1M@PBFNCDEL@?$AAe?$AAs?$AA?9?$AAP?$AAY?$AA?$AA@ 10045ac4     LIBCMT:winapinls.obj
 0002:00007ad0       ??_C@_1M@EDGINPNP@?$AAa?$AAr?$AA?9?$AAQ?$AAA?$AA?$AA@ 10045ad0     LIBCMT:winapinls.obj
 0002:00007adc       ??_C@_1M@MKDBIIJI@?$AAe?$AAs?$AA?9?$AAB?$AAO?$AA?$AA@ 10045adc     LIBCMT:winapinls.obj
 0002:00007ae8       ??_C@_1M@CPKKEBLD@?$AAe?$AAs?$AA?9?$AAS?$AAV?$AA?$AA@ 10045ae8     LIBCMT:winapinls.obj
 0002:00007af4       ??_C@_1M@NDBGMMJL@?$AAe?$AAs?$AA?9?$AAH?$AAN?$AA?$AA@ 10045af4     LIBCMT:winapinls.obj
 0002:00007b00       ??_C@_1M@JIJIBHDP@?$AAe?$AAs?$AA?9?$AAN?$AAI?$AA?$AA@ 10045b00     LIBCMT:winapinls.obj
 0002:00007b0c       ??_C@_1M@CGFMKEEK@?$AAe?$AAs?$AA?9?$AAP?$AAR?$AA?$AA@ 10045b0c     LIBCMT:winapinls.obj
 0002:00007b18       ??_C@_1O@ICJHKIIK@?$AAz?$AAh?$AA?9?$AAC?$AAH?$AAT?$AA?$AA@ 10045b18     LIBCMT:winapinls.obj
 0002:00007b28       ??_C@_15CLNEJCE@?$AAs?$AAr?$AA?$AA@ 10045b28     LIBCMT:winapinls.obj
 0002:00007b30       ??_C@_1M@KAHEKEIG@?$AAa?$AAf?$AA?9?$AAz?$AAa?$AA?$AA@ 10045b30     LIBCMT:winapinls.obj
 0002:00007b3c       ??_C@_1M@GIECOABL@?$AAa?$AAr?$AA?9?$AAa?$AAe?$AA?$AA@ 10045b3c     LIBCMT:winapinls.obj
 0002:00007b48       ??_C@_1M@BMLMEKGI@?$AAa?$AAr?$AA?9?$AAb?$AAh?$AA?$AA@ 10045b48     LIBCMT:winapinls.obj
 0002:00007b54       ??_C@_1M@DAPFDGGB@?$AAa?$AAr?$AA?9?$AAd?$AAz?$AA?$AA@ 10045b54     LIBCMT:winapinls.obj
 0002:00007b60       ??_C@_1M@FJNKGKIG@?$AAa?$AAr?$AA?9?$AAe?$AAg?$AA?$AA@ 10045b60     LIBCMT:winapinls.obj
 0002:00007b6c       ??_C@_1M@FLGKKCLO@?$AAa?$AAr?$AA?9?$AAi?$AAq?$AA?$AA@ 10045b6c     LIBCMT:winapinls.obj
 0002:00007b78       ??_C@_1M@GNDIPALM@?$AAa?$AAr?$AA?9?$AAj?$AAo?$AA?$AA@ 10045b78     LIBCMT:winapinls.obj
 0002:00007b84       ??_C@_1M@DDMJFMGJ@?$AAa?$AAr?$AA?9?$AAk?$AAw?$AA?$AA@ 10045b84     LIBCMT:winapinls.obj
 0002:00007b90       ??_C@_1M@EJALMLHM@?$AAa?$AAr?$AA?9?$AAl?$AAb?$AA?$AA@ 10045b90     LIBCMT:winapinls.obj
 0002:00007b9c       ??_C@_1M@MOBDBLOC@?$AAa?$AAr?$AA?9?$AAl?$AAy?$AA?$AA@ 10045b9c     LIBCMT:winapinls.obj
 0002:00007ba8       ??_C@_1M@JAOCLHDH@?$AAa?$AAr?$AA?9?$AAm?$AAa?$AA?$AA@ 10045ba8     LIBCMT:winapinls.obj
 0002:00007bb4       ??_C@_1M@JHPMKJIE@?$AAa?$AAr?$AA?9?$AAo?$AAm?$AA?$AA@ 10045bb4     LIBCMT:winapinls.obj
 0002:00007bc0       ??_C@_1M@OEPGHFNH@?$AAa?$AAr?$AA?9?$AAq?$AAa?$AA?$AA@ 10045bc0     LIBCMT:winapinls.obj
 0002:00007bcc       ??_C@_1M@KJDONENM@?$AAa?$AAr?$AA?9?$AAs?$AAa?$AA?$AA@ 10045bcc     LIBCMT:winapinls.obj
 0002:00007bd8       ??_C@_1M@DMJDKLKM@?$AAa?$AAr?$AA?9?$AAs?$AAy?$AA?$AA@ 10045bd8     LIBCMT:winapinls.obj
 0002:00007be4       ??_C@_1M@OMFIPEDC@?$AAa?$AAr?$AA?9?$AAt?$AAn?$AA?$AA@ 10045be4     LIBCMT:winapinls.obj
 0002:00007bf0       ??_C@_1M@IHMHGAON@?$AAa?$AAr?$AA?9?$AAy?$AAe?$AA?$AA@ 10045bf0     LIBCMT:winapinls.obj
 0002:00007bfc       ??_C@_1BG@KDCPGJGB@?$AAa?$AAz?$AA?9?$AAa?$AAz?$AA?9?$AAc?$AAy?$AAr?$AAl?$AA?$AA@ 10045bfc     LIBCMT:winapinls.obj
 0002:00007c14       ??_C@_1BG@IBCKDDOE@?$AAa?$AAz?$AA?9?$AAa?$AAz?$AA?9?$AAl?$AAa?$AAt?$AAn?$AA?$AA@ 10045c14     LIBCMT:winapinls.obj
 0002:00007c2c       ??_C@_1M@EGPFDCPD@?$AAb?$AAe?$AA?9?$AAb?$AAy?$AA?$AA@ 10045c2c     LIBCMT:winapinls.obj
 0002:00007c38       ??_C@_1M@PCMGMCGC@?$AAb?$AAg?$AA?9?$AAb?$AAg?$AA?$AA@ 10045c38     LIBCMT:winapinls.obj
 0002:00007c44       ??_C@_1M@BJBMFGOB@?$AAb?$AAn?$AA?9?$AAi?$AAn?$AA?$AA@ 10045c44     LIBCMT:winapinls.obj
 0002:00007c50       ??_C@_1BG@EAKMMACD@?$AAb?$AAs?$AA?9?$AAb?$AAa?$AA?9?$AAl?$AAa?$AAt?$AAn?$AA?$AA@ 10045c50     LIBCMT:winapinls.obj
 0002:00007c68       ??_C@_1M@KGADAODK@?$AAc?$AAa?$AA?9?$AAe?$AAs?$AA?$AA@ 10045c68     LIBCMT:winapinls.obj
 0002:00007c74       ??_C@_1M@COAJPDHI@?$AAc?$AAs?$AA?9?$AAc?$AAz?$AA?$AA@ 10045c74     LIBCMT:winapinls.obj
 0002:00007c80       ??_C@_1M@DHBHFONH@?$AAc?$AAy?$AA?9?$AAg?$AAb?$AA?$AA@ 10045c80     LIBCMT:winapinls.obj
 0002:00007c8c       ??_C@_1M@IMGKELGA@?$AAd?$AAa?$AA?9?$AAd?$AAk?$AA?$AA@ 10045c8c     LIBCMT:winapinls.obj
 0002:00007c98       ??_C@_1M@NNDGDNGA@?$AAd?$AAe?$AA?9?$AAa?$AAt?$AA?$AA@ 10045c98     LIBCMT:winapinls.obj
 0002:00007ca4       ??_C@_1M@IKDBHEEM@?$AAd?$AAe?$AA?9?$AAc?$AAh?$AA?$AA@ 10045ca4     LIBCMT:winapinls.obj
 0002:00007cb0       ??_C@_1M@GFFOJMCJ@?$AAd?$AAe?$AA?9?$AAd?$AAe?$AA?$AA@ 10045cb0     LIBCMT:winapinls.obj
 0002:00007cbc       ??_C@_1M@MDNLKBPM@?$AAd?$AAe?$AA?9?$AAl?$AAi?$AA?$AA@ 10045cbc     LIBCMT:winapinls.obj
 0002:00007cc8       ??_C@_1M@NJBEEJNL@?$AAd?$AAe?$AA?9?$AAl?$AAu?$AA?$AA@ 10045cc8     LIBCMT:winapinls.obj
 0002:00007cd4       ??_C@_1O@GNNELBAP@?$AAd?$AAi?$AAv?$AA?9?$AAm?$AAv?$AA?$AA@ 10045cd4     LIBCMT:winapinls.obj
 0002:00007ce4       ??_C@_1M@EJLEOGAE@?$AAe?$AAl?$AA?9?$AAg?$AAr?$AA?$AA@ 10045ce4     LIBCMT:winapinls.obj
 0002:00007cf0       ??_C@_1M@GMPONJN@?$AAe?$AAn?$AA?9?$AAa?$AAu?$AA?$AA@ 10045cf0     LIBCMT:winapinls.obj
 0002:00007cfc       ??_C@_1M@NIDIIPGF@?$AAe?$AAn?$AA?9?$AAb?$AAz?$AA?$AA@ 10045cfc     LIBCMT:winapinls.obj
 0002:00007d08       ??_C@_1M@JEHMIMFO@?$AAe?$AAn?$AA?9?$AAc?$AAa?$AA?$AA@ 10045d08     LIBCMT:winapinls.obj
 0002:00007d14       ??_C@_1M@IGMJCDLA@?$AAe?$AAn?$AA?9?$AAc?$AAb?$AA?$AA@ 10045d14     LIBCMT:winapinls.obj
 0002:00007d20       ??_C@_1M@BNFIGBKG@?$AAe?$AAn?$AA?9?$AAg?$AAb?$AA?$AA@ 10045d20     LIBCMT:winapinls.obj
 0002:00007d2c       ??_C@_1M@LKIFDIGP@?$AAe?$AAn?$AA?9?$AAi?$AAe?$AA?$AA@ 10045d2c     LIBCMT:winapinls.obj
 0002:00007d38       ??_C@_1M@PJKFGCCO@?$AAe?$AAn?$AA?9?$AAj?$AAm?$AA?$AA@ 10045d38     LIBCMT:winapinls.obj
 0002:00007d44       ??_C@_1M@KPPKEPBO@?$AAe?$AAn?$AA?9?$AAn?$AAz?$AA?$AA@ 10045d44     LIBCMT:winapinls.obj
 0002:00007d50       ??_C@_1M@GMDGLDOB@?$AAe?$AAn?$AA?9?$AAp?$AAh?$AA?$AA@ 10045d50     LIBCMT:winapinls.obj
 0002:00007d5c       ??_C@_1M@ONGIBJNA@?$AAe?$AAn?$AA?9?$AAt?$AAt?$AA?$AA@ 10045d5c     LIBCMT:winapinls.obj
 0002:00007d68       ??_C@_1M@LLODPCMM@?$AAe?$AAn?$AA?9?$AAu?$AAs?$AA?$AA@ 10045d68     LIBCMT:winapinls.obj
 0002:00007d74       ??_C@_1M@LAKFNPAN@?$AAe?$AAn?$AA?9?$AAz?$AAa?$AA?$AA@ 10045d74     LIBCMT:winapinls.obj
 0002:00007d80       ??_C@_1M@MFNHNHEO@?$AAe?$AAn?$AA?9?$AAz?$AAw?$AA?$AA@ 10045d80     LIBCMT:winapinls.obj
 0002:00007d8c       ??_C@_1M@EJEINPHM@?$AAe?$AAs?$AA?9?$AAa?$AAr?$AA?$AA@ 10045d8c     LIBCMT:winapinls.obj
 0002:00007d98       ??_C@_1M@GNKPCCJA@?$AAe?$AAs?$AA?9?$AAb?$AAo?$AA?$AA@ 10045d98     LIBCMT:winapinls.obj
 0002:00007da4       ??_C@_1M@LEEGFONL@?$AAe?$AAs?$AA?9?$AAc?$AAl?$AA?$AA@ 10045da4     LIBCMT:winapinls.obj
 0002:00007db0       ??_C@_1M@KGPDPBDF@?$AAe?$AAs?$AA?9?$AAc?$AAo?$AA?$AA@ 10045db0     LIBCMT:winapinls.obj
 0002:00007dbc       ??_C@_1M@EIAHOHH@?$AAe?$AAs?$AA?9?$AAc?$AAr?$AA?$AA@ 10045dbc     LIBCMT:winapinls.obj
 0002:00007dc8       ??_C@_1M@LLPGMBIN@?$AAe?$AAs?$AA?9?$AAd?$AAo?$AA?$AA@ 10045dc8     LIBCMT:winapinls.obj
 0002:00007dd4       ??_C@_1M@DKHMKNJA@?$AAe?$AAs?$AA?9?$AAe?$AAc?$AA?$AA@ 10045dd4     LIBCMT:winapinls.obj
 0002:00007de0       ??_C@_1M@GKGFPKAP@?$AAe?$AAs?$AA?9?$AAe?$AAs?$AA?$AA@ 10045de0     LIBCMT:winapinls.obj
 0002:00007dec       ??_C@_1M@LKHKGDLN@?$AAe?$AAs?$AA?9?$AAg?$AAt?$AA?$AA@ 10045dec     LIBCMT:winapinls.obj
 0002:00007df8       ??_C@_1M@HEIIGGJD@?$AAe?$AAs?$AA?9?$AAh?$AAn?$AA?$AA@ 10045df8     LIBCMT:winapinls.obj
 0002:00007e04       ??_C@_1M@FBDHPPGD@?$AAe?$AAs?$AA?9?$AAm?$AAx?$AA?$AA@ 10045e04     LIBCMT:winapinls.obj
 0002:00007e10       ??_C@_1M@DPAGLNDH@?$AAe?$AAs?$AA?9?$AAn?$AAi?$AA?$AA@ 10045e10     LIBCMT:winapinls.obj
 0002:00007e1c       ??_C@_1M@MDGOPGDD@?$AAe?$AAs?$AA?9?$AAp?$AAa?$AA?$AA@ 10045e1c     LIBCMT:winapinls.obj
 0002:00007e28       ??_C@_1M@EMAMGBGE@?$AAe?$AAs?$AA?9?$AAp?$AAe?$AA?$AA@ 10045e28     LIBCMT:winapinls.obj
 0002:00007e34       ??_C@_1M@IBMCAOEC@?$AAe?$AAs?$AA?9?$AAp?$AAr?$AA?$AA@ 10045e34     LIBCMT:winapinls.obj
 0002:00007e40       ??_C@_1M@FGMDIJED@?$AAe?$AAs?$AA?9?$AAp?$AAy?$AA?$AA@ 10045e40     LIBCMT:winapinls.obj
 0002:00007e4c       ??_C@_1M@IIDEOLLL@?$AAe?$AAs?$AA?9?$AAs?$AAv?$AA?$AA@ 10045e4c     LIBCMT:winapinls.obj
 0002:00007e58       ??_C@_1M@GAOBIPA@?$AAe?$AAs?$AA?9?$AAu?$AAy?$AA?$AA@ 10045e58     LIBCMT:winapinls.obj
 0002:00007e64       ??_C@_1M@JKFFICHJ@?$AAe?$AAs?$AA?9?$AAv?$AAe?$AA?$AA@ 10045e64     LIBCMT:winapinls.obj
 0002:00007e70       ??_C@_1M@PNMLOJDF@?$AAe?$AAt?$AA?9?$AAe?$AAe?$AA?$AA@ 10045e70     LIBCMT:winapinls.obj
 0002:00007e7c       ??_C@_1M@GHHLIKEI@?$AAe?$AAu?$AA?9?$AAe?$AAs?$AA?$AA@ 10045e7c     LIBCMT:winapinls.obj
 0002:00007e88       ??_C@_1M@PBNONODE@?$AAf?$AAa?$AA?9?$AAi?$AAr?$AA?$AA@ 10045e88     LIBCMT:winapinls.obj
 0002:00007e94       ??_C@_1M@JEEHPMIL@?$AAf?$AAi?$AA?9?$AAf?$AAi?$AA?$AA@ 10045e94     LIBCMT:winapinls.obj
 0002:00007ea0       ??_C@_1M@LMDCNDBA@?$AAf?$AAo?$AA?9?$AAf?$AAo?$AA?$AA@ 10045ea0     LIBCMT:winapinls.obj
 0002:00007eac       ??_C@_1M@JKEOHLDK@?$AAf?$AAr?$AA?9?$AAb?$AAe?$AA?$AA@ 10045eac     LIBCMT:winapinls.obj
 0002:00007eb8       ??_C@_1M@NOHADPMI@?$AAf?$AAr?$AA?9?$AAc?$AAa?$AA?$AA@ 10045eb8     LIBCMT:winapinls.obj
 0002:00007ec4       ??_C@_1M@KDHIHAEC@?$AAf?$AAr?$AA?9?$AAc?$AAh?$AA?$AA@ 10045ec4     LIBCMT:winapinls.obj
 0002:00007ed0       ??_C@_1M@MMBBFGAK@?$AAf?$AAr?$AA?9?$AAf?$AAr?$AA?$AA@ 10045ed0     LIBCMT:winapinls.obj
 0002:00007edc       ??_C@_1M@PAFNENNF@?$AAf?$AAr?$AA?9?$AAl?$AAu?$AA?$AA@ 10045edc     LIBCMT:winapinls.obj
 0002:00007ee8       ??_C@_1M@EOHDJGDD@?$AAf?$AAr?$AA?9?$AAm?$AAc?$AA?$AA@ 10045ee8     LIBCMT:winapinls.obj
 0002:00007ef4       ??_C@_1M@FAPLLOPF@?$AAg?$AAl?$AA?9?$AAe?$AAs?$AA?$AA@ 10045ef4     LIBCMT:winapinls.obj
 0002:00007f00       ??_C@_1M@FOPBFLOO@?$AAg?$AAu?$AA?9?$AAi?$AAn?$AA?$AA@ 10045f00     LIBCMT:winapinls.obj
 0002:00007f0c       ??_C@_1M@KBMCINPM@?$AAh?$AAe?$AA?9?$AAi?$AAl?$AA?$AA@ 10045f0c     LIBCMT:winapinls.obj
 0002:00007f18       ??_C@_1M@BBPHKFPJ@?$AAh?$AAi?$AA?9?$AAi?$AAn?$AA?$AA@ 10045f18     LIBCMT:winapinls.obj
 0002:00007f24       ??_C@_1M@PMBNDPHD@?$AAh?$AAr?$AA?9?$AAb?$AAa?$AA?$AA@ 10045f24     LIBCMT:winapinls.obj
 0002:00007f30       ??_C@_1M@BPCKOEGE@?$AAh?$AAr?$AA?9?$AAh?$AAr?$AA?$AA@ 10045f30     LIBCMT:winapinls.obj
 0002:00007f3c       ??_C@_1M@GACBMHKE@?$AAh?$AAu?$AA?9?$AAh?$AAu?$AA?$AA@ 10045f3c     LIBCMT:winapinls.obj
 0002:00007f48       ??_C@_1M@MILPAJJC@?$AAh?$AAy?$AA?9?$AAa?$AAm?$AA?$AA@ 10045f48     LIBCMT:winapinls.obj
 0002:00007f54       ??_C@_1M@BABBICEC@?$AAi?$AAd?$AA?9?$AAi?$AAd?$AA?$AA@ 10045f54     LIBCMT:winapinls.obj
 0002:00007f60       ??_C@_1M@BIKNHHPF@?$AAi?$AAs?$AA?9?$AAi?$AAs?$AA?$AA@ 10045f60     LIBCMT:winapinls.obj
 0002:00007f6c       ??_C@_1M@NMPCJPHE@?$AAi?$AAt?$AA?9?$AAc?$AAh?$AA?$AA@ 10045f6c     LIBCMT:winapinls.obj
 0002:00007f78       ??_C@_1M@GHKGFEDF@?$AAi?$AAt?$AA?9?$AAi?$AAt?$AA?$AA@ 10045f78     LIBCMT:winapinls.obj
 0002:00007f84       ??_C@_1M@NIEJCJJA@?$AAj?$AAa?$AA?9?$AAj?$AAp?$AA?$AA@ 10045f84     LIBCMT:winapinls.obj
 0002:00007f90       ??_C@_1M@JILFNBIM@?$AAk?$AAa?$AA?9?$AAg?$AAe?$AA?$AA@ 10045f90     LIBCMT:winapinls.obj
 0002:00007f9c       ??_C@_1M@PACPMGPH@?$AAk?$AAk?$AA?9?$AAk?$AAz?$AA?$AA@ 10045f9c     LIBCMT:winapinls.obj
 0002:00007fa8       ??_C@_1M@IELFGMHA@?$AAk?$AAn?$AA?9?$AAi?$AAn?$AA?$AA@ 10045fa8     LIBCMT:winapinls.obj
 0002:00007fb4       ??_C@_1O@IBBJHCH@?$AAk?$AAo?$AAk?$AA?9?$AAi?$AAn?$AA?$AA@ 10045fb4     LIBCMT:winapinls.obj
 0002:00007fc4       ??_C@_1M@DMHAEOGC@?$AAk?$AAo?$AA?9?$AAk?$AAr?$AA?$AA@ 10045fc4     LIBCMT:winapinls.obj
 0002:00007fd0       ??_C@_1M@HBAHBIGA@?$AAk?$AAy?$AA?9?$AAk?$AAg?$AA?$AA@ 10045fd0     LIBCMT:winapinls.obj
 0002:00007fdc       ??_C@_1M@KPMILCJG@?$AAl?$AAt?$AA?9?$AAl?$AAt?$AA?$AA@ 10045fdc     LIBCMT:winapinls.obj
 0002:00007fe8       ??_C@_1M@BDEKKCA@?$AAl?$AAv?$AA?9?$AAl?$AAv?$AA?$AA@ 10045fe8     LIBCMT:winapinls.obj
 0002:00007ff4       ??_C@_1M@ELCKCCJJ@?$AAm?$AAi?$AA?9?$AAn?$AAz?$AA?$AA@ 10045ff4     LIBCMT:winapinls.obj
 0002:00008000       ??_C@_1M@CBOOLAPA@?$AAm?$AAk?$AA?9?$AAm?$AAk?$AA?$AA@ 10046000     LIBCMT:winapinls.obj
 0002:0000800c       ??_C@_1M@GPHNBJKN@?$AAm?$AAl?$AA?9?$AAi?$AAn?$AA?$AA@ 1004600c     LIBCMT:winapinls.obj
 0002:00008018       ??_C@_1M@PABJILIG@?$AAm?$AAn?$AA?9?$AAm?$AAn?$AA?$AA@ 10046018     LIBCMT:winapinls.obj
 0002:00008024       ??_C@_1M@FGBKKIPG@?$AAm?$AAr?$AA?9?$AAi?$AAn?$AA?$AA@ 10046024     LIBCMT:winapinls.obj
 0002:00008030       ??_C@_1M@NDBPDDAL@?$AAm?$AAs?$AA?9?$AAb?$AAn?$AA?$AA@ 10046030     LIBCMT:winapinls.obj
 0002:0000803c       ??_C@_1M@OPIHOOPI@?$AAm?$AAs?$AA?9?$AAm?$AAy?$AA?$AA@ 1004603c     LIBCMT:winapinls.obj
 0002:00008048       ??_C@_1M@PPDBCNFM@?$AAm?$AAt?$AA?9?$AAm?$AAt?$AA?$AA@ 10046048     LIBCMT:winapinls.obj
 0002:00008054       ??_C@_1M@KDJDKMDD@?$AAn?$AAb?$AA?9?$AAn?$AAo?$AA?$AA@ 10046054     LIBCMT:winapinls.obj
 0002:00008060       ??_C@_1M@KFCFLMJP@?$AAn?$AAl?$AA?9?$AAb?$AAe?$AA?$AA@ 10046060     LIBCMT:winapinls.obj
 0002:0000806c       ??_C@_1M@KPOPDDGO@?$AAn?$AAl?$AA?9?$AAn?$AAl?$AA?$AA@ 1004606c     LIBCMT:winapinls.obj
 0002:00008078       ??_C@_1M@LJKPEMLN@?$AAn?$AAn?$AA?9?$AAn?$AAo?$AA?$AA@ 10046078     LIBCMT:winapinls.obj
 0002:00008084       ??_C@_1M@BDGHHBFL@?$AAn?$AAs?$AA?9?$AAz?$AAa?$AA?$AA@ 10046084     LIBCMT:winapinls.obj
 0002:00008090       ??_C@_1M@IDEHOAP@?$AAp?$AAa?$AA?9?$AAi?$AAn?$AA?$AA@ 10046090     LIBCMT:winapinls.obj
 0002:0000809c       ??_C@_1M@HDBKGOGH@?$AAp?$AAl?$AA?9?$AAp?$AAl?$AA?$AA@ 1004609c     LIBCMT:winapinls.obj
 0002:000080a8       ??_C@_1M@LJLLCMEH@?$AAp?$AAt?$AA?9?$AAb?$AAr?$AA?$AA@ 100460a8     LIBCMT:winapinls.obj
 0002:000080b4       ??_C@_1M@NCMONAAL@?$AAp?$AAt?$AA?9?$AAp?$AAt?$AA?$AA@ 100460b4     LIBCMT:winapinls.obj
 0002:000080c0       ??_C@_1O@EAKMAJDN@?$AAq?$AAu?$AAz?$AA?9?$AAb?$AAo?$AA?$AA@ 100460c0     LIBCMT:winapinls.obj
 0002:000080d0       ??_C@_1O@BHHPIGDN@?$AAq?$AAu?$AAz?$AA?9?$AAe?$AAc?$AA?$AA@ 100460d0     LIBCMT:winapinls.obj
 0002:000080e0       ??_C@_1O@GBAPEKMJ@?$AAq?$AAu?$AAz?$AA?9?$AAp?$AAe?$AA?$AA@ 100460e0     LIBCMT:winapinls.obj
 0002:000080f0       ??_C@_1M@CLGLEFBO@?$AAr?$AAo?$AA?9?$AAr?$AAo?$AA?$AA@ 100460f0     LIBCMT:winapinls.obj
 0002:000080fc       ??_C@_1M@CEEDODME@?$AAr?$AAu?$AA?9?$AAr?$AAu?$AA?$AA@ 100460fc     LIBCMT:winapinls.obj
 0002:00008108       ??_C@_1M@HPKKKMPP@?$AAs?$AAa?$AA?9?$AAi?$AAn?$AA?$AA@ 10046108     LIBCMT:winapinls.obj
 0002:00008114       ??_C@_1M@BKMAIGOJ@?$AAs?$AAe?$AA?9?$AAf?$AAi?$AA?$AA@ 10046114     LIBCMT:winapinls.obj
 0002:00008120       ??_C@_1M@NDPIFLFI@?$AAs?$AAe?$AA?9?$AAn?$AAo?$AA?$AA@ 10046120     LIBCMT:winapinls.obj
 0002:0000812c       ??_C@_1M@DANKKHJ@?$AAs?$AAe?$AA?9?$AAs?$AAe?$AA?$AA@ 1004612c     LIBCMT:winapinls.obj
 0002:00008138       ??_C@_1M@PNBLONPJ@?$AAs?$AAk?$AA?9?$AAs?$AAk?$AA?$AA@ 10046138     LIBCMT:winapinls.obj
 0002:00008144       ??_C@_1M@LFMODOAL@?$AAs?$AAl?$AA?9?$AAs?$AAi?$AA?$AA@ 10046144     LIBCMT:winapinls.obj
 0002:00008150       ??_C@_1O@DFKOMPG@?$AAs?$AAm?$AAa?$AA?9?$AAn?$AAo?$AA?$AA@ 10046150     LIBCMT:winapinls.obj
 0002:00008160       ??_C@_1O@NDKPBNNH@?$AAs?$AAm?$AAa?$AA?9?$AAs?$AAe?$AA?$AA@ 10046160     LIBCMT:winapinls.obj
 0002:00008170       ??_C@_1O@PLLKBHAB@?$AAs?$AAm?$AAj?$AA?9?$AAn?$AAo?$AA?$AA@ 10046170     LIBCMT:winapinls.obj
 0002:00008180       ??_C@_1O@CLEPOGCA@?$AAs?$AAm?$AAj?$AA?9?$AAs?$AAe?$AA?$AA@ 10046180     LIBCMT:winapinls.obj
 0002:00008190       ??_C@_1O@DLGJGKMK@?$AAs?$AAm?$AAn?$AA?9?$AAf?$AAi?$AA?$AA@ 10046190     LIBCMT:winapinls.obj
 0002:000081a0       ??_C@_1O@OJDJGAJC@?$AAs?$AAm?$AAs?$AA?9?$AAf?$AAi?$AA?$AA@ 100461a0     LIBCMT:winapinls.obj
 0002:000081b0       ??_C@_1M@BOFOGHPB@?$AAs?$AAq?$AA?9?$AAa?$AAl?$AA?$AA@ 100461b0     LIBCMT:winapinls.obj
 0002:000081bc       ??_C@_1BG@LJBBIPGB@?$AAs?$AAr?$AA?9?$AAb?$AAa?$AA?9?$AAc?$AAy?$AAr?$AAl?$AA?$AA@ 100461bc     LIBCMT:winapinls.obj
 0002:000081d4       ??_C@_1BG@JLBENFOE@?$AAs?$AAr?$AA?9?$AAb?$AAa?$AA?9?$AAl?$AAa?$AAt?$AAn?$AA?$AA@ 100461d4     LIBCMT:winapinls.obj
 0002:000081ec       ??_C@_1BG@KODPNHE@?$AAs?$AAr?$AA?9?$AAs?$AAp?$AA?9?$AAc?$AAy?$AAr?$AAl?$AA?$AA@ 100461ec     LIBCMT:winapinls.obj
 0002:00008204       ??_C@_1BG@CIOGKHPB@?$AAs?$AAr?$AA?9?$AAs?$AAp?$AA?9?$AAl?$AAa?$AAt?$AAn?$AA?$AA@ 10046204     LIBCMT:winapinls.obj
 0002:0000821c       ??_C@_1M@NGFJLMAC@?$AAs?$AAv?$AA?9?$AAf?$AAi?$AA?$AA@ 1004621c     LIBCMT:winapinls.obj
 0002:00008228       ??_C@_1M@MPJEJAJC@?$AAs?$AAv?$AA?9?$AAs?$AAe?$AA?$AA@ 10046228     LIBCMT:winapinls.obj
 0002:00008234       ??_C@_1M@MPNDHLFK@?$AAs?$AAw?$AA?9?$AAk?$AAe?$AA?$AA@ 10046234     LIBCMT:winapinls.obj
 0002:00008240       ??_C@_1O@KOHBJJI@?$AAs?$AAy?$AAr?$AA?9?$AAs?$AAy?$AA?$AA@ 10046240     LIBCMT:winapinls.obj
 0002:00008250       ??_C@_1M@LDCEFHA@?$AAt?$AAa?$AA?9?$AAi?$AAn?$AA?$AA@ 10046250     LIBCMT:winapinls.obj
 0002:0000825c       ??_C@_1M@CNJOFAK@?$AAt?$AAe?$AA?9?$AAi?$AAn?$AA?$AA@ 1004625c     LIBCMT:winapinls.obj
 0002:00008268       ??_C@_1M@GNAECACD@?$AAt?$AAh?$AA?9?$AAt?$AAh?$AA?$AA@ 10046268     LIBCMT:winapinls.obj
 0002:00008274       ??_C@_1M@CHBIHOJO@?$AAt?$AAn?$AA?9?$AAz?$AAa?$AA?$AA@ 10046274     LIBCMT:winapinls.obj
 0002:00008280       ??_C@_1M@GCCMIGPJ@?$AAt?$AAr?$AA?9?$AAt?$AAr?$AA?$AA@ 10046280     LIBCMT:winapinls.obj
 0002:0000828c       ??_C@_1M@CELMCNBK@?$AAt?$AAt?$AA?9?$AAr?$AAu?$AA?$AA@ 1004628c     LIBCMT:winapinls.obj
 0002:00008298       ??_C@_1M@KLMCELGA@?$AAu?$AAk?$AA?9?$AAu?$AAa?$AA?$AA@ 10046298     LIBCMT:winapinls.obj
 0002:000082a4       ??_C@_1M@EPAJJAJF@?$AAu?$AAr?$AA?9?$AAp?$AAk?$AA?$AA@ 100462a4     LIBCMT:winapinls.obj
 0002:000082b0       ??_C@_1BG@GEGPMCDJ@?$AAu?$AAz?$AA?9?$AAu?$AAz?$AA?9?$AAc?$AAy?$AAr?$AAl?$AA?$AA@ 100462b0     LIBCMT:winapinls.obj
 0002:000082c8       ??_C@_1BG@EGGKJILM@?$AAu?$AAz?$AA?9?$AAu?$AAz?$AA?9?$AAl?$AAa?$AAt?$AAn?$AA?$AA@ 100462c8     LIBCMT:winapinls.obj
 0002:000082e0       ??_C@_1M@GFOCLFF@?$AAv?$AAi?$AA?9?$AAv?$AAn?$AA?$AA@ 100462e0     LIBCMT:winapinls.obj
 0002:000082ec       ??_C@_1M@CPAMEDFI@?$AAx?$AAh?$AA?9?$AAz?$AAa?$AA?$AA@ 100462ec     LIBCMT:winapinls.obj
 0002:000082f8       ??_C@_1O@EBKIFIGN@?$AAz?$AAh?$AA?9?$AAc?$AAh?$AAs?$AA?$AA@ 100462f8     LIBCMT:winapinls.obj
 0002:00008308       ??_C@_1O@NMHPGANE@?$AAz?$AAh?$AA?9?$AAc?$AAh?$AAt?$AA?$AA@ 10046308     LIBCMT:winapinls.obj
 0002:00008318       ??_C@_1M@LPINJOMC@?$AAz?$AAh?$AA?9?$AAc?$AAn?$AA?$AA@ 10046318     LIBCMT:winapinls.obj
 0002:00008324       ??_C@_1M@OCJEJODD@?$AAz?$AAh?$AA?9?$AAh?$AAk?$AA?$AA@ 10046324     LIBCMT:winapinls.obj
 0002:00008330       ??_C@_1M@DNDLJINH@?$AAz?$AAh?$AA?9?$AAm?$AAo?$AA?$AA@ 10046330     LIBCMT:winapinls.obj
 0002:0000833c       ??_C@_1M@MBFDNDND@?$AAz?$AAh?$AA?9?$AAs?$AAg?$AA?$AA@ 1004633c     LIBCMT:winapinls.obj
 0002:00008348       ??_C@_1M@IMEPLEPE@?$AAz?$AAh?$AA?9?$AAt?$AAw?$AA?$AA@ 10046348     LIBCMT:winapinls.obj
 0002:00008354       ??_C@_1M@BBGHNHJP@?$AAz?$AAu?$AA?9?$AAz?$AAa?$AA?$AA@ 10046354     LIBCMT:winapinls.obj
 0002:00008360       ___newctype                10046360     LIBCMT:ctype.obj
 0002:00008660       __wctype                   10046660     LIBCMT:ctype.obj
 0002:00008868       ___newclmap                10046868     LIBCMT:ctype.obj
 0002:000089e8       ___newcumap                100469e8     LIBCMT:ctype.obj
 0002:00008b68       ___lc_category             10046b68     LIBCMT:wsetloca.obj
 0002:00008bb0       ??_C@_1O@GIFLHMA@?$AAL?$AAC?$AA_?$AAA?$AAL?$AAL?$AA?$AA@ 10046bb0     LIBCMT:wsetloca.obj
 0002:00008bc0       ??_C@_1BG@PPOMIBNJ@?$AAL?$AAC?$AA_?$AAC?$AAO?$AAL?$AAL?$AAA?$AAT?$AAE?$AA?$AA@ 10046bc0     LIBCMT:wsetloca.obj
 0002:00008bd8       ??_C@_1BC@FFJGAPJM@?$AAL?$AAC?$AA_?$AAC?$AAT?$AAY?$AAP?$AAE?$AA?$AA@ 10046bd8     LIBCMT:wsetloca.obj
 0002:00008bec       ??_C@_1BI@PCKFNJFB@?$AAL?$AAC?$AA_?$AAM?$AAO?$AAN?$AAE?$AAT?$AAA?$AAR?$AAY?$AA?$AA@ 10046bec     LIBCMT:wsetloca.obj
 0002:00008c04       ??_C@_1BG@ENIEDKID@?$AAL?$AAC?$AA_?$AAN?$AAU?$AAM?$AAE?$AAR?$AAI?$AAC?$AA?$AA@ 10046c04     LIBCMT:wsetloca.obj
 0002:00008c1c       ??_C@_1BA@HAAOMIIG@?$AAL?$AAC?$AA_?$AAT?$AAI?$AAM?$AAE?$AA?$AA@ 10046c1c     LIBCMT:wsetloca.obj
 0002:00008cb0       ??_C@_15NBPDDFIP@?$AA?$DN?$AA?$DL?$AA?$AA@ 10046cb0     LIBCMT:wsetloca.obj
 0002:00008cb8       ??_C@_13PJJBFPED@?$AA?$DL?$AA?$AA@ 10046cb8     LIBCMT:wsetloca.obj
 0002:00008cbc       ??_C@_13NMPKAAJP@?$AA?$DN?$AA?$AA@ 10046cbc     LIBCMT:wsetloca.obj
 0002:00008cc0       ??_C@_13FHBKNHDA@?$AAC?$AA?$AA@ 10046cc0     LIBCMT:wsetloca.obj
 0002:00008cc4       ??_C@_17MBJJLFDM@?$AA_?$AA?4?$AA?0?$AA?$AA@ 10046cc4     LIBCMT:wsetloca.obj
 0002:00008ccc       ??_C@_13ENNFDPBH@?$AA_?$AA?$AA@ 10046ccc     LIBCMT:wsetloca.obj
 0002:00008cd0       ??_C@_13JOFGPIOO@?$AA?4?$AA?$AA@ 10046cd0     LIBCMT:wsetloca.obj
 0002:00008cd4       ??_C@_06PGGFOGJG@1?$CDSNAN?$AA@ 10046cd4     LIBCMT:x10fout.obj
 0002:00008cdc       ??_C@_05PHHOCPM@1?$CDIND?$AA@ 10046cdc     LIBCMT:x10fout.obj
 0002:00008ce4       ??_C@_05DNEBIAHO@1?$CDINF?$AA@ 10046ce4     LIBCMT:x10fout.obj
 0002:00008cec       ??_C@_06IMKFLFPG@1?$CDQNAN?$AA@ 10046cec     LIBCMT:x10fout.obj
 0002:00008cf4       ??_C@_0M@HHGEPIBF@CreateFile2?$AA@ 10046cf4     LIBCMT:wopen.obj
 0002:00008d00       ??_C@_1BA@BALFACEM@?$AAC?$AAO?$AAN?$AAO?$AAU?$AAT?$AA$?$AA?$AA@ 10046d00     LIBCMT:initcon.obj
 0002:00008d10       ___rg_language             10046d10     LIBCMT:getqloc.obj
 0002:0000901c       ??_C@_1BC@LLOKLNP@?$AAa?$AAm?$AAe?$AAr?$AAi?$AAc?$AAa?$AAn?$AA?$AA@ 1004701c     LIBCMT:getqloc.obj
 0002:00009030       ??_C@_1CC@HEIGCDGG@?$AAa?$AAm?$AAe?$AAr?$AAi?$AAc?$AAa?$AAn?$AA?5?$AAe?$AAn?$AAg?$AAl?$AAi?$AAs?$AAh?$AA?$AA@ 10047030     LIBCMT:getqloc.obj
 0002:00009054       ??_C@_1CC@IHCNOMIN@?$AAa?$AAm?$AAe?$AAr?$AAi?$AAc?$AAa?$AAn?$AA?9?$AAe?$AAn?$AAg?$AAl?$AAi?$AAs?$AAh?$AA?$AA@ 10047054     LIBCMT:getqloc.obj
 0002:00009078       ??_C@_1BG@GKAGPCGG@?$AAa?$AAu?$AAs?$AAt?$AAr?$AAa?$AAl?$AAi?$AAa?$AAn?$AA?$AA@ 10047078     LIBCMT:getqloc.obj
 0002:00009090       ??_C@_1BA@GMENCENF@?$AAb?$AAe?$AAl?$AAg?$AAi?$AAa?$AAn?$AA?$AA@ 10047090     LIBCMT:getqloc.obj
 0002:000090a0       ??_C@_1BC@PJMIIAAN@?$AAc?$AAa?$AAn?$AAa?$AAd?$AAi?$AAa?$AAn?$AA?$AA@ 100470a0     LIBCMT:getqloc.obj
 0002:000090b4       ??_C@_17NOIMNFBF@?$AAc?$AAh?$AAh?$AA?$AA@ 100470b4     LIBCMT:getqloc.obj
 0002:000090bc       ??_C@_17GGDALCHA@?$AAc?$AAh?$AAi?$AA?$AA@ 100470bc     LIBCMT:getqloc.obj
 0002:000090c4       ??_C@_1BA@NPNJKIBL@?$AAc?$AAh?$AAi?$AAn?$AAe?$AAs?$AAe?$AA?$AA@ 100470c4     LIBCMT:getqloc.obj
 0002:000090d4       ??_C@_1CC@DINBAMMJ@?$AAc?$AAh?$AAi?$AAn?$AAe?$AAs?$AAe?$AA?9?$AAh?$AAo?$AAn?$AAg?$AAk?$AAo?$AAn?$AAg?$AA?$AA@ 100470d4     LIBCMT:getqloc.obj
 0002:000090f8       ??_C@_1CG@IOBJPACO@?$AAc?$AAh?$AAi?$AAn?$AAe?$AAs?$AAe?$AA?9?$AAs?$AAi?$AAm?$AAp?$AAl?$AAi?$AAf?$AAi?$AAe?$AAd?$AA?$AA@ 100470f8     LIBCMT:getqloc.obj
 0002:00009120       ??_C@_1CE@GAJNDCKG@?$AAc?$AAh?$AAi?$AAn?$AAe?$AAs?$AAe?$AA?9?$AAs?$AAi?$AAn?$AAg?$AAa?$AAp?$AAo?$AAr?$AAe?$AA?$AA@ 10047120     LIBCMT:getqloc.obj
 0002:00009144       ??_C@_1CI@PAJPIOOD@?$AAc?$AAh?$AAi?$AAn?$AAe?$AAs?$AAe?$AA?9?$AAt?$AAr?$AAa?$AAd?$AAi?$AAt?$AAi?$AAo?$AAn?$AAa?$AAl?$AA?$AA@ 10047144     LIBCMT:getqloc.obj
 0002:0000916c       ??_C@_1BM@NILJBMMD@?$AAd?$AAu?$AAt?$AAc?$AAh?$AA?9?$AAb?$AAe?$AAl?$AAg?$AAi?$AAa?$AAn?$AA?$AA@ 1004716c     LIBCMT:getqloc.obj
 0002:00009188       ??_C@_1CC@OOJPJNEJ@?$AAe?$AAn?$AAg?$AAl?$AAi?$AAs?$AAh?$AA?9?$AAa?$AAm?$AAe?$AAr?$AAi?$AAc?$AAa?$AAn?$AA?$AA@ 10047188     LIBCMT:getqloc.obj
 0002:000091ac       ??_C@_1BI@IOLFEEM@?$AAe?$AAn?$AAg?$AAl?$AAi?$AAs?$AAh?$AA?9?$AAa?$AAu?$AAs?$AA?$AA@ 100471ac     LIBCMT:getqloc.obj
 0002:000091c4       ??_C@_1BO@HFFNLENJ@?$AAe?$AAn?$AAg?$AAl?$AAi?$AAs?$AAh?$AA?9?$AAb?$AAe?$AAl?$AAi?$AAz?$AAe?$AA?$AA@ 100471c4     LIBCMT:getqloc.obj
 0002:000091e4       ??_C@_1BI@HAPKJMPO@?$AAe?$AAn?$AAg?$AAl?$AAi?$AAs?$AAh?$AA?9?$AAc?$AAa?$AAn?$AA?$AA@ 100471e4     LIBCMT:getqloc.obj
 0002:000091fc       ??_C@_1CE@HLNDMIOJ@?$AAe?$AAn?$AAg?$AAl?$AAi?$AAs?$AAh?$AA?9?$AAc?$AAa?$AAr?$AAi?$AAb?$AAb?$AAe?$AAa?$AAn?$AA?$AA@ 100471fc     LIBCMT:getqloc.obj
 0002:00009220       ??_C@_1BI@LDHJHHAC@?$AAe?$AAn?$AAg?$AAl?$AAi?$AAs?$AAh?$AA?9?$AAi?$AAr?$AAe?$AA?$AA@ 10047220     LIBCMT:getqloc.obj
 0002:00009238       ??_C@_1CA@NJMMCFOC@?$AAe?$AAn?$AAg?$AAl?$AAi?$AAs?$AAh?$AA?9?$AAj?$AAa?$AAm?$AAa?$AAi?$AAc?$AAa?$AA?$AA@ 10047238     LIBCMT:getqloc.obj
 0002:00009258       ??_C@_1BG@BHJEBBGG@?$AAe?$AAn?$AAg?$AAl?$AAi?$AAs?$AAh?$AA?9?$AAn?$AAz?$AA?$AA@ 10047258     LIBCMT:getqloc.obj
 0002:00009270       ??_C@_1CK@FGOEJJCO@?$AAe?$AAn?$AAg?$AAl?$AAi?$AAs?$AAh?$AA?9?$AAs?$AAo?$AAu?$AAt?$AAh?$AA?5?$AAa?$AAf?$AAr?$AAi?$AAc?$AAa?$AA?$AA@ 10047270     LIBCMT:getqloc.obj
 0002:0000929c       ??_C@_1DE@PDBJPCJ@?$AAe?$AAn?$AAg?$AAl?$AAi?$AAs?$AAh?$AA?9?$AAt?$AAr?$AAi?$AAn?$AAi?$AAd?$AAa?$AAd?$AA?5?$AAy?$AA?5?$AAt?$AAo?$AAb?$AAa?$AAg?$AAo?$AA?$AA@ 1004729c     LIBCMT:getqloc.obj
 0002:000092d0       ??_C@_1BG@JGCANDME@?$AAe?$AAn?$AAg?$AAl?$AAi?$AAs?$AAh?$AA?9?$AAu?$AAk?$AA?$AA@ 100472d0     LIBCMT:getqloc.obj
 0002:000092e8       ??_C@_1BG@DINKMLE@?$AAe?$AAn?$AAg?$AAl?$AAi?$AAs?$AAh?$AA?9?$AAu?$AAs?$AA?$AA@ 100472e8     LIBCMT:getqloc.obj
 0002:00009300       ??_C@_1BI@NMFDBHJE@?$AAe?$AAn?$AAg?$AAl?$AAi?$AAs?$AAh?$AA?9?$AAu?$AAs?$AAa?$AA?$AA@ 10047300     LIBCMT:getqloc.obj
 0002:00009318       ??_C@_1BO@OIHKJKII@?$AAf?$AAr?$AAe?$AAn?$AAc?$AAh?$AA?9?$AAb?$AAe?$AAl?$AAg?$AAi?$AAa?$AAn?$AA?$AA@ 10047318     LIBCMT:getqloc.obj
 0002:00009338       ??_C@_1CA@NKAELJKI@?$AAf?$AAr?$AAe?$AAn?$AAc?$AAh?$AA?9?$AAc?$AAa?$AAn?$AAa?$AAd?$AAi?$AAa?$AAn?$AA?$AA@ 10047338     LIBCMT:getqloc.obj
 0002:00009358       ??_C@_1CE@MGKCNLGN@?$AAf?$AAr?$AAe?$AAn?$AAc?$AAh?$AA?9?$AAl?$AAu?$AAx?$AAe?$AAm?$AAb?$AAo?$AAu?$AAr?$AAg?$AA?$AA@ 10047358     LIBCMT:getqloc.obj
 0002:0000937c       ??_C@_1BK@CEGEAILM@?$AAf?$AAr?$AAe?$AAn?$AAc?$AAh?$AA?9?$AAs?$AAw?$AAi?$AAs?$AAs?$AA?$AA@ 1004737c     LIBCMT:getqloc.obj
 0002:00009398       ??_C@_1CA@PAFKEOCC@?$AAg?$AAe?$AAr?$AAm?$AAa?$AAn?$AA?9?$AAa?$AAu?$AAs?$AAt?$AAr?$AAi?$AAa?$AAn?$AA?$AA@ 10047398     LIBCMT:getqloc.obj
 0002:000093b8       ??_C@_1CI@HCFHGOFD@?$AAg?$AAe?$AAr?$AAm?$AAa?$AAn?$AA?9?$AAl?$AAi?$AAc?$AAh?$AAt?$AAe?$AAn?$AAs?$AAt?$AAe?$AAi?$AAn?$AA?$AA@ 100473b8     LIBCMT:getqloc.obj
 0002:000093e0       ??_C@_1CE@FEDDNPDG@?$AAg?$AAe?$AAr?$AAm?$AAa?$AAn?$AA?9?$AAl?$AAu?$AAx?$AAe?$AAm?$AAb?$AAo?$AAu?$AAr?$AAg?$AA?$AA@ 100473e0     LIBCMT:getqloc.obj
 0002:00009404       ??_C@_1BK@LIMINNMN@?$AAg?$AAe?$AAr?$AAm?$AAa?$AAn?$AA?9?$AAs?$AAw?$AAi?$AAs?$AAs?$AA?$AA@ 10047404     LIBCMT:getqloc.obj
 0002:00009420       ??_C@_1BM@LGMDBEPD@?$AAi?$AAr?$AAi?$AAs?$AAh?$AA?9?$AAe?$AAn?$AAg?$AAl?$AAi?$AAs?$AAh?$AA?$AA@ 10047420     LIBCMT:getqloc.obj
 0002:0000943c       ??_C@_1BM@NNCFBAEE@?$AAi?$AAt?$AAa?$AAl?$AAi?$AAa?$AAn?$AA?9?$AAs?$AAw?$AAi?$AAs?$AAs?$AA?$AA@ 1004743c     LIBCMT:getqloc.obj
 0002:00009458       ??_C@_1BE@FEDJNPIB@?$AAn?$AAo?$AAr?$AAw?$AAe?$AAg?$AAi?$AAa?$AAn?$AA?$AA@ 10047458     LIBCMT:getqloc.obj
 0002:0000946c       ??_C@_1CC@CILKDEIE@?$AAn?$AAo?$AAr?$AAw?$AAe?$AAg?$AAi?$AAa?$AAn?$AA?9?$AAb?$AAo?$AAk?$AAm?$AAa?$AAl?$AA?$AA@ 1004746c     LIBCMT:getqloc.obj
 0002:00009490       ??_C@_1CE@DHMMHEPL@?$AAn?$AAo?$AAr?$AAw?$AAe?$AAg?$AAi?$AAa?$AAn?$AA?9?$AAn?$AAy?$AAn?$AAo?$AAr?$AAs?$AAk?$AA?$AA@ 10047490     LIBCMT:getqloc.obj
 0002:000094b4       ??_C@_1CK@OPNMHECD@?$AAp?$AAo?$AAr?$AAt?$AAu?$AAg?$AAu?$AAe?$AAs?$AAe?$AA?9?$AAb?$AAr?$AAa?$AAz?$AAi?$AAl?$AAi?$AAa?$AAn?$AA?$AA@ 100474b4     LIBCMT:getqloc.obj
 0002:000094e0       ??_C@_1CE@KEEHCDB@?$AAs?$AAp?$AAa?$AAn?$AAi?$AAs?$AAh?$AA?9?$AAa?$AAr?$AAg?$AAe?$AAn?$AAt?$AAi?$AAn?$AAa?$AA?$AA@ 100474e0     LIBCMT:getqloc.obj
 0002:00009504       ??_C@_1CA@GIAOLHJD@?$AAs?$AAp?$AAa?$AAn?$AAi?$AAs?$AAh?$AA?9?$AAb?$AAo?$AAl?$AAi?$AAv?$AAi?$AAa?$AA?$AA@ 10047504     LIBCMT:getqloc.obj
 0002:00009524       ??_C@_1BM@OJNDFNPD@?$AAs?$AAp?$AAa?$AAn?$AAi?$AAs?$AAh?$AA?9?$AAc?$AAh?$AAi?$AAl?$AAe?$AA?$AA@ 10047524     LIBCMT:getqloc.obj
 0002:00009540       ??_C@_1CC@OCOLPALL@?$AAs?$AAp?$AAa?$AAn?$AAi?$AAs?$AAh?$AA?9?$AAc?$AAo?$AAl?$AAo?$AAm?$AAb?$AAi?$AAa?$AA?$AA@ 10047540     LIBCMT:getqloc.obj
 0002:00009564       ??_C@_1CG@BPOFMKBB@?$AAs?$AAp?$AAa?$AAn?$AAi?$AAs?$AAh?$AA?9?$AAc?$AAo?$AAs?$AAt?$AAa?$AA?5?$AAr?$AAi?$AAc?$AAa?$AA?$AA@ 10047564     LIBCMT:getqloc.obj
 0002:0000958c       ??_C@_1DG@IGOBAPBB@?$AAs?$AAp?$AAa?$AAn?$AAi?$AAs?$AAh?$AA?9?$AAd?$AAo?$AAm?$AAi?$AAn?$AAi?$AAc?$AAa?$AAn?$AA?5?$AAr?$AAe?$AAp?$AAu?$AAb?$AAl?$AAi?$AAc?$AA?$AA@ 1004758c     LIBCMT:getqloc.obj
 0002:000095c4       ??_C@_1CA@JHAPGEGI@?$AAs?$AAp?$AAa?$AAn?$AAi?$AAs?$AAh?$AA?9?$AAe?$AAc?$AAu?$AAa?$AAd?$AAo?$AAr?$AA?$AA@ 100475c4     LIBCMT:getqloc.obj
 0002:000095e4       ??_C@_1CI@LAPALJPP@?$AAs?$AAp?$AAa?$AAn?$AAi?$AAs?$AAh?$AA?9?$AAe?$AAl?$AA?5?$AAs?$AAa?$AAl?$AAv?$AAa?$AAd?$AAo?$AAr?$AA?$AA@ 100475e4     LIBCMT:getqloc.obj
 0002:0000960c       ??_C@_1CE@PDGBOFOM@?$AAs?$AAp?$AAa?$AAn?$AAi?$AAs?$AAh?$AA?9?$AAg?$AAu?$AAa?$AAt?$AAe?$AAm?$AAa?$AAl?$AAa?$AA?$AA@ 1004760c     LIBCMT:getqloc.obj
 0002:00009630       ??_C@_1CC@NBEBAODI@?$AAs?$AAp?$AAa?$AAn?$AAi?$AAs?$AAh?$AA?9?$AAh?$AAo?$AAn?$AAd?$AAu?$AAr?$AAa?$AAs?$AA?$AA@ 10047630     LIBCMT:getqloc.obj
 0002:00009654       ??_C@_1CA@LLKGHBMF@?$AAs?$AAp?$AAa?$AAn?$AAi?$AAs?$AAh?$AA?9?$AAm?$AAe?$AAx?$AAi?$AAc?$AAa?$AAn?$AA?$AA@ 10047654     LIBCMT:getqloc.obj
 0002:00009674       ??_C@_1BO@LKNDOIGD@?$AAs?$AAp?$AAa?$AAn?$AAi?$AAs?$AAh?$AA?9?$AAm?$AAo?$AAd?$AAe?$AAr?$AAn?$AA?$AA@ 10047674     LIBCMT:getqloc.obj
 0002:00009694       ??_C@_1CE@NMDMOEEB@?$AAs?$AAp?$AAa?$AAn?$AAi?$AAs?$AAh?$AA?9?$AAn?$AAi?$AAc?$AAa?$AAr?$AAa?$AAg?$AAu?$AAa?$AA?$AA@ 10047694     LIBCMT:getqloc.obj
 0002:000096b8       ??_C@_1BO@LLCBEJGB@?$AAs?$AAp?$AAa?$AAn?$AAi?$AAs?$AAh?$AA?9?$AAp?$AAa?$AAn?$AAa?$AAm?$AAa?$AA?$AA@ 100476b8     LIBCMT:getqloc.obj
 0002:000096d8       ??_C@_1CC@FKPGGIHO@?$AAs?$AAp?$AAa?$AAn?$AAi?$AAs?$AAh?$AA?9?$AAp?$AAa?$AAr?$AAa?$AAg?$AAu?$AAa?$AAy?$AA?$AA@ 100476d8     LIBCMT:getqloc.obj
 0002:000096fc       ??_C@_1BK@CDEIHOOP@?$AAs?$AAp?$AAa?$AAn?$AAi?$AAs?$AAh?$AA?9?$AAp?$AAe?$AAr?$AAu?$AA?$AA@ 100476fc     LIBCMT:getqloc.obj
 0002:00009718       ??_C@_1CI@GAHAKKGP@?$AAs?$AAp?$AAa?$AAn?$AAi?$AAs?$AAh?$AA?9?$AAp?$AAu?$AAe?$AAr?$AAt?$AAo?$AA?5?$AAr?$AAi?$AAc?$AAo?$AA?$AA@ 10047718     LIBCMT:getqloc.obj
 0002:00009740       ??_C@_1CA@NKJBCAGP@?$AAs?$AAp?$AAa?$AAn?$AAi?$AAs?$AAh?$AA?9?$AAu?$AAr?$AAu?$AAg?$AAu?$AAa?$AAy?$AA?$AA@ 10047740     LIBCMT:getqloc.obj
 0002:00009760       ??_C@_1CE@ODILCONM@?$AAs?$AAp?$AAa?$AAn?$AAi?$AAs?$AAh?$AA?9?$AAv?$AAe?$AAn?$AAe?$AAz?$AAu?$AAe?$AAl?$AAa?$AA?$AA@ 10047760     LIBCMT:getqloc.obj
 0002:00009784       ??_C@_1CA@OBNMCGFO@?$AAs?$AAw?$AAe?$AAd?$AAi?$AAs?$AAh?$AA?9?$AAf?$AAi?$AAn?$AAl?$AAa?$AAn?$AAd?$AA?$AA@ 10047784     LIBCMT:getqloc.obj
 0002:000097a4       ??_C@_1M@PIPDDPPI@?$AAs?$AAw?$AAi?$AAs?$AAs?$AA?$AA@ 100477a4     LIBCMT:getqloc.obj
 0002:000097b0       ??_C@_15GMFIMNFM@?$AAu?$AAs?$AA?$AA@ 100477b0     LIBCMT:getqloc.obj
 0002:000097b8       ??_C@_17HAEBFAGL@?$AAu?$AAs?$AAa?$AA?$AA@ 100477b8     LIBCMT:getqloc.obj
 0002:000097c0       ___rg_country              100477c0     LIBCMT:getqloc.obj
 0002:000098d4       ??_C@_1BA@DPFJEPHB@?$AAa?$AAm?$AAe?$AAr?$AAi?$AAc?$AAa?$AA?$AA@ 100478d4     LIBCMT:getqloc.obj
 0002:000098e4       ??_C@_1BA@ELOGGFK@?$AAb?$AAr?$AAi?$AAt?$AAa?$AAi?$AAn?$AA?$AA@ 100478e4     LIBCMT:getqloc.obj
 0002:000098f4       ??_C@_1M@GHBGIGDA@?$AAc?$AAh?$AAi?$AAn?$AAa?$AA?$AA@ 100478f4     LIBCMT:getqloc.obj
 0002:00009900       ??_C@_1M@NCHEJOPO@?$AAc?$AAz?$AAe?$AAc?$AAh?$AA?$AA@ 10047900     LIBCMT:getqloc.obj
 0002:0000990c       ??_C@_1BA@BKPAPBLA@?$AAe?$AAn?$AAg?$AAl?$AAa?$AAn?$AAd?$AA?$AA@ 1004790c     LIBCMT:getqloc.obj
 0002:0000991c       ??_C@_1BM@HKBCKIPC@?$AAg?$AAr?$AAe?$AAa?$AAt?$AA?5?$AAb?$AAr?$AAi?$AAt?$AAa?$AAi?$AAn?$AA?$AA@ 1004791c     LIBCMT:getqloc.obj
 0002:00009938       ??_C@_1BA@PPCHPGJB@?$AAh?$AAo?$AAl?$AAl?$AAa?$AAn?$AAd?$AA?$AA@ 10047938     LIBCMT:getqloc.obj
 0002:00009948       ??_C@_1BE@JBMPEGDG@?$AAh?$AAo?$AAn?$AAg?$AA?9?$AAk?$AAo?$AAn?$AAg?$AA?$AA@ 10047948     LIBCMT:getqloc.obj
 0002:0000995c       ??_C@_1BI@KOELBBPJ@?$AAn?$AAe?$AAw?$AA?9?$AAz?$AAe?$AAa?$AAl?$AAa?$AAn?$AAd?$AA?$AA@ 1004795c     LIBCMT:getqloc.obj
 0002:00009974       ??_C@_15HIEBHAIO@?$AAn?$AAz?$AA?$AA@ 10047974     LIBCMT:getqloc.obj
 0002:0000997c       ??_C@_1BC@CHBCPFPI@?$AAp?$AAr?$AA?5?$AAc?$AAh?$AAi?$AAn?$AAa?$AA?$AA@ 1004797c     LIBCMT:getqloc.obj
 0002:00009990       ??_C@_1BC@JAOIIFKD@?$AAp?$AAr?$AA?9?$AAc?$AAh?$AAi?$AAn?$AAa?$AA?$AA@ 10047990     LIBCMT:getqloc.obj
 0002:000099a4       ??_C@_1BI@BEHPPHKC@?$AAp?$AAu?$AAe?$AAr?$AAt?$AAo?$AA?9?$AAr?$AAi?$AAc?$AAo?$AA?$AA@ 100479a4     LIBCMT:getqloc.obj
 0002:000099bc       ??_C@_1O@PAEOFKDI@?$AAs?$AAl?$AAo?$AAv?$AAa?$AAk?$AA?$AA@ 100479bc     LIBCMT:getqloc.obj
 0002:000099cc       ??_C@_1BK@FIHMCKAM@?$AAs?$AAo?$AAu?$AAt?$AAh?$AA?5?$AAa?$AAf?$AAr?$AAi?$AAc?$AAa?$AA?$AA@ 100479cc     LIBCMT:getqloc.obj
 0002:000099e8       ??_C@_1BI@NAEOODKB@?$AAs?$AAo?$AAu?$AAt?$AAh?$AA?5?$AAk?$AAo?$AAr?$AAe?$AAa?$AA?$AA@ 100479e8     LIBCMT:getqloc.obj
 0002:00009a00       ??_C@_1BK@FBDGGIFF@?$AAs?$AAo?$AAu?$AAt?$AAh?$AA?9?$AAa?$AAf?$AAr?$AAi?$AAc?$AAa?$AA?$AA@ 10047a00     LIBCMT:getqloc.obj
 0002:00009a1c       ??_C@_1BI@GHLEJDPK@?$AAs?$AAo?$AAu?$AAt?$AAh?$AA?9?$AAk?$AAo?$AAr?$AAe?$AAa?$AA?$AA@ 10047a1c     LIBCMT:getqloc.obj
 0002:00009a34       ??_C@_1CE@PLHLOMJF@?$AAt?$AAr?$AAi?$AAn?$AAi?$AAd?$AAa?$AAd?$AA?5?$AA?$CG?$AA?5?$AAt?$AAo?$AAb?$AAa?$AAg?$AAo?$AA?$AA@ 10047a34     LIBCMT:getqloc.obj
 0002:00009a58       ??_C@_1BO@MODIMHHI@?$AAu?$AAn?$AAi?$AAt?$AAe?$AAd?$AA?9?$AAk?$AAi?$AAn?$AAg?$AAd?$AAo?$AAm?$AA?$AA@ 10047a58     LIBCMT:getqloc.obj
 0002:00009a78       ??_C@_1BM@FFHJONBJ@?$AAu?$AAn?$AAi?$AAt?$AAe?$AAd?$AA?9?$AAs?$AAt?$AAa?$AAt?$AAe?$AAs?$AA?$AA@ 10047a78     LIBCMT:getqloc.obj
 0002:00009a94       ___rg_language_count       10047a94     LIBCMT:getqloc.obj
 0002:00009a98       ___rg_country_count        10047a98     LIBCMT:getqloc.obj
 0002:00009a9c       ??_C@_17DNCLJFIF@?$AAA?$AAC?$AAP?$AA?$AA@ 10047a9c     LIBCMT:getqloc.obj
 0002:00009aa4       ??_C@_17CIKBIHLH@?$AAO?$AAC?$AAP?$AA?$AA@ 10047aa4     LIBCMT:getqloc.obj
 0002:00009aac       ___rglangidNotDefault      10047aac     LIBCMT:getqloc_downlevel.obj
 0002:00009ac0       __real@00000000            10047ac0     LIBCMT:wcstoq.obj
 0002:00009ac8       __load_config_used         10047ac8     LIBCMT:loadcfg.obj
 0002:0000b190       ___safe_se_handler_table   10049190     <linker-defined>
 0002:0000b2a0       ___rtc_iaa                 100492a0     LIBCMT:initsect.obj
 0002:0000b3a4       ___rtc_izz                 100493a4     LIBCMT:initsect.obj
 0002:0000b4a8       ___rtc_taa                 100494a8     LIBCMT:initsect.obj
 0002:0000b5ac       ___rtc_tzz                 100495ac     LIBCMT:initsect.obj
 0003:00000190       _CenterLimit_P             1004b190     CenterLimit_data.obj
 0003:000007d8       _pci20041digout            1004b7d8     xpctarget.obj
 0003:000007dc       _nipcdio24cnfg             1004b7dc     xpctarget.obj
 0003:000007e0       _rtddm6604cnfg             1004b7e0     xpctarget.obj
 0003:00000904       _DefaultCOMIOBase          1004b904     xpcruntime:xpcimports.obj
 0003:00000914       _DefaultCOMIRQ             1004b914     xpcruntime:xpcimports.obj
 0003:00000930       __fltused                  1004b930     LIBCMT:fpinit.obj
 0003:00000934       __ldused                   1004b934     LIBCMT:fpinit.obj
 0003:00000940       __iob                      1004b940     LIBCMT:_file.obj
 0003:00000bc0       ___isa_enabled             1004bbc0     LIBCMT:cpu_disp.obj
 0003:00000bc4       ___security_cookie         1004bbc4     LIBCMT:gs_cookie.obj
 0003:00000bc8       ___security_cookie_complement 1004bbc8     LIBCMT:gs_cookie.obj
 0003:00000da0       ___nullstring              1004bda0     LIBCMT:output.obj
 0003:00000da4       ___wnullstring             1004bda4     LIBCMT:output.obj
 0003:00000db0       __cfltcvt_tab              1004bdb0     LIBCMT:cmiscdat.obj
 0003:00000f00       __mbctype                  1004bf00     LIBCMT:mbctype.obj
 0003:00001008       __mbcasemap                1004c008     LIBCMT:mbctype.obj
 0003:00001108       ___initialmbcinfo          1004c108     LIBCMT:mbctype.obj
 0003:0000132c       ___ptmbcinfo               1004c32c     LIBCMT:mbctype.obj
 0003:00001420       ___badioinfo               1004c420     LIBCMT:ioinit.obj
 0003:00001460       __lookuptrailbytes         1004c460     LIBCMT:read.obj
 0003:00001560       __d_inf                    1004c560     LIBCMT:util.obj
 0003:00001568       __d_ind                    1004c568     LIBCMT:util.obj
 0003:00001570       __d_max                    1004c570     LIBCMT:util.obj
 0003:00001578       __d_min                    1004c578     LIBCMT:util.obj
 0003:00001580       __d_mzero                  1004c580     LIBCMT:util.obj
 0003:0000168c       ___abort_behavior          1004c68c     LIBCMT:abort.obj
 0003:00001690       ___flsindex                1004c690     LIBCMT:tidtable.obj
 0003:000016a0       ___mb_cur_max              1004c6a0     LIBCMT:nlsdata.obj
 0003:000016a4       ___wclocalestr             1004c6a4     LIBCMT:nlsdata.obj
 0003:000016a8       ___lc_time_c               1004c6a8     LIBCMT:nlsdata.obj
 0003:0000180c       ___ptlocinfo               1004c80c     LIBCMT:nlsdata.obj
 0003:00001810       ___initiallocinfo          1004c810     LIBCMT:nlsdata.obj
 0003:000018c8       ___initiallocalestructinfo 1004c8c8     LIBCMT:nlsdata.obj
 0003:000018d0       ___globallocalestatus      1004c8d0     LIBCMT:glstatus.obj
 0003:000018e0       __NLG_Destination          1004c8e0     LIBCMT:exsup.obj
 0003:000018f0       __matherr_flag             1004c8f0     LIBCMT:matherr.obj
 0003:000018f8       ___lconv                   1004c8f8     LIBCMT:lconv.obj
 0003:000018fc       ___lconv_static_decimal    1004c8fc     LIBCMT:lconv.obj
 0003:00001900       ___lconv_c                 1004c900     LIBCMT:lconv.obj
 0003:00001950       ___lconv_static_W_decimal  1004c950     LIBCMT:lconv.obj
 0003:00001954       __pctype                   1004c954     LIBCMT:ctype.obj
 0003:00001958       __pwctype                  1004c958     LIBCMT:ctype.obj
 0003:00001990       __confh                    1004c990     LIBCMT:initcon.obj
 0003:00001998       __pow10pos                 1004c998     LIBCMT:constpow.obj
 0003:00001af8       __pow10neg                 1004caf8     LIBCMT:constpow.obj
 0003:00001c60       __HUGE                     1004cc60     LIBCMT:huge.obj
 0003:000021bc       ___isa_available_default   1004d1bc     rt_logging.obj
 0003:000021cc       _xmlsize                   1004d1cc     xpctarget.obj
 0003:000021d0       _pci20098PortA             1004d1d0     xpctarget.obj
 0003:000021d4       _pci20098PortB             1004d1d4     xpctarget.obj
 0003:000021d8       _siepowercan_firmware_initialized 1004d1d8     xpctarget.obj
 0003:000021dc       _siepowercan_port1_configured 1004d1dc     xpctarget.obj
 0003:000021e0       _siepowercan_port2_configured 1004d1e0     xpctarget.obj
 0003:000021e4       _CANAC2_FIRMWARE_LOADED    1004d1e4     xpctarget.obj
 0003:000021e8       _rs232ports                1004d1e8     xpctarget.obj
 0003:000021f8       _NI_AT_MIO_16F_5_commreg2  1004d1f8     xpctarget.obj
 0003:000021fc       _RTD_DM6430_init           1004d1fc     xpctarget.obj
 0003:00002200       _RTD_DM6420_init           1004d200     xpctarget.obj
 0003:00002204       _CANAC2_FIRMWARE_LOADED_mb1 1004d204     xpctarget.obj
 0003:00002208       _CANAC2_FIRMWARE_LOADED_mb2 1004d208     xpctarget.obj
 0003:0000220c       _CANAC2_FIRMWARE_LOADED_mb3 1004d20c     xpctarget.obj
 0003:00002708       ___fastflag                1004d708     LIBCMT:fpinit.obj
 0003:00002a30       __C_Exit_Done              1004da30     LIBCMT:crt0dat.obj
 0003:00002a34       ___argc                    1004da34     LIBCMT:crt0dat.obj
 0003:00002a38       ___argv                    1004da38     LIBCMT:crt0dat.obj
 0003:00002a3c       ___wargv                   1004da3c     LIBCMT:crt0dat.obj
 0003:00002a40       __environ                  1004da40     LIBCMT:crt0dat.obj
 0003:00002a44       __wenviron                 1004da44     LIBCMT:crt0dat.obj
 0003:00002a48       __pgmptr                   1004da48     LIBCMT:crt0dat.obj
 0003:00002a4c       __wpgmptr                  1004da4c     LIBCMT:crt0dat.obj
 0003:00002a50       __umaskval                 1004da50     LIBCMT:crt0dat.obj
 0003:00002a54       __exitflag                 1004da54     LIBCMT:crt0dat.obj
 0003:00002a58       __C_Termination_Done       1004da58     LIBCMT:crt0dat.obj
 0003:00002a5c       ___winitenv                1004da5c     LIBCMT:crt0dat.obj
 0003:00002a60       ___initenv                 1004da60     LIBCMT:crt0dat.obj
 0003:00002a64       __cflush                   1004da64     LIBCMT:_file.obj
 0003:00002a68       ___isa_available           1004da68     LIBCMT:cpu_disp.obj
 0003:00002a6c       ___favor                   1004da6c     LIBCMT:cpu_disp.obj
 0003:00002a74       __aenvptr                  1004da74     LIBCMT:dllcrt0.obj
 0003:00002a78       __wenvptr                  1004da78     LIBCMT:dllcrt0.obj
 0003:00002a7c       ?_pnhHeap@@3P6AHI@ZA       1004da7c     LIBCMT:handler.obj
 0003:00002a80       ___app_type                1004da80     LIBCMT:crt0msg.obj
 0003:000030b0       __newmode                  1004e0b0     LIBCMT:_newmode.obj
 0003:000030b4       __crtheap                  1004e0b4     LIBCMT:heapinit.obj
 0003:000030b8       ___pInvalidArgHandler      1004e0b8     LIBCMT:invarg.obj
 0003:000030bc       __stdbuf                   1004e0bc     LIBCMT:_sftbuf.obj
 0003:00003218       __maxwait                  1004e218     LIBCMT:crtheap.obj
 0003:0000321c       ?__pInconsistency@@3P6AXXZA 1004e21c     LIBCMT:hooks.obj
 0003:00003220       ___pPurecall               1004e220     LIBCMT:inithelp.obj
 0003:0000323c       ___mbcodepage              1004e23c     LIBCMT:mbctype.obj
 0003:00003240       ___ismbcodepage            1004e240     LIBCMT:mbctype.obj
 0003:00003244       ___mbulinfo                1004e244     LIBCMT:mbctype.obj
 0003:00003250       ___mblocalename            1004e250     LIBCMT:mbctype.obj
 0003:00003258       ___pioinfo                 1004e258     LIBCMT:ioinit.obj
 0003:00003358       ___error_mode              1004e358     LIBCMT:errmode.obj
 0003:00003478       __outputformat             1004e478     LIBCMT:outputformat.obj
 0003:00003480       __commode                  1004e480     LIBCMT:ncommode.obj
 0003:00003484       ___lconv_static_null       1004e484     LIBCMT:lconv.obj
 0003:00003488       ___lconv_static_W_null     1004e488     LIBCMT:lconv.obj
 0003:0000348c       ___locale_changed          1004e48c     LIBCMT:wsetloca.obj
 0003:00003490       __fmode                    1004e490     LIBCMT:txtmode.obj
 0003:000034a0       _CANAC2_2_receiveindex_mb3 1004e4a0     <common>
 0003:00006574       _CANAC2_2_receivemaxindex_mb3 10051574     <common>
 0003:00006580       _CANAC2_2_sendindex_mb3    10051580     <common>
 0003:000068a0       _CANAC2_2_sendmaxindex_mb3 100518a0     <common>
 0003:000068c0       _CANAC2_1_receiveindex_mb3 100518c0     <common>
 0003:00006be0       _CANAC2_1_receivemaxindex_mb3 10051be0     <common>
 0003:00006c00       _CANAC2_1_sendindex_mb3    10051c00     <common>
 0003:00006f20       _CANAC2_1_sendmaxindex_mb3 10051f20     <common>
 0003:00006f40       _CANAC2_2_receive_mb3      10051f40     <common>
 0003:00007260       _CANAC2_2_send_mb3         10052260     <common>
 0003:00007580       _CANAC2_1_receive_mb3      10052580     <common>
 0003:000078a0       _CANAC2_1_send_mb3         100528a0     <common>
 0003:00007bc0       _CANAC2_2_receiveindex_mb2 10052bc0     <common>
 0003:00007ee0       _CANAC2_2_receivemaxindex_mb2 10052ee0     <common>
 0003:00007f00       _CANAC2_2_sendindex_mb2    10052f00     <common>
 0003:00008220       _CANAC2_2_sendmaxindex_mb2 10053220     <common>
 0003:00008240       _CANAC2_1_receiveindex_mb2 10053240     <common>
 0003:00008560       _CANAC2_1_receivemaxindex_mb2 10053560     <common>
 0003:00008580       _CANAC2_1_sendindex_mb2    10053580     <common>
 0003:000088a0       _CANAC2_1_sendmaxindex_mb2 100538a0     <common>
 0003:000088c0       _CANAC2_2_receive_mb2      100538c0     <common>
 0003:00008be0       _CANAC2_2_send_mb2         10053be0     <common>
 0003:00008f00       _CANAC2_1_receive_mb2      10053f00     <common>
 0003:00009220       _CANAC2_1_send_mb2         10054220     <common>
 0003:00009540       _CANAC2_2_receiveindex_mb1 10054540     <common>
 0003:00009860       _CANAC2_2_receivemaxindex_mb1 10054860     <common>
 0003:00009880       _CANAC2_2_sendindex_mb1    10054880     <common>
 0003:00009ba0       _CANAC2_2_sendmaxindex_mb1 10054ba0     <common>
 0003:00009bc0       _CANAC2_1_receiveindex_mb1 10054bc0     <common>
 0003:00009ee0       _CANAC2_1_receivemaxindex_mb1 10054ee0     <common>
 0003:00009f00       _CANAC2_1_sendindex_mb1    10054f00     <common>
 0003:0000a220       _CANAC2_1_sendmaxindex_mb1 10055220     <common>
 0003:0000a240       _CANAC2_2_receive_mb1      10055240     <common>
 0003:0000a560       _CANAC2_2_send_mb1         10055560     <common>
 0003:0000a880       _CANAC2_1_receive_mb1      10055880     <common>
 0003:0000aba0       _CANAC2_1_send_mb1         10055ba0     <common>
 0003:0000aec0       _CANAC2_2_receiveindex     10055ec0     <common>
 0003:0000b1e0       _CANAC2_2_receivemaxindex  100561e0     <common>
 0003:0000b200       _CANAC2_2_sendindex        10056200     <common>
 0003:0000b520       _CANAC2_2_sendmaxindex     10056520     <common>
 0003:0000b540       _CANAC2_1_receiveindex     10056540     <common>
 0003:0000b860       _CANAC2_1_receivemaxindex  10056860     <common>
 0003:0000b880       _CANAC2_1_sendindex        10056880     <common>
 0003:0000bba0       _CANAC2_1_sendmaxindex     10056ba0     <common>
 0003:0000bbc0       _CANAC2_2_receive          10056bc0     <common>
 0003:0000bee0       _CANAC2_2_send             10056ee0     <common>
 0003:0000c200       _CANAC2_1_receive          10057200     <common>
 0003:0000c520       _CANAC2_1_send             10057520     <common>
 0003:0000c840       _siepowercan_can_object_buffer_port2 10057840     <common>
 0003:00010860       _siepowercan_can_object_buffer_port1 1005b860     <common>
 0003:00014860       _rtNaNF                    1005f860     <common>
 0003:00014874       _rtMinusInfF               1005f874     <common>
 0003:00014878       _rtInfF                    1005f878     <common>
 0003:00014880       _rtNaN                     1005f880     <common>
 0003:00014888       _rtMinusInf                1005f888     <common>
 0003:00014890       _rtInf                     1005f890     <common>
 0003:000148a0       _CenterLimit_M_            1005f8a0     <common>
 0003:00016b80       _CenterLimit_DW            10061b80     <common>
 0003:00016c60       _CenterLimit_B             10061c60     <common>
 0003:00016ce0       _xpceaddEvent              10061ce0     <common>
 0003:00016d30       _xpceDeRegisterISR         10061d30     <common>
 0003:00016d34       _xpceRegisterISR           10061d34     <common>
 0003:00016d38       _xpcIsModelInit            10061d38     <common>
 0003:00016d3c       _xpcGetElapsedTime         10061d3c     <common>
 0003:00016d40       _xpcBusyWait               10061d40     <common>
 0003:00016d44       _xpcFreePhysicalMemory     10061d44     <common>
 0003:00016d48       _xpcAllocPhysicalMemory    10061d48     <common>
 0003:00016d4c       _xpcReserveMemoryRegion    10061d4c     <common>
 0003:00016d50       _xpcOutpB                  10061d50     <common>
 0003:00016d54       _xpcOutpW                  10061d54     <common>
 0003:00016d58       _xpcOutpDW                 10061d58     <common>
 0003:00016d5c       _xpcInpB                   10061d5c     <common>
 0003:00016d60       _xpcInpW                   10061d60     <common>
 0003:00016d64       _xpcInpDW                  10061d64     <common>
 0003:00016d68       _slTestRegAssessment       10061d68     <common>
 0003:00016d6c       _slTestTerminate           10061d6c     <common>
 0003:00016d70       _slTestEvalOnFail          10061d70     <common>
 0003:00016d74       _slTestLogAssessments      10061d74     <common>
 0003:00016d78       _slTestInitialize          10061d78     <common>
 0003:00016d7c       _unRegisterPTPTimeRead     10061d7c     <common>
 0003:00016d80       _registerPTPTimeRead       10061d80     <common>
 0003:00016d84       _slrteGetCurrentStepSize   10061d84     <common>
 0003:00016d88       _slrteSetStepSizeDelta     10061d88     <common>
 0003:00016d8c       _xpceGetIntTimerGranularityNS 10061d8c     <common>
 0003:00016d90       _sendToAsyncQueueTgtAppSvc 10061d90     <common>
 0003:00016d94       _terminateToAsyncQueueTgtAppSvc 10061d94     <common>
 0003:00016d98       _startToAsyncQueueTgtAppSvc 10061d98     <common>
 0003:00016d9c       _getStatusFlags            10061d9c     <common>
 0003:00016da0       _getCommService            10061da0     <common>
 0003:00016da4       _getMemoryService          10061da4     <common>
 0003:00016da8       _StreamVideo               10061da8     <common>
 0003:00016dac       _StopVideoDisplay          10061dac     <common>
 0003:00016db0       _StartVideoDisplay         10061db0     <common>
 0003:00016db4       _DestroyVideoDisplay       10061db4     <common>
 0003:00016db8       _CreateVideoDisplay        10061db8     <common>
 0003:00016dbc       _ConvertUImage             10061dbc     <common>
 0003:00016dc0       _StopVideo                 10061dc0     <common>
 0003:00016dc4       _ReadFrameBuffer           10061dc4     <common>
 0003:00016dc8       _StartVideo                10061dc8     <common>
 0003:00016dcc       _GetVideoConfigs           10061dcc     <common>
 0003:00016dd0       _FindUsbVideoDevice        10061dd0     <common>
 0003:00016dd4       _xpceDeleteSemaphore       10061dd4     <common>
 0003:00016dd8       _xpceSignalSemaphore       10061dd8     <common>
 0003:00016ddc       _xpceWaitSemaphore         10061ddc     <common>
 0003:00016de0       _xpceCreateSemaphore       10061de0     <common>
 0003:00016de4       _TBGiveSpinFast            10061de4     <common>
 0003:00016de8       _TBTakeSpinFast            10061de8     <common>
 0003:00016dec       _TBDeleteSpin              10061dec     <common>
 0003:00016df0       _TBCreateSpin              10061df0     <common>
 0003:00016df4       _xpceScopeAcqOK            10061df4     <common>
 0003:00016df8       _rl32eRestartAcquisition   10061df8     <common>
 0003:00016dfc       _rl32eSetTargetScopeSigFt  10061dfc     <common>
 0003:00016e00       _rl32eSetTargetScope       10061e00     <common>
 0003:00016e04       _xpceFSScopeSet            10061e04     <common>
 0003:00016e08       _rl32eSetScope             10061e08     <common>
 0003:00016e0c       _rl32eAddSignal            10061e0c     <common>
 0003:00016e10       _rl32eGetSignalNo          10061e10     <common>
 0003:00016e14       _rl32eDefScope             10061e14     <common>
 0003:00016e18       _rl32eScopeExists          10061e18     <common>
 0003:00016e1c       _xpceUDPClose              10061e1c     <common>
 0003:00016e20       _xpceUDPReceive            10061e20     <common>
 0003:00016e24       _xpceUDPSend               10061e24     <common>
 0003:00016e28       _xpceUDPOpenReceive        10061e28     <common>
 0003:00016e2c       _xpceUDPOpenSend           10061e2c     <common>
 0003:00016e30       _rl32eSendBlock            10061e30     <common>
 0003:00016e34       _rl32eLineStatus           10061e34     <common>
 0003:00016e38       _rl32eReceiveBufferCount   10061e38     <common>
 0003:00016e3c       _rl32eReceiveChar          10061e3c     <common>
 0003:00016e40       _rl32eSendChar             10061e40     <common>
 0003:00016e44       _rl32eCloseCOMPort         10061e44     <common>
 0003:00016e48       _rl32eInitCOMPort          10061e48     <common>
 0003:00016e4c       _xpceGetParamDims          10061e4c     <common>
 0003:00016e50       _xpceGetParameter          10061e50     <common>
 0003:00016e54       _xpceSetParameter          10061e54     <common>
 0003:00016e58       _xpceGetSignalValue        10061e58     <common>
 0003:00016e5c       _xpceAssignPCIInterrupt    10061e5c     <common>
 0003:00016e60       _rl32eGetPCIInfoAtSlot     10061e60     <common>
 0003:00016e64       _rl32eGetPCIInfo           10061e64     <common>
 0003:00016e68       _rl32eShowPCIInfo          10061e68     <common>
 0003:00016e6c       _rl32eShowPCIDev           10061e6c     <common>
 0003:00016e70       _xpceGetTET                10061e70     <common>
 0003:00016e74       _xpceFTSubtract            10061e74     <common>
 0003:00016e78       _xpceFTAdd                 10061e78     <common>
 0003:00016e7c       _xpceFTReadTime            10061e7c     <common>
 0003:00016e80       ___unguarded_readlc_active 10061e80     <common>
 0003:00016e90       ___setlc_active            10061e90     <common>
 0003:00016e94       __nhandle                  10061e94     <common>
 0003:00016ea0       _encodedKERNEL32Functions  10061ea0     <common>
 0003:00016f48       __debugger_hook_dummy      10061f48     <common>
 0003:00016f54       __pDestructExceptionObject 10061f54     <common>
 0003:00016f60       __acmdln                   10061f60     <common>
 0003:00016f80       __bufin                    10061f80     <common>
 0003:000182bc       ___piob                    100632bc     <common>
 0003:000182c0       __nstream                  100632c0     <common>
 0003:000182c4       ___dyn_tls_init_callback   100632c4     <common>
 0003:000182d4       ___onexitend               100632d4     <common>
 0003:000182d8       ___onexitbegin             100632d8     <common>
 0003:000182dc       ___mbctype_initialized     100632dc     <common>
 0003:000182e0       ___env_initialized         100632e0     <common>
 0004:00000000       __imp__GetModuleHandleA@4  10064000     kernel32:KERNEL32.dll
 0004:00000004       __imp__GetProcAddress@8    10064004     kernel32:KERNEL32.dll
 0004:00000008       __imp__HeapAlloc@12        10064008     kernel32:KERNEL32.dll
 0004:0000000c       __imp__IsDebuggerPresent@0 1006400c     kernel32:KERNEL32.dll
 0004:00000010       __imp__IsProcessorFeaturePresent@4 10064010     kernel32:KERNEL32.dll
 0004:00000014       __imp__EncodePointer@4     10064014     kernel32:KERNEL32.dll
 0004:00000018       __imp__DecodePointer@4     10064018     kernel32:KERNEL32.dll
 0004:0000001c       __imp__GetLastError@0      1006401c     kernel32:KERNEL32.dll
 0004:00000020       __imp__ExitProcess@4       10064020     kernel32:KERNEL32.dll
 0004:00000024       __imp__GetModuleHandleExW@12 10064024     kernel32:KERNEL32.dll
 0004:00000028       __imp__AreFileApisANSI@0   10064028     kernel32:KERNEL32.dll
 0004:0000002c       __imp__MultiByteToWideChar@24 1006402c     kernel32:KERNEL32.dll
 0004:00000030       __imp__WideCharToMultiByte@32 10064030     kernel32:KERNEL32.dll
 0004:00000034       __imp__HeapFree@12         10064034     kernel32:KERNEL32.dll
 0004:00000038       __imp__HeapReAlloc@16      10064038     kernel32:KERNEL32.dll
 0004:0000003c       __imp__EnterCriticalSection@4 1006403c     kernel32:KERNEL32.dll
 0004:00000040       __imp__LeaveCriticalSection@4 10064040     kernel32:KERNEL32.dll
 0004:00000044       __imp__GetStdHandle@4      10064044     kernel32:KERNEL32.dll
 0004:00000048       __imp__GetFileType@4       10064048     kernel32:KERNEL32.dll
 0004:0000004c       __imp__GetModuleFileNameW@12 1006404c     kernel32:KERNEL32.dll
 0004:00000050       __imp__WriteConsoleW@20    10064050     kernel32:KERNEL32.dll
 0004:00000054       __imp__GetCommandLineA@0   10064054     kernel32:KERNEL32.dll
 0004:00000058       __imp__GetCurrentThreadId@0 10064058     kernel32:KERNEL32.dll
 0004:0000005c       __imp__WriteFile@20        1006405c     kernel32:KERNEL32.dll
 0004:00000060       __imp__GetProcessHeap@0    10064060     kernel32:KERNEL32.dll
 0004:00000064       __imp__UnhandledExceptionFilter@4 10064064     kernel32:KERNEL32.dll
 0004:00000068       __imp__SetUnhandledExceptionFilter@4 10064068     kernel32:KERNEL32.dll
 0004:0000006c       __imp__SetLastError@4      1006406c     kernel32:KERNEL32.dll
 0004:00000070       __imp__InitializeCriticalSectionAndSpinCount@8 10064070     kernel32:KERNEL32.dll
 0004:00000074       __imp__CreateEventW@16     10064074     kernel32:KERNEL32.dll
 0004:00000078       __imp__Sleep@4             10064078     kernel32:KERNEL32.dll
 0004:0000007c       __imp__GetCurrentProcess@0 1006407c     kernel32:KERNEL32.dll
 0004:00000080       __imp__TerminateProcess@8  10064080     kernel32:KERNEL32.dll
 0004:00000084       __imp__TlsAlloc@0          10064084     kernel32:KERNEL32.dll
 0004:00000088       __imp__TlsGetValue@4       10064088     kernel32:KERNEL32.dll
 0004:0000008c       __imp__TlsSetValue@8       1006408c     kernel32:KERNEL32.dll
 0004:00000090       __imp__TlsFree@4           10064090     kernel32:KERNEL32.dll
 0004:00000094       __imp__GetStartupInfoW@4   10064094     kernel32:KERNEL32.dll
 0004:00000098       __imp__GetTickCount@0      10064098     kernel32:KERNEL32.dll
 0004:0000009c       __imp__GetModuleHandleW@4  1006409c     kernel32:KERNEL32.dll
 0004:000000a0       __imp__CreateSemaphoreW@16 100640a0     kernel32:KERNEL32.dll
 0004:000000a4       __imp__DeleteCriticalSection@4 100640a4     kernel32:KERNEL32.dll
 0004:000000a8       __imp__FatalAppExitA@8     100640a8     kernel32:KERNEL32.dll
 0004:000000ac       __imp__SetConsoleCtrlHandler@8 100640ac     kernel32:KERNEL32.dll
 0004:000000b0       __imp__FreeLibrary@4       100640b0     kernel32:KERNEL32.dll
 0004:000000b4       __imp__LoadLibraryExW@12   100640b4     kernel32:KERNEL32.dll
 0004:000000b8       __imp__IsValidCodePage@4   100640b8     kernel32:KERNEL32.dll
 0004:000000bc       __imp__GetACP@0            100640bc     kernel32:KERNEL32.dll
 0004:000000c0       __imp__GetOEMCP@0          100640c0     kernel32:KERNEL32.dll
 0004:000000c4       __imp__GetCPInfo@8         100640c4     kernel32:KERNEL32.dll
 0004:000000c8       __imp__CloseHandle@4       100640c8     kernel32:KERNEL32.dll
 0004:000000cc       __imp__RtlUnwind@16        100640cc     kernel32:KERNEL32.dll
 0004:000000d0       __imp__ReadFile@20         100640d0     kernel32:KERNEL32.dll
 0004:000000d4       __imp__GetConsoleMode@8    100640d4     kernel32:KERNEL32.dll
 0004:000000d8       __imp__ReadConsoleW@20     100640d8     kernel32:KERNEL32.dll
 0004:000000dc       __imp__GetConsoleCP@0      100640dc     kernel32:KERNEL32.dll
 0004:000000e0       __imp__DeleteFileW@4       100640e0     kernel32:KERNEL32.dll
 0004:000000e4       __imp__SetFilePointerEx@20 100640e4     kernel32:KERNEL32.dll
 0004:000000e8       __imp__RaiseException@16   100640e8     kernel32:KERNEL32.dll
 0004:000000ec       __imp__OutputDebugStringW@4 100640ec     kernel32:KERNEL32.dll
 0004:000000f0       __imp__GetCurrentThread@0  100640f0     kernel32:KERNEL32.dll
 0004:000000f4       __imp__GetModuleFileNameA@12 100640f4     kernel32:KERNEL32.dll
 0004:000000f8       __imp__QueryPerformanceCounter@4 100640f8     kernel32:KERNEL32.dll
 0004:000000fc       __imp__GetCurrentProcessId@0 100640fc     kernel32:KERNEL32.dll
 0004:00000100       __imp__GetSystemTimeAsFileTime@4 10064100     kernel32:KERNEL32.dll
 0004:00000104       __imp__GetEnvironmentStringsW@0 10064104     kernel32:KERNEL32.dll
 0004:00000108       __imp__FreeEnvironmentStringsW@4 10064108     kernel32:KERNEL32.dll
 0004:0000010c       __imp__HeapSize@12         1006410c     kernel32:KERNEL32.dll
 0004:00000110       __imp__GetDateFormatW@24   10064110     kernel32:KERNEL32.dll
 0004:00000114       __imp__GetTimeFormatW@24   10064114     kernel32:KERNEL32.dll
 0004:00000118       __imp__CompareStringW@24   10064118     kernel32:KERNEL32.dll
 0004:0000011c       __imp__LCMapStringW@24     1006411c     kernel32:KERNEL32.dll
 0004:00000120       __imp__GetLocaleInfoW@16   10064120     kernel32:KERNEL32.dll
 0004:00000124       __imp__IsValidLocale@8     10064124     kernel32:KERNEL32.dll
 0004:00000128       __imp__GetUserDefaultLCID@0 10064128     kernel32:KERNEL32.dll
 0004:0000012c       __imp__EnumSystemLocalesW@8 1006412c     kernel32:KERNEL32.dll
 0004:00000130       __imp__GetStringTypeW@16   10064130     kernel32:KERNEL32.dll
 0004:00000134       __imp__FlushFileBuffers@4  10064134     kernel32:KERNEL32.dll
 0004:00000138       __imp__SetStdHandle@8      10064138     kernel32:KERNEL32.dll
 0004:0000013c       __imp__CreateFileW@28      1006413c     kernel32:KERNEL32.dll
 0004:00000140       __imp__SetEndOfFile@4      10064140     kernel32:KERNEL32.dll
 0004:00000144       \177KERNEL32_NULL_THUNK_DATA 10064144     kernel32:KERNEL32.dll
 0004:000001b0       __IMPORT_DESCRIPTOR_KERNEL32 100641b0     kernel32:KERNEL32.dll
 0004:000001c4       __NULL_IMPORT_DESCRIPTOR   100641c4     kernel32:KERNEL32.dll

 entry point at        0001:000134d3

