 backup_test2_xpc

 Timestamp is 5836765f (Thu Nov 24 00:10:55 2016)

 Preferred load address is 10000000

 Start         Length     Name                   Class
 0001:00000000 0003ff68H .text$mn                CODE
 0002:00000000 00000104H .CRT$XCA                DATA
 0002:00000104 00000104H .CRT$XCZ                DATA
 0002:00000208 00000104H .CRT$XIA                DATA
 0002:0000030c 00000118H .CRT$XIC                DATA
 0002:00000424 00000104H .CRT$XIZ                DATA
 0002:00000528 00000104H .CRT$XPA                DATA
 0002:0000062c 00000109H .CRT$XPX                DATA
 0002:00000738 00000104H .CRT$XPXA               DATA
 0002:0000083c 00000104H .CRT$XPZ                DATA
 0002:00000940 00000104H .CRT$XTA                DATA
 0002:00000a44 00000104H .CRT$XTZ                DATA
 0002:00000b50 0000be8cH .rdata                  DATA
 0002:0000c9dc 000001acH .rdata$debug            DATA
 0002:0000cb90 0000010eH .rdata$sxdata           DATA
 0002:0000cca0 00000104H .rtc$IAA                DATA
 0002:0000cda4 00000104H .rtc$IZZ                DATA
 0002:0000cea8 00000104H .rtc$TAA                DATA
 0002:0000cfac 00000104H .rtc$TZZ                DATA
 0002:0000d0b0 00000991H .xdata$x                DATA
 0002:0000da50 0000021aH .edata                  DATA
 0003:00000000 000029daH .data                   DATA
 0003:000029e0 00016ac4H .bss                    DATA
 0004:00000000 000001b0H .idata$5                DATA
 0004:000001b0 00000014H .idata$2                DATA
 0004:000001c4 00000014H .idata$3                DATA
 0004:000001d8 000001b0H .idata$4                DATA
 0004:00000388 0000076bH .idata$6                DATA

  Address         Publics by Value              Rva+Base       Lib:Object

 0000:00000000       ___guard_flags             00000000     <absolute>
 0000:00000000       ___guard_fids_count        00000000     <absolute>
 0000:00000000       ___guard_fids_table        00000000     <absolute>
 0000:00000000       __except_list              00000000     <absolute>
 0000:00000003       ___safe_se_handler_count   00000003     <absolute>
 0000:00000000       ___ImageBase               10000000     <linker-defined>
 0001:00000330       _MdlInitialize             10001330 f   backup_test2.obj
 0001:00000340       _MdlInitializeSampleTimes  10001340 f   backup_test2.obj
 0001:00000350       _MdlInitializeSizes        10001350 f   backup_test2.obj
 0001:00000360       _MdlOutputs                10001360 f   backup_test2.obj
 0001:00000370       _MdlStart                  10001370 f   backup_test2.obj
 0001:00000380       _MdlTerminate              10001380 f   backup_test2.obj
 0001:00000390       _MdlUpdate                 10001390 f   backup_test2.obj
 0001:00000420       _backup_test2              10001420 f   backup_test2.obj
 0001:00003470       _backup_test2_GetCAPIStaticMap 10004470 f   backup_test2_capi.obj
 0001:00003480       _backup_test2_InitializeDataMapInfo 10004480 f   backup_test2_capi.obj
 0001:00003510       _TgtConnBackgroundTask     10004510 f   backup_test2_tgtconn.obj
 0001:00003520       _TgtConnInit               10004520 f   backup_test2_tgtconn.obj
 0001:00003540       _TgtConnPostStep           10004540 f   backup_test2_tgtconn.obj
 0001:00003550       _TgtConnPreStep            10004550 f   backup_test2_tgtconn.obj
 0001:00003560       _TgtConnTerm               10004560 f   backup_test2_tgtconn.obj
 0001:00003570       _rtGetInf                  10004570 f   rtGetInf.obj
 0001:000035a0       _rtGetInfF                 100045a0 f   rtGetInf.obj
 0001:000035c0       _rtGetMinusInf             100045c0 f   rtGetInf.obj
 0001:000035f0       _rtGetMinusInfF            100045f0 f   rtGetInf.obj
 0001:00003610       _rtGetNaN                  10004610 f   rtGetNaN.obj
 0001:00003640       _rtGetNaNF                 10004640 f   rtGetNaN.obj
 0001:00003f70       _rt_CreateLogVar           10004f70 f   rt_logging.obj
 0001:00004000       _rt_CreateLogVarWithConvert 10005000 f   rt_logging.obj
 0001:00004980       _rt_CreateStructLogVar     10005980 f   rt_logging.obj
 0001:000056f0       _rt_GetMxIdFromDTypeId     100066f0 f   rt_logging.obj
 0001:00005720       _rt_GetMxIdFromDTypeIdForRSim 10006720 f   rt_logging.obj
 0001:00008060       _rt_StartDataLogging       10009060 f   rt_logging.obj
 0001:00008520       _rt_StartDataLoggingWithStartTime 10009520 f   rt_logging.obj
 0001:00008e80       _rt_StopDataLogging        10009e80 f   rt_logging.obj
 0001:00008ea0       _rt_StopDataLoggingImpl    10009ea0 f   rt_logging.obj
 0001:000091c0       _rt_UpdateLogVar           1000a1c0 f   rt_logging.obj
 0001:0000a580       _rt_UpdateStructLogVar     1000b580 f   rt_logging.obj
 0001:0000a610       _rt_UpdateTXXFYLogVars     1000b610 f   rt_logging.obj
 0001:0000a950       _rt_UpdateTXYLogVars       1000b950 f   rt_logging.obj
 0001:0000aba0       _rt_CleanUpForStateLogWithMMI 1000bba0 f   rt_logging_mmi.obj
 0001:0000acb0       _rt_FillStateSigInfoFromMMI 1000bcb0 f   rt_logging_mmi.obj
 0001:0000b060       _rt_mxCreateCharMatrixFromStrings 1000c060 f   rt_matrx.obj
 0001:0000b1b0       _rt_mxCreateDoubleMatrix   1000c1b0 f   rt_matrx.obj
 0001:0000b210       _rt_mxCreateNumericArray   1000c210 f   rt_matrx.obj
 0001:0000b290       _rt_mxCreateString         1000c290 f   rt_matrx.obj
 0001:0000b320       _rt_mxDuplicateArray       1000c320 f   rt_matrx.obj
 0001:0000b380       _rt_mxGetDimensions        1000c380 f   rt_matrx.obj
 0001:0000b3c0       _rt_mxGetEps               1000c3c0 f   rt_matrx.obj
 0001:0000b3d0       _rt_mxGetString            1000c3d0 f   rt_matrx.obj
 0001:0000b450       _rtIsInf                   1000c450 f   rt_nonfinite.obj
 0001:0000b490       _rtIsInfF                  1000c490 f   rt_nonfinite.obj
 0001:0000b4d0       _rtIsNaN                   1000c4d0 f   rt_nonfinite.obj
 0001:0000b4f0       _rtIsNaNF                  1000c4f0 f   rt_nonfinite.obj
 0001:0000b510       _rt_InitInfAndNaN          1000c510 f   rt_nonfinite.obj
 0001:0000b570       _rtPrintfNoOp              1000c570 f   rt_printf.obj
 0001:0000b580       _rtwCAPI_CountSysRan       1000c580 f   rtw_modelmap_utils.obj
 0001:0000b620       _rtwCAPI_EncodePath        1000c620 f   rtw_modelmap_utils.obj
 0001:0000b710       _rtwCAPI_FillSysRan        1000c710 f   rtw_modelmap_utils.obj
 0001:0000b800       _rtwCAPI_FreeFullPaths     1000c800 f   rtw_modelmap_utils.obj
 0001:0000b890       _rtwCAPI_GetFullStateBlockPath 1000c890 f   rtw_modelmap_utils.obj
 0001:0000ba40       _rtwCAPI_GetNumContStateRecords 1000ca40 f   rtw_modelmap_utils.obj
 0001:0000bb00       _rtwCAPI_GetNumSigLogRecords 1000cb00 f   rtw_modelmap_utils.obj
 0001:0000bb50       _rtwCAPI_GetNumSigLogRecordsForRTWLogging 1000cb50 f   rtw_modelmap_utils.obj
 0001:0000bbe0       _rtwCAPI_GetNumStateRecords 1000cbe0 f   rtw_modelmap_utils.obj
 0001:0000bc30       _rtwCAPI_GetNumStateRecordsForRTWLogging 1000cc30 f   rtw_modelmap_utils.obj
 0001:0000bcc0       _rtwCAPI_GetSigAddrFromMap 1000ccc0 f   rtw_modelmap_utils.obj
 0001:0000bd80       _rtwCAPI_GetSigLogRecordInfo 1000cd80 f   rtw_modelmap_utils.obj
 0001:0000c1b0       _rtwCAPI_GetStateRecordInfo 1000d1b0 f   rtw_modelmap_utils.obj
 0001:0000c660       _rtwCAPI_GetStateWidth     1000d660 f   rtw_modelmap_utils.obj
 0001:0000c6c0       _rtwCAPI_HasStates         1000d6c0 f   rtw_modelmap_utils.obj
 0001:0000c730       _rtwCAPI_UpdateFullPaths   1000d730 f   rtw_modelmap_utils.obj
 0001:0000c910       _DllMain@12                1000d910 f   xpctarget.obj
 0001:0000c920       _SLRTSetErrorStatus        1000d920 f   xpctarget.obj
 0001:0000c940       _backup_test2_ChangeStepSize 1000d940 f   xpctarget.obj
 0001:0000c990       _changeStepSize            1000d990 f   xpctarget.obj
 0001:0000c9e0       _getDLMVersion             1000d9e0 f   xpctarget.obj
 0001:0000c9f0       _getRefMdlPath             1000d9f0 f   xpctarget.obj
 0001:0000ca70       _getRefMdlSignalNumber     1000da70 f   xpctarget.obj
 0001:0000cb20       _getrlmdlinfo              1000db20 f   xpctarget.obj
 0001:0000cd00       _updateDiscreteEvents      1000dd00 f   xpctarget.obj
 0001:0000cd10       _getNumRef                 1000dd10 f   appmappingData.obj
 0001:0000cd20       _encconteccnt328mpci       1000dd20 f   encconteccnt328mpci.obj
 0001:0000e3c0       _dopci8255                 1000f3c0 f   dopci8255.obj
 0001:0000f6c0       _dacbpcidda0x12            100106c0 f   dacbpcidda0x12.obj
 0001:00010690       _xpcudpbytereceive         10011690 f   xpcudpbytereceive.obj
 0001:000106e0       _dipci8255                 100116e0 f   dipci8255.obj
 0001:00011280       _GetPCIDeviceFull          10012280 f   xpcruntime:xpcimports.obj
 0001:000112b0       _ShowPCIDevice             100122b0 f   xpcruntime:xpcimports.obj
 0001:00011920       _xpcGetPciConfigAtSlot     10012920 f   xpcruntime:xpcimports.obj
 0001:00011ba0       _xpcInitProcs              10012ba0 f   xpcruntime:xpcimports.obj
 0001:00012700       _xpceuploadevent           10013700 f   xpcruntime:xpcimports.obj
 0001:00012701       __heap_alloc               10013701 f i LIBCMT:malloc.obj
 0001:0001273e       _malloc                    1001373e f   LIBCMT:malloc.obj
 0001:000127d0       __get_printf_count_output  100137d0 f   LIBCMT:printf.obj
 0001:000127e5       __printf_l                 100137e5 f   LIBCMT:printf.obj
 0001:000127fc       __printf_p                 100137fc f   LIBCMT:printf.obj
 0001:00012812       __printf_p_l               10013812 f   LIBCMT:printf.obj
 0001:00012829       __printf_s_l               10013829 f   LIBCMT:printf.obj
 0001:00012840       __set_printf_count_output  10013840 f   LIBCMT:printf.obj
 0001:00012868       _printf                    10013868 f   LIBCMT:printf.obj
 0001:00012917       _printf_s                  10013917 f   LIBCMT:printf.obj
 0001:00012930       _ceil                      10013930 f   LIBCMT:ceil_pentium4.obj
 0001:00012970       __ceil_pentium4            10013970 f   LIBCMT:ceil_pentium4.obj
 0001:00012a50       _memset                    10013a50 f   LIBCMT:memset.obj
 0001:00012ae0       __fpmath                   10013ae0 f   LIBCMT:fpinit.obj
 0001:00012af7       ___setfflag                10013af7 f   LIBCMT:fpinit.obj
 0001:00012b0a       __cfltcvt_init             10013b0a f   LIBCMT:fpinit.obj
 0001:00012b6a       ___raise_securityfailure   10013b6a f   LIBCMT:gs_report.obj
 0001:00012ba7       ___report_gsfailure        10013ba7 f   LIBCMT:gs_report.obj
 0001:00012ca2       ___report_rangecheckfailure 10013ca2 f   LIBCMT:gs_report.obj
 0001:00012cae       ___report_securityfailure  10013cae f   LIBCMT:gs_report.obj
 0001:00012d7e       ___report_securityfailureEx 10013d7e f   LIBCMT:gs_report.obj
 0001:00012e94       ___copy_path_to_wide_string 10013e94 f   LIBCMT:crt0dat.obj
 0001:00012f46       ___copy_to_char            10013f46 f   LIBCMT:crt0dat.obj
 0001:00012ffb       ___crtCorExitProcess       10013ffb f   LIBCMT:crt0dat.obj
 0001:0001302f       ___crtExitProcess          1001402f f   LIBCMT:crt0dat.obj
 0001:00013045       ___freeCrtMemory           10014045 f   LIBCMT:crt0dat.obj
 0001:00013152       __amsg_exit                10014152 f   LIBCMT:crt0dat.obj
 0001:0001316e       __c_exit                   1001416e f   LIBCMT:crt0dat.obj
 0001:0001317d       __cexit                    1001417d f   LIBCMT:crt0dat.obj
 0001:0001318c       __cinit                    1001418c f   LIBCMT:crt0dat.obj
 0001:00013210       __exit                     10014210 f   LIBCMT:crt0dat.obj
 0001:00013224       __exit_app                 10014224 f   LIBCMT:crt0dat.obj
 0001:00013232       __get_pgmptr               10014232 f   LIBCMT:crt0dat.obj
 0001:00013261       __get_wpgmptr              10014261 f   LIBCMT:crt0dat.obj
 0001:00013290       __init_pointers            10014290 f   LIBCMT:crt0dat.obj
 0001:000132fe       __initterm_e               100142fe f   LIBCMT:crt0dat.obj
 0001:00013320       __lockexit                 10014320 f   LIBCMT:crt0dat.obj
 0001:00013329       __unlockexit               10014329 f   LIBCMT:crt0dat.obj
 0001:00013461       _exit                      10014461 f   LIBCMT:crt0dat.obj
 0001:00013475       _calloc                    10014475 f   LIBCMT:calloc.obj
 0001:000134b5       _free                      100144b5 f   LIBCMT:free.obj
 0001:000134ed       _realloc                   100144ed f   LIBCMT:realloc.obj
 0001:000135a0       _memmove                   100145a0 f   LIBCMT:memmove.obj
 0001:00013bf0       _strchr                    10014bf0 f   LIBCMT:strchr.obj
 0001:00013c5e       ___from_strstr_to_strchr   10014c5e     LIBCMT:strchr.obj
 0001:00013d20       _strncat                   10014d20 f   LIBCMT:strncat.obj
 0001:00013e60       _strncpy                   10014e60 f   LIBCMT:strncpy.obj
 0001:00013f84       ___initstdio               10014f84 f   LIBCMT:_file.obj
 0001:00013ff7       ___endstdio                10014ff7 f   LIBCMT:_file.obj
 0001:0001401e       ___iob_func                1001501e f   LIBCMT:_file.obj
 0001:00014024       __lock_file                10015024 f   LIBCMT:_file.obj
 0001:00014063       __lock_file2               10015063 f   LIBCMT:_file.obj
 0001:00014093       __unlock_file              10015093 f   LIBCMT:_file.obj
 0001:000140cd       __unlock_file2             100150cd f   LIBCMT:_file.obj
 0001:000140fa       __fclose_nolock            100150fa f   LIBCMT:fclose.obj
 0001:00014166       _fclose                    10015166 f   LIBCMT:fclose.obj
 0001:000141dd       __fsopen                   100151dd f   LIBCMT:fopen.obj
 0001:000142a1       _fopen                     100152a1 f   LIBCMT:fopen.obj
 0001:000142b6       _fopen_s                   100152b6 f   LIBCMT:fopen.obj
 0001:000142fb       __fprintf_l                100152fb f   LIBCMT:fprintf.obj
 0001:00014315       __fprintf_p                10015315 f   LIBCMT:fprintf.obj
 0001:0001432e       __fprintf_p_l              1001532e f   LIBCMT:fprintf.obj
 0001:00014348       __fprintf_s_l              10015348 f   LIBCMT:fprintf.obj
 0001:00014362       _fprintf                   10015362 f   LIBCMT:fprintf.obj
 0001:00014474       _fprintf_s                 10015474 f   LIBCMT:fprintf.obj
 0001:0001448d       __fread_nolock             1001548d f   LIBCMT:fread.obj
 0001:000144a8       __fread_nolock_s           100154a8 f   LIBCMT:fread.obj
 0001:0001466d       _fread                     1001566d f   LIBCMT:fread.obj
 0001:00014688       _fread_s                   10015688 f   LIBCMT:fread.obj
 0001:00014719       __fwrite_nolock            10015719 f   LIBCMT:fwrite.obj
 0001:00014872       _fwrite                    10015872 f   LIBCMT:fwrite.obj
 0001:000148f4       __unlink                   100158f4 f   LIBCMT:unlink.obj
 0001:000148fd       _remove                    100158fd f   LIBCMT:unlink.obj
 0001:0001493f       _rewind                    1001593f f   LIBCMT:rewind.obj
 0001:000149fe       __scprintf                 100159fe f   LIBCMT:sprintf.obj
 0001:00014a11       __scprintf_l               10015a11 f   LIBCMT:sprintf.obj
 0001:00014a28       __scprintf_p               10015a28 f   LIBCMT:sprintf.obj
 0001:00014a3b       __scprintf_p_l             10015a3b f   LIBCMT:sprintf.obj
 0001:00014a52       __snprintf_s               10015a52 f   LIBCMT:sprintf.obj
 0001:00014a71       __snprintf_s_l             10015a71 f   LIBCMT:sprintf.obj
 0001:00014a91       __sprintf_l                10015a91 f   LIBCMT:sprintf.obj
 0001:00014aab       __sprintf_p                10015aab f   LIBCMT:sprintf.obj
 0001:00014ac7       __sprintf_p_l              10015ac7 f   LIBCMT:sprintf.obj
 0001:00014ae4       __sprintf_s_l              10015ae4 f   LIBCMT:sprintf.obj
 0001:00014b01       _sprintf                   10015b01 f   LIBCMT:sprintf.obj
 0001:00014b85       _sprintf_s                 10015b85 f   LIBCMT:sprintf.obj
 0001:00014ba1       _ldexp                     10015ba1 f   LIBCMT:ldexp.obj
 0001:00014d8d       @__security_check_cookie@4 10015d8d f   LIBCMT:secchk.obj
 0001:00014da0       __ftoui3                   10015da0 f   LIBCMT:ftol3.obj
 0001:00014daf       __ftoul3                   10015daf f   LIBCMT:ftol3.obj
 0001:00014dbe       __ftol3                    10015dbe f   LIBCMT:ftol3.obj
 0001:00014dcb       __ftol3_NaN                10015dcb f   LIBCMT:ftol3.obj
 0001:00014de3       __ftol3_work               10015de3 f   LIBCMT:ftol3.obj
 0001:00014e69       __ftol3_common             10015e69 f   LIBCMT:ftol3.obj
 0001:00014f2b       __ftol3_arg_error          10015f2b f   LIBCMT:ftol3.obj
 0001:00014f3d       __ftol3_except             10015f3d f   LIBCMT:ftol3.obj
 0001:00014f7f       __dtoui3                   10015f7f f   LIBCMT:ftol3.obj
 0001:00014f8e       __dtoul3                   10015f8e f   LIBCMT:ftol3.obj
 0001:00014f9d       __dtol3                    10015f9d f   LIBCMT:ftol3.obj
 0001:00014faa       __dtol3_NaN                10015faa f   LIBCMT:ftol3.obj
 0001:00014fc7       __dtol3_work               10015fc7 f   LIBCMT:ftol3.obj
 0001:000150ac       __ultod3                   100160ac f   LIBCMT:ftol3.obj
 0001:0001513d       __ltod3                    1001613d f   LIBCMT:ftol3.obj
 0001:00015170       _memcpy                    10016170 f   LIBCMT:memcpy.obj
 0001:000157b4       ___isa_available_init      100167b4 f   LIBCMT:cpu_disp.obj
 0001:0001592d       __invoke_watson_if_error   1001692d f i LIBCMT:wassert.obj
 0001:0001594d       __wassert                  1001694d f   LIBCMT:wassert.obj
 0001:00015ff1       __CRT_INIT@12              10016ff1 f   LIBCMT:dllcrt0.obj
 0001:00016163       __DllMainCRTStartup@12     10017163 f   LIBCMT:dllcrt0.obj
 0001:00016294       ___DllXcptFilter           10017294 f   LIBCMT:dllcrt0.obj
 0001:000162b9       ?_query_new_handler@@YAP6AHI@ZXZ 100172b9 f   LIBCMT:handler.obj
 0001:000162c6       ?_set_new_handler@@YAP6AHI@ZH@Z 100172c6 f   LIBCMT:handler.obj
 0001:000162cf       ?_set_new_handler@@YAP6AHI@ZP6AHI@Z@Z 100172cf f   LIBCMT:handler.obj
 0001:00016304       __callnewh                 10017304 f   LIBCMT:handler.obj
 0001:0001632a       __initp_heap_handler       1001732a f   LIBCMT:handler.obj
 0001:00016337       __FF_MSGBANNER             10017337 f   LIBCMT:crt0msg.obj
 0001:00016370       __GET_RTERRMSG             10017370 f   LIBCMT:crt0msg.obj
 0001:00016394       __NMSG_WRITE               10017394 f   LIBCMT:crt0msg.obj
 0001:00016551       ___doserrno                10017551 f   LIBCMT:dosmap.obj
 0001:00016564       __dosmaperr                10017564 f   LIBCMT:dosmap.obj
 0001:00016585       __errno                    10017585 f   LIBCMT:dosmap.obj
 0001:00016598       __get_doserrno             10017598 f   LIBCMT:dosmap.obj
 0001:000165bb       __get_errno                100175bb f   LIBCMT:dosmap.obj
 0001:000165de       __get_errno_from_oserr     100175de f   LIBCMT:dosmap.obj
 0001:0001661f       __set_doserrno             1001761f f   LIBCMT:dosmap.obj
 0001:0001663e       __set_errno                1001763e f   LIBCMT:dosmap.obj
 0001:0001665d       __get_heap_handle          1001765d f   LIBCMT:heapinit.obj
 0001:00016663       __heap_init                10017663 f   LIBCMT:heapinit.obj
 0001:00016678       __heap_term                10017678 f   LIBCMT:heapinit.obj
 0001:00016680       ?_invalid_parameter@@YAXPBG00II@Z 10017680 f   LIBCMT:invarg.obj
 0001:00016685       ?_invoke_watson@@YAXPBG00II@Z 10017685 f   LIBCMT:invarg.obj
 0001:0001669d       __call_reportfault         1001769d f   LIBCMT:invarg.obj
 0001:000167c2       __get_invalid_parameter_handler 100177c2 f   LIBCMT:invarg.obj
 0001:000167cf       __initp_misc_invarg        100177cf f   LIBCMT:invarg.obj
 0001:000167dc       __invalid_parameter        100177dc f   LIBCMT:invarg.obj
 0001:00016807       __invalid_parameter_noinfo 10017807 f   LIBCMT:invarg.obj
 0001:00016817       __invalid_parameter_noinfo_noreturn 10017817 f   LIBCMT:invarg.obj
 0001:00016832       __invoke_watson            10017832 f   LIBCMT:invarg.obj
 0001:0001685d       __set_invalid_parameter_handler 1001785d f   LIBCMT:invarg.obj
 0001:00016882       __vprintf_l                10017882 f   LIBCMT:vprintf.obj
 0001:0001689d       __vprintf_p                1001789d f   LIBCMT:vprintf.obj
 0001:000168b7       __vprintf_p_l              100178b7 f   LIBCMT:vprintf.obj
 0001:000168d2       __vprintf_s_l              100178d2 f   LIBCMT:vprintf.obj
 0001:000168ed       _vprintf                   100178ed f   LIBCMT:vprintf.obj
 0001:00016907       _vprintf_helper            10017907 f   LIBCMT:vprintf.obj
 0001:00016994       _vprintf_s                 10017994 f   LIBCMT:vprintf.obj
 0001:000169ae       __ftbuf                    100179ae f   LIBCMT:_sftbuf.obj
 0001:000169df       __stbuf                    100179df f   LIBCMT:_sftbuf.obj
 0001:00016a85       ??0_LocaleUpdate@@QAE@PAUlocaleinfo_struct@@@Z 10017a85 f i LIBCMT:output.obj
 0001:00016b0d       ??1_LocaleUpdate@@QAE@XZ   10017b0d f i LIBCMT:output.obj
 0001:00016b1b       ?GetLocaleT@_LocaleUpdate@@QAEPAUlocaleinfo_struct@@XZ 10017b1b f i LIBCMT:output.obj
 0001:00016b1e       __output_l                 10017b1e f   LIBCMT:output.obj
 0001:0001769e       _get_int64_arg             1001869e f i LIBCMT:output.obj
 0001:000176b1       _get_int_arg               100186b1 f i LIBCMT:output.obj
 0001:000176c1       _get_short_arg             100186c1 f i LIBCMT:output.obj
 0001:000177c0       __SEH_prolog4              100187c0 f   LIBCMT:sehprolg4.obj
 0001:00017805       __SEH_epilog4              10018805 f   LIBCMT:sehprolg4.obj
 0001:00017860       __except_handler4          10018860 f   LIBCMT:chandler4.obj
 0001:000179f4       ___libm_error_support      100189f4 f   LIBCMT:libm_error.obj
 0001:00017cdc       ___libm_setusermatherr     10018cdc f   LIBCMT:libm_error.obj
 0001:00017d08       __sse2_mathfcns_init       10018d08 f   LIBCMT:mathfcns.obj
 0001:00017d17       __set_SSE2_enable          10018d17 f   LIBCMT:mathfcns.obj
 0001:00017d36       __ceil_default             10018d36 f   LIBCMT:ceil.obj
 0001:00017e0d       __VEC_memset               10018e0d f   LIBCMT:p4_memset.obj
 0001:00017ed5       ?strrchr@@YAPADPADH@Z      10018ed5 f i LIBCMT:cvt.obj
 0001:00017ede       __cfltcvt                  10018ede f   LIBCMT:cvt.obj
 0001:00017eff       __cfltcvt_l                10018eff f   LIBCMT:cvt.obj
 0001:00017f85       __cftoa                    10018f85 f   LIBCMT:cvt.obj
 0001:00017fa3       __cftoa_l                  10018fa3 f   LIBCMT:cvt.obj
 0001:000182ff       __cftoe                    100192ff f   LIBCMT:cvt.obj
 0001:0001846e       __cftoe_l                  1001946e f   LIBCMT:cvt.obj
 0001:0001853c       __cftof                    1001953c f   LIBCMT:cvt.obj
 0001:00018643       __cftof_l                  10019643 f   LIBCMT:cvt.obj
 0001:00018704       __cftog                    10019704 f   LIBCMT:cvt.obj
 0001:00018722       __cftog_l                  10019722 f   LIBCMT:cvt.obj
 0001:00018821       __cropzeros                10019821 f   LIBCMT:cvt.obj
 0001:00018832       __cropzeros_l              10019832 f   LIBCMT:cvt.obj
 0001:000188b2       __fassign                  100198b2 f   LIBCMT:cvt.obj
 0001:000188ca       __fassign_l                100198ca f   LIBCMT:cvt.obj
 0001:0001890c       __forcdecpt                1001990c f   LIBCMT:cvt.obj
 0001:0001891d       __forcdecpt_l              1001991d f   LIBCMT:cvt.obj
 0001:00018991       __positive                 10019991 f   LIBCMT:cvt.obj
 0001:000189d3       __setdefaultprecision      100199d3 f   LIBCMT:fp8.obj
 0001:000189fa       __initp_misc_cfltcvt_tab   100199fa f   LIBCMT:cmiscdat.obj
 0001:00018a19       __crt_debugger_hook        10019a19 f   LIBCMT:dbghook.obj
 0001:00018a4e       ___crtCloseThreadpoolTimer 10019a4e f   LIBCMT:winapisupp.obj
 0001:00018a65       ___crtCloseThreadpoolWait  10019a65 f   LIBCMT:winapisupp.obj
 0001:00018a7c       ___crtCreateEventExW       10019a7c f   LIBCMT:winapisupp.obj
 0001:00018ab7       ___crtCreateSemaphoreExW   10019ab7 f   LIBCMT:winapisupp.obj
 0001:00018af1       ___crtCreateSymbolicLinkW  10019af1 f   LIBCMT:winapisupp.obj
 0001:00018b1a       ___crtCreateThreadpoolTimer 10019b1a f   LIBCMT:winapisupp.obj
 0001:00018b3b       ___crtCreateThreadpoolWait 10019b3b f   LIBCMT:winapisupp.obj
 0001:00018b5c       ___crtFlsAlloc             10019b5c f   LIBCMT:winapisupp.obj
 0001:00018b7a       ___crtFlsFree              10019b7a f   LIBCMT:winapisupp.obj
 0001:00018b99       ___crtFlsGetValue          10019b99 f   LIBCMT:winapisupp.obj
 0001:00018bb8       ___crtFlsSetValue          10019bb8 f   LIBCMT:winapisupp.obj
 0001:00018bda       ___crtFlushProcessWriteBuffers 10019bda f   LIBCMT:winapisupp.obj
 0001:00018bea       ___crtFreeLibraryWhenCallbackReturns 10019bea f   LIBCMT:winapisupp.obj
 0001:00018c04       ___crtGetCurrentProcessorNumber 10019c04 f   LIBCMT:winapisupp.obj
 0001:00018c16       ___crtGetFileInformationByHandleEx 10019c16 f   LIBCMT:winapisupp.obj
 0001:00018c42       ___crtGetLogicalProcessorInformation 10019c42 f   LIBCMT:winapisupp.obj
 0001:00018c68       ___crtGetShowWindowMode    10019c68 f   LIBCMT:winapisupp.obj
 0001:00018c8b       ___crtGetTickCount64       10019c8b f   LIBCMT:winapisupp.obj
 0001:00018ca3       ___crtInitializeCriticalSectionEx 10019ca3 f   LIBCMT:winapisupp.obj
 0001:00018cd1       ___crtIsPackagedApp        10019cd1 f   LIBCMT:winapisupp.obj
 0001:00018d11       ___crtLoadWinApiPointers   10019d11 f   LIBCMT:winapisupp.obj
 0001:00018f9c       ___crtSetFileInformationByHandle 10019f9c f   LIBCMT:winapisupp.obj
 0001:00018fc8       ___crtSetThreadStackGuarantee 10019fc8 f   LIBCMT:winapisupp.obj
 0001:00018fe3       ___crtSetThreadpoolTimer   10019fe3 f   LIBCMT:winapisupp.obj
 0001:00019003       ___crtSetThreadpoolWait    1001a003 f   LIBCMT:winapisupp.obj
 0001:00019020       ___crtSetUnhandledExceptionFilter 1001a020 f   LIBCMT:winapisupp.obj
 0001:0001902e       ___crtSleep                1001a02e f   LIBCMT:winapisupp.obj
 0001:0001903c       ___crtTerminateProcess     1001a03c f   LIBCMT:winapisupp.obj
 0001:00019051       ___crtUnhandledException   1001a051 f   LIBCMT:winapisupp.obj
 0001:00019067       ___crtWaitForThreadpoolTimerCallbacks 1001a067 f   LIBCMT:winapisupp.obj
 0001:00019081       __RTC_Initialize           1001a081 f   LIBCMT:initsect.obj
 0001:000190a1       __RTC_Terminate            1001a0a1 f   LIBCMT:initsect.obj
 0001:000190c1       __lock                     1001a0c1 f   LIBCMT:mlock.obj
 0001:000190f5       __lockerr_exit             1001a0f5 f   LIBCMT:mlock.obj
 0001:00019115       __mtdeletelocks            1001a115 f   LIBCMT:mlock.obj
 0001:00019169       __mtinitlocknum            1001a169 f   LIBCMT:mlock.obj
 0001:00019212       __mtinitlocks              1001a212 f   LIBCMT:mlock.obj
 0001:0001924b       __unlock                   1001a24b f   LIBCMT:mlock.obj
 0001:00019260       __FindPESection            1001a260 f   LIBCMT:pesect.obj
 0001:000192b0       __IsNonwritableInCurrentImage 1001a2b0 f   LIBCMT:pesect.obj
 0001:00019370       __ValidateImageBase        1001a370 f   LIBCMT:pesect.obj
 0001:000193a1       ___onexitinit              1001a3a1 f   LIBCMT:onexit.obj
 0001:000193d0       __onexit                   1001a3d0 f   LIBCMT:onexit.obj
 0001:000194cc       _atexit                    1001a4cc f   LIBCMT:onexit.obj
 0001:000194e1       __calloc_crt               1001a4e1 f   LIBCMT:crtheap.obj
 0001:00019529       __malloc_crt               1001a529 f   LIBCMT:crtheap.obj
 0001:00019570       __realloc_crt              1001a570 f   LIBCMT:crtheap.obj
 0001:000195ba       __recalloc_crt             1001a5ba f   LIBCMT:crtheap.obj
 0001:00019608       __set_malloc_crt_max_wait  1001a608 f   LIBCMT:crtheap.obj
 0001:0001961b       _wait_a_bit                1001a61b f i LIBCMT:crtheap.obj
 0001:0001963f       ?_inconsistency@@YAXXZ     1001a63f f   LIBCMT:hooks.obj
 0001:00019677       ?terminate@@YAXXZ          1001a677 f   LIBCMT:hooks.obj
 0001:000196ab       ?unexpected@@YAXXZ         1001a6ab f   LIBCMT:hooks.obj
 0001:000196be       __initp_eh_hooks           1001a6be f   LIBCMT:hooks.obj
 0001:000196cf       ___getlocaleinfo           1001a6cf f   LIBCMT:inithelp.obj
 0001:000198a8       __initp_misc_purevirt      1001a8a8 f   LIBCMT:inithelp.obj
 0001:000198b5       ___fpecode                 1001a8b5 f   LIBCMT:winsig.obj
 0001:000198be       ___get_sigabrt             1001a8be f   LIBCMT:winsig.obj
 0001:000198cb       ___pxcptinfoptrs           1001a8cb f   LIBCMT:winsig.obj
 0001:000198d4       __initp_misc_winsig        1001a8d4 f   LIBCMT:winsig.obj
 0001:00019995       _raise                     1001a995 f   LIBCMT:winsig.obj
 0001:00019b8a       _signal                    1001ab8a f   LIBCMT:winsig.obj
 0001:00019de1       __initp_misc_rand_s        1001ade1 f   LIBCMT:rand_s.obj
 0001:00019dee       _rand_s                    1001adee f   LIBCMT:rand_s.obj
 0001:00019ef4       ___initmbctable            1001aef4 f   LIBCMT:mbctype.obj
 0001:0001a1ab       ___updatetmbcinfo          1001b1ab f   LIBCMT:mbctype.obj
 0001:0001a251       __getmbcp                  1001b251 f   LIBCMT:mbctype.obj
 0001:0001a282       __setmbcp                  1001b282 f   LIBCMT:mbctype.obj
 0001:0001a42a       __setmbcp_nolock           1001b42a f   LIBCMT:mbctype.obj
 0001:0001a615       __calloc_impl              1001b615 f   LIBCMT:calloc_impl.obj
 0001:0001a68f       __fcloseall                1001b68f f   LIBCMT:closeall.obj
 0001:0001a72c       __fflush_nolock            1001b72c f   LIBCMT:fflush.obj
 0001:0001a772       __flush                    1001b772 f   LIBCMT:fflush.obj
 0001:0001a7d6       __flushall                 1001b7d6 f   LIBCMT:fflush.obj
 0001:0001a7df       _fflush                    1001b7df f   LIBCMT:fflush.obj
 0001:0001a91c       __fileno                   1001b91c f   LIBCMT:fileno.obj
 0001:0001a940       __close                    1001b940 f   LIBCMT:close.obj
 0001:0001aa1b       __close_nolock             1001ba1b f   LIBCMT:close.obj
 0001:0001aab5       __freebuf                  1001bab5 f   LIBCMT:_freebuf.obj
 0001:0001aae5       __getstream                1001bae5 f   LIBCMT:stream.obj
 0001:0001ac04       __openfile                 1001bc04 f   LIBCMT:_open.obj
 0001:0001ae80       __local_unwind4            1001be80 f   LIBCMT:exsup4.obj
 0001:0001af56       __seh_longjmp_unwind4@4    1001bf56 f   LIBCMT:exsup4.obj
 0001:0001af72       @_EH4_CallFilterFunc@8     1001bf72 f   LIBCMT:exsup4.obj
 0001:0001af89       @_EH4_TransferToHandler@8  1001bf89 f   LIBCMT:exsup4.obj
 0001:0001afa2       @_EH4_GlobalUnwind2@8      1001bfa2 f   LIBCMT:exsup4.obj
 0001:0001afbb       @_EH4_LocalUnwind@16       1001bfbb f   LIBCMT:exsup4.obj
 0001:0001afd2       __vfprintf_l               1001bfd2 f   LIBCMT:vfprintf.obj
 0001:0001aff0       __vfprintf_p               1001bff0 f   LIBCMT:vfprintf.obj
 0001:0001b00d       __vfprintf_p_l             1001c00d f   LIBCMT:vfprintf.obj
 0001:0001b02b       __vfprintf_s_l             1001c02b f   LIBCMT:vfprintf.obj
 0001:0001b049       _vfprintf                  1001c049 f   LIBCMT:vfprintf.obj
 0001:0001b066       _vfprintf_helper           1001c066 f   LIBCMT:vfprintf.obj
 0001:0001b177       _vfprintf_s                1001c177 f   LIBCMT:vfprintf.obj
 0001:0001b194       __ioinit                   1001c194 f   LIBCMT:ioinit.obj
 0001:0001b448       __ioterm                   1001c448 f   LIBCMT:ioinit.obj
 0001:0001b49a       __filbuf                   1001c49a f   LIBCMT:_filbuf.obj
 0001:0001b5bb       _memcpy_s                  1001c5bb f   LIBCMT:memcpy_s.obj
 0001:0001b63a       __read                     1001c63a f   LIBCMT:read.obj
 0001:0001b74e       __read_nolock              1001c74e f   LIBCMT:read.obj
 0001:0001bedf       __flsbuf                   1001cedf f   LIBCMT:_flsbuf.obj
 0001:0001c02e       __write                    1001d02e f   LIBCMT:write.obj
 0001:0001c11d       __write_nolock             1001d11d f   LIBCMT:write.obj
 0001:0001c982       __wremove                  1001d982 f   LIBCMT:wunlink.obj
 0001:0001c9b0       __wunlink                  1001d9b0 f   LIBCMT:wunlink.obj
 0001:0001c9b9       __lseek                    1001d9b9 f   LIBCMT:lseek.obj
 0001:0001caa8       __lseek_nolock             1001daa8 f   LIBCMT:lseek.obj
 0001:0001cb4f       __vscprintf                1001db4f f   LIBCMT:vsprintf.obj
 0001:0001cb69       __vscprintf_helper         1001db69 f   LIBCMT:vsprintf.obj
 0001:0001cbc5       __vscprintf_l              1001dbc5 f   LIBCMT:vsprintf.obj
 0001:0001cbe0       __vscprintf_p              1001dbe0 f   LIBCMT:vsprintf.obj
 0001:0001cbfa       __vscprintf_p_l            1001dbfa f   LIBCMT:vsprintf.obj
 0001:0001cc15       __vsprintf_l               1001dc15 f   LIBCMT:vsprintf.obj
 0001:0001cc99       _vsprintf                  1001dc99 f   LIBCMT:vsprintf.obj
 0001:0001ccb1       __vsnprintf_c              1001dcb1 f   LIBCMT:vsnprnc.obj
 0001:0001ccd8       __vsnprintf_c_l            1001dcd8 f   LIBCMT:vsnprnc.obj
 0001:0001cd00       __vsnprintf_helper         1001dd00 f   LIBCMT:vsnprnc.obj
 0001:0001cdca       __vsnprintf_s              1001ddca f   LIBCMT:vsnprnc.obj
 0001:0001cde8       __vsnprintf_s_l            1001dde8 f   LIBCMT:vsnprnc.obj
 0001:0001cee8       __vsprintf_p               1001dee8 f   LIBCMT:vsnprnc.obj
 0001:0001cf0f       __vsprintf_p_l             1001df0f f   LIBCMT:vsnprnc.obj
 0001:0001cf37       __vsprintf_s_l             1001df37 f   LIBCMT:vsnprnc.obj
 0001:0001cfac       _vsprintf_s                1001dfac f   LIBCMT:vsnprnc.obj
 0001:0001cfc7       __chgsign                  1001dfc7 f   LIBCMT:ieeemisc.obj
 0001:0001cff4       __chgsignf                 1001dff4 f   LIBCMT:ieeemisc.obj
 0001:0001d015       __copysign                 1001e015 f   LIBCMT:ieeemisc.obj
 0001:0001d03d       __copysignf                1001e03d f   LIBCMT:ieeemisc.obj
 0001:0001d059       __finite                   1001e059 f   LIBCMT:ieeemisc.obj
 0001:0001d071       __fpclass                  1001e071 f   LIBCMT:ieeemisc.obj
 0001:0001d10d       __isnan                    1001e10d f   LIBCMT:ieeemisc.obj
 0001:0001d140       __logb                     1001e140 f   LIBCMT:ieeemisc.obj
 0001:0001d221       __nextafter                1001e221 f   LIBCMT:ieeemisc.obj
 0001:0001d4c1       __scalb                    1001e4c1 f   LIBCMT:ieeemisc.obj
 0001:0001d4d9       __add_exp                  1001e4d9 f   LIBCMT:util.obj
 0001:0001d508       __decomp                   1001e508 f   LIBCMT:util.obj
 0001:0001d5da       __get_exp                  1001e5da f   LIBCMT:util.obj
 0001:0001d5f3       __set_bexp                 1001e5f3 f   LIBCMT:util.obj
 0001:0001d61c       __set_exp                  1001e61c f   LIBCMT:util.obj
 0001:0001d64b       __sptype                   1001e64b f   LIBCMT:util.obj
 0001:0001d6a6       __errcode                  1001e6a6 f   LIBCMT:fpexcept.obj
 0001:0001d6d8       __except1                  1001e6d8 f   LIBCMT:fpexcept.obj
 0001:0001d7a0       __except2                  1001e7a0 f   LIBCMT:fpexcept.obj
 0001:0001d8a0       __handle_exc               1001e8a0 f   LIBCMT:fpexcept.obj
 0001:0001da7e       __handle_qnan1             1001ea7e f   LIBCMT:fpexcept.obj
 0001:0001dace       __handle_qnan2             1001eace f   LIBCMT:fpexcept.obj
 0001:0001db2e       __raise_exc                1001eb2e f   LIBCMT:fpexcept.obj
 0001:0001db4f       __raise_exc_ex             1001eb4f f   LIBCMT:fpexcept.obj
 0001:0001de34       __raise_excf               1001ee34 f   LIBCMT:fpexcept.obj
 0001:0001de55       __set_errno_from_matherr   1001ee55 f   LIBCMT:fpexcept.obj
 0001:0001de82       __umatherr                 1001ee82 f   LIBCMT:fpexcept.obj
 0001:0001df22       ___clrfp_sse2              1001ef22 f   LIBCMT:fpctrl.obj
 0001:0001df43       ___ctrlfp_sse2             1001ef43 f   LIBCMT:fpctrl.obj
 0001:0001df7c       ___fclrf_sse2              1001ef7c f   LIBCMT:fpctrl.obj
 0001:0001df99       ___get_fpsr_sse2           1001ef99 f   LIBCMT:fpctrl.obj
 0001:0001dfb5       ___set_fpsr_sse2           1001efb5 f   LIBCMT:fpctrl.obj
 0001:0001e02b       ___set_statfp_sse2         1001f02b f   LIBCMT:fpctrl.obj
 0001:0001e044       ___statfp_sse2             1001f044 f   LIBCMT:fpctrl.obj
 0001:0001e059       __clrfp                    1001f059 f   LIBCMT:fpctrl.obj
 0001:0001e06a       __ctrlfp                   1001f06a f   LIBCMT:fpctrl.obj
 0001:0001e095       __set_statfp               1001f095 f   LIBCMT:fpctrl.obj
 0001:0001e0ed       __statfp                   1001f0ed f   LIBCMT:fpctrl.obj
 0001:0001e0fd       _wcscat_s                  1001f0fd f   LIBCMT:wcscat_s.obj
 0001:0001e169       _wcscpy_s                  1001f169 f   LIBCMT:wcscpy_s.obj
 0001:0001e1c5       _wcslen                    1001f1c5 f   LIBCMT:wcslen.obj
 0001:0001e1de       _wcsncat_s                 1001f1de f   LIBCMT:wcsncat_s.obj
 0001:0001e2ac       __set_abort_behavior       1001f2ac f   LIBCMT:abort.obj
 0001:0001e2cb       _abort                     1001f2cb f   LIBCMT:abort.obj
 0001:0001e30e       ___set_app_type            1001f30e f   LIBCMT:errmode.obj
 0001:0001e31b       __set_error_mode           1001f31b f   LIBCMT:errmode.obj
 0001:0001e477       __i64tow_s                 1001f477 f   LIBCMT:xtows.obj
 0001:0001e4a8       __itow_s                   1001f4a8 f   LIBCMT:xtows.obj
 0001:0001e4d1       __ltow_s                   1001f4d1 f   LIBCMT:xtows.obj
 0001:0001e4fb       __ui64tow_s                1001f4fb f   LIBCMT:xtows.obj
 0001:0001e516       __ultow_s                  1001f516 f   LIBCMT:xtows.obj
 0001:0001e621       _setvbuf                   1001f621 f   LIBCMT:setvbuf.obj
 0001:0001e727       __fwprintf_l               1001f727 f   LIBCMT:fwprintf.obj
 0001:0001e741       __fwprintf_p               1001f741 f   LIBCMT:fwprintf.obj
 0001:0001e75a       __fwprintf_p_l             1001f75a f   LIBCMT:fwprintf.obj
 0001:0001e774       __fwprintf_s_l             1001f774 f   LIBCMT:fwprintf.obj
 0001:0001e78e       _fwprintf                  1001f78e f   LIBCMT:fwprintf.obj
 0001:0001e822       _fwprintf_s                1001f822 f   LIBCMT:fwprintf.obj
 0001:0001e83b       __vsnwprintf_s             1001f83b f   LIBCMT:vswprnc.obj
 0001:0001e859       __vsnwprintf_s_l           1001f859 f   LIBCMT:vswprnc.obj
 0001:0001e95d       __vswprintf_c              1001f95d f   LIBCMT:vswprnc.obj
 0001:0001e984       __vswprintf_c_l            1001f984 f   LIBCMT:vswprnc.obj
 0001:0001e9ac       __vswprintf_helper         1001f9ac f   LIBCMT:vswprnc.obj
 0001:0001eaa7       __vswprintf_p              1001faa7 f   LIBCMT:vswprnc.obj
 0001:0001eace       __vswprintf_p_l            1001face f   LIBCMT:vswprnc.obj
 0001:0001eaf6       __vswprintf_s_l            1001faf6 f   LIBCMT:vswprnc.obj
 0001:0001eb6d       _vswprintf_s               1001fb6d f   LIBCMT:vswprnc.obj
 0001:0001eb88       ___crtMessageBoxW          1001fb88 f   LIBCMT:crtmboxw.obj
 0001:0001ed6e       ___crtMessageBoxWaitThreadW@4 1001fd6e f   LIBCMT:crtmboxw.obj
 0001:0001ed8c       __XcptFilter               1001fd8c f   LIBCMT:winxfltr.obj
 0001:0001eee7       ___CppXcptFilter           1001fee7 f   LIBCMT:winxfltr.obj
 0001:0001ef39       ___get_flsindex            1001ff39 f   LIBCMT:tidtable.obj
 0001:0001ef3f       ___threadhandle            1001ff3f f   LIBCMT:tidtable.obj
 0001:0001ef45       ___threadid                1001ff45 f   LIBCMT:tidtable.obj
 0001:0001ef4b       __freefls@4                1001ff4b f   LIBCMT:tidtable.obj
 0001:0001f080       __freeptd                  10020080 f   LIBCMT:tidtable.obj
 0001:0001f0b6       __getptd                   100200b6 f   LIBCMT:tidtable.obj
 0001:0001f0ce       __getptd_noexit            100200ce f   LIBCMT:tidtable.obj
 0001:0001f13d       __initptd                  1002013d f   LIBCMT:tidtable.obj
 0001:0001f1f0       __mtinit                   100201f0 f   LIBCMT:tidtable.obj
 0001:0001f266       __mtterm                   10020266 f   LIBCMT:tidtable.obj
 0001:0001f283       __set_pgmptr               10020283 f i LIBCMT:stdargv.obj
 0001:0001f290       __setargv                  10020290 f   LIBCMT:stdargv.obj
 0001:0001f4bf       __setenvp                  100204bf f   LIBCMT:stdenvp.obj
 0001:0001f5a0       ___security_init_cookie    100205a0 f   LIBCMT:gs_support.obj
 0001:0001f63c       ___crtGetEnvironmentStringsA 1002063c f   LIBCMT:a_env.obj
 0001:0001f6d0       _strlen                    100206d0 f   LIBCMT:strlen.obj
 0001:0001f75b       _wcsncpy_s                 1002075b f   LIBCMT:wcsncpy_s.obj
 0001:0001f819       __output_s_l               10020819 f   LIBCMT:outputs.obj
 0001:000204a1       __output_p_l               100214a1 f   LIBCMT:outputp.obj
 0001:000217d9       __validate_param_reuseA    100227d9 f   LIBCMT:outputp.obj
 0001:0002190f       _get_crtdouble_arg         1002290f f i LIBCMT:outputp.obj
 0001:00021a0e       __isatty                   10022a0e f   LIBCMT:isatty.obj
 0001:00021a62       ___addlocaleref            10022a62 f   LIBCMT:localref.obj
 0001:00021af7       ___freetlocinfo            10022af7 f   LIBCMT:localref.obj
 0001:00021c51       ___removelocaleref         10022c51 f   LIBCMT:localref.obj
 0001:00021cf1       ___updatetlocinfo          10022cf1 f   LIBCMT:localref.obj
 0001:00021d71       __updatetlocinfoEx_nolock  10022d71 f   LIBCMT:localref.obj
 0001:00021dbc       ___iswcsym                 10022dbc f i LIBCMT:_wctype.obj
 0001:00021de0       ___iswcsymf                10022de0 f i LIBCMT:_wctype.obj
 0001:00021e04       __isleadbyte_l             10022e04 f i LIBCMT:_wctype.obj
 0001:00021e3e       __iswalnum_l               10022e3e f i LIBCMT:_wctype.obj
 0001:00021e52       __iswalpha_l               10022e52 f i LIBCMT:_wctype.obj
 0001:00021e66       __iswblank_l               10022e66 f i LIBCMT:_wctype.obj
 0001:00021e81       __iswcntrl_l               10022e81 f i LIBCMT:_wctype.obj
 0001:00021e92       __iswcsym_l                10022e92 f i LIBCMT:_wctype.obj
 0001:00021eb6       __iswcsymf_l               10022eb6 f i LIBCMT:_wctype.obj
 0001:00021eda       __iswdigit_l               10022eda f i LIBCMT:_wctype.obj
 0001:00021eeb       __iswgraph_l               10022eeb f i LIBCMT:_wctype.obj
 0001:00021eff       __iswlower_l               10022eff f i LIBCMT:_wctype.obj
 0001:00021f10       __iswprint_l               10022f10 f i LIBCMT:_wctype.obj
 0001:00021f24       __iswpunct_l               10022f24 f i LIBCMT:_wctype.obj
 0001:00021f35       __iswspace_l               10022f35 f i LIBCMT:_wctype.obj
 0001:00021f46       __iswupper_l               10022f46 f i LIBCMT:_wctype.obj
 0001:00021f57       __iswxdigit_l              10022f57 f i LIBCMT:_wctype.obj
 0001:00021f6b       _isleadbyte                10022f6b f i LIBCMT:_wctype.obj
 0001:00021f7c       _iswalnum                  10022f7c f i LIBCMT:_wctype.obj
 0001:00021f90       _iswalpha                  10022f90 f i LIBCMT:_wctype.obj
 0001:00021fa4       _iswascii                  10022fa4 f i LIBCMT:_wctype.obj
 0001:00021fb6       _iswblank                  10022fb6 f i LIBCMT:_wctype.obj
 0001:00021fd1       _iswcntrl                  10022fd1 f i LIBCMT:_wctype.obj
 0001:00021fe2       _iswdigit                  10022fe2 f i LIBCMT:_wctype.obj
 0001:00021ff3       _iswgraph                  10022ff3 f i LIBCMT:_wctype.obj
 0001:00022007       _iswlower                  10023007 f i LIBCMT:_wctype.obj
 0001:00022018       _iswprint                  10023018 f i LIBCMT:_wctype.obj
 0001:0002202c       _iswpunct                  1002302c f i LIBCMT:_wctype.obj
 0001:0002203d       _iswspace                  1002303d f i LIBCMT:_wctype.obj
 0001:0002204e       _iswupper                  1002304e f i LIBCMT:_wctype.obj
 0001:0002205f       _iswxdigit                 1002305f f i LIBCMT:_wctype.obj
 0001:00022073       __wctomb_l                 10023073 f   LIBCMT:wctomb.obj
 0001:000220c2       __wctomb_s_l               100230c2 f   LIBCMT:wctomb.obj
 0001:000221e6       _wctomb                    100231e6 f   LIBCMT:wctomb.obj
 0001:00022219       _wctomb_s                  10023219 f   LIBCMT:wctomb.obj
 0001:00022240       __aulldvrm                 10023240 f   LIBCMT:ulldvrm.obj
 0001:000222d5       __matherr                  100232d5 f   LIBCMT:matherr.obj
 0001:000222d8       __frnd                     100232d8 f   LIBCMT:frnd.obj
 0001:000222ec       ___isascii                 100232ec f i LIBCMT:_ctype.obj
 0001:000222fc       ___iscsym                  100232fc f i LIBCMT:_ctype.obj
 0001:0002231c       ___iscsymf                 1002331c f i LIBCMT:_ctype.obj
 0001:00022339       ___toascii                 10023339 f i LIBCMT:_ctype.obj
 0001:00022344       __isalnum_l                10023344 f i LIBCMT:_ctype.obj
 0001:0002239c       __isalpha_l                1002339c f i LIBCMT:_ctype.obj
 0001:000223f4       __isblank_l                100233f4 f i LIBCMT:_ctype.obj
 0001:0002244e       __iscntrl_l                1002344e f i LIBCMT:_ctype.obj
 0001:000224a0       __iscsym_l                 100234a0 f i LIBCMT:_ctype.obj
 0001:000224c1       __iscsymf_l                100234c1 f i LIBCMT:_ctype.obj
 0001:000224e2       __isdigit_l                100234e2 f i LIBCMT:_ctype.obj
 0001:00022534       __isgraph_l                10023534 f i LIBCMT:_ctype.obj
 0001:0002258c       __islower_l                1002358c f i LIBCMT:_ctype.obj
 0001:000225de       __isprint_l                100235de f i LIBCMT:_ctype.obj
 0001:00022636       __ispunct_l                10023636 f i LIBCMT:_ctype.obj
 0001:00022688       __isspace_l                10023688 f i LIBCMT:_ctype.obj
 0001:000226da       __isupper_l                100236da f i LIBCMT:_ctype.obj
 0001:0002272c       __isxdigit_l               1002372c f i LIBCMT:_ctype.obj
 0001:00022784       _isalnum                   10023784 f i LIBCMT:_ctype.obj
 0001:000227b1       _isalpha                   100237b1 f i LIBCMT:_ctype.obj
 0001:000227de       _isblank                   100237de f i LIBCMT:_ctype.obj
 0001:00022813       _iscntrl                   10023813 f i LIBCMT:_ctype.obj
 0001:0002283e       _isdigit                   1002383e f i LIBCMT:_ctype.obj
 0001:00022869       _isgraph                   10023869 f i LIBCMT:_ctype.obj
 0001:00022896       _islower                   10023896 f i LIBCMT:_ctype.obj
 0001:000228c1       _isprint                   100238c1 f i LIBCMT:_ctype.obj
 0001:000228ee       _ispunct                   100238ee f i LIBCMT:_ctype.obj
 0001:00022919       _isspace                   10023919 f i LIBCMT:_ctype.obj
 0001:00022944       _isupper                   10023944 f i LIBCMT:_ctype.obj
 0001:0002296f       _isxdigit                  1002396f f i LIBCMT:_ctype.obj
 0001:0002299c       __tolower                  1002399c f   LIBCMT:tolower.obj
 0001:000229a7       __tolower_l                100239a7 f   LIBCMT:tolower.obj
 0001:00022aea       _tolower                   10023aea f   LIBCMT:tolower.obj
 0001:00022b16       _strcpy_s                  10023b16 f   LIBCMT:strcpy_s.obj
 0001:00022b70       _strrchr                   10023b70 f   LIBCMT:strrchr.obj
 0001:00022ca7       __fptostr                  10023ca7 f   LIBCMT:_fptostr.obj
 0001:00022d57       ___crt_atoflt_l            10023d57 f   LIBCMT:atodbl.obj
 0001:00022dfb       __atodbl                   10023dfb f   LIBCMT:atodbl.obj
 0001:00022e10       __atodbl_l                 10023e10 f   LIBCMT:atodbl.obj
 0001:00022e9e       __atoflt                   10023e9e f   LIBCMT:atodbl.obj
 0001:00022eb3       __atoflt_l                 10023eb3 f   LIBCMT:atodbl.obj
 0001:00022ecb       __atoldbl                  10023ecb f   LIBCMT:atodbl.obj
 0001:00022ee0       __atoldbl_l                10023ee0 f   LIBCMT:atodbl.obj
 0001:00022f6f       ___dtold                   10023f6f f   LIBCMT:cfout.obj
 0001:00023037       __fltout2                  10024037 f   LIBCMT:cfout.obj
 0001:000230d0       __alldvrm                  100240d0 f   LIBCMT:lldvrm.obj
 0001:000231b0       __aullshr                  100241b0 f   LIBCMT:ullshr.obj
 0001:000231cf       __get_output_format        100241cf f   LIBCMT:outputformat.obj
 0001:000231d5       __set_output_format        100241d5 f   LIBCMT:outputformat.obj
 0001:00023207       __controlfp_s              10024207 f   LIBCMT:contrlfp.obj
 0001:00023264       __fptrap                   10024264 f   LIBCMT:crt0fp.obj
 0001:0002326d       __msize                    1002426d f   LIBCMT:msize.obj
 0001:0002329e       __recalloc                 1002429e f   LIBCMT:recalloc.obj
 0001:00023307       _strncpy_s                 10024307 f   LIBCMT:strncpy_s.obj
 0001:0002348f       __MallocaIsSizeInRange     1002448f f i LIBCMT:a_loc.obj
 0001:000234a0       __MarkAllocaS              100244a0 f i LIBCMT:a_loc.obj
 0001:000234b4       ___crtGetLocaleInfoA       100244b4 f   LIBCMT:a_loc.obj
 0001:000234ee       __freea                    100244ee f i LIBCMT:a_loc.obj
 0001:0002350c       _GetTableIndexFromLcid     1002450c f   LIBCMT:winapinls.obj
 0001:00023541       _GetTableIndexFromLocaleName 10024541 f   LIBCMT:winapinls.obj
 0001:0002358f       ___crtCompareStringEx      1002458f f   LIBCMT:winapinls.obj
 0001:000235db       ___crtDownlevelLCIDToLocaleName 100245db f   LIBCMT:winapinls.obj
 0001:00023657       ___crtDownlevelLocaleNameToLCID 10024657 f   LIBCMT:winapinls.obj
 0001:00023695       ___crtEnumSystemLocalesEx  10024695 f   LIBCMT:winapinls.obj
 0001:000236d2       ___crtGetDateFormatEx      100246d2 f   LIBCMT:winapinls.obj
 0001:0002371b       ___crtGetLocaleInfoEx      1002471b f   LIBCMT:winapinls.obj
 0001:0002374a       ___crtGetTimeFormatEx      1002474a f   LIBCMT:winapinls.obj
 0001:0002377f       ___crtGetUserDefaultLocaleName 1002477f f   LIBCMT:winapinls.obj
 0001:000237aa       ___crtIsValidLocaleName    100247aa f   LIBCMT:winapinls.obj
 0001:000237d5       ___crtLCMapStringEx        100247d5 f   LIBCMT:winapinls.obj
 0001:00023821       ___wcsnicmp_ascii          10024821 f   LIBCMT:winapinls.obj
 0001:00023ab3       ___crtLCMapStringA         10024ab3 f   LIBCMT:a_map.obj
 0001:00023bf1       ___crtGetStringTypeA       10024bf1 f   LIBCMT:a_str.obj
 0001:00023c31       __commit                   10024c31 f   LIBCMT:commit.obj
 0001:00023d1a       ___lock_fhandle            10024d1a f   LIBCMT:osfinfo.obj
 0001:00023da8       __alloc_osfhnd             10024da8 f   LIBCMT:osfinfo.obj
 0001:00023f51       __free_osfhnd              10024f51 f   LIBCMT:osfinfo.obj
 0001:00023fd7       __get_osfhandle            10024fd7 f   LIBCMT:osfinfo.obj
 0001:0002403e       __open_osfhandle           1002503e f   LIBCMT:osfinfo.obj
 0001:00024154       __set_osfhnd               10025154 f   LIBCMT:osfinfo.obj
 0001:000241d6       __unlock_fhandle           100251d6 f   LIBCMT:osfinfo.obj
 0001:000241fc       __open                     100251fc f   LIBCMT:open.obj
 0001:000242ac       __sopen                    100252ac f   LIBCMT:open.obj
 0001:000242df       __sopen_helper             100252df f   LIBCMT:open.obj
 0001:000243a8       __sopen_nolock             100253a8 f   LIBCMT:open.obj
 0001:000243f6       __sopen_s                  100253f6 f   LIBCMT:open.obj
 0001:00024414       __mbsnbcmp                 10025414 f   LIBCMT:mbsnbcmp.obj
 0001:0002442c       __mbsnbcmp_l               1002542c f   LIBCMT:mbsnbcmp.obj
 0001:00024543       __mbsnbicmp                10025543 f   LIBCMT:mbsnbicm.obj
 0001:0002455b       __mbsnbicmp_l              1002555b f   LIBCMT:mbsnbicm.obj
 0001:00024720       __global_unwind2           10025720 f   LIBCMT:exsup.obj
 0001:00024785       __local_unwind2            10025785 f   LIBCMT:exsup.obj
 0001:00024809       __abnormal_termination     10025809 f   LIBCMT:exsup.obj
 0001:0002482c       __NLG_Notify1              1002582c f   LIBCMT:exsup.obj
 0001:00024835       __NLG_Notify               10025835 f   LIBCMT:exsup.obj
 0001:0002484c       __NLG_Dispatch2            1002584c     LIBCMT:exsup.obj
 0001:0002484c       __NLG_Dispatch             1002584c     LIBCMT:exsup.obj
 0001:00024854       __NLG_Call                 10025854 f   LIBCMT:exsup.obj
 0001:00024856       __NLG_Return2              10025856     LIBCMT:exsup.obj
 0001:00024857       __getbuf                   10025857 f   LIBCMT:_getbuf.obj
 0001:0002489d       __lseeki64                 1002589d f   LIBCMT:lseeki64.obj
 0001:00024999       __lseeki64_nolock          10025999 f   LIBCMT:lseeki64.obj
 0001:00024a0c       __mbtowc_l                 10025a0c f   LIBCMT:mbtowc.obj
 0001:00024b01       _mbtowc                    10025b01 f   LIBCMT:mbtowc.obj
 0001:00024b19       __putwch                   10025b19 f   LIBCMT:putwch.obj
 0001:00024b65       __putwch_nolock            10025b65 f   LIBCMT:putwch.obj
 0001:00024bb0       __chkstk                   10025bb0 f   LIBCMT:chkstk.obj
 0001:00024bb0       __alloca_probe             10025bb0 f   LIBCMT:chkstk.obj
 0001:00024bdb       __vfwprintf_l              10025bdb f   LIBCMT:vfwprint.obj
 0001:00024bf9       __vfwprintf_p              10025bf9 f   LIBCMT:vfwprint.obj
 0001:00024c16       __vfwprintf_p_l            10025c16 f   LIBCMT:vfwprint.obj
 0001:00024c34       __vfwprintf_s_l            10025c34 f   LIBCMT:vfwprint.obj
 0001:00024c52       _vfwprintf                 10025c52 f   LIBCMT:vfwprint.obj
 0001:00024c6f       _vfwprintf_helper          10025c6f f   LIBCMT:vfwprint.obj
 0001:00024d02       _vfwprintf_s               10025d02 f   LIBCMT:vfwprint.obj
 0001:00024d1f       __woutput_l                10025d1f f   LIBCMT:woutput.obj
 0001:000259fe       __woutput_s_l              100269fe f   LIBCMT:woutputs.obj
 0001:00026715       __validate_param_reuseW    10027715 f   LIBCMT:woutputp.obj
 0001:0002688d       __woutput_p_l              1002788d f   LIBCMT:woutputp.obj
 0001:00027cb6       __ismbbalnum               10028cb6 f   LIBCMT:ismbbyte.obj
 0001:00027ccf       __ismbbalnum_l             10028ccf f   LIBCMT:ismbbyte.obj
 0001:00027ce9       __ismbbalpha               10028ce9 f   LIBCMT:ismbbyte.obj
 0001:00027d02       __ismbbalpha_l             10028d02 f   LIBCMT:ismbbyte.obj
 0001:00027d1c       __ismbbblank               10028d1c f   LIBCMT:ismbbyte.obj
 0001:00027d3d       __ismbbblank_l             10028d3d f   LIBCMT:ismbbyte.obj
 0001:00027d5f       __ismbbgraph               10028d5f f   LIBCMT:ismbbyte.obj
 0001:00027d78       __ismbbgraph_l             10028d78 f   LIBCMT:ismbbyte.obj
 0001:00027d92       __ismbbkalnum              10028d92 f   LIBCMT:ismbbyte.obj
 0001:00027da8       __ismbbkalnum_l            10028da8 f   LIBCMT:ismbbyte.obj
 0001:00027dbf       __ismbbkana                10028dbf f   LIBCMT:ismbbyte.obj
 0001:00027dd0       __ismbbkana_l              10028dd0 f   LIBCMT:ismbbyte.obj
 0001:00027e1c       __ismbbkprint              10028e1c f   LIBCMT:ismbbyte.obj
 0001:00027e32       __ismbbkprint_l            10028e32 f   LIBCMT:ismbbyte.obj
 0001:00027e49       __ismbbkpunct              10028e49 f   LIBCMT:ismbbyte.obj
 0001:00027e5f       __ismbbkpunct_l            10028e5f f   LIBCMT:ismbbyte.obj
 0001:00027e76       __ismbblead                10028e76 f   LIBCMT:ismbbyte.obj
 0001:00027e8c       __ismbblead_l              10028e8c f   LIBCMT:ismbbyte.obj
 0001:00027ea3       __ismbbprint               10028ea3 f   LIBCMT:ismbbyte.obj
 0001:00027ebc       __ismbbprint_l             10028ebc f   LIBCMT:ismbbyte.obj
 0001:00027ed6       __ismbbpunct               10028ed6 f   LIBCMT:ismbbyte.obj
 0001:00027eec       __ismbbpunct_l             10028eec f   LIBCMT:ismbbyte.obj
 0001:00027f03       __ismbbtrail               10028f03 f   LIBCMT:ismbbyte.obj
 0001:00027f19       __ismbbtrail_l             10028f19 f   LIBCMT:ismbbyte.obj
 0001:00028156       __strtol_l                 10029156 f   LIBCMT:strtol.obj
 0001:00028171       __strtoul_l                10029171 f   LIBCMT:strtol.obj
 0001:0002818c       _strtol                    1002918c f   LIBCMT:strtol.obj
 0001:000281b6       _strtoul                   100291b6 f   LIBCMT:strtol.obj
 0001:000281e0       ___free_lconv_mon          100291e0 f   LIBCMT:initmon.obj
 0001:000282dc       ___init_monetary           100292dc f   LIBCMT:initmon.obj
 0001:000286b5       ___free_lconv_num          100296b5 f   LIBCMT:initnum.obj
 0001:0002871c       ___init_numeric            1002971c f   LIBCMT:initnum.obj
 0001:0002895a       ___free_lc_time            1002995a f   LIBCMT:inittime.obj
 0001:00028cda       ___init_time               10029cda f   LIBCMT:inittime.obj
 0001:00029549       _localeconv                1002a549 f   LIBCMT:lconv.obj
 0001:0002956f       __iswctype_l               1002a56f f   LIBCMT:iswctype.obj
 0001:00029581       _is_wctype                 1002a581 f   LIBCMT:iswctype.obj
 0001:0002958a       _iswctype                  1002a58a f   LIBCMT:iswctype.obj
 0001:000295e0       ____lc_codepage_func       1002a5e0 f   LIBCMT:initctyp.obj
 0001:00029606       ____lc_collate_cp_func     1002a606 f   LIBCMT:initctyp.obj
 0001:0002962c       ____lc_locale_name_func    1002a62c f   LIBCMT:initctyp.obj
 0001:00029654       ____mb_cur_max_func        1002a654 f   LIBCMT:initctyp.obj
 0001:0002967a       ____mb_cur_max_l_func      1002a67a f   LIBCMT:initctyp.obj
 0001:00029691       ___init_ctype              1002a691 f   LIBCMT:initctyp.obj
 0001:00029a29       ___pctype_func             1002aa29 f   LIBCMT:ctype.obj
 0001:00029a52       ___pwctype_func            1002aa52 f   LIBCMT:ctype.obj
 0001:00029a58       __isctype                  1002aa58 f   LIBCMT:isctype.obj
 0001:00029a87       __isctype_l                1002aa87 f   LIBCMT:isctype.obj
 0001:00029b38       ___init_dummy              1002ab38 f   LIBCMT:wsetloca.obj
 0001:00029b3b       __locterm                  1002ab3b f   LIBCMT:wsetloca.obj
 0001:00029b8d       ____setlc_active_func      1002ab8d f   LIBCMT:wsetloca.obj
 0001:00029b93       ____unguarded_readlc_active_add_func 1002ab93 f   LIBCMT:wsetloca.obj
 0001:00029b99       ___copy_locale_name        1002ab99 f   LIBCMT:wsetloca.obj
 0001:00029bfd       ___create_locale           1002abfd f   LIBCMT:wsetloca.obj
 0001:00029c06       ___free_locale             1002ac06 f   LIBCMT:wsetloca.obj
 0001:00029c0b       ___get_current_locale      1002ac0b f   LIBCMT:wsetloca.obj
 0001:00029c10       ___lc_lctowcs              1002ac10 f   LIBCMT:wsetloca.obj
 0001:00029c7e       ___lc_wcstolc              1002ac7e f   LIBCMT:wsetloca.obj
 0001:00029daa       __configthreadlocale       1002adaa f   LIBCMT:wsetloca.obj
 0001:00029e30       __create_locale            1002ae30 f   LIBCMT:wsetloca.obj
 0001:00029e92       __expandlocale             1002ae92 f   LIBCMT:wsetloca.obj
 0001:0002a189       __free_locale              1002b189 f   LIBCMT:wsetloca.obj
 0001:0002a240       __get_current_locale       1002b240 f   LIBCMT:wsetloca.obj
 0001:0002a2ef       __wcreate_locale           1002b2ef f   LIBCMT:wsetloca.obj
 0001:0002a3c6       __wcscats                  1002b3c6 f   LIBCMT:wsetloca.obj
 0001:0002a405       __wsetlocale               1002b405 f   LIBCMT:wsetloca.obj
 0001:0002ad47       __CopyMan                  1002bd47 f i LIBCMT:intrncvt.obj
 0001:0002ad64       __FillZeroMan              1002bd64 f i LIBCMT:intrncvt.obj
 0001:0002ad73       __IncMan                   1002bd73 f i LIBCMT:intrncvt.obj
 0001:0002add5       __IsZeroMan                1002bdd5 f i LIBCMT:intrncvt.obj
 0001:0002adf2       __RoundMan                 1002bdf2 f i LIBCMT:intrncvt.obj
 0001:0002aef3       __ShrMan                   1002bef3 f i LIBCMT:intrncvt.obj
 0001:0002af81       __ZeroTail                 1002bf81 f i LIBCMT:intrncvt.obj
 0001:0002afc9       ___addl                    1002bfc9 f i LIBCMT:intrncvt.obj
 0001:0002afed       __ld12cvt                  1002bfed f i LIBCMT:intrncvt.obj
 0001:0002b558       __ld12tod                  1002c558 f   LIBCMT:intrncvt.obj
 0001:0002baca       __ld12tof                  1002caca f   LIBCMT:intrncvt.obj
 0001:0002c03c       __ld12told                 1002d03c f   LIBCMT:intrncvt.obj
 0001:0002c10b       ___STRINGTOLD_L            1002d10b f   LIBCMT:strgtold.obj
 0001:0002c166       ___ld12mul                 1002d166 f i LIBCMT:strgtold.obj
 0001:0002c432       ___multtenpow12            1002d432 f i LIBCMT:strgtold.obj
 0001:0002c785       ___shl_12                  1002d785 f i LIBCMT:strgtold.obj
 0001:0002c7b6       ___shr_12                  1002d7b6 f i LIBCMT:strgtold.obj
 0001:0002c7e6       ___strgtold12_l            1002d7e6 f   LIBCMT:strgtold.obj
 0001:0002cf8e       _$I10_OUTPUT               1002df8e f   LIBCMT:x10fout.obj
 0001:0002d962       ___add_12                  1002e962 f i LIBCMT:x10fout.obj
 0001:0002db0e       ___control87_2             1002eb0e f   LIBCMT:ieee87.obj
 0001:0002e182       __clearfp                  1002f182 f   LIBCMT:ieee87.obj
 0001:0002e262       __control87                1002f262 f i LIBCMT:ieee87.obj
 0001:0002e564       __controlfp                1002f564 f   LIBCMT:ieee87.obj
 0001:0002e86f       __fpreset                  1002f86f f   LIBCMT:ieee87.obj
 0001:0002e93c       __set_controlfp            1002f93c f   LIBCMT:ieee87.obj
 0001:0002e9af       __statusfp                 1002f9af f   LIBCMT:ieee87.obj
 0001:0002ea49       __statusfp2                1002fa49 f   LIBCMT:ieee87.obj
 0001:0002eab0       __alloca_probe_16          1002fab0 f   LIBCMT:alloca16.obj
 0001:0002eac6       __alloca_probe_8           1002fac6     LIBCMT:alloca16.obj
 0001:0002eadc       _wcsnlen                   1002fadc f   LIBCMT:wcslen_s.obj
 0001:0002eb83       __wopen                    1002fb83 f   LIBCMT:wopen.obj
 0001:0002ec33       __wsopen                   1002fc33 f   LIBCMT:wopen.obj
 0001:0002ec66       __wsopen_helper            1002fc66 f   LIBCMT:wopen.obj
 0001:0002ed2f       __wsopen_nolock            1002fd2f f   LIBCMT:wopen.obj
 0001:0002f482       __wsopen_s                 10030482 f   LIBCMT:wopen.obj
 0001:0002f4a0       _strncmp                   100304a0 f   LIBCMT:strncmp.obj
 0001:0002f518       __strnicmp                 10030518 f   LIBCMT:strnicmp.obj
 0001:0002f583       __strnicmp_l               10030583 f   LIBCMT:strnicmp.obj
 0001:0002f634       ___termconout              10030634 f   LIBCMT:initcon.obj
 0001:0002f64b       ___initconout              1003064b f   LIBCMT:initcon.obj
 0001:0002f66a       __fputwc_nolock            1003066a f   LIBCMT:fputwc.obj
 0001:0002f7f0       _fputwc                    100307f0 f   LIBCMT:fputwc.obj
 0001:0002f867       _putwc                     10030867 f   LIBCMT:fputwc.obj
 0001:0002fa51       __wcstol_l                 10030a51 f   LIBCMT:wcstol.obj
 0001:0002fa69       __wcstoul_l                10030a69 f   LIBCMT:wcstol.obj
 0001:0002fa81       _wcstol                    10030a81 f   LIBCMT:wcstol.obj
 0001:0002fa99       _wcstoul                   10030a99 f   LIBCMT:wcstol.obj
 0001:0002fab1       ___init_collate            10030ab1 f   LIBCMT:initcoll.obj
 0001:0002fbd1       _memcmp                    10030bd1 f   LIBCMT:memcmp.obj
 0001:00032ae5       _wcscmp                    10033ae5 f   LIBCMT:wcscmp.obj
 0001:00032b23       _wcscspn                   10033b23 f   LIBCMT:wcscspn.obj
 0001:00032b6e       _wcsncmp                   10033b6e f   LIBCMT:wcsncmp.obj
 0001:00032ba4       _wcspbrk                   10033ba4 f   LIBCMT:wcspbrk.obj
 0001:000331a8       ___get_qualified_locale    100341a8 f   LIBCMT:getqloc.obj
 0001:00033a18       ___get_qualified_locale_downlevel 10034a18 f   LIBCMT:getqloc_downlevel.obj
 0001:00033c34       ___mtold12                 10034c34 f   LIBCMT:mantold.obj
 0001:00033e14       __chsize                   10034e14 f   LIBCMT:chsize.obj
 0001:00033e2e       __chsize_nolock            10034e2e f   LIBCMT:chsize.obj
 0001:00033fe4       __chsize_s                 10034fe4 f   LIBCMT:chsize.obj
 0001:000340d2       __get_fmode                100350d2 f   LIBCMT:setmode.obj
 0001:000340fc       __set_fmode                100350fc f   LIBCMT:setmode.obj
 0001:00034137       __setmode                  10035137 f   LIBCMT:setmode.obj
 0001:0003423c       __setmode_nolock           1003523c f   LIBCMT:setmode.obj
 0001:00034310       ___ascii_strnicmp          10035310 f   LIBCMT:_strnicm.obj
 0001:00034371       __flswbuf                  10035371 f   LIBCMT:_flswbuf.obj
 0001:000344d3       __wchartodigit             100354d3 f   LIBCMT:wchtodig.obj
 0001:00034672       __wtoi                     10035672 f   LIBCMT:wtox.obj
 0001:0003467b       __wtoi64                   1003567b f   LIBCMT:wtox.obj
 0001:0003468f       __wtoi64_l                 1003568f f   LIBCMT:wtox.obj
 0001:000346a6       __wtoi_l                   100356a6 f   LIBCMT:wtox.obj
 0001:000346af       __wtol                     100356af f   LIBCMT:wtox.obj
 0001:000346c3       __wtol_l                   100356c3 f   LIBCMT:wtox.obj
 0001:000346da       __wtoll                    100356da f   LIBCMT:wtox.obj
 0001:000346ee       __wtoll_l                  100356ee f   LIBCMT:wtox.obj
 0001:00034705       _wcschr                    10035705 f   LIBCMT:wcschr.obj
 0001:000347b3       __wcsicmp                  100357b3 f   LIBCMT:wcsicmp.obj
 0001:00034846       __wcsicmp_l                10035846 f   LIBCMT:wcsicmp.obj
 0001:00034921       __wcsnicmp                 10035921 f   LIBCMT:wcsnicmp.obj
 0001:000349d7       __wcsnicmp_l               100359d7 f   LIBCMT:wcsnicmp.obj
 0001:00034da0       __wcstof_l                 10035da0 f   LIBCMT:wcstoq.obj
 0001:00034e53       __wcstoi64                 10035e53 f   LIBCMT:wcstoq.obj
 0001:00034e7d       __wcstoi64_l               10035e7d f   LIBCMT:wcstoq.obj
 0001:00034e98       __wcstoimax_l              10035e98 f   LIBCMT:wcstoq.obj
 0001:00034ea1       __wcstold_l                10035ea1 f   LIBCMT:wcstoq.obj
 0001:00034eaa       __wcstoll_l                10035eaa f   LIBCMT:wcstoq.obj
 0001:00034eb3       __wcstoui64                10035eb3 f   LIBCMT:wcstoq.obj
 0001:00034edd       __wcstoui64_l              10035edd f   LIBCMT:wcstoq.obj
 0001:00034ef8       __wcstoull_l               10035ef8 f   LIBCMT:wcstoq.obj
 0001:00034f01       __wcstoumax_l              10035f01 f   LIBCMT:wcstoq.obj
 0001:00034f0a       _wcstof                    10035f0a f   LIBCMT:wcstoq.obj
 0001:00034f1f       _wcstoimax                 10035f1f f   LIBCMT:wcstoq.obj
 0001:00034f28       _wcstold                   10035f28 f   LIBCMT:wcstoq.obj
 0001:00034f31       _wcstoll                   10035f31 f   LIBCMT:wcstoq.obj
 0001:00034f3a       _wcstoull                  10035f3a f   LIBCMT:wcstoq.obj
 0001:00034f43       _wcstoumax                 10035f43 f   LIBCMT:wcstoq.obj
 0001:00034f4c       __towlower_l               10035f4c f   LIBCMT:towlower.obj
 0001:00034ffd       _towlower                  10035ffd f   LIBCMT:towlower.obj
 0001:0003500e       __wcstod_l                 1003600e f   LIBCMT:wcstod.obj
 0001:00035109       _wcstod                    10036109 f   LIBCMT:wcstod.obj
 0001:00035120       __allmul                   10036120 f   LIBCMT:llmul.obj
 0001:00035154       ___crtLCMapStringW         10036154 f   LIBCMT:w_map.obj
 0001:00035183       __wfltin2                  10036183 f   LIBCMT:wcfin.obj
 0001:00035230       ___WSTRINGTOLD_L           10036230 f   LIBCMT:wstrgtold.obj
 0001:0003528b       ___wstrgtold12_l           1003628b f   LIBCMT:wstrgtold.obj
 0001:00035adc       _GetModuleHandleA@4        10036adc f   kernel32:KERNEL32.dll
 0001:00035ae2       _GetProcAddress@8          10036ae2 f   kernel32:KERNEL32.dll
 0001:00035ae8       _HeapAlloc@12              10036ae8 f   kernel32:KERNEL32.dll
 0001:00035aee       _IsDebuggerPresent@0       10036aee f   kernel32:KERNEL32.dll
 0001:00035af4       _IsProcessorFeaturePresent@4 10036af4 f   kernel32:KERNEL32.dll
 0001:00035afa       _EncodePointer@4           10036afa f   kernel32:KERNEL32.dll
 0001:00035b00       _DecodePointer@4           10036b00 f   kernel32:KERNEL32.dll
 0001:00035b06       _GetLastError@0            10036b06 f   kernel32:KERNEL32.dll
 0001:00035b0c       _ExitProcess@4             10036b0c f   kernel32:KERNEL32.dll
 0001:00035b12       _GetModuleHandleExW@12     10036b12 f   kernel32:KERNEL32.dll
 0001:00035b18       _AreFileApisANSI@0         10036b18 f   kernel32:KERNEL32.dll
 0001:00035b1e       _MultiByteToWideChar@24    10036b1e f   kernel32:KERNEL32.dll
 0001:00035b24       _WideCharToMultiByte@32    10036b24 f   kernel32:KERNEL32.dll
 0001:00035b2a       _HeapFree@12               10036b2a f   kernel32:KERNEL32.dll
 0001:00035b30       _HeapReAlloc@16            10036b30 f   kernel32:KERNEL32.dll
 0001:00035b36       _EnterCriticalSection@4    10036b36 f   kernel32:KERNEL32.dll
 0001:00035b3c       _LeaveCriticalSection@4    10036b3c f   kernel32:KERNEL32.dll
 0001:00035b42       _GetStdHandle@4            10036b42 f   kernel32:KERNEL32.dll
 0001:00035b48       _GetFileType@4             10036b48 f   kernel32:KERNEL32.dll
 0001:00035b4e       _GetModuleFileNameW@12     10036b4e f   kernel32:KERNEL32.dll
 0001:00035b54       _WriteConsoleW@20          10036b54 f   kernel32:KERNEL32.dll
 0001:00035b5a       _GetCommandLineA@0         10036b5a f   kernel32:KERNEL32.dll
 0001:00035b60       _GetCurrentThreadId@0      10036b60 f   kernel32:KERNEL32.dll
 0001:00035b66       _WriteFile@20              10036b66 f   kernel32:KERNEL32.dll
 0001:00035b6c       _GetProcessHeap@0          10036b6c f   kernel32:KERNEL32.dll
 0001:00035b72       _UnhandledExceptionFilter@4 10036b72 f   kernel32:KERNEL32.dll
 0001:00035b78       _SetUnhandledExceptionFilter@4 10036b78 f   kernel32:KERNEL32.dll
 0001:00035b7e       _SetLastError@4            10036b7e f   kernel32:KERNEL32.dll
 0001:00035b84       _InitializeCriticalSectionAndSpinCount@8 10036b84 f   kernel32:KERNEL32.dll
 0001:00035b8a       _CreateEventW@16           10036b8a f   kernel32:KERNEL32.dll
 0001:00035b90       _Sleep@4                   10036b90 f   kernel32:KERNEL32.dll
 0001:00035b96       _GetCurrentProcess@0       10036b96 f   kernel32:KERNEL32.dll
 0001:00035b9c       _TerminateProcess@8        10036b9c f   kernel32:KERNEL32.dll
 0001:00035ba2       _TlsAlloc@0                10036ba2 f   kernel32:KERNEL32.dll
 0001:00035ba8       _TlsGetValue@4             10036ba8 f   kernel32:KERNEL32.dll
 0001:00035bae       _TlsSetValue@8             10036bae f   kernel32:KERNEL32.dll
 0001:00035bb4       _TlsFree@4                 10036bb4 f   kernel32:KERNEL32.dll
 0001:00035bba       _GetStartupInfoW@4         10036bba f   kernel32:KERNEL32.dll
 0001:00035bc0       _GetTickCount@0            10036bc0 f   kernel32:KERNEL32.dll
 0001:00035bc6       _GetModuleHandleW@4        10036bc6 f   kernel32:KERNEL32.dll
 0001:00035bcc       _CreateSemaphoreW@16       10036bcc f   kernel32:KERNEL32.dll
 0001:00035bd2       _DeleteCriticalSection@4   10036bd2 f   kernel32:KERNEL32.dll
 0001:00035bd8       _FatalAppExitA@8           10036bd8 f   kernel32:KERNEL32.dll
 0001:00035bde       _SetConsoleCtrlHandler@8   10036bde f   kernel32:KERNEL32.dll
 0001:00035be4       _FreeLibrary@4             10036be4 f   kernel32:KERNEL32.dll
 0001:00035bea       _LoadLibraryExW@12         10036bea f   kernel32:KERNEL32.dll
 0001:00035bf0       _IsValidCodePage@4         10036bf0 f   kernel32:KERNEL32.dll
 0001:00035bf6       _GetACP@0                  10036bf6 f   kernel32:KERNEL32.dll
 0001:00035bfc       _GetOEMCP@0                10036bfc f   kernel32:KERNEL32.dll
 0001:00035c02       _GetCPInfo@8               10036c02 f   kernel32:KERNEL32.dll
 0001:00035c08       _CloseHandle@4             10036c08 f   kernel32:KERNEL32.dll
 0001:00035c0e       _RtlUnwind@16              10036c0e f   kernel32:KERNEL32.dll
 0001:00035c14       _ReadFile@20               10036c14 f   kernel32:KERNEL32.dll
 0001:00035c1a       _GetConsoleMode@8          10036c1a f   kernel32:KERNEL32.dll
 0001:00035c20       _ReadConsoleW@20           10036c20 f   kernel32:KERNEL32.dll
 0001:00035c26       _GetConsoleCP@0            10036c26 f   kernel32:KERNEL32.dll
 0001:00035c2c       _DeleteFileW@4             10036c2c f   kernel32:KERNEL32.dll
 0001:00035c32       _SetFilePointerEx@20       10036c32 f   kernel32:KERNEL32.dll
 0001:00035c38       _RaiseException@16         10036c38 f   kernel32:KERNEL32.dll
 0001:00035c3e       _OutputDebugStringW@4      10036c3e f   kernel32:KERNEL32.dll
 0001:00035c44       _GetCurrentThread@0        10036c44 f   kernel32:KERNEL32.dll
 0001:00035c4a       _GetModuleFileNameA@12     10036c4a f   kernel32:KERNEL32.dll
 0001:00035c50       _QueryPerformanceCounter@4 10036c50 f   kernel32:KERNEL32.dll
 0001:00035c56       _GetCurrentProcessId@0     10036c56 f   kernel32:KERNEL32.dll
 0001:00035c5c       _GetSystemTimeAsFileTime@4 10036c5c f   kernel32:KERNEL32.dll
 0001:00035c62       _GetEnvironmentStringsW@0  10036c62 f   kernel32:KERNEL32.dll
 0001:00035c68       _FreeEnvironmentStringsW@4 10036c68 f   kernel32:KERNEL32.dll
 0001:00035c6e       _HeapSize@12               10036c6e f   kernel32:KERNEL32.dll
 0001:00035c74       _GetDateFormatW@24         10036c74 f   kernel32:KERNEL32.dll
 0001:00035c7a       _GetTimeFormatW@24         10036c7a f   kernel32:KERNEL32.dll
 0001:00035c80       _CompareStringW@24         10036c80 f   kernel32:KERNEL32.dll
 0001:00035c86       _LCMapStringW@24           10036c86 f   kernel32:KERNEL32.dll
 0001:00035c8c       _GetLocaleInfoW@16         10036c8c f   kernel32:KERNEL32.dll
 0001:00035c92       _IsValidLocale@8           10036c92 f   kernel32:KERNEL32.dll
 0001:00035c98       _GetUserDefaultLCID@0      10036c98 f   kernel32:KERNEL32.dll
 0001:00035c9e       _EnumSystemLocalesW@8      10036c9e f   kernel32:KERNEL32.dll
 0001:00035ca4       _GetStringTypeW@16         10036ca4 f   kernel32:KERNEL32.dll
 0001:00035caa       _FlushFileBuffers@4        10036caa f   kernel32:KERNEL32.dll
 0001:00035cb0       _SetStdHandle@8            10036cb0 f   kernel32:KERNEL32.dll
 0001:00035cb6       _CreateFileW@28            10036cb6 f   kernel32:KERNEL32.dll
 0001:00035cbc       _SetEndOfFile@4            10036cbc f   kernel32:KERNEL32.dll
 0002:00000000       ___xc_a                    10041000     LIBCMT:crt0init.obj
 0002:00000104       ___xc_z                    10041104     LIBCMT:crt0init.obj
 0002:00000208       ___xi_a                    10041208     LIBCMT:crt0init.obj
 0002:00000424       ___xi_z                    10041424     LIBCMT:crt0init.obj
 0002:00000528       ___xp_a                    10041528     LIBCMT:crt0init.obj
 0002:0000083c       ___xp_z                    1004183c     LIBCMT:crt0init.obj
 0002:00000940       ___xt_a                    10041940     LIBCMT:crt0init.obj
 0002:00000a44       ___xt_z                    10041a44     LIBCMT:crt0init.obj
 0002:00000b88       _backup_test2_M            10041b88     backup_test2.obj
 0002:00000b8c       ??_C@_0BI@PEBACBDB@Error?5creating?5scope?53?6?$AA@ 10041b8c     backup_test2.obj
 0002:00000ba8       ??_C@_0BD@KDGDPNDI@MATLAB?5Function?1p1?$AA@ 10041ba8     backup_test2.obj
 0002:00000bc0       ??_C@_0BI@PBFPDHLE@Error?5creating?5scope?54?6?$AA@ 10041bc0     backup_test2.obj
 0002:00000bdc       ??_C@_0BD@IIEOKOPL@MATLAB?5Function?1p2?$AA@ 10041bdc     backup_test2.obj
 0002:00000bf4       ??_C@_0BI@PFNCELAG@Error?5creating?5scope?52?6?$AA@ 10041bf4     backup_test2.obj
 0002:00000c10       ??_C@_0M@OJGPAKGO@count_to_mm?$AA@ 10041c10     backup_test2.obj
 0002:00000c20       ??_C@_0BI@PHJEPFFP@Error?5creating?5scope?51?6?$AA@ 10041c20     backup_test2.obj
 0002:00000c3c       ??_C@_0N@GMLOCEOH@count_to_mm1?$AA@ 10041c3c     backup_test2.obj
 0002:00000c4c       ??_C@_0BI@PCNLODNK@Error?5creating?5scope?56?6?$AA@ 10041c4c     backup_test2.obj
 0002:00000c68       ??_C@_08GKEMBAEF@data?4mat?$AA@ 10041c68     backup_test2.obj
 0002:00000c74       ??_C@_0BI@PAJNFNID@Error?5creating?5scope?55?6?$AA@ 10041c74     backup_test2.obj
 0002:00000c90       ??_C@_0BE@GAKJNDDB@Byte?5Unpacking?51?1s1?$AA@ 10041c90     backup_test2.obj
 0002:00000ca8       ??_C@_0BE@ELIEIAPC@Byte?5Unpacking?51?1s2?$AA@ 10041ca8     backup_test2.obj
 0002:00000cc0       ??_C@_0BE@FCJPLBLD@Byte?5Unpacking?51?1s3?$AA@ 10041cc0     backup_test2.obj
 0002:00000cd8       ??_C@_0BE@BNNOCHHE@Byte?5Unpacking?51?1s4?$AA@ 10041cd8     backup_test2.obj
 0002:00000cf0       ??_C@_0BE@EMFBGDF@Byte?5Unpacking?51?1s5?$AA@ 10041cf0     backup_test2.obj
 0002:00000d08       ??_C@_0BE@CPOIEFPG@Byte?5Unpacking?51?1s6?$AA@ 10041d08     backup_test2.obj
 0002:00000d20       ??_C@_0BC@OJJPBDHH@FixedStepDiscrete?$AA@ 10041d20     backup_test2.obj
 0002:00000d38       ??_C@_04EPKDLPPB@tout?$AA@ 10041d38     backup_test2.obj
 0002:00000d3e       ??_C@_00CNPNBAHC@?$AA@     10041d3e     backup_test2.obj
 0002:00000d40       ??_C@_03HBFGMJOD@rt_?$AA@  10041d40     backup_test2.obj
 0002:00000d44       ??_C@_0BA@ILODDMJB@CNT32?98M?$CIPCI?$CJ?52?$AA@ 10041d44     backup_test2.obj
 0002:00000d58       ??_C@_0BN@PPCDFIDC@backup_test2?1CNT32?98M?$CIPCI?$CJ?52?$AA@ 10041d58     backup_test2.obj
 0002:00000d7c       ??_C@_0BA@KAMOGPFC@CNT32?98M?$CIPCI?$CJ?51?$AA@ 10041d7c     backup_test2.obj
 0002:00000d90       ??_C@_0BN@NEAOALPB@backup_test2?1CNT32?98M?$CIPCI?$CJ?51?$AA@ 10041d90     backup_test2.obj
 0002:00000db4       ??_C@_0BA@KOPDHJJN@PCI?9DDA?508?512?53?$AA@ 10041db4     backup_test2.obj
 0002:00000dc8       ??_C@_0BN@NKDDBNDO@backup_test2?1PCI?9DDA?508?512?53?$AA@ 10041dc8     backup_test2.obj
 0002:00000dec       ??_C@_0BA@OBLCOPFK@PCI?9DDA?508?512?54?$AA@ 10041dec     backup_test2.obj
 0002:00000e00       ??_C@_0BN@JFHCILPJ@backup_test2?1PCI?9DDA?508?512?54?$AA@ 10041e00     backup_test2.obj
 0002:00000e24       ??_C@_0O@GDKFENNN@PCI?9DDA08?512?5?$AA@ 10041e24     backup_test2.obj
 0002:00000e34       ??_C@_0BL@GEBJEHJJ@backup_test2?1PCI?9DDA08?512?5?$AA@ 10041e34     backup_test2.obj
 0002:00000e54       ??_C@_09JLALMMJD@Receive?51?$AA@ 10041e54     backup_test2.obj
 0002:00000e60       ??_C@_0BH@MIECDCOD@backup_test2?1Receive?51?$AA@ 10041e60     backup_test2.obj
 0002:00000e7c       ??_C@_0P@DOFMAMJG@PCI?9DDA08?512?51?$AA@ 10041e7c     backup_test2.obj
 0002:00000e90       ??_C@_0BM@EPOKDFBF@backup_test2?1PCI?9DDA08?512?51?$AA@ 10041e90     backup_test2.obj
 0002:00000eb8       __real@3f50624dd2f1a9fc    10041eb8     backup_test2.obj
 0002:00000ec8       __real@3fe0000000000000    10041ec8     backup_test2.obj
 0002:00000ed8       __real@3ff0000000000000    10041ed8     backup_test2.obj
 0002:00000ee8       __real@4000000000000000    10041ee8     backup_test2.obj
 0002:00000ef8       __real@4008000000000000    10041ef8     backup_test2.obj
 0002:00000f08       __real@4054000000000000    10041f08     backup_test2.obj
 0002:00000f18       __real@408f400000000000    10041f18     backup_test2.obj
 0002:00000f28       __real@40b3880000000000    10041f28     backup_test2.obj
 0002:00000f38       __real@41f0000000000000    10041f38     backup_test2.obj
 0002:00000f48       __real@4330000000000000    10041f48     backup_test2.obj
 0002:00000f58       __real@8000000000000000    10041f58     backup_test2.obj
 0002:00000f68       __real@bff0000000000000    10041f68     backup_test2.obj
 0002:00000f80       __xmm@00000000000000003f50624dd2f1a9fc 10041f80     backup_test2.obj
 0002:00000fa0       __xmm@00000001000000010000000100000001 10041fa0     backup_test2.obj
 0002:00000fc0       __xmm@00000166000000120000002500000001 10041fc0     backup_test2.obj
 0002:00000fe0       __xmm@41f00000000000000000000000000000 10041fe0     backup_test2.obj
 0002:00001000       __xmm@7fffffffffffffff7fffffffffffffff 10042000     backup_test2.obj
 0002:00001ec4       ??_C@_04BKKAELJL@motX?$AA@ 10042ec4     backup_test2_capi.obj
 0002:00001ecc       ??_C@_04DLLHKNK@motY?$AA@  10042ecc     backup_test2_capi.obj
 0002:00001ed4       ??_C@_03LCFCCKMA@Abs?$AA@  10042ed4     backup_test2_capi.obj
 0002:00001ed8       ??_C@_08LJDLLPJB@Y?5enable?$AA@ 10042ed8     backup_test2_capi.obj
 0002:00001ee4       ??_C@_04FNILJHCI@Abs1?$AA@ 10042ee4     backup_test2_capi.obj
 0002:00001eec       ??_C@_08GBPNJCEO@X?5Enable?$AA@ 10042eec     backup_test2_capi.obj
 0002:00001ef8       ??_C@_07NBIGLNNE@Voltage?$AA@ 10042ef8     backup_test2_capi.obj
 0002:00001f04       ??_C@_09KGGNCPDB@VoltageY?5?$AA@ 10042f04     backup_test2_capi.obj
 0002:00001f10       ??_C@_08EHDCJHMC@Voltage1?$AA@ 10042f10     backup_test2_capi.obj
 0002:00001f1c       ??_C@_09DAEBENAE@x?5Voltage?$AA@ 10042f1c     backup_test2_capi.obj
 0002:00001f28       ??_C@_09IPBMDKKM@Current?5Y?$AA@ 10042f28     backup_test2_capi.obj
 0002:00001f34       ??_C@_09JGAHALON@Current?5X?$AA@ 10042f34     backup_test2_capi.obj
 0002:00001f40       ??_C@_0BB@BHLBHFIE@Byte?5Unpacking?51?$AA@ 10042f40     backup_test2_capi.obj
 0002:00001f54       ??_C@_0L@NFINBMLI@Force?5Data?$AA@ 10042f54     backup_test2_capi.obj
 0002:00001f64       ??_C@_06JMEOMOEA@counts?$AA@ 10042f64     backup_test2_capi.obj
 0002:00001f6c       ??_C@_0N@BDBMLLMM@Limit?5Switch?$AA@ 10042f6c     backup_test2_capi.obj
 0002:00001f7c       ??_C@_0N@GFDFJHHC@Receive?51?1p1?$AA@ 10042f7c     backup_test2_capi.obj
 0002:00001f8c       ??_C@_0N@EOBIMELB@Receive?51?1p2?$AA@ 10042f8c     backup_test2_capi.obj
 0002:00001f9c       ??_C@_04LGKGJOPM@Sign?$AA@ 10042f9c     backup_test2_capi.obj
 0002:00001fa4       ??_C@_05HCOABPBL@Sign1?$AA@ 10042fa4     backup_test2_capi.obj
 0002:00001fac       ??_C@_04LHPAOBFF@Sum2?$AA@ 10042fac     backup_test2_capi.obj
 0002:00001fb4       ??_C@_04KOOLNABE@Sum3?$AA@ 10042fb4     backup_test2_capi.obj
 0002:00001fbc       ??_C@_0BB@GDNBGGCP@encoder?5offsets1?$AA@ 10042fbc     backup_test2_capi.obj
 0002:00001fd0       ??_C@_05LPIJGKJ@Value?$AA@ 10042fd0     backup_test2_capi.obj
 0002:00001fd8       ??_C@_0BB@EIPMDFOM@encoder?5offsets2?$AA@ 10042fd8     backup_test2_capi.obj
 0002:00001fec       ??_C@_04OMOMKKFL@Gain?$AA@ 10042fec     backup_test2_capi.obj
 0002:00001ff4       ??_C@_02KKFPAPOP@P1?$AA@   10042ff4     backup_test2_capi.obj
 0002:00001ff8       ??_C@_02IBHCFMCM@P2?$AA@   10042ff8     backup_test2_capi.obj
 0002:00001ffc       ??_C@_02JIGJGNGN@P3?$AA@   10042ffc     backup_test2_capi.obj
 0002:00002000       ??_C@_02NHCIPLKK@P4?$AA@   10043000     backup_test2_capi.obj
 0002:00002004       ??_C@_02MODDMKOL@P5?$AA@   10043004     backup_test2_capi.obj
 0002:00002008       ??_C@_02OFBOJJCI@P6?$AA@   10043008     backup_test2_capi.obj
 0002:0000200c       ??_C@_02PMAFKIGJ@P7?$AA@   1004300c     backup_test2_capi.obj
 0002:00002010       ??_C@_02HLJNLEKG@P8?$AA@   10043010     backup_test2_capi.obj
 0002:00002014       ??_C@_02GCIGIFOH@P9?$AA@   10043014     backup_test2_capi.obj
 0002:00002018       ??_C@_03OPFJJGBF@P10?$AA@  10043018     backup_test2_capi.obj
 0002:0000201c       ??_C@_03PGECKHFE@P11?$AA@  1004301c     backup_test2_capi.obj
 0002:00002020       ??_C@_03NNGPPEJH@P12?$AA@  10043020     backup_test2_capi.obj
 0002:00002024       ??_C@_03MEHEMFNG@P13?$AA@  10043024     backup_test2_capi.obj
 0002:00002028       ??_C@_03ILDFFDBB@P14?$AA@  10043028     backup_test2_capi.obj
 0002:0000202c       ??_C@_03JCCOGCFA@P15?$AA@  1004302c     backup_test2_capi.obj
 0002:00002030       ??_C@_03LJADDBJD@P16?$AA@  10043030     backup_test2_capi.obj
 0002:00002034       ??_C@_03KABIAANC@P17?$AA@  10043034     backup_test2_capi.obj
 0002:00002038       ??_C@_03CHIABMBN@P18?$AA@  10043038     backup_test2_capi.obj
 0002:0000203c       ??_C@_03DOJLCNFM@P19?$AA@  1004303c     backup_test2_capi.obj
 0002:00002040       ??_C@_03ONBPCIEM@P20?$AA@  10043040     backup_test2_capi.obj
 0002:00002044       ??_C@_03PEAEBJAN@P21?$AA@  10043044     backup_test2_capi.obj
 0002:00002048       ??_C@_03NPCJEKMO@P22?$AA@  10043048     backup_test2_capi.obj
 0002:0000204c       ??_C@_03MGDCHLIP@P23?$AA@  1004304c     backup_test2_capi.obj
 0002:00002050       ??_C@_03IJHDONEI@P24?$AA@  10043050     backup_test2_capi.obj
 0002:00002054       ??_C@_03JAGINMAJ@P25?$AA@  10043054     backup_test2_capi.obj
 0002:00002058       ??_C@_03LLEFIPMK@P26?$AA@  10043058     backup_test2_capi.obj
 0002:0000205c       ??_C@_03KCFOLOIL@P27?$AA@  1004305c     backup_test2_capi.obj
 0002:00002060       ??_C@_03CFMGKCEE@P28?$AA@  10043060     backup_test2_capi.obj
 0002:00002064       ??_C@_03DMNNJDAF@P29?$AA@  10043064     backup_test2_capi.obj
 0002:00002068       ??_C@_03OMNNECHL@P30?$AA@  10043068     backup_test2_capi.obj
 0002:0000206c       ??_C@_03PFMGHDDK@P31?$AA@  1004306c     backup_test2_capi.obj
 0002:00002070       ??_C@_03NOOLCAPJ@P32?$AA@  10043070     backup_test2_capi.obj
 0002:00002074       ??_C@_03MHPABBLI@P33?$AA@  10043074     backup_test2_capi.obj
 0002:00002078       ??_C@_03IILBIHHP@P34?$AA@  10043078     backup_test2_capi.obj
 0002:0000207c       ??_C@_03JBKKLGDO@P35?$AA@  1004307c     backup_test2_capi.obj
 0002:00002080       ??_C@_06BNJCAIGJ@double?$AA@ 10043080     backup_test2_capi.obj
 0002:00002088       ??_C@_06CNMIJIPB@real_T?$AA@ 10043088     backup_test2_capi.obj
 0002:00002090       ??_C@_0O@PPAIJIHF@unsigned?5char?$AA@ 10043090     backup_test2_capi.obj
 0002:000020a0       ??_C@_07NCEHLPOC@uint8_T?$AA@ 100430a0     backup_test2_capi.obj
 0002:000020ac       ??_C@_05KNFBNCOH@float?$AA@ 100430ac     backup_test2_capi.obj
 0002:000020b4       ??_C@_0CJ@GGPBKPNK@Could?5not?5start?5ToAsyncQueue?5app@ 100430b4     backup_test2_tgtconn.obj
 0002:00002948       ??_C@_0DJ@FHKINPLE@Unexpected?5itemKind?5?$DN?5DATA_ITEM?5@ 10043948     rt_logging.obj
 0002:0000298c       ??_C@_0DA@IEHFPFCJ@Unexpected?5itemKind?$DN?$CFd?5in?5rt_Pro@ 1004398c     rt_logging.obj
 0002:000029c8       ??_C@_0DA@IFLHJPBO@Unexpected?5itemKind?$DN?$CFd?5in?5rt_Pro@ 100439c8     rt_logging.obj
 0002:00002a04       ??_C@_0DA@IAPIIJJL@Unexpected?5itemKind?$DN?$CFd?5in?5rt_Pro@ 10043a04     rt_logging.obj
 0002:00002a40       ??_C@_0BE@LCIGPJIG@MATLAB?55?40?5MAT?9file?$AA@ 10043a40     rt_logging.obj
 0002:00002a58       ??_C@_0FB@PCJEAJIB@?$CK?$CK?$CK?5Log?5variable?5?$CFs?5has?5wrapped?5@ 10043a58     rt_logging.obj
 0002:00002ac0       ??_C@_0MG@NKMLMOGF@?$CK?$CK?$CK?5To?5avoid?5wrapping?0?5explicitl@ 10043ac0     rt_logging.obj
 0002:00002bb0       ??_C@_0N@IPAEOLLP@_rtw_tmw?4tmw?$AA@ 10043bb0     rt_logging.obj
 0002:00002bc0       ??_C@_04HDOCAJNK@?$CFs?$CFs?$AA@ 10043bc0     rt_logging.obj
 0002:00002bc8       ??_C@_03ELIABIOC@w?$CLb?$AA@ 10043bc8     rt_logging.obj
 0002:00002bcc       ??_C@_0BF@JPILDDFA@?$CK?$CK?$CK?5Error?5opening?5?$CFs?$AA@ 10043bcc     rt_logging.obj
 0002:00002be8       ??_C@_0BK@EEMDELA@unable?5to?5open?5data?5file?6?$AA@ 10043be8     rt_logging.obj
 0002:00002c08       ??_C@_04CGFJFPFD@none?$AA@ 10043c08     rt_logging.obj
 0002:00002c10       ??_C@_0EE@LCGFPNON@?$CK?$CK?$CK?5Error?5creating?5signals?5struc@ 10043c10     rt_logging.obj
 0002:00002c64       ??_C@_0CE@NHECEDMK@?$CK?$CK?$CK?5Error?5creating?5log?5variable?5@ 10043c64     rt_logging.obj
 0002:00002c90       ??_C@_0DB@IOCGKAGH@?$CK?$CK?$CK?5Errors?5occurred?5when?5startin@ 10043c90     rt_logging.obj
 0002:00002ccc       ??_C@_0BO@BBLOGEBK@?$CK?$CK?$CK?5Memory?5allocation?5error?4?6?$AA@ 10043ccc     rt_logging.obj
 0002:00002cf0       ??_C@_0N@LGFBAGEL@?5?$CIreal?5part?$CJ?$AA@ 10043cf0     rt_logging.obj
 0002:00002d00       ??_C@_0KH@CGNMHNFE@?5?5?5?5varName?5?5?5?5?5?5?5?5?5?5?$DN?5?$CFs?$CFs?6?5?5?5?5@ 10043d00     rt_logging.obj
 0002:00002dc8       ??_C@_0LE@OALKKEFM@?5?5?5?5varName?5?5?5?5?5?5?5?5?5?5?$DN?5?$CFs?5?$CIcompl@ 10043dc8     rt_logging.obj
 0002:00002ea0       ??_C@_0KF@JDDLEOKO@?5?5?5?5varName?5?5?5?5?5?5?5?5?5?5?$DN?5?$CFs?6?5?5?5?5nR@ 10043ea0     rt_logging.obj
 0002:00002f68       ??_C@_0DP@HPDMIOFM@?$CK?$CK?$CK?5Using?5a?5default?5buffer?5of?5si@ 10043f68     rt_logging.obj
 0002:00002fb8       ??_C@_0KE@JEFOLKNF@?6?$CK?$CK?$CK?5Memory?5required?5to?5log?5vari@ 10043fb8     rt_logging.obj
 0002:00003080       ??_C@_0JP@DKLMHCBI@?$CK?$CK?$CK?5Details?3?6?5?5?5?5?5?5?5varName?5?5?5?5?5@ 10044080     rt_logging.obj
 0002:00003140       ??_C@_0CM@CAMILBED@?$CK?$CK?$CK?5Error?5allocating?5memory?5for?5@ 10044140     rt_logging.obj
 0002:00003174       ??_C@_0DF@BBCNMOPM@?$CK?$CK?$CK?5Error?5allocating?5memory?5for?5@ 10044174     rt_logging.obj
 0002:000031b8       ??_C@_0JP@DBCLPCCI@?$CK?$CK?$CK?5Details?3?6?5?5?5?5?5?5?5varName?5?5?5?5?5@ 100441b8     rt_logging.obj
 0002:00003278       ??_C@_0FK@DPGAOBGA@?$CK?$CK?$CK?5Error?5allocating?5memory?5for?5@ 10044278     rt_logging.obj
 0002:000032e4       ??_C@_0BI@GGDNPHLJ@?$CK?$CK?$CK?5Error?5writing?5to?5?$CFs?$AA@ 100442e4     rt_logging.obj
 0002:00003300       ??_C@_0CB@IBGJGELG@?$CK?$CK?$CK?5Error?5writing?5?$CFs?5due?5to?3?5?$CFs?6@ 10044300     rt_logging.obj
 0002:00003328       ??_C@_0CN@FLMCHCPB@?$CK?$CK?$CK?5Error?5writing?5log?5variable?5?$CF@ 10044328     rt_logging.obj
 0002:00003360       ??_C@_0DH@GAJCNOJP@?$CK?$CK?$CK?5Error?5writing?5structure?5log?5@ 10044360     rt_logging.obj
 0002:000033a4       ??_C@_0BD@POEALECL@?$CK?$CK?5created?5?$CFs?5?$CK?$CK?6?6?$AA@ 100443a4     rt_logging.obj
 0002:000033c0       __real@0000000000000000    100443c0     rt_logging.obj
 0002:000033d0       __real@4020000000000000    100443d0     rt_logging.obj
 0002:000033e0       __real@41dfffffffc00000    100443e0     rt_logging.obj
 0002:000033f0       __real@41efffffffe00000    100443f0     rt_logging.obj
 0002:00003400       __real@bfbf9add3afd2773    10044400     rt_logging.obj
 0002:00003410       __real@c000000000000000    10044410     rt_logging.obj
 0002:00003420       __xmm@20202020202020202020202020202020 10044420     rt_logging.obj
 0002:00003450       __real@3cb0000000000000    10044450     rt_matrx.obj
 0002:0000345c       ??_C@_0BI@INNPNFJN@Memory?5Allocation?5Error?$AA@ 1004445c     rtw_modelmap_utils.obj
 0002:00003478       ??_C@_1HC@OAPLBLFC@?$AAC?$AA?3?$AA?2?$AAP?$AAR?$AAO?$AAG?$AAR?$AAA?$AA?$HO?$AA1?$AA?2?$AAM?$AAA?$AAT?$AAL?$AAA?$AAB?$AA?2?$AAR?$AA2?$AA0?$AA1?$AA6?$AAa?$AA?2?$AAr?$AAt?$AAw?$AA?2?$AAc?$AA?2@ 10044478     rtw_modelmap_utils.obj
 0002:00003500       ??_C@_1CI@OEAJCJND@?$AAj?$AA?5?$AA?$DN?$AA?$DN?$AA?5?$AAe?$AAn?$AAc?$AAo?$AAd?$AAe?$AAd?$AAP?$AAa?$AAt?$AAh?$AAL?$AAe?$AAn?$AA?$AA@ 10044500     rtw_modelmap_utils.obj
 0002:00003530       ??_C@_1DC@NFAOIFKB@?$AAe?$AAn?$AAc?$AAo?$AAd?$AAe?$AAd?$AAP?$AAa?$AAt?$AAh?$AA?$FL?$AAj?$AA?9?$AA1?$AA?$FN?$AA?5?$AA?$DN?$AA?$DN?$AA?5?$AA?8?$AA?2?$AA0?$AA?8?$AA?$AA@ 10044530     rtw_modelmap_utils.obj
 0002:0000356c       ??_C@_1DI@FLNJGPEE@?$AAs?$AAi?$AAg?$AAC?$AAo?$AAm?$AAp?$AAl?$AAe?$AAx?$AAi?$AAt?$AAy?$AA?$FL?$AA?$CK?$AAs?$AAi?$AAg?$AAI?$AAd?$AAx?$AA?$FN?$AA?5?$AA?$CB?$AA?$DN?$AA?5?$AA1?$AA?$AA@ 1004456c     rtw_modelmap_utils.obj
 0002:000035b0       ??_C@_1KI@OFELMGBG@?$AA?$CI?$AA?$CI?$AA?$CI?$AAd?$AAa?$AAt?$AAa?$AAT?$AAy?$AAp?$AAe?$AAM?$AAa?$AAp?$AA?$CJ?$AA?$FL?$AA?$CI?$AA?$CI?$AA?$CI?$AAs?$AAt?$AAa?$AAt?$AAe?$AAs?$AA?$CJ?$AA?$FL?$AA?$CI?$AAi?$AA?$CJ?$AA?$FN?$AA?4@ 100445b0     rtw_modelmap_utils.obj
 0002:0000367c       ??_C@_1DA@ILCMPHNE@?$AAf?$AAu?$AAl?$AAl?$AAP?$AAa?$AAt?$AAh?$AA?5?$AA?$CB?$AA?$DN?$AA?5?$AA?$CI?$AA?$CI?$AAv?$AAo?$AAi?$AAd?$AA?5?$AA?$CK?$AA?$CJ?$AA0?$AA?$CJ?$AA?$AA@ 1004467c     rtw_modelmap_utils.obj
 0002:000036b8       ??_C@_1CI@OEPPFCCA@?$AAp?$AAa?$AAt?$AAh?$AA?5?$AA?$CB?$AA?$DN?$AA?5?$AA?$CI?$AA?$CI?$AAv?$AAo?$AAi?$AAd?$AA?5?$AA?$CK?$AA?$CJ?$AA0?$AA?$CJ?$AA?$AA@ 100446b8     rtw_modelmap_utils.obj
 0002:000036e8       ??_C@_1FK@GLJIMFHB@?$AA?$CI?$AA?$CI?$AAm?$AAm?$AAi?$AA?$CJ?$AA?9?$AA?$DO?$AAI?$AAn?$AAs?$AAt?$AAa?$AAn?$AAc?$AAe?$AAM?$AAa?$AAp?$AA?4?$AAf?$AAu?$AAl?$AAl?$AAP?$AAa?$AAt?$AAh?$AA?$CJ?$AA?5?$AA?$DN?$AA?$DN@ 100446e8     rtw_modelmap_utils.obj
 0002:00003754       ??_C@_1DG@HPCJGNCE@?$AAm?$AAm?$AAi?$AAP?$AAa?$AAt?$AAh?$AA?$FL?$AAp?$AAa?$AAt?$AAh?$AAL?$AAe?$AAn?$AA?9?$AA1?$AA?$FN?$AA?5?$AA?$DN?$AA?$DN?$AA?5?$AA?8?$AA?2?$AA0?$AA?8?$AA?$AA@ 10044754     rtw_modelmap_utils.obj
 0002:00003794       ??_C@_1DM@DBAOGGOO@?$AAm?$AAm?$AAi?$AAP?$AAa?$AAt?$AAh?$AA?$FL?$AAm?$AAm?$AAi?$AAP?$AAa?$AAt?$AAh?$AAL?$AAe?$AAn?$AA?9?$AA1?$AA?$FN?$AA?5?$AA?$DN?$AA?$DN?$AA?5?$AA?8?$AA?2?$AA0?$AA?8?$AA?$AA@ 10044794     rtw_modelmap_utils.obj
 0002:000037dc       ??_C@_1DC@LHIAKAFE@?$AAb?$AAl?$AAo?$AAc?$AAk?$AAP?$AAa?$AAt?$AAh?$AA?5?$AA?$CB?$AA?$DN?$AA?5?$AA?$CI?$AA?$CI?$AAv?$AAo?$AAi?$AAd?$AA?5?$AA?$CK?$AA?$CJ?$AA0?$AA?$CJ?$AA?$AA@ 100447dc     rtw_modelmap_utils.obj
 0002:00003818       ??_C@_1GI@KIEJKPGC@?$AAf?$AAu?$AAl?$AAl?$AAS?$AAt?$AAa?$AAt?$AAe?$AAB?$AAl?$AAo?$AAc?$AAk?$AAP?$AAa?$AAt?$AAh?$AA?$FL?$AAf?$AAu?$AAl?$AAl?$AAS?$AAt?$AAa?$AAt?$AAe?$AAB?$AAl?$AAo?$AAc@ 10044818     rtw_modelmap_utils.obj
 0002:00003898       ??_C@_1EE@DNPIBJHC@?$AA?$CI?$AA?$CI?$AAd?$AAi?$AAm?$AAM?$AAa?$AAp?$AA?$CJ?$AA?$FL?$AA?$CI?$AAm?$AAa?$AAp?$AAI?$AAd?$AAx?$AA?$CJ?$AA?$FN?$AA?4?$AAn?$AAu?$AAm?$AAD?$AAi?$AAm?$AAs?$AA?$CJ?$AA?5?$AA?$DN?$AA?$DN?$AA?5@ 10044898     rtw_modelmap_utils.obj
 0002:000038ec       ??_C@_06JFOKFOED@CSTATE?$AA@ 100448ec     rtw_modelmap_utils.obj
 0002:000038f4       ??_C@_06FAENGAMN@DSTATE?$AA@ 100448f4     rtw_modelmap_utils.obj
 0002:000038fc       ??_C@_1BI@LEBJNOGG@?$AAc?$AAs?$AAv?$AAI?$AAd?$AAx?$AA?5?$AA?$DO?$AA?$DN?$AA?5?$AA0?$AA?$AA@ 100448fc     rtw_modelmap_utils.obj
 0002:00003918       ??_C@_1BA@KDMGHCHP@?$AAT?$AAI?$AAD?$AA?$DN?$AA?$DN?$AA?9?$AA1?$AA?$AA@ 10044918     rtw_modelmap_utils.obj
 0002:0000392c       ??_C@_1DM@DHGKBPCE@?$AAs?$AAi?$AAg?$AAP?$AAa?$AAt?$AAh?$AA?$FL?$AAs?$AAi?$AAg?$AAP?$AAa?$AAt?$AAh?$AAL?$AAe?$AAn?$AA?9?$AA1?$AA?$FN?$AA?5?$AA?$DN?$AA?$DN?$AA?5?$AA?8?$AA?2?$AA0?$AA?8?$AA?$AA@ 1004492c     rtw_modelmap_utils.obj
 0002:00003974       _serialfifoground          10044974     xpc_datatype_ground.obj
 0002:00003980       _bcmsg1553ground           10044980     xpc_datatype_ground.obj
 0002:00003990       _bcstatground              10044990     xpc_datatype_ground.obj
 0002:000039a8       _bmmsg1553ground           100449a8     xpc_datatype_ground.obj
 0002:000039c8       _ptsetfilename             100449c8     xpctarget.obj
 0002:000039cc       _xmlfile                   100449cc     xpctarget.obj
 0002:000039d4       ??_C@_0N@IHIFLIA@backup_test2?$AA@ 100449d4     xpctarget.obj
 0002:000039e4       ??_C@_0L@CHBJKKFC@xpceSetVar?$AA@ 100449e4     xpctarget.obj
 0002:000039f4       ??_C@_03ICACBPID@6?44?$AA@ 100449f4     xpctarget.obj
 0002:000039f8       __real@3fb999999999999a    100449f8     xpctarget.obj
 0002:00003a08       _backup_test2_BIOMAP       10044a08     appmappingData.obj
 0002:00003af0       _backup_test2_LBLMAP       10044af0     appmappingData.obj
 0002:00003bd8       _backup_test2_SIDMAP       10044bd8     appmappingData.obj
 0002:00003cc0       _backup_test2_SBIO         10044cc0     appmappingData.obj
 0002:00003d10       _backup_test2_SLBL         10044d10     appmappingData.obj
 0002:00003d60       _backup_test2_PTIDSMAP     10044d60     appmappingData.obj
 0002:00004108       _backup_test2_PTNAMESMAP   10045108     appmappingData.obj
 0002:000044b0       _backup_test2_SPTMAP       100454b0     appmappingData.obj
 0002:00004684       _backup_test2_dtmap        10045684     appmappingData.obj
 0002:000046a0       _appInfo                   100456a0     appmappingData.obj
 0002:00004980       ??_C@_0BE@CKBAIFD@encconteccnt328mpci?$AA@ 10045980     encconteccnt328mpci.obj
 0002:00004998       ??_C@_0CG@PDPCNMMO@?$CFs?3?5?$CFd?5input?5args?5expected?0?5?$CFd?5p@ 10045998     encconteccnt328mpci.obj
 0002:000049c8       ??_C@_07GNCCFEIM@?$CFs?$CI?$CFd?$CJ?6?$AA@ 100459c8     encconteccnt328mpci.obj
 0002:000049d4       ??_C@_0CE@CLLJOMGM@?$CFs?$CI?$CFd?$CJ?5Sample?5Time?5?$CFf?5?$CIChannel?5?$CF@ 100459d4     encconteccnt328mpci.obj
 0002:00004a00       ??_C@_0CK@NDIIACOD@?$CFs?$CI?$CFd?$CJ?5PCI?5Bus?5?$CFd?5?5?5Slot?5?$CFd?5?5?5Ch@ 10045a00     encconteccnt328mpci.obj
 0002:00004a34       ??_C@_0CO@OADOCJBA@?$CFs?3?5CNT32?98M?$CIPCI?$CJ?5not?5found?5at?5b@ 10045a34     encconteccnt328mpci.obj
 0002:00004a6c       ??_C@_0CB@GGINOLOG@?5?5?5Initial?5Value?3?50x?$CFx?5Load?3?5?$CFd?6@ 10045a6c     encconteccnt328mpci.obj
 0002:00004a94       ??_C@_0BL@JCCHIDDO@?5?5?5Start?5Method?3?5?$CFd?5?$CI0x?$CFx?$CJ?$AA@ 10045a94     encconteccnt328mpci.obj
 0002:00004ab4       ??_C@_0BL@ONAHILHM@?5?5?5Stop?5Method?3?5?$CFd?5?$CI0x?$CFx?$CJ?6?$AA@ 10045ab4     encconteccnt328mpci.obj
 0002:00004ad4       ??_C@_0BO@DJDJGILF@?5?5?5Input?5Signal?3?50x?$CFx?5?$CI0x?$CFx?$CJ?6?$AA@ 10045ad4     encconteccnt328mpci.obj
 0002:00004af8       ??_C@_0GI@GFJKDDOK@?5?5?5Input?5Signal?5Overloaded?5?$CIStar@ 10045af8     encconteccnt328mpci.obj
 0002:00004b74       ??_C@_0DK@GPOKCJIM@?5?5?5Rise?1Fall?1Match?50?1Match?51?5?5?5P@ 10045b74     encconteccnt328mpci.obj
 0002:00004bbc       ??_C@_0CD@KKOOHPOD@?5?5?5Zero?9Clear?3?5?$CFd?1?$CFd?1?$CFd?1?$CFd?5?$CI0x?$CFx@ 10045bbc     encconteccnt328mpci.obj
 0002:00004be8       ??_C@_0DC@FPLMBIJB@?5?5?5Match?50?5Overloaded?5?$CIPreset?1Ze@ 10045be8     encconteccnt328mpci.obj
 0002:00004c24       ??_C@_0DC@LHKLIIDA@?5?5?5Match?51?5Overloaded?5?$CIPreset?1Ze@ 10045c24     encconteccnt328mpci.obj
 0002:00004c60       ??_C@_0BO@EIIFPMDO@?5?5?5Digital?5Filter?3?5?$CFd?5?$CI0x?$CFx?$CJ?6?$AA@ 10045c60     encconteccnt328mpci.obj
 0002:00004c84       ??_C@_0BL@OJPKOPMK@?5?5?5Index?5Logic?3?5?$CFd?5?$CI0x?$CFx?$CJ?6?$AA@ 10045c84     encconteccnt328mpci.obj
 0002:00004ca4       ??_C@_0BL@JKPAGFND@?5?5?5Pulse?5Input?3?5?$CFd?5?$CI0x?$CFx?$CJ?6?$AA@ 10045ca4     encconteccnt328mpci.obj
 0002:00004cc4       ??_C@_0BJ@GNILLNEI@?5?5?5Direction?3?5?$CFd?5?$CI0x?$CFx?$CJ?6?$AA@ 10045cc4     encconteccnt328mpci.obj
 0002:00004ce4       ??_C@_0BO@DKFKJOII@?5?5?5Operation?5Mode?3?5?$CFd?5?$CI0x?$CFx?$CJ?6?$AA@ 10045ce4     encconteccnt328mpci.obj
 0002:00004d08       ??_C@_0BH@DBDDMMGO@?5?5?5COUNTER?5MODE?3?50x?$CFx?6?$AA@ 10045d08     encconteccnt328mpci.obj
 0002:00004d24       ??_C@_0BG@PGOHHDMJ@?5?5?5Preset?5Value?3?50x?$CFx?$AA@ 10045d24     encconteccnt328mpci.obj
 0002:00004d40       ??_C@_0BH@OBCHHCLB@?5?5?5Match?50?5Value?3?50x?$CFx?$AA@ 10045d40     encconteccnt328mpci.obj
 0002:00004d5c       ??_C@_0BI@PPJDJHAK@?5?5?5Match?51?5Value?3?50x?$CFx?6?$AA@ 10045d5c     encconteccnt328mpci.obj
 0002:00004d78       ??_C@_0CB@BHICGGII@?5?5?5One?5Shot?5Duration?3?5?$CFd?5?$CI0x?$CFx?$CJ?6@ 10045d78     encconteccnt328mpci.obj
 0002:00004da0       ??_C@_0FK@MHKNLCPD@?5?5?5Output?5Signal?5?$CIMatch?50?11?5Abno@ 10045da0     encconteccnt328mpci.obj
 0002:00004e0c       ??_C@_0BB@JCAIALPL@?5?5?5OUTPUT?3?50x?$CFx?6?$AA@ 10045e0c     encconteccnt328mpci.obj
 0002:00004e20       ??_C@_0BM@KEHJNHBI@?5?5?5Index?5Enable?3?5?$CFd?5?$CI0x?$CFx?$CJ?6?$AA@ 10045e20     encconteccnt328mpci.obj
 0002:00004e44       ??_C@_0BC@PJJJOOAA@?5?5?5Z?9PULSE?3?50x?$CFx?6?$AA@ 10045e44     encconteccnt328mpci.obj
 0002:00004e5c       ??_C@_0CH@LIFPIGPB@?5?5?5Enable?5Digital?5Input?3?5?$CFd?5Outp@ 10045e5c     encconteccnt328mpci.obj
 0002:00004e8c       ??_C@_0DF@HCJHNGFD@?5?5?5Digital?5Output?5Initial?5Value?3@ 10045e8c     encconteccnt328mpci.obj
 0002:00004ecc       ??_C@_0CP@CNANCOON@?5?5?5External?5Output?5Signal?5Overlo@ 10045ecc     encconteccnt328mpci.obj
 0002:00004f08       ??_C@_0ED@LKHIFFLC@Wrong?5number?5of?5input?5arguments?5@ 10045f08     dopci8255.obj
 0002:00004f58       ??_C@_0BC@MPAJBIJ@CB?5PCI?9DAS1602?116?$AA@ 10045f58     dopci8255.obj
 0002:00004f70       ??_C@_0P@HKDMEDDF@CB?5PCI?9DAS1200?$AA@ 10045f70     dopci8255.obj
 0002:00004f84       ??_C@_0BC@NLEKMPOI@CB?5PCI?9DAS1200?1JR?$AA@ 10045f84     dopci8255.obj
 0002:00004f9c       ??_C@_0O@OECMNDND@CB?5PCI?9DIO48H?$AA@ 10045f9c     dopci8255.obj
 0002:00004fac       ??_C@_0BA@MBPMNBMJ@CB?5PCI?9DDA02?112?$AA@ 10045fac     dopci8255.obj
 0002:00004fc0       ??_C@_0BA@EOLMCEGJ@CB?5PCI?9DDA04?112?$AA@ 10045fc0     dopci8255.obj
 0002:00004fd4       ??_C@_0BA@ILEMMJGI@CB?5PCI?9DDA08?112?$AA@ 10045fd4     dopci8255.obj
 0002:00004fe8       ??_C@_0O@MIFNHFGL@CB?5PCI?9DIO24H?$AA@ 10045fe8     dopci8255.obj
 0002:00004ff8       ??_C@_0O@BMNICGAE@CB?5PCI?9DIO96H?$AA@ 10045ff8     dopci8255.obj
 0002:00005008       ??_C@_0N@PCCDCCJA@CB?5PCI?9DIO24?$AA@ 10046008     dopci8255.obj
 0002:00005018       ??_C@_0BC@GIJMFEIN@CB?5PCI?9DAS1602?112?$AA@ 10046018     dopci8255.obj
 0002:00005030       ??_C@_0M@DJFFBOOL@NI?5PCI?96503?$AA@ 10046030     dopci8255.obj
 0002:00005040       ??_C@_0O@CJHADKHB@NI?5PCI?9DIO?996?$AA@ 10046040     dopci8255.obj
 0002:00005050       ??_C@_0M@PLHAOKFN@NI?5PXI?96508?$AA@ 10046050     dopci8255.obj
 0002:00005060       ??_C@_0N@NMILOOOH@NI?5PCI?96025E?$AA@ 10046060     dopci8255.obj
 0002:00005070       ??_C@_0BA@CMHAIHFM@CB?5PCI?9DUAL?9AC5?$AA@ 10046070     dopci8255.obj
 0002:00005084       ??_C@_0BA@KFJABEMN@CB?5PCI?9DDA02?116?$AA@ 10046084     dopci8255.obj
 0002:00005098       ??_C@_0BA@CKNAOBGN@CB?5PCI?9DDA04?116?$AA@ 10046098     dopci8255.obj
 0002:000050ac       ??_C@_0BA@OPCAAMGM@CB?5PCI?9DDA08?116?$AA@ 100460ac     dopci8255.obj
 0002:000050c0       ??_C@_0BB@IGAELBME@CB?5PCIM?9DDA06?116?$AA@ 100460c0     dopci8255.obj
 0002:000050d4       ??_C@_0BD@IPMBHKCA@CB?5PCIM?9DAS1602?116?$AA@ 100460d4     dopci8255.obj
 0002:000050ec       ??_C@_0N@MMEAKPPD@CB?5PCI?9DIO96?$AA@ 100460ec     dopci8255.obj
 0002:000050fc       ??_C@_0BE@MDOBOAKD@CB?5?$CIMC?$CJ?5PCI?9DAS1001?$AA@ 100460fc     dopci8255.obj
 0002:00005114       ??_C@_0BE@OIMMLDGA@CB?5?$CIMC?$CJ?5PCI?9DAS1002?$AA@ 10046114     dopci8255.obj
 0002:0000512c       ??_C@_0BI@IHCNPKCM@No?5?$CFs?5at?5bus?5?$CFd?5slot?5?$CFd?$AA@ 1004612c     dopci8255.obj
 0002:00005148       ??_C@_0CJ@MHHCOHM@Board?5base?5address?5came?5up?50?0?5ca@ 10046148     dopci8255.obj
 0002:0000517c       ??_C@_0BG@EPCOHGPO@?$CFs?3?5board?5not?5present?$AA@ 1004617c     dacbpcidda0x12.obj
 0002:00005198       ??_C@_0CI@NFFNBHJA@?$CFs?5?$CIbus?5?$CFd?0?5slot?5?$CFd?$CJ?3?5board?5not?5@ 10046198     dacbpcidda0x12.obj
 0002:000051c8       __real@3ee4f8b588e368f1    100461c8     dacbpcidda0x12.obj
 0002:000051d8       __real@4004000000000000    100461d8     dacbpcidda0x12.obj
 0002:000051e8       __real@4014000000000000    100461e8     dacbpcidda0x12.obj
 0002:000051f8       __real@4024000000000000    100461f8     dacbpcidda0x12.obj
 0002:00005208       __real@4034000000000000    10046208     dacbpcidda0x12.obj
 0002:00005218       __real@40b0000000000000    10046218     dacbpcidda0x12.obj
 0002:00005228       __real@40f0000000000000    10046228     dacbpcidda0x12.obj
 0002:00005234       ??_C@_0CN@MHEKKFIE@Output?5port?5width?5argument?5must?5@ 10046234     xpcudpbytereceive.obj
 0002:0000526c       ??_C@_0DC@KNMLNALJ@Error?5in?5udpbytereceive?3?5memory?5@ 1004626c     xpcudpbytereceive.obj
 0002:000052a8       ??_C@_0CI@CAMPNCMJ@Error?3?5No?5UDP?5channel?5free?5or?5UD@ 100462a8     xpcudpbytereceive.obj
 0002:000052d8       ??_C@_0BC@JCHLEIED@MC?5PCI?9DAS1602?116?$AA@ 100462d8     dipci8255.obj
 0002:000052f0       ??_C@_0P@KEALKDG@MC?5PCI?9DAS1200?$AA@ 100462f0     dipci8255.obj
 0002:00005304       ??_C@_0BC@EFMBBGCC@MC?5PCI?9DAS1200?1JR?$AA@ 10046304     dipci8255.obj
 0002:0000531c       ??_C@_0O@PCCBFPNG@MC?5PCI?9DIO48H?$AA@ 1004631c     dipci8255.obj
 0002:0000532c       ??_C@_0BA@FIIFPMIK@MC?5PCI?9DDA02?112?$AA@ 1004632c     dipci8255.obj
 0002:00005340       ??_C@_0BA@NHMFAJCK@MC?5PCI?9DDA04?112?$AA@ 10046340     dipci8255.obj
 0002:00005354       ??_C@_0BA@BCDFOECL@MC?5PCI?9DDA08?112?$AA@ 10046354     dipci8255.obj
 0002:00005368       ??_C@_0O@NOFAPJGO@MC?5PCI?9DIO24H?$AA@ 10046368     dipci8255.obj
 0002:00005378       ??_C@_0O@KNFKKAB@MC?5PCI?9DIO96H?$AA@ 10046378     dipci8255.obj
 0002:00005388       ??_C@_0N@JDGAGCEP@MC?5PCI?9DIO24?$AA@ 10046388     dipci8255.obj
 0002:00005398       ??_C@_0BC@PGBHINEH@MC?5PCI?9DAS1602?112?$AA@ 10046398     dipci8255.obj
 0002:000053b0       ??_C@_0BA@LFAJKKBP@MC?5PCI?9DUAL?9AC5?$AA@ 100463b0     dipci8255.obj
 0002:000053c4       ??_C@_0BA@DMOJDJIO@MC?5PCI?9DDA02?116?$AA@ 100463c4     dipci8255.obj
 0002:000053d8       ??_C@_0BA@LDKJMMCO@MC?5PCI?9DDA04?116?$AA@ 100463d8     dipci8255.obj
 0002:000053ec       ??_C@_0BA@HGFJCBCP@MC?5PCI?9DDA08?116?$AA@ 100463ec     dipci8255.obj
 0002:00005400       ??_C@_0BB@GJEINIMD@MC?5PCIM?9DDA06?116?$AA@ 10046400     dipci8255.obj
 0002:00005414       ??_C@_0BD@PEOONKFH@MC?5PCIM?9DAS1602?116?$AA@ 10046414     dipci8255.obj
 0002:0000542c       ??_C@_0N@KNADOPCM@MC?5PCI?9DIO96?$AA@ 1004642c     dipci8255.obj
 0002:0000543c       ??_C@_0P@LJFCEDPM@MC?5PCI?9DAS1001?$AA@ 1004643c     dipci8255.obj
 0002:00005450       ??_C@_0P@JCHPBADP@MC?5PCI?9DAS1002?$AA@ 10046450     dipci8255.obj
 0002:00005464       ??_C@_0CC@DMFKNLL@VendorId?5?$DN?50x?$CFx?0?5DeviceId?5?$DN?50x?$CFx@ 10046464     xpcruntime:xpcimports.obj
 0002:00005488       ??_C@_0DH@OHCBLNMG@Subsystem?5Device?5ID?5?$DN?50x?$CFx?6Subsy@ 10046488     xpcruntime:xpcimports.obj
 0002:000054c0       ??_C@_0BD@MMMMEFCM@Class?5Code?5?$DN?50x?$CFx?6?$AA@ 100464c0     xpcruntime:xpcimports.obj
 0002:000054d4       ??_C@_0BE@OLDDDNHM@InterruptLine?5?$DN?5?$CFd?6?$AA@ 100464d4     xpcruntime:xpcimports.obj
 0002:000054e8       ??_C@_0BF@OLKLEKBD@bus?5?$DN?5?$CFd?0?5slot?5?$DN?5?$CFd?6?$AA@ 100464e8     xpcruntime:xpcimports.obj
 0002:00005500       ??_C@_0CE@DGLLGDFH@?5?5?5?5Phys?5?5?5Virtual?5?5?5Length?5IO?1M@ 10046500     xpcruntime:xpcimports.obj
 0002:00005524       ??_C@_0BI@FEOPLEMG@?$CF08x?5?$CF08x?5?$CF08x?5?5?5?5?5?5?$CFc?6?$AA@ 10046524     xpcruntime:xpcimports.obj
 0002:0000553c       ??_C@_0BB@BNNCEDPC@rl32eScopeExists?$AA@ 1004653c     xpcruntime:xpcimports.obj
 0002:00005550       ??_C@_0BM@FJBFEGFG@rl32eScopeExists?5not?5found?6?$AA@ 10046550     xpcruntime:xpcimports.obj
 0002:0000556c       ??_C@_0O@BNNGKJEA@rl32eDefScope?$AA@ 1004656c     xpcruntime:xpcimports.obj
 0002:0000557c       ??_C@_0BJ@CDNOENKA@rl32eDefScope?5not?5found?6?$AA@ 1004657c     xpcruntime:xpcimports.obj
 0002:00005598       ??_C@_0P@CKNKILDP@rl32eAddSignal?$AA@ 10046598     xpcruntime:xpcimports.obj
 0002:000055a8       ??_C@_0BK@GMJAJBAI@rl32eAddSignal?5not?5found?6?$AA@ 100465a8     xpcruntime:xpcimports.obj
 0002:000055c4       ??_C@_0BB@LDMIHGCE@rl32eGetSignalNo?$AA@ 100465c4     xpcruntime:xpcimports.obj
 0002:000055d8       ??_C@_0BM@LGAMBAID@rl32eGetSignalNo?5not?5found?6?$AA@ 100465d8     xpcruntime:xpcimports.obj
 0002:000055f4       ??_C@_0O@CFDGALBP@rl32eSetScope?$AA@ 100465f4     xpcruntime:xpcimports.obj
 0002:00005604       ??_C@_0BJ@JCLHHIN@rl32eSetScope?5not?5found?6?$AA@ 10046604     xpcruntime:xpcimports.obj
 0002:00005620       ??_C@_0P@IKMCBMHH@xpceFSScopeSet?$AA@ 10046620     xpcruntime:xpcimports.obj
 0002:00005630       ??_C@_0BK@JODJPNNH@xpceFSScopeSet?5not?5found?6?$AA@ 10046630     xpcruntime:xpcimports.obj
 0002:0000564c       ??_C@_0BE@DLACEEJM@rl32eSetTargetScope?$AA@ 1004664c     xpcruntime:xpcimports.obj
 0002:00005660       ??_C@_0BP@JCHFMKPJ@rl32eSetTargetScope?5not?5found?6?$AA@ 10046660     xpcruntime:xpcimports.obj
 0002:00005680       ??_C@_0BJ@LIDLNDHC@rl32eSetTargetScopeSigFt?$AA@ 10046680     xpcruntime:xpcimports.obj
 0002:0000569c       ??_C@_0CE@JLGHCFHI@rl32eSetTargetScopeSigFt?5not?5fou@ 1004669c     xpcruntime:xpcimports.obj
 0002:000056c0       ??_C@_0BI@JAPOIDNG@rl32eRestartAcquisition?$AA@ 100466c0     xpcruntime:xpcimports.obj
 0002:000056d8       ??_C@_0CD@LLBEFFBO@rl32eRestartAcquisition?5not?5foun@ 100466d8     xpcruntime:xpcimports.obj
 0002:000056fc       ??_C@_0P@IEIIADJB@xpceScopeAcqOK?$AA@ 100466fc     xpcruntime:xpcimports.obj
 0002:0000570c       ??_C@_0BK@NJCKNFPN@xpceScopeAcqOK?5not?5found?6?$AA@ 1004670c     xpcruntime:xpcimports.obj
 0002:00005728       ??_C@_0BA@IJINKAHF@xpceRegisterISR?$AA@ 10046728     xpcruntime:xpcimports.obj
 0002:00005738       ??_C@_0BL@NNDLOEJE@xpceRegisterISR?5not?5found?6?$AA@ 10046738     xpcruntime:xpcimports.obj
 0002:00005754       ??_C@_0BC@NLBADGKF@xpceDeRegisterISR?$AA@ 10046754     xpcruntime:xpcimports.obj
 0002:00005768       ??_C@_0BN@DCAIKFFD@xpceDeRegisterISR?5not?5found?6?$AA@ 10046768     xpcruntime:xpcimports.obj
 0002:00005788       ??_C@_0P@CPGPNKEB@xpceFTReadTime?$AA@ 10046788     xpcruntime:xpcimports.obj
 0002:00005798       ??_C@_0BK@NMABIODN@xpceFTReadTime?5not?5found?6?$AA@ 10046798     xpcruntime:xpcimports.obj
 0002:000057b4       ??_C@_09PHNHCHFH@xpceFTAdd?$AA@ 100467b4     xpcruntime:xpcimports.obj
 0002:000057c0       ??_C@_0BF@FJLEIILA@xpceFTAdd?5not?5found?6?$AA@ 100467c0     xpcruntime:xpcimports.obj
 0002:000057d8       ??_C@_0P@KEODBLHO@xpceFTSubtract?$AA@ 100467d8     xpcruntime:xpcimports.obj
 0002:000057e8       ??_C@_0BK@HONODOKP@xpceFTSubtract?5not?5found?6?$AA@ 100467e8     xpcruntime:xpcimports.obj
 0002:00005804       ??_C@_07JPMEPILD@xpcInpB?$AA@ 10046804     xpcruntime:xpcimports.obj
 0002:0000580c       ??_C@_0BD@PGABEJOL@xpcInpB?5not?5found?6?$AA@ 1004680c     xpcruntime:xpcimports.obj
 0002:00005820       ??_C@_07KIHBBOKH@xpcInpW?$AA@ 10046820     xpcruntime:xpcimports.obj
 0002:00005828       ??_C@_0BD@FPCJFMCC@xpcInpW?5not?5found?6?$AA@ 10046828     xpcruntime:xpcimports.obj
 0002:0000583c       ??_C@_08KDIAJBOP@xpcInpDW?$AA@ 1004683c     xpcruntime:xpcimports.obj
 0002:00005848       ??_C@_0BE@PIELDNIL@xpcInpDW?5not?5found?6?$AA@ 10046848     xpcruntime:xpcimports.obj
 0002:0000585c       ??_C@_08PJFMOIGO@xpcOutpB?$AA@ 1004685c     xpcruntime:xpcimports.obj
 0002:00005868       ??_C@_0BE@HCKNCEKF@xpcOutpB?5not?5found?6?$AA@ 10046868     xpcruntime:xpcimports.obj
 0002:0000587c       ??_C@_08MOOJAOHK@xpcOutpW?$AA@ 1004687c     xpcruntime:xpcimports.obj
 0002:00005888       ??_C@_0BE@NLIFDBGM@xpcOutpW?5not?5found?6?$AA@ 10046888     xpcruntime:xpcimports.obj
 0002:0000589c       ??_C@_09FLIEKHJG@xpcOutpDW?$AA@ 1004689c     xpcruntime:xpcimports.obj
 0002:000058a8       ??_C@_0BF@GJKLPNHB@xpcOutpDW?5not?5found?6?$AA@ 100468a8     xpcruntime:xpcimports.obj
 0002:000058c0       ??_C@_0BH@EHOLELHH@xpcReserveMemoryRegion?$AA@ 100468c0     xpcruntime:xpcimports.obj
 0002:000058d8       ??_C@_0CC@KAAAGPI@xpcReserveMemoryRegion?5not?5found@ 100468d8     xpcruntime:xpcimports.obj
 0002:000058fc       ??_C@_0BA@JGPMHGAF@rl32eShowPCIDev?$AA@ 100468fc     xpcruntime:xpcimports.obj
 0002:0000590c       ??_C@_0BL@DDFFLNHI@rl32eShowPCIDev?5not?5found?6?$AA@ 1004690c     xpcruntime:xpcimports.obj
 0002:00005928       ??_C@_0BB@KBCOJPFB@rl32eShowPCIInfo?$AA@ 10046928     xpcruntime:xpcimports.obj
 0002:0000593c       ??_C@_0BM@IFDMAGLO@rl32eShowPCIInfo?5not?5found?6?$AA@ 1004693c     xpcruntime:xpcimports.obj
 0002:00005958       ??_C@_0BA@BGPAADB@rl32eGetPCIInfo?$AA@ 10046958     xpcruntime:xpcimports.obj
 0002:00005968       ??_C@_0BL@IGOMLDCK@rl32eGetPCIInfo?5not?5found?6?$AA@ 10046968     xpcruntime:xpcimports.obj
 0002:00005984       ??_C@_0BG@NJPFKFDP@rl32eGetPCIInfoAtSlot?$AA@ 10046984     xpcruntime:xpcimports.obj
 0002:0000599c       ??_C@_0CB@BBKIPMLA@rl32eGetPCIInfoAtSlot?5not?5found?6@ 1004699c     xpcruntime:xpcimports.obj
 0002:000059c0       ??_C@_0BH@OKBOPNFG@xpceAssignPCIInterrupt?$AA@ 100469c0     xpcruntime:xpcimports.obj
 0002:000059d8       ??_C@_0CC@CDNDNJBJ@xpceAssignPCIInterrupt?5not?5found@ 100469d8     xpcruntime:xpcimports.obj
 0002:000059fc       ??_C@_0BB@FCHHFAAH@rl32eInitCOMPort?$AA@ 100469fc     xpcruntime:xpcimports.obj
 0002:00005a10       ??_C@_0BM@DDJGKAHB@rl32eInitCOMPort?5not?5found?6?$AA@ 10046a10     xpcruntime:xpcimports.obj
 0002:00005a2c       ??_C@_0BC@CHEEFCP@rl32eCloseCOMPort?$AA@ 10046a2c     xpcruntime:xpcimports.obj
 0002:00005a40       ??_C@_0BN@KCOFELEM@rl32eCloseCOMPort?5not?5found?6?$AA@ 10046a40     xpcruntime:xpcimports.obj
 0002:00005a60       ??_C@_0O@LLJGKFOG@rl32eSendChar?$AA@ 10046a60     xpcruntime:xpcimports.obj
 0002:00005a70       ??_C@_0BJ@JCJKDACJ@rl32eSendChar?5not?5found?6?$AA@ 10046a70     xpcruntime:xpcimports.obj
 0002:00005a8c       ??_C@_0BB@OMFKCOEK@rl32eReceiveChar?$AA@ 10046a8c     xpcruntime:xpcimports.obj
 0002:00005aa0       ??_C@_0BM@HGAIOAND@rl32eReceiveChar?5not?5found?6?$AA@ 10046aa0     xpcruntime:xpcimports.obj
 0002:00005abc       ??_C@_0BI@PKEJFHMJ@rl32eReceiveBufferCount?$AA@ 10046abc     xpcruntime:xpcimports.obj
 0002:00005ad4       ??_C@_0CD@LNMOFLAH@rl32eReceiveBufferCount?5not?5foun@ 10046ad4     xpcruntime:xpcimports.obj
 0002:00005af8       ??_C@_0BA@CFIJOJPK@rl32eLineStatus?$AA@ 10046af8     xpcruntime:xpcimports.obj
 0002:00005b08       ??_C@_0BL@PLIDKKGI@rl32eLineStatus?5not?5found?6?$AA@ 10046b08     xpcruntime:xpcimports.obj
 0002:00005b24       ??_C@_0P@MDMKIJF@rl32eSendBlock?$AA@ 10046b24     xpcruntime:xpcimports.obj
 0002:00005b34       ??_C@_0BK@KNBNFIKH@rl32eSendBlock?5not?5found?6?$AA@ 10046b34     xpcruntime:xpcimports.obj
 0002:00005b50       ??_C@_0BD@PCKOKHO@xpceGetSignalValue?$AA@ 10046b50     xpcruntime:xpcimports.obj
 0002:00005b64       ??_C@_0BO@GCBDJHMB@xpceGetSignalValue?5not?5found?6?$AA@ 10046b64     xpcruntime:xpcimports.obj
 0002:00005b84       ??_C@_0BB@BJONJAGA@xpceSetParameter?$AA@ 10046b84     xpcruntime:xpcimports.obj
 0002:00005b98       ??_C@_0BM@BJIKDLHA@xpceSetParameter?5not?5found?6?$AA@ 10046b98     xpcruntime:xpcimports.obj
 0002:00005bb4       ??_C@_0BB@GNFDFMCM@xpceGetParameter?$AA@ 10046bb4     xpcruntime:xpcimports.obj
 0002:00005bc8       ??_C@_0BM@POHNKBC@xpceGetParameter?5not?5found?6?$AA@ 10046bc8     xpcruntime:xpcimports.obj
 0002:00005be4       ??_C@_0BB@CEIJLFCD@xpceGetParamDims?$AA@ 10046be4     xpcruntime:xpcimports.obj
 0002:00005bf8       ??_C@_0BM@OABDBKAO@xpceGetParamDims?5not?5found?6?$AA@ 10046bf8     xpcruntime:xpcimports.obj
 0002:00005c14       ??_C@_0L@OCBLLHBM@xpceGetTET?$AA@ 10046c14     xpcruntime:xpcimports.obj
 0002:00005c20       ??_C@_0BG@HNOFBOB@xpceGetTET?5not?5found?6?$AA@ 10046c20     xpcruntime:xpcimports.obj
 0002:00005c38       ??_C@_0BA@FHMIOKFL@xpceUDPOpenSend?$AA@ 10046c38     xpcruntime:xpcimports.obj
 0002:00005c48       ??_C@_0BL@HNLPFEK@xpceUDPOpenSend?5not?5found?6?$AA@ 10046c48     xpcruntime:xpcimports.obj
 0002:00005c64       ??_C@_0BD@BCELJJJL@xpceUDPOpenReceive?$AA@ 10046c64     xpcruntime:xpcimports.obj
 0002:00005c78       ??_C@_0BO@IFKJBHKC@xpceUDPOpenReceive?5not?5found?6?$AA@ 10046c78     xpcruntime:xpcimports.obj
 0002:00005c98       ??_C@_0M@OFPFLJGN@xpceUDPSend?$AA@ 10046c98     xpcruntime:xpcimports.obj
 0002:00005ca4       ??_C@_0BH@NOIKLPAB@xpceUDPSend?5not?5found?6?$AA@ 10046ca4     xpcruntime:xpcimports.obj
 0002:00005cbc       ??_C@_0P@PLFDECIN@xpceUDPReceive?$AA@ 10046cbc     xpcruntime:xpcimports.obj
 0002:00005ccc       ??_C@_0BK@OPJMLDLH@xpceUDPReceive?5not?5found?6?$AA@ 10046ccc     xpcruntime:xpcimports.obj
 0002:00005ce8       ??_C@_0N@IEHPMFME@xpceUDPClose?$AA@ 10046ce8     xpcruntime:xpcimports.obj
 0002:00005cf8       ??_C@_0BI@FHPFHECO@xpceUDPClose?5not?5found?6?$AA@ 10046cf8     xpcruntime:xpcimports.obj
 0002:00005d10       ??_C@_0P@OKGNGAGH@xpcIsModelInit?$AA@ 10046d10     xpcruntime:xpcimports.obj
 0002:00005d20       ??_C@_0BK@DHEMLBIM@xpcIsModelInit?5not?5found?6?$AA@ 10046d20     xpcruntime:xpcimports.obj
 0002:00005d3c       ??_C@_0BH@KJJLCAOJ@xpcAllocPhysicalMemory?$AA@ 10046d3c     xpcruntime:xpcimports.obj
 0002:00005d54       ??_C@_0CC@MOJPNHKL@xpcAllocPhysicalMemory?5not?5found@ 10046d54     xpcruntime:xpcimports.obj
 0002:00005d78       ??_C@_0BG@CBNPGAEL@xpcFreePhysicalMemory?$AA@ 10046d78     xpcruntime:xpcimports.obj
 0002:00005d90       ??_C@_0CB@PKJEBPOG@xpcFreePhysicalMemory?5not?5found?6@ 10046d90     xpcruntime:xpcimports.obj
 0002:00005db4       ??_C@_0BC@JGKNLICL@xpcGetElapsedTime?$AA@ 10046db4     xpcruntime:xpcimports.obj
 0002:00005dc8       ??_C@_0BN@OEOAHCIO@xpcGetElapsedTime?5not?5found?6?$AA@ 10046dc8     xpcruntime:xpcimports.obj
 0002:00005de8       ??_C@_0M@ICBLMODA@xpcBusyWait?$AA@ 10046de8     xpcruntime:xpcimports.obj
 0002:00005df4       ??_C@_0BH@FBOPECBI@xpcBusyWait?5not?5found?6?$AA@ 10046df4     xpcruntime:xpcimports.obj
 0002:00005e0c       ??_C@_0N@LKKJEKKA@TBCreateSpin?$AA@ 10046e0c     xpcruntime:xpcimports.obj
 0002:00005e1c       ??_C@_0BI@FHKMLKOE@TBCreateSpin?5not?5found?6?$AA@ 10046e1c     xpcruntime:xpcimports.obj
 0002:00005e34       ??_C@_0N@HOAJHNBD@TBDeleteSpin?$AA@ 10046e34     xpcruntime:xpcimports.obj
 0002:00005e44       ??_C@_0BI@BKCPAAG@TBDeleteSpin?5not?5found?6?$AA@ 10046e44     xpcruntime:xpcimports.obj
 0002:00005e5c       ??_C@_0P@DAHDDBJG@TBTakeSpinFast?$AA@ 10046e5c     xpcruntime:xpcimports.obj
 0002:00005e6c       ??_C@_0BK@NKAIBHGB@TBTakeSpinFast?5not?5found?6?$AA@ 10046e6c     xpcruntime:xpcimports.obj
 0002:00005e88       ??_C@_0P@FKNAAELA@TBGiveSpinFast?$AA@ 10046e88     xpcruntime:xpcimports.obj
 0002:00005e98       ??_C@_0BK@KGPJBJND@TBGiveSpinFast?5not?5found?6?$AA@ 10046e98     xpcruntime:xpcimports.obj
 0002:00005eb4       ??_C@_0BE@IIGBFDHK@xpceCreateSemaphore?$AA@ 10046eb4     xpcruntime:xpcimports.obj
 0002:00005ec8       ??_C@_0BP@KFBAFFKJ@xpceCreateSemaphore?5not?5found?6?$AA@ 10046ec8     xpcruntime:xpcimports.obj
 0002:00005ee8       ??_C@_0BC@IFNIONKJ@xpceWaitSemaphore?$AA@ 10046ee8     xpcruntime:xpcimports.obj
 0002:00005efc       ??_C@_0BN@NMFAADIO@xpceWaitSemaphore?5not?5found?6?$AA@ 10046efc     xpcruntime:xpcimports.obj
 0002:00005f1c       ??_C@_0BE@NNDIOBKE@xpceSignalSemaphore?$AA@ 10046f1c     xpcruntime:xpcimports.obj
 0002:00005f30       ??_C@_0BP@LBANMHJP@xpceSignalSemaphore?5not?5found?6?$AA@ 10046f30     xpcruntime:xpcimports.obj
 0002:00005f50       ??_C@_0BE@MEBEKOIM@xpceDeleteSemaphore?$AA@ 10046f50     xpcruntime:xpcimports.obj
 0002:00005f64       ??_C@_0BP@OFNCKOJH@xpceDeleteSemaphore?5not?5found?6?$AA@ 10046f64     xpcruntime:xpcimports.obj
 0002:00005f84       ??_C@_0BD@MFNDMBOF@FindUsbVideoDevice?$AA@ 10046f84     xpcruntime:xpcimports.obj
 0002:00005f98       ??_C@_0BO@POKLDHMI@FindUsbVideoDevice?5not?5found?6?$AA@ 10046f98     xpcruntime:xpcimports.obj
 0002:00005fb8       ??_C@_0BA@PLPAPNAB@GetVideoConfigs?$AA@ 10046fb8     xpcruntime:xpcimports.obj
 0002:00005fc8       ??_C@_0BL@DALDHKHC@GetVideoConfigs?5not?5found?6?$AA@ 10046fc8     xpcruntime:xpcimports.obj
 0002:00005fe4       ??_C@_0L@GBAEMHMH@StartVideo?$AA@ 10046fe4     xpcruntime:xpcimports.obj
 0002:00005ff0       ??_C@_0BG@HDCELEBP@StartVideo?5not?5found?6?$AA@ 10046ff0     xpcruntime:xpcimports.obj
 0002:00006008       ??_C@_0BA@FDNPOCLN@ReadFrameBuffer?$AA@ 10047008     xpcruntime:xpcimports.obj
 0002:00006018       ??_C@_0BL@JHGHPNBI@ReadFrameBuffer?5not?5found?6?$AA@ 10047018     xpcruntime:xpcimports.obj
 0002:00006034       ??_C@_09FAHCLKAG@StopVideo?$AA@ 10047034     xpcruntime:xpcimports.obj
 0002:00006040       ??_C@_0BF@NKGKKADL@StopVideo?5not?5found?6?$AA@ 10047040     xpcruntime:xpcimports.obj
 0002:00006058       ??_C@_0O@MCPKDLLL@ConvertUImage?$AA@ 10047058     xpcruntime:xpcimports.obj
 0002:00006068       ??_C@_0BJ@PHJKOAFL@ConvertUImage?5not?5found?6?$AA@ 10047068     xpcruntime:xpcimports.obj
 0002:00006084       ??_C@_0BD@NKCBPBJJ@CreateVideoDisplay?$AA@ 10047084     xpcruntime:xpcimports.obj
 0002:00006098       ??_C@_0BO@HPPLLNFP@CreateVideoDisplay?5not?5found?6?$AA@ 10047098     xpcruntime:xpcimports.obj
 0002:000060b8       ??_C@_0BE@KJCKGPHA@DestroyVideoDisplay?$AA@ 100470b8     xpcruntime:xpcimports.obj
 0002:000060cc       ??_C@_0BP@FMGLJAIJ@DestroyVideoDisplay?5not?5found?6?$AA@ 100470cc     xpcruntime:xpcimports.obj
 0002:000060ec       ??_C@_0BC@HCMIMIDN@StartVideoDisplay?$AA@ 100470ec     xpcruntime:xpcimports.obj
 0002:00006100       ??_C@_0BN@EFIEBGOO@StartVideoDisplay?5not?5found?6?$AA@ 10047100     xpcruntime:xpcimports.obj
 0002:00006120       ??_C@_0BB@JBBLMILG@StopVideoDisplay?$AA@ 10047120     xpcruntime:xpcimports.obj
 0002:00006134       ??_C@_0BM@DBJBPLEL@StopVideoDisplay?5not?5found?6?$AA@ 10047134     xpcruntime:xpcimports.obj
 0002:00006150       ??_C@_0M@MFJEGMHC@StreamVideo?$AA@ 10047150     xpcruntime:xpcimports.obj
 0002:0000615c       ??_C@_0BH@OINCDMLA@StreamVideo?5not?5found?6?$AA@ 1004715c     xpcruntime:xpcimports.obj
 0002:00006174       ??_C@_0N@IGGLCIGE@xpceaddEvent?$AA@ 10047174     xpcruntime:xpcimports.obj
 0002:00006184       ??_C@_0BI@NHJNFMKH@xpceaddEvent?5not?5found?6?$AA@ 10047184     xpcruntime:xpcimports.obj
 0002:0000619c       ??_C@_0BB@LCMHHHFN@getMemoryService?$AA@ 1004719c     xpcruntime:xpcimports.obj
 0002:000061b0       ??_C@_0BM@MPLCNIIE@getMemoryService?5not?5found?6?$AA@ 100471b0     xpcruntime:xpcimports.obj
 0002:000061cc       ??_C@_0P@KIKONDKK@getCommService?$AA@ 100471cc     xpcruntime:xpcimports.obj
 0002:000061dc       ??_C@_0BK@NCECBKNM@getCommService?5not?5found?6?$AA@ 100471dc     xpcruntime:xpcimports.obj
 0002:000061f8       ??_C@_0P@GDLHFECE@getStatusFlags?$AA@ 100471f8     xpcruntime:xpcimports.obj
 0002:00006208       ??_C@_0BK@NEKDLJHG@getStatusFlags?5not?5found?6?$AA@ 10047208     xpcruntime:xpcimports.obj
 0002:00006224       ??_C@_0BL@CDFCLKOL@startToAsyncQueueTgtAppSvc?$AA@ 10047224     xpcruntime:xpcimports.obj
 0002:00006240       ??_C@_0CG@JGOFFKEL@startToAsyncQueueTgtAppSvc?5not?5f@ 10047240     xpcruntime:xpcimports.obj
 0002:00006268       ??_C@_0BP@IJNGPPPE@terminateToAsyncQueueTgtAppSvc?$AA@ 10047268     xpcruntime:xpcimports.obj
 0002:00006288       ??_C@_0CK@NDEMAMKF@terminateToAsyncQueueTgtAppSvc?5n@ 10047288     xpcruntime:xpcimports.obj
 0002:000062b4       ??_C@_0BK@IDACEHAO@sendToAsyncQueueTgtAppSvc?$AA@ 100472b4     xpcruntime:xpcimports.obj
 0002:000062d0       ??_C@_0CF@PNCKPEHN@sendToAsyncQueueTgtAppSvc?5not?5fo@ 100472d0     xpcruntime:xpcimports.obj
 0002:000062f8       ??_C@_0BN@HJOHIFOM@xpceGetIntTimerGranularityNS?$AA@ 100472f8     xpcruntime:xpcimports.obj
 0002:00006318       ??_C@_0CI@OADDPMKB@xpceGetIntTimerGranularityNS?5not@ 10047318     xpcruntime:xpcimports.obj
 0002:00006340       ??_C@_0BG@CCHICKPN@slrteSetStepSizeDelta?$AA@ 10047340     xpcruntime:xpcimports.obj
 0002:00006358       ??_C@_0CB@MKHINEIJ@slrteSetStepSizeDelta?5not?5found?6@ 10047358     xpcruntime:xpcimports.obj
 0002:0000637c       ??_C@_0BI@CLNBLDKJ@slrteGetCurrentStepSize?$AA@ 1004737c     xpcruntime:xpcimports.obj
 0002:00006394       ??_C@_0CD@GIOJPGJA@slrteGetCurrentStepSize?5not?5foun@ 10047394     xpcruntime:xpcimports.obj
 0002:000063b8       ??_C@_0BE@FCLCBOC@registerPTPTimeRead?$AA@ 100473b8     xpcruntime:xpcimports.obj
 0002:000063cc       ??_C@_0BP@LHPKAJIP@registerPTPTimeRead?5not?5found?6?$AA@ 100473cc     xpcruntime:xpcimports.obj
 0002:000063ec       ??_C@_0BG@KIGCDDJI@unRegisterPTPTimeRead?$AA@ 100473ec     xpcruntime:xpcimports.obj
 0002:00006404       ??_C@_0CB@MLFFBFCM@unRegisterPTPTimeRead?5not?5found?6@ 10047404     xpcruntime:xpcimports.obj
 0002:00006428       ??_C@_0BB@IPMDDBHK@slTestInitialize?$AA@ 10047428     xpcruntime:xpcimports.obj
 0002:0000643c       ??_C@_0BM@LAJFCCJH@slTestInitialize?5not?5found?6?$AA@ 1004743c     xpcruntime:xpcimports.obj
 0002:00006458       ??_C@_0BF@OOMPMEBC@slTestLogAssessments?$AA@ 10047458     xpcruntime:xpcimports.obj
 0002:00006470       ??_C@_0CA@FGJCEBAG@slTestLogAssessments?5not?5found?6?$AA@ 10047470     xpcruntime:xpcimports.obj
 0002:00006490       ??_C@_0BB@HJHKONHO@slTestEvalOnFail?$AA@ 10047490     xpcruntime:xpcimports.obj
 0002:000064a4       ??_C@_0BM@JIKCFFNJ@slTestEvalOnFail?5not?5found?6?$AA@ 100474a4     xpcruntime:xpcimports.obj
 0002:000064c0       ??_C@_0BA@LBHLABFP@slTestTerminate?$AA@ 100474c0     xpcruntime:xpcimports.obj
 0002:000064d0       ??_C@_0BL@EMFGKAPA@slTestTerminate?5not?5found?6?$AA@ 100474d0     xpcruntime:xpcimports.obj
 0002:000064ec       ??_C@_0BE@JPNPBBEO@slTestRegAssessment?$AA@ 100474ec     xpcruntime:xpcimports.obj
 0002:00006500       ??_C@_0BP@FBDEJJJH@slTestRegAssessment?5not?5found?6?$AA@ 10047500     xpcruntime:xpcimports.obj
 0002:00006568       __FPinit                   10047568     LIBCMT:fpinit.obj
 0002:00006574       ??_C@_1BI@BGOHAHKC@?$AAm?$AAs?$AAc?$AAo?$AAr?$AAe?$AAe?$AA?4?$AAd?$AAl?$AAl?$AA?$AA@ 10047574     LIBCMT:crt0dat.obj
 0002:0000658c       ??_C@_0P@MIGLKIOC@CorExitProcess?$AA@ 1004758c     LIBCMT:crt0dat.obj
 0002:00006624       ??_C@_17LGKOMLJ@?$AA?4?$AA?4?$AA?4?$AA?$AA@ 10047624     LIBCMT:wassert.obj
 0002:0000662c       ??_C@_13LBAGMAIH@?$AA?6?$AA?$AA@ 1004762c     LIBCMT:wassert.obj
 0002:00006630       ??_C@_15IABLJNFO@?$AA?6?$AA?6?$AA?$AA@ 10047630     LIBCMT:wassert.obj
 0002:00006638       ??_C@_1CE@OJBNHDMO@?$AAA?$AAs?$AAs?$AAe?$AAr?$AAt?$AAi?$AAo?$AAn?$AA?5?$AAf?$AAa?$AAi?$AAl?$AAe?$AAd?$AA?$CB?$AA?$AA@ 10047638     LIBCMT:wassert.obj
 0002:0000665c       ??_C@_1BE@PHKBBGE@?$AAP?$AAr?$AAo?$AAg?$AAr?$AAa?$AAm?$AA?3?$AA?5?$AA?$AA@ 1004765c     LIBCMT:wassert.obj
 0002:00006670       ??_C@_1CO@EAEJAADC@?$AA?$DM?$AAp?$AAr?$AAo?$AAg?$AAr?$AAa?$AAm?$AA?5?$AAn?$AAa?$AAm?$AAe?$AA?5?$AAu?$AAn?$AAk?$AAn?$AAo?$AAw?$AAn?$AA?$DO?$AA?$AA@ 10047670     LIBCMT:wassert.obj
 0002:000066a0       ??_C@_1O@HEMHKNDC@?$AAF?$AAi?$AAl?$AAe?$AA?3?$AA?5?$AA?$AA@ 100476a0     LIBCMT:wassert.obj
 0002:000066b0       ??_C@_1O@KCAFKHJE@?$AAL?$AAi?$AAn?$AAe?$AA?3?$AA?5?$AA?$AA@ 100476b0     LIBCMT:wassert.obj
 0002:000066c0       ??_C@_1BK@PEDCIPMA@?$AAE?$AAx?$AAp?$AAr?$AAe?$AAs?$AAs?$AAi?$AAo?$AAn?$AA?3?$AA?5?$AA?$AA@ 100476c0     LIBCMT:wassert.obj
 0002:000066e0       ??_C@_1OA@EGMLFBHJ@?$AAF?$AAo?$AAr?$AA?5?$AAi?$AAn?$AAf?$AAo?$AAr?$AAm?$AAa?$AAt?$AAi?$AAo?$AAn?$AA?5?$AAo?$AAn?$AA?5?$AAh?$AAo?$AAw?$AA?5?$AAy?$AAo?$AAu?$AAr?$AA?5?$AAp?$AAr?$AAo?$AAg@ 100476e0     LIBCMT:wassert.obj
 0002:000067c0       ??_C@_1HK@POCJMFGK@?$AA?$CI?$AAP?$AAr?$AAe?$AAs?$AAs?$AA?5?$AAR?$AAe?$AAt?$AAr?$AAy?$AA?5?$AAt?$AAo?$AA?5?$AAd?$AAe?$AAb?$AAu?$AAg?$AA?5?$AAt?$AAh?$AAe?$AA?5?$AAa?$AAp?$AAp?$AAl?$AAi?$AAc@ 100477c0     LIBCMT:wassert.obj
 0002:00006840       ??_C@_1EK@MBDPDCGA@?$AAM?$AAi?$AAc?$AAr?$AAo?$AAs?$AAo?$AAf?$AAt?$AA?5?$AAV?$AAi?$AAs?$AAu?$AAa?$AAl?$AA?5?$AAC?$AA?$CL?$AA?$CL?$AA?5?$AAR?$AAu?$AAn?$AAt?$AAi?$AAm?$AAe?$AA?5?$AAL?$AAi?$AAb@ 10047840     LIBCMT:wassert.obj
 0002:0000688c       __pDefaultRawDllMain       1004788c     LIBCMT:dllcrt0.obj
 0002:0000688c       __pRawDllMain              1004788c     LIBCMT:dllcrt0.obj
 0002:00006890       ?ProcessDetach@NativeDll@<CrtImplementationDetails>@@0IB 10047890     LIBCMT:handler.obj
 0002:00006894       ?ProcessAttach@NativeDll@<CrtImplementationDetails>@@0IB 10047894     LIBCMT:handler.obj
 0002:00006898       ?ThreadAttach@NativeDll@<CrtImplementationDetails>@@0IB 10047898     LIBCMT:handler.obj
 0002:0000689c       ?ThreadDetach@NativeDll@<CrtImplementationDetails>@@0IB 1004789c     LIBCMT:handler.obj
 0002:000068a0       ?ProcessVerifier@NativeDll@<CrtImplementationDetails>@@0IB 100478a0     LIBCMT:handler.obj
 0002:00006960       ??_C@_1FK@PGACCAFB@?$AAR?$AA6?$AA0?$AA0?$AA2?$AA?$AN?$AA?6?$AA?9?$AA?5?$AAf?$AAl?$AAo?$AAa?$AAt?$AAi?$AAn?$AAg?$AA?5?$AAp?$AAo?$AAi?$AAn?$AAt?$AA?5?$AAs?$AAu?$AAp?$AAp?$AAo?$AAr?$AAt?$AA?5@ 10047960     LIBCMT:crt0msg.obj
 0002:000069c0       ??_C@_1FE@LLNEDJMD@?$AAR?$AA6?$AA0?$AA0?$AA8?$AA?$AN?$AA?6?$AA?9?$AA?5?$AAn?$AAo?$AAt?$AA?5?$AAe?$AAn?$AAo?$AAu?$AAg?$AAh?$AA?5?$AAs?$AAp?$AAa?$AAc?$AAe?$AA?5?$AAf?$AAo?$AAr?$AA?5?$AAa?$AAr@ 100479c0     LIBCMT:crt0msg.obj
 0002:00006a18       ??_C@_1FI@HONFMGBI@?$AAR?$AA6?$AA0?$AA0?$AA9?$AA?$AN?$AA?6?$AA?9?$AA?5?$AAn?$AAo?$AAt?$AA?5?$AAe?$AAn?$AAo?$AAu?$AAg?$AAh?$AA?5?$AAs?$AAp?$AAa?$AAc?$AAe?$AA?5?$AAf?$AAo?$AAr?$AA?5?$AAe?$AAn@ 10047a18     LIBCMT:crt0msg.obj
 0002:00006a70       ??_C@_1EG@BEHAGFJD@?$AAR?$AA6?$AA0?$AA1?$AA0?$AA?$AN?$AA?6?$AA?9?$AA?5?$AAa?$AAb?$AAo?$AAr?$AAt?$AA?$CI?$AA?$CJ?$AA?5?$AAh?$AAa?$AAs?$AA?5?$AAb?$AAe?$AAe?$AAn?$AA?5?$AAc?$AAa?$AAl?$AAl?$AAe?$AAd@ 10047a70     LIBCMT:crt0msg.obj
 0002:00006ab8       ??_C@_1FI@LOGNIKDM@?$AAR?$AA6?$AA0?$AA1?$AA6?$AA?$AN?$AA?6?$AA?9?$AA?5?$AAn?$AAo?$AAt?$AA?5?$AAe?$AAn?$AAo?$AAu?$AAg?$AAh?$AA?5?$AAs?$AAp?$AAa?$AAc?$AAe?$AA?5?$AAf?$AAo?$AAr?$AA?5?$AAt?$AAh@ 10047ab8     LIBCMT:crt0msg.obj
 0002:00006b10       ??_C@_1FK@BEOGODMC@?$AAR?$AA6?$AA0?$AA1?$AA7?$AA?$AN?$AA?6?$AA?9?$AA?5?$AAu?$AAn?$AAe?$AAx?$AAp?$AAe?$AAc?$AAt?$AAe?$AAd?$AA?5?$AAm?$AAu?$AAl?$AAt?$AAi?$AAt?$AAh?$AAr?$AAe?$AAa?$AAd?$AA?5@ 10047b10     LIBCMT:crt0msg.obj
 0002:00006b70       ??_C@_1EC@JIBHAOPH@?$AAR?$AA6?$AA0?$AA1?$AA8?$AA?$AN?$AA?6?$AA?9?$AA?5?$AAu?$AAn?$AAe?$AAx?$AAp?$AAe?$AAc?$AAt?$AAe?$AAd?$AA?5?$AAh?$AAe?$AAa?$AAp?$AA?5?$AAe?$AAr?$AAr?$AAo?$AAr?$AA?$AN?$AA?6@ 10047b70     LIBCMT:crt0msg.obj
 0002:00006bb8       ??_C@_1FC@ECHBIFBC@?$AAR?$AA6?$AA0?$AA1?$AA9?$AA?$AN?$AA?6?$AA?9?$AA?5?$AAu?$AAn?$AAa?$AAb?$AAl?$AAe?$AA?5?$AAt?$AAo?$AA?5?$AAo?$AAp?$AAe?$AAn?$AA?5?$AAc?$AAo?$AAn?$AAs?$AAo?$AAl?$AAe?$AA?5@ 10047bb8     LIBCMT:crt0msg.obj
 0002:00006c10       ??_C@_1GK@FHCKBEFA@?$AAR?$AA6?$AA0?$AA2?$AA4?$AA?$AN?$AA?6?$AA?9?$AA?5?$AAn?$AAo?$AAt?$AA?5?$AAe?$AAn?$AAo?$AAu?$AAg?$AAh?$AA?5?$AAs?$AAp?$AAa?$AAc?$AAe?$AA?5?$AAf?$AAo?$AAr?$AA?5?$AA_?$AAo@ 10047c10     LIBCMT:crt0msg.obj
 0002:00006c80       ??_C@_1EM@MAADIHMB@?$AAR?$AA6?$AA0?$AA2?$AA5?$AA?$AN?$AA?6?$AA?9?$AA?5?$AAp?$AAu?$AAr?$AAe?$AA?5?$AAv?$AAi?$AAr?$AAt?$AAu?$AAa?$AAl?$AA?5?$AAf?$AAu?$AAn?$AAc?$AAt?$AAi?$AAo?$AAn?$AA?5?$AAc@ 10047c80     LIBCMT:crt0msg.obj
 0002:00006cd0       ??_C@_1GK@MCAAGJMO@?$AAR?$AA6?$AA0?$AA2?$AA6?$AA?$AN?$AA?6?$AA?9?$AA?5?$AAn?$AAo?$AAt?$AA?5?$AAe?$AAn?$AAo?$AAu?$AAg?$AAh?$AA?5?$AAs?$AAp?$AAa?$AAc?$AAe?$AA?5?$AAf?$AAo?$AAr?$AA?5?$AAs?$AAt@ 10047cd0     LIBCMT:crt0msg.obj
 0002:00006d40       ??_C@_1GK@MFGOKLAG@?$AAR?$AA6?$AA0?$AA2?$AA7?$AA?$AN?$AA?6?$AA?9?$AA?5?$AAn?$AAo?$AAt?$AA?5?$AAe?$AAn?$AAo?$AAu?$AAg?$AAh?$AA?5?$AAs?$AAp?$AAa?$AAc?$AAe?$AA?5?$AAf?$AAo?$AAr?$AA?5?$AAl?$AAo@ 10047d40     LIBCMT:crt0msg.obj
 0002:00006db0       ??_C@_1EK@HHFLMAOL@?$AAR?$AA6?$AA0?$AA2?$AA8?$AA?$AN?$AA?6?$AA?9?$AA?5?$AAu?$AAn?$AAa?$AAb?$AAl?$AAe?$AA?5?$AAt?$AAo?$AA?5?$AAi?$AAn?$AAi?$AAt?$AAi?$AAa?$AAl?$AAi?$AAz?$AAe?$AA?5?$AAh?$AAe@ 10047db0     LIBCMT:crt0msg.obj
 0002:00006dfc       ??_C@_1DO@BMFCDCD@?$AAR?$AA6?$AA0?$AA3?$AA0?$AA?$AN?$AA?6?$AA?9?$AA?5?$AAC?$AAR?$AAT?$AA?5?$AAn?$AAo?$AAt?$AA?5?$AAi?$AAn?$AAi?$AAt?$AAi?$AAa?$AAl?$AAi?$AAz?$AAe?$AAd?$AA?$AN?$AA?6?$AA?$AA@ 10047dfc     LIBCMT:crt0msg.obj
 0002:00006e40       ??_C@_1MG@ENCOOIDF@?$AAR?$AA6?$AA0?$AA3?$AA1?$AA?$AN?$AA?6?$AA?9?$AA?5?$AAA?$AAt?$AAt?$AAe?$AAm?$AAp?$AAt?$AA?5?$AAt?$AAo?$AA?5?$AAi?$AAn?$AAi?$AAt?$AAi?$AAa?$AAl?$AAi?$AAz?$AAe?$AA?5?$AAt@ 10047e40     LIBCMT:crt0msg.obj
 0002:00006f08       ??_C@_1GG@GOPILAJP@?$AAR?$AA6?$AA0?$AA3?$AA2?$AA?$AN?$AA?6?$AA?9?$AA?5?$AAn?$AAo?$AAt?$AA?5?$AAe?$AAn?$AAo?$AAu?$AAg?$AAh?$AA?5?$AAs?$AAp?$AAa?$AAc?$AAe?$AA?5?$AAf?$AAo?$AAr?$AA?5?$AAl?$AAo@ 10047f08     LIBCMT:crt0msg.obj
 0002:00006f70       ??_C@_1BOO@KGEDBGAJ@?$AAR?$AA6?$AA0?$AA3?$AA3?$AA?$AN?$AA?6?$AA?9?$AA?5?$AAA?$AAt?$AAt?$AAe?$AAm?$AAp?$AAt?$AA?5?$AAt?$AAo?$AA?5?$AAu?$AAs?$AAe?$AA?5?$AAM?$AAS?$AAI?$AAL?$AA?5?$AAc?$AAo?$AAd@ 10047f70     LIBCMT:crt0msg.obj
 0002:00007160       ??_C@_1GG@MKFPEKFO@?$AAR?$AA6?$AA0?$AA3?$AA4?$AA?$AN?$AA?6?$AA?9?$AA?5?$AAi?$AAn?$AAc?$AAo?$AAn?$AAs?$AAi?$AAs?$AAt?$AAe?$AAn?$AAt?$AA?5?$AAo?$AAn?$AAe?$AAx?$AAi?$AAt?$AA?5?$AAb?$AAe?$AAg@ 10048160     LIBCMT:crt0msg.obj
 0002:000071c8       ??_C@_1BO@BFCDCGC@?$AAD?$AAO?$AAM?$AAA?$AAI?$AAN?$AA?5?$AAe?$AAr?$AAr?$AAo?$AAr?$AA?$AN?$AA?6?$AA?$AA@ 100481c8     LIBCMT:crt0msg.obj
 0002:000071e8       ??_C@_1BK@KMOMNAAI@?$AAS?$AAI?$AAN?$AAG?$AA?5?$AAe?$AAr?$AAr?$AAo?$AAr?$AA?$AN?$AA?6?$AA?$AA@ 100481e8     LIBCMT:crt0msg.obj
 0002:00007204       ??_C@_1BM@JBBEPPHI@?$AAT?$AAL?$AAO?$AAS?$AAS?$AA?5?$AAe?$AAr?$AAr?$AAo?$AAr?$AA?$AN?$AA?6?$AA?$AA@ 10048204     LIBCMT:crt0msg.obj
 0002:00007220       ??_C@_15JNBOKNOG@?$AA?$AN?$AA?6?$AA?$AA@ 10048220     LIBCMT:crt0msg.obj
 0002:00007228       ??_C@_1BO@BKOMIGKJ@?$AAr?$AAu?$AAn?$AAt?$AAi?$AAm?$AAe?$AA?5?$AAe?$AAr?$AAr?$AAo?$AAr?$AA?5?$AA?$AA@ 10048228     LIBCMT:crt0msg.obj
 0002:00007248       ??_C@_1DE@JNGNBFGO@?$AAR?$AAu?$AAn?$AAt?$AAi?$AAm?$AAe?$AA?5?$AAE?$AAr?$AAr?$AAo?$AAr?$AA?$CB?$AA?6?$AA?6?$AAP?$AAr?$AAo?$AAg?$AAr?$AAa?$AAm?$AA?3?$AA?5?$AA?$AA@ 10048248     LIBCMT:crt0msg.obj
 0002:0000727c       ??_C@_06OJHGLDPL@?$CInull?$CJ?$AA@ 1004827c     LIBCMT:output.obj
 0002:00007284       ??_C@_1O@CEDCILHN@?$AA?$CI?$AAn?$AAu?$AAl?$AAl?$AA?$CJ?$AA?$AA@ 10048284     LIBCMT:output.obj
 0002:00007298       ___lookuptable             10048298     LIBCMT:output.obj
 0002:00007360       ??_C@_03MGHMBJCF@log?$AA@  10048360     LIBCMT:libm_error.obj
 0002:00007364       ??_C@_05HGHHAHAP@log10?$AA@ 10048364     LIBCMT:libm_error.obj
 0002:0000736c       ??_C@_03KHJOGHMM@exp?$AA@  1004836c     LIBCMT:libm_error.obj
 0002:00007370       ??_C@_03JGHBODFD@pow?$AA@  10048370     LIBCMT:libm_error.obj
 0002:00007374       ??_C@_04FIHNOPOL@asin?$AA@ 10048374     LIBCMT:libm_error.obj
 0002:0000737c       ??_C@_04PDIFKINK@acos?$AA@ 1004837c     LIBCMT:libm_error.obj
 0002:00007384       ??_C@_05EOHGHCHD@exp10?$AA@ 10048384     LIBCMT:libm_error.obj
 0002:0000738c       ??_C@_04MLLJIGOK@atan?$AA@ 1004838c     LIBCMT:libm_error.obj
 0002:00007394       ??_C@_04GFPJNGEK@ceil?$AA@ 10048394     LIBCMT:libm_error.obj
 0002:0000739c       ??_C@_05PBJFFIGL@floor?$AA@ 1004839c     LIBCMT:libm_error.obj
 0002:000073a4       ??_C@_04EHEDPDJG@modf?$AA@ 100483a4     LIBCMT:libm_error.obj
 0002:000073ac       ??_C@_03BLEJJJBH@sin?$AA@  100483ac     LIBCMT:libm_error.obj
 0002:000073b0       ??_C@_03LALBNOCG@cos?$AA@  100483b0     LIBCMT:libm_error.obj
 0002:000073b4       ??_C@_03IIINPABG@tan?$AA@  100483b4     LIBCMT:libm_error.obj
 0002:000073b8       ??_C@_04EIAKFFMI@sqrt?$AA@ 100483b8     LIBCMT:libm_error.obj
 0002:000073c0       ??_C@_05KLBDPFGC@e?$CL000?$AA@ 100483c0     LIBCMT:cvt.obj
 0002:000073c8       ??_C@_1BK@MGMFAEKH@?$AAk?$AAe?$AAr?$AAn?$AAe?$AAl?$AA3?$AA2?$AA?4?$AAd?$AAl?$AAl?$AA?$AA@ 100483c8     LIBCMT:winapisupp.obj
 0002:000073e4       ??_C@_08KNHFBNJ@FlsAlloc?$AA@ 100483e4     LIBCMT:winapisupp.obj
 0002:000073f0       ??_C@_07PEJMOBNF@FlsFree?$AA@ 100483f0     LIBCMT:winapisupp.obj
 0002:000073f8       ??_C@_0M@GDNOONDI@FlsGetValue?$AA@ 100483f8     LIBCMT:winapisupp.obj
 0002:00007404       ??_C@_0M@JCPCPOEF@FlsSetValue?$AA@ 10048404     LIBCMT:winapisupp.obj
 0002:00007410       ??_C@_0BM@HCFOFFN@InitializeCriticalSectionEx?$AA@ 10048410     LIBCMT:winapisupp.obj
 0002:0000742c       ??_C@_0P@DLHPPCNH@CreateEventExW?$AA@ 1004842c     LIBCMT:winapisupp.obj
 0002:0000743c       ??_C@_0BD@KIEEOEEH@CreateSemaphoreExW?$AA@ 1004843c     LIBCMT:winapisupp.obj
 0002:00007450       ??_C@_0BI@BKLFFAPO@SetThreadStackGuarantee?$AA@ 10048450     LIBCMT:winapisupp.obj
 0002:00007468       ??_C@_0BG@OGFAJCKC@CreateThreadpoolTimer?$AA@ 10048468     LIBCMT:winapisupp.obj
 0002:00007480       ??_C@_0BD@LPLEMMDI@SetThreadpoolTimer?$AA@ 10048480     LIBCMT:winapisupp.obj
 0002:00007494       ??_C@_0CA@FMNJENH@WaitForThreadpoolTimerCallbacks?$AA@ 10048494     LIBCMT:winapisupp.obj
 0002:000074b4       ??_C@_0BF@DCFCCNOC@CloseThreadpoolTimer?$AA@ 100484b4     LIBCMT:winapisupp.obj
 0002:000074cc       ??_C@_0BF@FLABGKKM@CreateThreadpoolWait?$AA@ 100484cc     LIBCMT:winapisupp.obj
 0002:000074e4       ??_C@_0BC@MGCOHNA@SetThreadpoolWait?$AA@ 100484e4     LIBCMT:winapisupp.obj
 0002:000074f8       ??_C@_0BE@OCIOMIMP@CloseThreadpoolWait?$AA@ 100484f8     LIBCMT:winapisupp.obj
 0002:0000750c       ??_C@_0BJ@LKGHFHBO@FlushProcessWriteBuffers?$AA@ 1004850c     LIBCMT:winapisupp.obj
 0002:00007528       ??_C@_0BP@KALKKPMO@FreeLibraryWhenCallbackReturns?$AA@ 10048528     LIBCMT:winapisupp.obj
 0002:00007548       ??_C@_0BK@DFNBACLA@GetCurrentProcessorNumber?$AA@ 10048548     LIBCMT:winapisupp.obj
 0002:00007564       ??_C@_0BP@KHGALBC@GetLogicalProcessorInformation?$AA@ 10048564     LIBCMT:winapisupp.obj
 0002:00007584       ??_C@_0BE@FKKLLFLM@CreateSymbolicLinkW?$AA@ 10048584     LIBCMT:winapisupp.obj
 0002:00007598       ??_C@_0BJ@OHNKDLIJ@SetDefaultDllDirectories?$AA@ 10048598     LIBCMT:winapisupp.obj
 0002:000075b4       ??_C@_0BE@LJANKFHF@EnumSystemLocalesEx?$AA@ 100485b4     LIBCMT:winapisupp.obj
 0002:000075c8       ??_C@_0BA@IHGNDAEB@CompareStringEx?$AA@ 100485c8     LIBCMT:winapisupp.obj
 0002:000075d8       ??_C@_0BA@EPCJIIPD@GetDateFormatEx?$AA@ 100485d8     LIBCMT:winapisupp.obj
 0002:000075e8       ??_C@_0BA@ONOKGCMP@GetLocaleInfoEx?$AA@ 100485e8     LIBCMT:winapisupp.obj
 0002:000075f8       ??_C@_0BA@CIJJKCJJ@GetTimeFormatEx?$AA@ 100485f8     LIBCMT:winapisupp.obj
 0002:00007608       ??_C@_0BJ@PBCCBIPI@GetUserDefaultLocaleName?$AA@ 10048608     LIBCMT:winapisupp.obj
 0002:00007624       ??_C@_0BC@CELBKLLA@IsValidLocaleName?$AA@ 10048624     LIBCMT:winapisupp.obj
 0002:00007638       ??_C@_0O@KKBNKAPF@LCMapStringEx?$AA@ 10048638     LIBCMT:winapisupp.obj
 0002:00007648       ??_C@_0BE@JOGNEJCI@GetCurrentPackageId?$AA@ 10048648     LIBCMT:winapisupp.obj
 0002:0000765c       ??_C@_0P@CDHHOHKP@GetTickCount64?$AA@ 1004865c     LIBCMT:winapisupp.obj
 0002:0000766c       ??_C@_0BO@KPCLFDJJ@GetFileInformationByHandleExW?$AA@ 1004866c     LIBCMT:winapisupp.obj
 0002:0000768c       ??_C@_0BM@MHIDLABK@SetFileInformationByHandleW?$AA@ 1004868c     LIBCMT:winapisupp.obj
 0002:000076a8       ??_C@_1BK@GAEMIDIL@?$AAA?$AAD?$AAV?$AAA?$AAP?$AAI?$AA3?$AA2?$AA?4?$AAD?$AAL?$AAL?$AA?$AA@ 100486a8     LIBCMT:rand_s.obj
 0002:000076c4       ??_C@_0BC@JEAENNKH@SystemFunction036?$AA@ 100486c4     LIBCMT:rand_s.obj
 0002:000076e8       ??_C@_1M@HPNHIDJI@?$AAj?$AAa?$AA?9?$AAJ?$AAP?$AA?$AA@ 100486e8     LIBCMT:mbctype.obj
 0002:000076f4       ??_C@_1M@BIBDDEMK@?$AAz?$AAh?$AA?9?$AAC?$AAN?$AA?$AA@ 100486f4     LIBCMT:mbctype.obj
 0002:00007700       ??_C@_1M@JLOOOEGK@?$AAk?$AAo?$AA?9?$AAK?$AAR?$AA?$AA@ 10048700     LIBCMT:mbctype.obj
 0002:0000770c       ??_C@_1M@CLNBBOPM@?$AAz?$AAh?$AA?9?$AAT?$AAW?$AA?$AA@ 1004870c     LIBCMT:mbctype.obj
 0002:00007738       ??_C@_04FJHINJAO@tanh?$AA@ 10048738     LIBCMT:fpexcept.obj
 0002:00007740       ??_C@_05KNGEOGJB@atan2?$AA@ 10048740     LIBCMT:fpexcept.obj
 0002:00007748       ??_C@_04ODHECPBC@fabs?$AA@ 10048748     LIBCMT:fpexcept.obj
 0002:00007750       ??_C@_05CEJMAHNP@ldexp?$AA@ 10048750     LIBCMT:fpexcept.obj
 0002:00007758       ??_C@_05KBKMEMPO@_cabs?$AA@ 10048758     LIBCMT:fpexcept.obj
 0002:00007760       ??_C@_06MEIMCGCF@_hypot?$AA@ 10048760     LIBCMT:fpexcept.obj
 0002:00007768       ??_C@_04KEPJIHGP@fmod?$AA@ 10048768     LIBCMT:fpexcept.obj
 0002:00007770       ??_C@_05GKKHEGJL@frexp?$AA@ 10048770     LIBCMT:fpexcept.obj
 0002:00007778       ??_C@_03MJLDFKDL@_y0?$AA@  10048778     LIBCMT:fpexcept.obj
 0002:0000777c       ??_C@_03NAKIGLHK@_y1?$AA@  1004877c     LIBCMT:fpexcept.obj
 0002:00007780       ??_C@_03ONILCKOB@_yn?$AA@  10048780     LIBCMT:fpexcept.obj
 0002:00007784       ??_C@_05JGDBENOH@_logb?$AA@ 10048784     LIBCMT:fpexcept.obj
 0002:0000778c       ??_C@_0L@KDOEJCKC@_nextafter?$AA@ 1004878c     LIBCMT:fpexcept.obj
 0002:00007798       ??_C@_04COOMCNPB@sinh?$AA@ 10048798     LIBCMT:fpexcept.obj
 0002:000077a0       ??_C@_04HPJJNFIM@cosh?$AA@ 100487a0     LIBCMT:fpexcept.obj
 0002:000077a8       ??_C@_1BG@GOEBHBDC@?$AAU?$AAS?$AAE?$AAR?$AA3?$AA2?$AA?4?$AAD?$AAL?$AAL?$AA?$AA@ 100487a8     LIBCMT:crtmboxw.obj
 0002:000077c0       ??_C@_0M@DLDCCGNP@MessageBoxW?$AA@ 100487c0     LIBCMT:crtmboxw.obj
 0002:000077cc       ??_C@_0BA@HNOPNCHB@GetActiveWindow?$AA@ 100487cc     LIBCMT:crtmboxw.obj
 0002:000077dc       ??_C@_0BD@HHGDFDBJ@GetLastActivePopup?$AA@ 100487dc     LIBCMT:crtmboxw.obj
 0002:000077f0       ??_C@_0BK@DEKFELLI@GetUserObjectInformationW?$AA@ 100487f0     LIBCMT:crtmboxw.obj
 0002:0000780c       ??_C@_0BI@DFKBFLJE@GetProcessWindowStation?$AA@ 1004880c     LIBCMT:crtmboxw.obj
 0002:00007828       __XcptActTab               10048828     LIBCMT:winxfltr.obj
 0002:000078b8       __XcptActTabCount          100488b8     LIBCMT:winxfltr.obj
 0002:000078bc       __XcptActTabSize           100488bc     LIBCMT:winxfltr.obj
 0002:000078c0       __First_FPE_Indx           100488c0     LIBCMT:winxfltr.obj
 0002:000078c4       __Num_FPE                  100488c4     LIBCMT:winxfltr.obj
 0002:000078c8       ___lookuptable_s           100488c8     LIBCMT:outputs.obj
 0002:00007924       ??_C@_03KOEHGMDN@Sun?$AA@  10048924     LIBCMT:nlsdata.obj
 0002:00007928       ??_C@_03PDAGKDH@Mon?$AA@   10048928     LIBCMT:nlsdata.obj
 0002:0000792c       ??_C@_03NAGEINEP@Tue?$AA@  1004892c     LIBCMT:nlsdata.obj
 0002:00007930       ??_C@_03MHOMLAJA@Wed?$AA@  10048930     LIBCMT:nlsdata.obj
 0002:00007934       ??_C@_03IOFIKPDN@Thu?$AA@  10048934     LIBCMT:nlsdata.obj
 0002:00007938       ??_C@_03IDIOELNC@Fri?$AA@  10048938     LIBCMT:nlsdata.obj
 0002:0000793c       ??_C@_03FEFJNEK@Sat?$AA@   1004893c     LIBCMT:nlsdata.obj
 0002:00007940       ??_C@_06OOPIFAJ@Sunday?$AA@ 10048940     LIBCMT:nlsdata.obj
 0002:00007948       ??_C@_06JLEDEDGH@Monday?$AA@ 10048948     LIBCMT:nlsdata.obj
 0002:00007950       ??_C@_07BAAGCFCM@Tuesday?$AA@ 10048950     LIBCMT:nlsdata.obj
 0002:00007958       ??_C@_09DLIGFAKA@Wednesday?$AA@ 10048958     LIBCMT:nlsdata.obj
 0002:00007964       ??_C@_08HACCIKIA@Thursday?$AA@ 10048964     LIBCMT:nlsdata.obj
 0002:00007970       ??_C@_06JECMNKMI@Friday?$AA@ 10048970     LIBCMT:nlsdata.obj
 0002:00007978       ??_C@_08INBOOONO@Saturday?$AA@ 10048978     LIBCMT:nlsdata.obj
 0002:00007984       ??_C@_03JIHJHPIE@Jan?$AA@  10048984     LIBCMT:nlsdata.obj
 0002:00007988       ??_C@_03HJBDCHOM@Feb?$AA@  10048988     LIBCMT:nlsdata.obj
 0002:0000798c       ??_C@_03ODNJBKGA@Mar?$AA@  1004898c     LIBCMT:nlsdata.obj
 0002:00007990       ??_C@_03LEOLGMJP@Apr?$AA@  10048990     LIBCMT:nlsdata.obj
 0002:00007994       ??_C@_03CNMDKL@May?$AA@    10048994     LIBCMT:nlsdata.obj
 0002:00007998       ??_C@_03IDFGHECI@Jun?$AA@  10048998     LIBCMT:nlsdata.obj
 0002:0000799c       ??_C@_03LBGABGKK@Jul?$AA@  1004899c     LIBCMT:nlsdata.obj
 0002:000079a0       ??_C@_03IFJFEIGA@Aug?$AA@  100489a0     LIBCMT:nlsdata.obj
 0002:000079a4       ??_C@_03GGCAPAJC@Sep?$AA@  100489a4     LIBCMT:nlsdata.obj
 0002:000079a8       ??_C@_03BMAOKBAD@Oct?$AA@  100489a8     LIBCMT:nlsdata.obj
 0002:000079ac       ??_C@_03JPJOFNIA@Nov?$AA@  100489ac     LIBCMT:nlsdata.obj
 0002:000079b0       ??_C@_03MKABNOCG@Dec?$AA@  100489b0     LIBCMT:nlsdata.obj
 0002:000079b4       ??_C@_07CGJPFGJA@January?$AA@ 100489b4     LIBCMT:nlsdata.obj
 0002:000079bc       ??_C@_08GNJGEPFN@February?$AA@ 100489bc     LIBCMT:nlsdata.obj
 0002:000079c8       ??_C@_05HPCKOFNC@March?$AA@ 100489c8     LIBCMT:nlsdata.obj
 0002:000079d0       ??_C@_05DMJDNLEJ@April?$AA@ 100489d0     LIBCMT:nlsdata.obj
 0002:000079d8       ??_C@_04CNLMGBGM@June?$AA@ 100489d8     LIBCMT:nlsdata.obj
 0002:000079e0       ??_C@_04MIEPOIFP@July?$AA@ 100489e0     LIBCMT:nlsdata.obj
 0002:000079e8       ??_C@_06LBBHFDDG@August?$AA@ 100489e8     LIBCMT:nlsdata.obj
 0002:000079f0       ??_C@_09BHHEALKD@September?$AA@ 100489f0     LIBCMT:nlsdata.obj
 0002:000079fc       ??_C@_07JJNFCEND@October?$AA@ 100489fc     LIBCMT:nlsdata.obj
 0002:00007a04       ??_C@_08HCHEGEOA@November?$AA@ 10048a04     LIBCMT:nlsdata.obj
 0002:00007a10       ??_C@_08EDHMEBNP@December?$AA@ 10048a10     LIBCMT:nlsdata.obj
 0002:00007a1c       ??_C@_02DEDBPAFC@AM?$AA@   10048a1c     LIBCMT:nlsdata.obj
 0002:00007a20       ??_C@_02CJNFDJBF@PM?$AA@   10048a20     LIBCMT:nlsdata.obj
 0002:00007a24       ??_C@_08BPBNCDIB@MM?1dd?1yy?$AA@ 10048a24     LIBCMT:nlsdata.obj
 0002:00007a30       ??_C@_0BE@CKGJFCPC@dddd?0?5MMMM?5dd?0?5yyyy?$AA@ 10048a30     LIBCMT:nlsdata.obj
 0002:00007a44       ??_C@_08JCCMCCIL@HH?3mm?3ss?$AA@ 10048a44     LIBCMT:nlsdata.obj
 0002:00007a50       ??_C@_17MBGCMIPB@?$AAS?$AAu?$AAn?$AA?$AA@ 10048a50     LIBCMT:nlsdata.obj
 0002:00007a58       ??_C@_17KBOMKBF@?$AAM?$AAo?$AAn?$AA?$AA@ 10048a58     LIBCMT:nlsdata.obj
 0002:00007a60       ??_C@_17BMKGEGOJ@?$AAT?$AAu?$AAe?$AA?$AA@ 10048a60     LIBCMT:nlsdata.obj
 0002:00007a68       ??_C@_17CJEDCEPE@?$AAW?$AAe?$AAd?$AA?$AA@ 10048a68     LIBCMT:nlsdata.obj
 0002:00007a70       ??_C@_17PDPHAADD@?$AAT?$AAh?$AAu?$AA?$AA@ 10048a70     LIBCMT:nlsdata.obj
 0002:00007a78       ??_C@_17HFOLPPLP@?$AAF?$AAr?$AAi?$AA?$AA@ 10048a78     LIBCMT:nlsdata.obj
 0002:00007a80       ??_C@_17GGIBDPIH@?$AAS?$AAa?$AAt?$AA?$AA@ 10048a80     LIBCMT:nlsdata.obj
 0002:00007a88       ??_C@_1O@IHNHDHPB@?$AAS?$AAu?$AAn?$AAd?$AAa?$AAy?$AA?$AA@ 10048a88     LIBCMT:nlsdata.obj
 0002:00007a98       ??_C@_1O@MMNBFLIA@?$AAM?$AAo?$AAn?$AAd?$AAa?$AAy?$AA?$AA@ 10048a98     LIBCMT:nlsdata.obj
 0002:00007aa8       ??_C@_1BA@ENFBFFEK@?$AAT?$AAu?$AAe?$AAs?$AAd?$AAa?$AAy?$AA?$AA@ 10048aa8     LIBCMT:nlsdata.obj
 0002:00007ab8       ??_C@_1BE@EBOGMDOH@?$AAW?$AAe?$AAd?$AAn?$AAe?$AAs?$AAd?$AAa?$AAy?$AA?$AA@ 10048ab8     LIBCMT:nlsdata.obj
 0002:00007acc       ??_C@_1BC@HHMNLIHE@?$AAT?$AAh?$AAu?$AAr?$AAs?$AAd?$AAa?$AAy?$AA?$AA@ 10048acc     LIBCMT:nlsdata.obj
 0002:00007ae0       ??_C@_1O@PDICJHAG@?$AAF?$AAr?$AAi?$AAd?$AAa?$AAy?$AA?$AA@ 10048ae0     LIBCMT:nlsdata.obj
 0002:00007af0       ??_C@_1BC@ENMNNPAJ@?$AAS?$AAa?$AAt?$AAu?$AAr?$AAd?$AAa?$AAy?$AA?$AA@ 10048af0     LIBCMT:nlsdata.obj
 0002:00007b04       ??_C@_17DKNBKCHM@?$AAJ?$AAa?$AAn?$AA?$AA@ 10048b04     LIBCMT:nlsdata.obj
 0002:00007b0c       ??_C@_17LMDJEKJN@?$AAF?$AAe?$AAb?$AA?$AA@ 10048b0c     LIBCMT:nlsdata.obj
 0002:00007b14       ??_C@_17CKNLEDEC@?$AAM?$AAa?$AAr?$AA?$AA@ 10048b14     LIBCMT:nlsdata.obj
 0002:00007b1c       ??_C@_17LFPOIHDD@?$AAA?$AAp?$AAr?$AA?$AA@ 10048b1c     LIBCMT:nlsdata.obj
 0002:00007b24       ??_C@_17PNNKMEED@?$AAM?$AAa?$AAy?$AA?$AA@ 10048b24     LIBCMT:nlsdata.obj
 0002:00007b2c       ??_C@_17KCJGOCPB@?$AAJ?$AAu?$AAn?$AA?$AA@ 10048b2c     LIBCMT:nlsdata.obj
 0002:00007b34       ??_C@_17IJPCKHK@?$AAJ?$AAu?$AAl?$AA?$AA@ 10048b34     LIBCMT:nlsdata.obj
 0002:00007b3c       ??_C@_17ICPELBCN@?$AAA?$AAu?$AAg?$AA?$AA@ 10048b3c     LIBCMT:nlsdata.obj
 0002:00007b44       ??_C@_17HCHCOKMG@?$AAS?$AAe?$AAp?$AA?$AA@ 10048b44     LIBCMT:nlsdata.obj
 0002:00007b4c       ??_C@_17FNLKOI@?$AAO?$AAc?$AAt?$AA?$AA@ 10048b4c     LIBCMT:nlsdata.obj
 0002:00007b54       ??_C@_17BBDMLCIG@?$AAN?$AAo?$AAv?$AA?$AA@ 10048b54     LIBCMT:nlsdata.obj
 0002:00007b5c       ??_C@_17EGKACKIF@?$AAD?$AAe?$AAc?$AA?$AA@ 10048b5c     LIBCMT:nlsdata.obj
 0002:00007b64       ??_C@_1BA@EFMEIEBA@?$AAJ?$AAa?$AAn?$AAu?$AAa?$AAr?$AAy?$AA?$AA@ 10048b64     LIBCMT:nlsdata.obj
 0002:00007b74       ??_C@_1BC@JGDDFFAM@?$AAF?$AAe?$AAb?$AAr?$AAu?$AAa?$AAr?$AAy?$AA?$AA@ 10048b74     LIBCMT:nlsdata.obj
 0002:00007b88       ??_C@_1M@IKEENEDF@?$AAM?$AAa?$AAr?$AAc?$AAh?$AA?$AA@ 10048b88     LIBCMT:nlsdata.obj
 0002:00007b94       ??_C@_1M@GJNLMHFD@?$AAA?$AAp?$AAr?$AAi?$AAl?$AA?$AA@ 10048b94     LIBCMT:nlsdata.obj
 0002:00007ba0       ??_C@_19EPFLPGAP@?$AAJ?$AAu?$AAn?$AAe?$AA?$AA@ 10048ba0     LIBCMT:nlsdata.obj
 0002:00007bac       ??_C@_19BIFMLPCD@?$AAJ?$AAu?$AAl?$AAy?$AA?$AA@ 10048bac     LIBCMT:nlsdata.obj
 0002:00007bb8       ??_C@_1O@PAHLKOAC@?$AAA?$AAu?$AAg?$AAu?$AAs?$AAt?$AA?$AA@ 10048bb8     LIBCMT:nlsdata.obj
 0002:00007bc8       ??_C@_1BE@DKAAMBJL@?$AAS?$AAe?$AAp?$AAt?$AAe?$AAm?$AAb?$AAe?$AAr?$AA?$AA@ 10048bc8     LIBCMT:nlsdata.obj
 0002:00007bdc       ??_C@_1BA@EPANDLNG@?$AAO?$AAc?$AAt?$AAo?$AAb?$AAe?$AAr?$AA?$AA@ 10048bdc     LIBCMT:nlsdata.obj
 0002:00007bec       ??_C@_1BC@BGLIFPF@?$AAN?$AAo?$AAv?$AAe?$AAm?$AAb?$AAe?$AAr?$AA?$AA@ 10048bec     LIBCMT:nlsdata.obj
 0002:00007c00       ??_C@_1BC@FEMKIFH@?$AAD?$AAe?$AAc?$AAe?$AAm?$AAb?$AAe?$AAr?$AA?$AA@ 10048c00     LIBCMT:nlsdata.obj
 0002:00007c14       ??_C@_15ODEHAHHF@?$AAA?$AAM?$AA?$AA@ 10048c14     LIBCMT:nlsdata.obj
 0002:00007c1c       ??_C@_15CLMNNGEL@?$AAP?$AAM?$AA?$AA@ 10048c1c     LIBCMT:nlsdata.obj
 0002:00007c24       ??_C@_1BC@IEBCMHCM@?$AAM?$AAM?$AA?1?$AAd?$AAd?$AA?1?$AAy?$AAy?$AA?$AA@ 10048c24     LIBCMT:nlsdata.obj
 0002:00007c38       ??_C@_1CI@KNAKOEBC@?$AAd?$AAd?$AAd?$AAd?$AA?0?$AA?5?$AAM?$AAM?$AAM?$AAM?$AA?5?$AAd?$AAd?$AA?0?$AA?5?$AAy?$AAy?$AAy?$AAy?$AA?$AA@ 10048c38     LIBCMT:nlsdata.obj
 0002:00007c60       ??_C@_1BC@GDGBMEMK@?$AAH?$AAH?$AA?3?$AAm?$AAm?$AA?3?$AAs?$AAs?$AA?$AA@ 10048c60     LIBCMT:nlsdata.obj
 0002:00007c74       ??_C@_1M@BMHNFIME@?$AAe?$AAn?$AA?9?$AAU?$AAS?$AA?$AA@ 10048c74     LIBCMT:nlsdata.obj
 0002:00007c80       _LcidToLocaleNameTable     10048c80     LIBCMT:winapinls.obj
 0002:000083a0       _LocaleNameToIndexTable    100493a0     LIBCMT:winapinls.obj
 0002:00008ac0       ??_C@_15EMKDOKLE@?$AAa?$AAr?$AA?$AA@ 10049ac0     LIBCMT:winapinls.obj
 0002:00008ac8       ??_C@_15KNPADPLH@?$AAb?$AAg?$AA?$AA@ 10049ac8     LIBCMT:winapinls.obj
 0002:00008ad0       ??_C@_15EDMHLDMO@?$AAc?$AAa?$AA?$AA@ 10049ad0     LIBCMT:winapinls.obj
 0002:00008ad8       ??_C@_1O@BPEAJADD@?$AAz?$AAh?$AA?9?$AAC?$AAH?$AAS?$AA?$AA@ 10049ad8     LIBCMT:winapinls.obj
 0002:00008ae8       ??_C@_15LJNHCMNK@?$AAc?$AAs?$AA?$AA@ 10049ae8     LIBCMT:winapinls.obj
 0002:00008af0       ??_C@_15FOMCIDHG@?$AAd?$AAa?$AA?$AA@ 10049af0     LIBCMT:winapinls.obj
 0002:00008af8       ??_C@_15NBKABECB@?$AAd?$AAe?$AA?$AA@ 10049af8     LIBCMT:winapinls.obj
 0002:00008b00       ??_C@_15GHPEIIAO@?$AAe?$AAl?$AA?$AA@ 10049b00     LIBCMT:winapinls.obj
 0002:00008b08       ??_C@_15MNPNEAIF@?$AAe?$AAn?$AA?$AA@ 10049b08     LIBCMT:winapinls.obj
 0002:00008b10       ??_C@_15GPIOMPMH@?$AAe?$AAs?$AA?$AA@ 10049b10     LIBCMT:winapinls.obj
 0002:00008b18       ??_C@_15NGLOAKJC@?$AAf?$AAi?$AA?$AA@ 10049b18     LIBCMT:winapinls.obj
 0002:00008b20       ??_C@_15FBKGNKAM@?$AAf?$AAr?$AA?$AA@ 10049b20     LIBCMT:winapinls.obj
 0002:00008b28       ??_C@_15KGGCNEFK@?$AAh?$AAe?$AA?$AA@ 10049b28     LIBCMT:winapinls.obj
 0002:00008b30       ??_C@_15PGHLIDMF@?$AAh?$AAu?$AA?$AA@ 10049b30     LIBCMT:winapinls.obj
 0002:00008b38       ??_C@_15BIEMAPLM@?$AAi?$AAs?$AA?$AA@ 10049b38     LIBCMT:winapinls.obj
 0002:00008b40       ??_C@_15IFJLDHAF@?$AAi?$AAt?$AA?$AA@ 10049b40     LIBCMT:winapinls.obj
 0002:00008b48       ??_C@_15GEMIOCAG@?$AAj?$AAa?$AA?$AA@ 10049b48     LIBCMT:winapinls.obj
 0002:00008b50       ??_C@_15EPELEGJA@?$AAk?$AAo?$AA?$AA@ 10049b50     LIBCMT:winapinls.obj
 0002:00008b58       ??_C@_15NDDHIMN@?$AAn?$AAl?$AA?$AA@ 10049b58     LIBCMT:winapinls.obj
 0002:00008b60       ??_C@_15BPIGNHCD@?$AAn?$AAo?$AA?$AA@ 10049b60     LIBCMT:winapinls.obj
 0002:00008b68       ??_C@_15DEOPBLCG@?$AAp?$AAl?$AA?$AA@ 10049b68     LIBCMT:winapinls.obj
 0002:00008b70       ??_C@_15KBECGEFG@?$AAp?$AAt?$AA?$AA@ 10049b70     LIBCMT:winapinls.obj
 0002:00008b78       ??_C@_15GLJCBFMD@?$AAr?$AAo?$AA?$AA@ 10049b78     LIBCMT:winapinls.obj
 0002:00008b80       ??_C@_15FEDGKCDI@?$AAr?$AAu?$AA?$AA@ 10049b80     LIBCMT:winapinls.obj
 0002:00008b88       ??_C@_15GLKMLLHM@?$AAh?$AAr?$AA?$AA@ 10049b88     LIBCMT:winapinls.obj
 0002:00008b90       ??_C@_15CPKMFBDB@?$AAs?$AAk?$AA?$AA@ 10049b90     LIBCMT:winapinls.obj
 0002:00008b98       ??_C@_15BAAIOGMK@?$AAs?$AAq?$AA?$AA@ 10049b98     LIBCMT:winapinls.obj
 0002:00008ba0       ??_C@_15INNPNOHD@?$AAs?$AAv?$AA?$AA@ 10049ba0     LIBCMT:winapinls.obj
 0002:00008ba8       ??_C@_15CABMMOGH@?$AAt?$AAh?$AA?$AA@ 10049ba8     LIBCMT:winapinls.obj
 0002:00008bb0       ??_C@_15BPLIHJJM@?$AAt?$AAr?$AA?$AA@ 10049bb0     LIBCMT:winapinls.obj
 0002:00008bb8       ??_C@_15NEOEKKDJ@?$AAu?$AAr?$AA?$AA@ 10049bb8     LIBCMT:winapinls.obj
 0002:00008bc0       ??_C@_15NFICGAJK@?$AAi?$AAd?$AA?$AA@ 10049bc0     LIBCMT:winapinls.obj
 0002:00008bc8       ??_C@_15PJPFLCCM@?$AAu?$AAk?$AA?$AA@ 10049bc8     LIBCMT:winapinls.obj
 0002:00008bd0       ??_C@_15HPJPHDM@?$AAb?$AAe?$AA?$AA@ 10049bd0     LIBCMT:winapinls.obj
 0002:00008bd8       ??_C@_15LCHLGJII@?$AAs?$AAl?$AA?$AA@ 10049bd8     LIBCMT:winapinls.obj
 0002:00008be0       ??_C@_15PCFJPHHO@?$AAe?$AAt?$AA?$AA@ 10049be0     LIBCMT:winapinls.obj
 0002:00008be8       ??_C@_15HPFPGODN@?$AAl?$AAv?$AA?$AA@ 10049be8     LIBCMT:winapinls.obj
 0002:00008bf0       ??_C@_15NFFGKGLG@?$AAl?$AAt?$AA?$AA@ 10049bf0     LIBCMT:winapinls.obj
 0002:00008bf8       ??_C@_15BDAKCCHN@?$AAf?$AAa?$AA?$AA@ 10049bf8     LIBCMT:winapinls.obj
 0002:00008c00       ??_C@_15NFGIAIAJ@?$AAv?$AAi?$AA?$AA@ 10049c00     LIBCMT:winapinls.obj
 0002:00008c08       ??_C@_15LMKNDMHN@?$AAh?$AAy?$AA?$AA@ 10049c08     LIBCMT:winapinls.obj
 0002:00008c10       ??_C@_15IJBHMCFL@?$AAa?$AAz?$AA?$AA@ 10049c10     LIBCMT:winapinls.obj
 0002:00008c18       ??_C@_15EKOFJABL@?$AAe?$AAu?$AA?$AA@ 10049c18     LIBCMT:winapinls.obj
 0002:00008c20       ??_C@_15BGHADCNK@?$AAm?$AAk?$AA?$AA@ 10049c20     LIBCMT:winapinls.obj
 0002:00008c28       ??_C@_15JDNICKHM@?$AAa?$AAf?$AA?$AA@ 10049c28     LIBCMT:winapinls.obj
 0002:00008c30       ??_C@_15KPJEDBKD@?$AAk?$AAa?$AA?$AA@ 10049c30     LIBCMT:winapinls.obj
 0002:00008c38       ??_C@_15PDNFFFEO@?$AAf?$AAo?$AA?$AA@ 10049c38     LIBCMT:winapinls.obj
 0002:00008c40       ??_C@_15OMLEGLOC@?$AAh?$AAi?$AA?$AA@ 10049c40     LIBCMT:winapinls.obj
 0002:00008c48       ??_C@_15IDNNENKK@?$AAm?$AAs?$AA?$AA@ 10049c48     LIBCMT:winapinls.obj
 0002:00008c50       ??_C@_15MACJNBMH@?$AAk?$AAk?$AA?$AA@ 10049c50     LIBCMT:winapinls.obj
 0002:00008c58       ??_C@_15DKDJEOND@?$AAk?$AAy?$AA?$AA@ 10049c58     LIBCMT:winapinls.obj
 0002:00008c60       ??_C@_15DFGDLJBG@?$AAs?$AAw?$AA?$AA@ 10049c60     LIBCMT:winapinls.obj
 0002:00008c68       ??_C@_15BBFAICNG@?$AAu?$AAz?$AA?$AA@ 10049c68     LIBCMT:winapinls.obj
 0002:00008c70       ??_C@_15DKNDCGEA@?$AAt?$AAt?$AA?$AA@ 10049c70     LIBCMT:winapinls.obj
 0002:00008c78       ??_C@_15MGIFMDPL@?$AAp?$AAa?$AA?$AA@ 10049c78     LIBCMT:winapinls.obj
 0002:00008c80       ??_C@_15HCNDBBA@?$AAg?$AAu?$AA?$AA@ 10049c80     LIBCMT:winapinls.obj
 0002:00008c88       ??_C@_15FNBEIBON@?$AAt?$AAa?$AA?$AA@ 10049c88     LIBCMT:winapinls.obj
 0002:00008c90       ??_C@_15NCHGBGLK@?$AAt?$AAe?$AA?$AA@ 10049c90     LIBCMT:winapinls.obj
 0002:00008c98       ??_C@_15PHPHCBPF@?$AAk?$AAn?$AA?$AA@ 10049c98     LIBCMT:winapinls.obj
 0002:00008ca0       ??_C@_15DLGBCKMP@?$AAm?$AAr?$AA?$AA@ 10049ca0     LIBCMT:winapinls.obj
 0002:00008ca8       ??_C@_15EABBLBFF@?$AAs?$AAa?$AA?$AA@ 10049ca8     LIBCMT:winapinls.obj
 0002:00008cb0       ??_C@_15CBKOMCOI@?$AAm?$AAn?$AA?$AA@ 10049cb0     LIBCMT:winapinls.obj
 0002:00008cb8       ??_C@_15CKDMCJAF@?$AAg?$AAl?$AA?$AA@ 10049cb8     LIBCMT:winapinls.obj
 0002:00008cc0       ??_C@_17CNJFBPG@?$AAk?$AAo?$AAk?$AA?$AA@ 10049cc0     LIBCMT:winapinls.obj
 0002:00008cc8       ??_C@_17FFBJICPL@?$AAs?$AAy?$AAr?$AA?$AA@ 10049cc8     LIBCMT:winapinls.obj
 0002:00008cd0       ??_C@_17KPNDCPAF@?$AAd?$AAi?$AAv?$AA?$AA@ 10049cd0     LIBCMT:winapinls.obj
 0002:00008cd8       ??_C@_11LOCGONAA@?$AA?$AA@ 10049cd8     LIBCMT:winapinls.obj
 0002:00008cdc       ??_C@_1M@OKAHONE@?$AAa?$AAr?$AA?9?$AAS?$AAA?$AA?$AA@ 10049cdc     LIBCMT:winapinls.obj
 0002:00008ce8       ??_C@_1M@FFFIGIGK@?$AAb?$AAg?$AA?9?$AAB?$AAG?$AA?$AA@ 10049ce8     LIBCMT:winapinls.obj
 0002:00008cf4       ??_C@_1M@BJNKEDC@?$AAc?$AAa?$AA?9?$AAE?$AAS?$AA?$AA@ 10049cf4     LIBCMT:winapinls.obj
 0002:00008d00       ??_C@_1M@IJJHFJHA@?$AAc?$AAs?$AA?9?$AAC?$AAZ?$AA?$AA@ 10049d00     LIBCMT:winapinls.obj
 0002:00008d0c       ??_C@_1M@CLPEOBGI@?$AAd?$AAa?$AA?9?$AAD?$AAK?$AA?$AA@ 10049d0c     LIBCMT:winapinls.obj
 0002:00008d18       ??_C@_1M@MCMADGCB@?$AAd?$AAe?$AA?9?$AAD?$AAE?$AA?$AA@ 10049d18     LIBCMT:winapinls.obj
 0002:00008d24       ??_C@_1M@OOCKEMAM@?$AAe?$AAl?$AA?9?$AAG?$AAR?$AA?$AA@ 10049d24     LIBCMT:winapinls.obj
 0002:00008d30       ??_C@_1M@DDNJFGID@?$AAf?$AAi?$AA?9?$AAF?$AAI?$AA?$AA@ 10049d30     LIBCMT:winapinls.obj
 0002:00008d3c       ??_C@_1M@GLIPPMAC@?$AAf?$AAr?$AA?9?$AAF?$AAR?$AA?$AA@ 10049d3c     LIBCMT:winapinls.obj
 0002:00008d48       ??_C@_1M@GFMCHPE@?$AAh?$AAe?$AA?9?$AAI?$AAL?$AA?$AA@ 10049d48     LIBCMT:winapinls.obj
 0002:00008d54       ??_C@_1M@MHLPGNKM@?$AAh?$AAu?$AA?9?$AAH?$AAU?$AA?$AA@ 10049d54     LIBCMT:winapinls.obj
 0002:00008d60       ??_C@_1M@LPDDNNPN@?$AAi?$AAs?$AA?9?$AAI?$AAS?$AA?$AA@ 10049d60     LIBCMT:winapinls.obj
 0002:00008d6c       ??_C@_1M@MADIPODN@?$AAi?$AAt?$AA?9?$AAI?$AAT?$AA?$AA@ 10049d6c     LIBCMT:winapinls.obj
 0002:00008d78       ??_C@_1M@IHBJJGG@?$AAn?$AAl?$AA?9?$AAN?$AAL?$AA?$AA@ 10049d78     LIBCMT:winapinls.obj
 0002:00008d84       ??_C@_1M@EANAGDL@?$AAn?$AAb?$AA?9?$AAN?$AAO?$AA?$AA@ 10049d84     LIBCMT:winapinls.obj
 0002:00008d90       ??_C@_1M@NEIEMEGP@?$AAp?$AAl?$AA?9?$AAP?$AAL?$AA?$AA@ 10049d90     LIBCMT:winapinls.obj
 0002:00008d9c       ??_C@_1M@BOCFIGEP@?$AAp?$AAt?$AA?9?$AAB?$AAR?$AA?$AA@ 10049d9c     LIBCMT:winapinls.obj
 0002:00008da8       ??_C@_1M@IMPFOPBG@?$AAr?$AAo?$AA?9?$AAR?$AAO?$AA?$AA@ 10049da8     LIBCMT:winapinls.obj
 0002:00008db4       ??_C@_1M@IDNNEJMM@?$AAr?$AAu?$AA?9?$AAR?$AAU?$AA?$AA@ 10049db4     LIBCMT:winapinls.obj
 0002:00008dc0       ??_C@_1M@LILEEOGM@?$AAh?$AAr?$AA?9?$AAH?$AAR?$AA?$AA@ 10049dc0     LIBCMT:winapinls.obj
 0002:00008dcc       ??_C@_1M@FKIFEHPB@?$AAs?$AAk?$AA?9?$AAS?$AAK?$AA?$AA@ 10049dcc     LIBCMT:winapinls.obj
 0002:00008dd8       ??_C@_1M@LJMAMNPJ@?$AAs?$AAq?$AA?9?$AAA?$AAL?$AA?$AA@ 10049dd8     LIBCMT:winapinls.obj
 0002:00008de4       ??_C@_1M@GIAKDKJK@?$AAs?$AAv?$AA?9?$AAS?$AAE?$AA?$AA@ 10049de4     LIBCMT:winapinls.obj
 0002:00008df0       ??_C@_1M@MKJKIKCL@?$AAt?$AAh?$AA?9?$AAT?$AAH?$AA?$AA@ 10049df0     LIBCMT:winapinls.obj
 0002:00008dfc       ??_C@_1M@MFLCCMPB@?$AAt?$AAr?$AA?9?$AAT?$AAR?$AA?$AA@ 10049dfc     LIBCMT:winapinls.obj
 0002:00008e08       ??_C@_1M@OIJHDKJN@?$AAu?$AAr?$AA?9?$AAP?$AAK?$AA?$AA@ 10049e08     LIBCMT:winapinls.obj
 0002:00008e14       ??_C@_1M@LHIPCIEK@?$AAi?$AAd?$AA?9?$AAI?$AAD?$AA?$AA@ 10049e14     LIBCMT:winapinls.obj
 0002:00008e20       ??_C@_1M@MFMOBGI@?$AAu?$AAk?$AA?9?$AAU?$AAA?$AA?$AA@ 10049e20     LIBCMT:winapinls.obj
 0002:00008e2c       ??_C@_1M@OBGLJIPL@?$AAb?$AAe?$AA?9?$AAB?$AAY?$AA?$AA@ 10049e2c     LIBCMT:winapinls.obj
 0002:00008e38       ??_C@_1M@BCFAJEAD@?$AAs?$AAl?$AA?9?$AAS?$AAI?$AA?$AA@ 10049e38     LIBCMT:winapinls.obj
 0002:00008e44       ??_C@_1M@FKFFEDDN@?$AAe?$AAt?$AA?9?$AAE?$AAE?$AA?$AA@ 10049e44     LIBCMT:winapinls.obj
 0002:00008e50       ??_C@_1M@KGKKAACI@?$AAl?$AAv?$AA?9?$AAL?$AAV?$AA?$AA@ 10049e50     LIBCMT:winapinls.obj
 0002:00008e5c       ??_C@_1M@IFGBIJO@?$AAl?$AAt?$AA?9?$AAL?$AAT?$AA?$AA@ 10049e5c     LIBCMT:winapinls.obj
 0002:00008e68       ??_C@_1M@FGEAHEDM@?$AAf?$AAa?$AA?9?$AAI?$AAR?$AA?$AA@ 10049e68     LIBCMT:winapinls.obj
 0002:00008e74       ??_C@_1M@KBMAIBFN@?$AAv?$AAi?$AA?9?$AAV?$AAN?$AA?$AA@ 10049e74     LIBCMT:winapinls.obj
 0002:00008e80       ??_C@_1M@GPCBKDJK@?$AAh?$AAy?$AA?9?$AAA?$AAM?$AA?$AA@ 10049e80     LIBCMT:winapinls.obj
 0002:00008e8c       ??_C@_1BG@BECMDDJB@?$AAa?$AAz?$AA?9?$AAA?$AAZ?$AA?9?$AAL?$AAa?$AAt?$AAn?$AA?$AA@ 10049e8c     LIBCMT:winapinls.obj
 0002:00008ea4       ??_C@_1M@MAOFCAEA@?$AAe?$AAu?$AA?9?$AAE?$AAS?$AA?$AA@ 10049ea4     LIBCMT:winapinls.obj
 0002:00008eb0       ??_C@_1M@IGHABKPI@?$AAm?$AAk?$AA?9?$AAM?$AAK?$AA?$AA@ 10049eb0     LIBCMT:winapinls.obj
 0002:00008ebc       ??_C@_1M@IAIGNEJG@?$AAt?$AAn?$AA?9?$AAZ?$AAA?$AA?$AA@ 10049ebc     LIBCMT:winapinls.obj
 0002:00008ec8       ??_C@_1M@IIJCOJFA@?$AAx?$AAh?$AA?9?$AAZ?$AAA?$AA?$AA@ 10049ec8     LIBCMT:winapinls.obj
 0002:00008ed4       ??_C@_1M@LGPJHNJH@?$AAz?$AAu?$AA?9?$AAZ?$AAA?$AA?$AA@ 10049ed4     LIBCMT:winapinls.obj
 0002:00008ee0       ??_C@_1M@HOKAOIO@?$AAa?$AAf?$AA?9?$AAZ?$AAA?$AA?$AA@ 10049ee0     LIBCMT:winapinls.obj
 0002:00008eec       ??_C@_1M@DPCLHLIE@?$AAk?$AAa?$AA?9?$AAG?$AAE?$AA?$AA@ 10049eec     LIBCMT:winapinls.obj
 0002:00008ef8       ??_C@_1M@BLKMHJBI@?$AAf?$AAo?$AA?9?$AAF?$AAO?$AA?$AA@ 10049ef8     LIBCMT:winapinls.obj
 0002:00008f04       ??_C@_1M@LGGJAPPB@?$AAh?$AAi?$AA?9?$AAI?$AAN?$AA?$AA@ 10049f04     LIBCMT:winapinls.obj
 0002:00008f10       ??_C@_1M@FIKPIHFE@?$AAm?$AAt?$AA?9?$AAM?$AAT?$AA?$AA@ 10049f10     LIBCMT:winapinls.obj
 0002:00008f1c       ??_C@_1M@HEGGPBFA@?$AAs?$AAe?$AA?9?$AAN?$AAO?$AA?$AA@ 10049f1c     LIBCMT:winapinls.obj
 0002:00008f28       ??_C@_1M@EIBJEEPA@?$AAm?$AAs?$AA?9?$AAM?$AAY?$AA?$AA@ 10049f28     LIBCMT:winapinls.obj
 0002:00008f34       ??_C@_1M@FHLBGMPP@?$AAk?$AAk?$AA?9?$AAK?$AAZ?$AA?$AA@ 10049f34     LIBCMT:winapinls.obj
 0002:00008f40       ??_C@_1M@NGJJLCGI@?$AAk?$AAy?$AA?9?$AAK?$AAG?$AA?$AA@ 10049f40     LIBCMT:winapinls.obj
 0002:00008f4c       ??_C@_1M@GIENNBFC@?$AAs?$AAw?$AA?9?$AAK?$AAE?$AA?$AA@ 10049f4c     LIBCMT:winapinls.obj
 0002:00008f58       ??_C@_1BG@NDGMJIMJ@?$AAu?$AAz?$AA?9?$AAU?$AAZ?$AA?9?$AAL?$AAa?$AAt?$AAn?$AA?$AA@ 10049f58     LIBCMT:winapinls.obj
 0002:00008f70       ??_C@_1M@IDCCIHBC@?$AAt?$AAt?$AA?9?$AAR?$AAU?$AA?$AA@ 10049f70     LIBCMT:winapinls.obj
 0002:00008f7c       ??_C@_1M@LOICPMOJ@?$AAb?$AAn?$AA?9?$AAI?$AAN?$AA?$AA@ 10049f7c     LIBCMT:winapinls.obj
 0002:00008f88       ??_C@_1M@KPKKNEAH@?$AAp?$AAa?$AA?9?$AAI?$AAN?$AA?$AA@ 10049f88     LIBCMT:winapinls.obj
 0002:00008f94       ??_C@_1M@PJGPPBOG@?$AAg?$AAu?$AA?9?$AAI?$AAN?$AA?$AA@ 10049f94     LIBCMT:winapinls.obj
 0002:00008fa0       ??_C@_1M@KMKMOPHI@?$AAt?$AAa?$AA?9?$AAI?$AAN?$AA?$AA@ 10049fa0     LIBCMT:winapinls.obj
 0002:00008fac       ??_C@_1M@KFEHEPAC@?$AAt?$AAe?$AA?9?$AAI?$AAN?$AA?$AA@ 10049fac     LIBCMT:winapinls.obj
 0002:00008fb8       ??_C@_1M@CDCLMGHI@?$AAk?$AAn?$AA?9?$AAI?$AAN?$AA?$AA@ 10049fb8     LIBCMT:winapinls.obj
 0002:00008fc4       ??_C@_1M@MIODLDKF@?$AAm?$AAl?$AA?9?$AAI?$AAN?$AA?$AA@ 10049fc4     LIBCMT:winapinls.obj
 0002:00008fd0       ??_C@_1M@PBIEACPO@?$AAm?$AAr?$AA?9?$AAI?$AAN?$AA?$AA@ 10049fd0     LIBCMT:winapinls.obj
 0002:00008fdc       ??_C@_1M@NIDEAGPH@?$AAs?$AAa?$AA?9?$AAI?$AAN?$AA?$AA@ 10049fdc     LIBCMT:winapinls.obj
 0002:00008fe8       ??_C@_1M@FHIHCBIO@?$AAm?$AAn?$AA?9?$AAM?$AAN?$AA?$AA@ 10049fe8     LIBCMT:winapinls.obj
 0002:00008ff4       ??_C@_1M@JAIJPENP@?$AAc?$AAy?$AA?9?$AAG?$AAB?$AA?$AA@ 10049ff4     LIBCMT:winapinls.obj
 0002:00009000       ??_C@_1M@PHGFBEPN@?$AAg?$AAl?$AA?9?$AAE?$AAS?$AA?$AA@ 1004a000     LIBCMT:winapinls.obj
 0002:0000900c       ??_C@_1O@KPIPDNCP@?$AAk?$AAo?$AAk?$AA?9?$AAI?$AAN?$AA?$AA@ 1004a00c     LIBCMT:winapinls.obj
 0002:0000901c       ??_C@_1O@KNHJLDJA@?$AAs?$AAy?$AAr?$AA?9?$AAS?$AAY?$AA?$AA@ 1004a01c     LIBCMT:winapinls.obj
 0002:0000902c       ??_C@_1O@MKEKBLAH@?$AAd?$AAi?$AAv?$AA?9?$AAM?$AAV?$AA?$AA@ 1004a02c     LIBCMT:winapinls.obj
 0002:0000903c       ??_C@_1O@OHDCKDDF@?$AAq?$AAu?$AAz?$AA?9?$AAB?$AAO?$AA?$AA@ 1004a03c     LIBCMT:winapinls.obj
 0002:0000904c       ??_C@_1M@LEPJNLFD@?$AAn?$AAs?$AA?9?$AAZ?$AAA?$AA?$AA@ 1004a04c     LIBCMT:winapinls.obj
 0002:00009058       ??_C@_1M@OMLEIIJB@?$AAm?$AAi?$AA?9?$AAN?$AAZ?$AA?$AA@ 1004a058     LIBCMT:winapinls.obj
 0002:00009064       ??_C@_1M@PMPEAILG@?$AAa?$AAr?$AA?9?$AAI?$AAQ?$AA?$AA@ 1004a064     LIBCMT:winapinls.obj
 0002:00009070       ??_C@_1M@CNKPNOEE@?$AAd?$AAe?$AA?9?$AAC?$AAH?$AA?$AA@ 1004a070     LIBCMT:winapinls.obj
 0002:0000907c       ??_C@_1M@LKMGMLKO@?$AAe?$AAn?$AA?9?$AAG?$AAB?$AA?$AA@ 1004a07c     LIBCMT:winapinls.obj
 0002:00009088       ??_C@_1M@PGKJFFGL@?$AAe?$AAs?$AA?9?$AAM?$AAX?$AA?$AA@ 1004a088     LIBCMT:winapinls.obj
 0002:00009094       ??_C@_1M@DNNANBDC@?$AAf?$AAr?$AA?9?$AAB?$AAE?$AA?$AA@ 1004a094     LIBCMT:winapinls.obj
 0002:000090a0       ??_C@_1M@HLGMDFHM@?$AAi?$AAt?$AA?9?$AAC?$AAH?$AA?$AA@ 1004a0a0     LIBCMT:winapinls.obj
 0002:000090ac       ??_C@_1M@CLLBGJH@?$AAn?$AAl?$AA?9?$AAB?$AAE?$AA?$AA@ 1004a0ac     LIBCMT:winapinls.obj
 0002:000090b8       ??_C@_1M@BODBOGLF@?$AAn?$AAn?$AA?9?$AAN?$AAO?$AA?$AA@ 1004a0b8     LIBCMT:winapinls.obj
 0002:000090c4       ??_C@_1M@HFFAHKAD@?$AAp?$AAt?$AA?9?$AAP?$AAT?$AA?$AA@ 1004a0c4     LIBCMT:winapinls.obj
 0002:000090d0       ??_C@_1BG@LNOAKHIE@?$AAs?$AAr?$AA?9?$AAS?$AAP?$AA?9?$AAL?$AAa?$AAt?$AAn?$AA?$AA@ 1004a0d0     LIBCMT:winapinls.obj
 0002:000090e8       ??_C@_1M@HBMHBGAK@?$AAs?$AAv?$AA?9?$AAF?$AAI?$AA?$AA@ 1004a0e8     LIBCMT:winapinls.obj
 0002:000090f4       ??_C@_1BG@DGCJGJBE@?$AAa?$AAz?$AA?9?$AAA?$AAZ?$AA?9?$AAC?$AAy?$AAr?$AAl?$AA?$AA@ 1004a0f4     LIBCMT:winapinls.obj
 0002:0000910c       ??_C@_1M@KEJDAAHB@?$AAs?$AAe?$AA?9?$AAS?$AAE?$AA?$AA@ 1004a10c     LIBCMT:winapinls.obj
 0002:00009118       ??_C@_1M@HEIBJJAD@?$AAm?$AAs?$AA?9?$AAB?$AAN?$AA?$AA@ 1004a118     LIBCMT:winapinls.obj
 0002:00009124       ??_C@_1BG@PBGJMCEM@?$AAu?$AAz?$AA?9?$AAU?$AAZ?$AA?9?$AAC?$AAy?$AAr?$AAl?$AA?$AA@ 1004a124     LIBCMT:winapinls.obj
 0002:0000913c       ??_C@_1O@LAOBCMDF@?$AAq?$AAu?$AAz?$AA?9?$AAE?$AAC?$AA?$AA@ 1004a13c     LIBCMT:winapinls.obj
 0002:0000914c       ??_C@_1M@POEEMAIO@?$AAa?$AAr?$AA?9?$AAE?$AAG?$AA?$AA@ 1004a14c     LIBCMT:winapinls.obj
 0002:00009158       ??_C@_1M@EFAKDEDL@?$AAz?$AAh?$AA?9?$AAH?$AAK?$AA?$AA@ 1004a158     LIBCMT:winapinls.obj
 0002:00009164       ??_C@_1M@HKKIJHGI@?$AAd?$AAe?$AA?9?$AAA?$AAT?$AA?$AA@ 1004a164     LIBCMT:winapinls.obj
 0002:00009170       ??_C@_1M@KBFBEHJF@?$AAe?$AAn?$AA?9?$AAA?$AAU?$AA?$AA@ 1004a170     LIBCMT:winapinls.obj
 0002:0000917c       ??_C@_1M@MNPLFAAH@?$AAe?$AAs?$AA?9?$AAE?$AAS?$AA?$AA@ 1004a17c     LIBCMT:winapinls.obj
 0002:00009188       ??_C@_1M@HJOOJFMA@?$AAf?$AAr?$AA?9?$AAC?$AAA?$AA?$AA@ 1004a188     LIBCMT:winapinls.obj
 0002:00009194       ??_C@_1BG@JPOFPNAB@?$AAs?$AAr?$AA?9?$AAS?$AAP?$AA?9?$AAC?$AAy?$AAr?$AAl?$AA?$AA@ 1004a194     LIBCMT:winapinls.obj
 0002:000091ac       ??_C@_1M@LNFOCMOB@?$AAs?$AAe?$AA?9?$AAF?$AAI?$AA?$AA@ 1004a1ac     LIBCMT:winapinls.obj
 0002:000091b8       ??_C@_1O@MGJBOAMB@?$AAq?$AAu?$AAz?$AA?9?$AAP?$AAE?$AA?$AA@ 1004a1b8     LIBCMT:winapinls.obj
 0002:000091c8       ??_C@_1M@GJINLBOK@?$AAa?$AAr?$AA?9?$AAL?$AAY?$AA?$AA@ 1004a1c8     LIBCMT:winapinls.obj
 0002:000091d4       ??_C@_1M@GGMNHJNL@?$AAz?$AAh?$AA?9?$AAS?$AAG?$AA?$AA@ 1004a1d4     LIBCMT:winapinls.obj
 0002:000091e0       ??_C@_1M@HOIKODND@?$AAd?$AAe?$AA?9?$AAL?$AAU?$AA?$AA@ 1004a1e0     LIBCMT:winapinls.obj
 0002:000091ec       ??_C@_1M@DDOCCGFG@?$AAe?$AAn?$AA?9?$AAC?$AAA?$AA?$AA@ 1004a1ec     LIBCMT:winapinls.obj
 0002:000091f8       ??_C@_1M@BNOEMJLF@?$AAe?$AAs?$AA?9?$AAG?$AAT?$AA?$AA@ 1004a1f8     LIBCMT:winapinls.obj
 0002:00009204       ??_C@_1M@EOGNKEK@?$AAf?$AAr?$AA?9?$AAC?$AAH?$AA?$AA@ 1004a204     LIBCMT:winapinls.obj
 0002:00009210       ??_C@_1M@FLIDJFHL@?$AAh?$AAr?$AA?9?$AAB?$AAA?$AA?$AA@ 1004a210     LIBCMT:winapinls.obj
 0002:0000921c       ??_C@_1O@FMCELNAJ@?$AAs?$AAm?$AAj?$AA?9?$AAN?$AAO?$AA?$AA@ 1004a21c     LIBCMT:winapinls.obj
 0002:0000922c       ??_C@_1M@JHGLJMGJ@?$AAa?$AAr?$AA?9?$AAD?$AAZ?$AA?$AA@ 1004a22c     LIBCMT:winapinls.obj
 0002:00009238       ??_C@_1M@JKKFDCNP@?$AAz?$AAh?$AA?9?$AAM?$AAO?$AA?$AA@ 1004a238     LIBCMT:winapinls.obj
 0002:00009244       ??_C@_1M@GEEFALPE@?$AAd?$AAe?$AA?9?$AAL?$AAI?$AA?$AA@ 1004a244     LIBCMT:winapinls.obj
 0002:00009250       ??_C@_1M@IGEOFBG@?$AAe?$AAn?$AA?9?$AAN?$AAZ?$AA?$AA@ 1004a250     LIBCMT:winapinls.obj
 0002:0000925c       ??_C@_1M@KDBONEHP@?$AAe?$AAs?$AA?9?$AAC?$AAR?$AA?$AA@ 1004a25c     LIBCMT:winapinls.obj
 0002:00009268       ??_C@_1M@FHMDOHNN@?$AAf?$AAr?$AA?9?$AAL?$AAU?$AA?$AA@ 1004a268     LIBCMT:winapinls.obj
 0002:00009274       ??_C@_1BG@NFKKMAFG@?$AAb?$AAs?$AA?9?$AAB?$AAA?$AA?9?$AAL?$AAa?$AAt?$AAn?$AA?$AA@ 1004a274     LIBCMT:winapinls.obj
 0002:0000928c       ??_C@_1O@IMNBEMCI@?$AAs?$AAm?$AAj?$AA?9?$AAS?$AAE?$AA?$AA@ 1004a28c     LIBCMT:winapinls.obj
 0002:0000929c       ??_C@_1M@DHHMBNDP@?$AAa?$AAr?$AA?9?$AAM?$AAA?$AA?$AA@ 1004a29c     LIBCMT:winapinls.obj
 0002:000092a8       ??_C@_1M@BNBLJCGH@?$AAe?$AAn?$AA?9?$AAI?$AAE?$AA?$AA@ 1004a2a8     LIBCMT:winapinls.obj
 0002:000092b4       ??_C@_1M@GEPAFMDL@?$AAe?$AAs?$AA?9?$AAP?$AAA?$AA?$AA@ 1004a2b4     LIBCMT:winapinls.obj
 0002:000092c0       ??_C@_1M@OJONDMDL@?$AAf?$AAr?$AA?9?$AAM?$AAC?$AA?$AA@ 1004a2c0     LIBCMT:winapinls.obj
 0002:000092cc       ??_C@_1BG@OBCNFJB@?$AAs?$AAr?$AA?9?$AAB?$AAA?$AA?9?$AAL?$AAa?$AAt?$AAn?$AA?$AA@ 1004a2cc     LIBCMT:winapinls.obj
 0002:000092e4       ??_C@_1O@KEMEEGPO@?$AAs?$AAm?$AAa?$AA?9?$AAN?$AAO?$AA?$AA@ 1004a2e4     LIBCMT:winapinls.obj
 0002:000092f4       ??_C@_1M@ELMGFODK@?$AAa?$AAr?$AA?9?$AAT?$AAN?$AA?$AA@ 1004a2f4     LIBCMT:winapinls.obj
 0002:00009300       ??_C@_1M@BHDLHFAF@?$AAe?$AAn?$AA?9?$AAZ?$AAA?$AA?$AA@ 1004a300     LIBCMT:winapinls.obj
 0002:0000930c       ??_C@_1M@BMGIGLIF@?$AAe?$AAs?$AA?9?$AAD?$AAO?$AA?$AA@ 1004a30c     LIBCMT:winapinls.obj
 0002:00009318       ??_C@_1BG@CMBHIPBE@?$AAs?$AAr?$AA?9?$AAB?$AAA?$AA?9?$AAC?$AAy?$AAr?$AAl?$AA?$AA@ 1004a318     LIBCMT:winapinls.obj
 0002:00009330       ??_C@_1O@HEDBLHNP@?$AAs?$AAm?$AAa?$AA?9?$AAS?$AAE?$AA?$AA@ 1004a330     LIBCMT:winapinls.obj
 0002:00009340       ??_C@_1M@DAGCADIM@?$AAa?$AAr?$AA?9?$AAO?$AAM?$AA?$AA@ 1004a340     LIBCMT:winapinls.obj
 0002:0000934c       ??_C@_1M@FODLMICG@?$AAe?$AAn?$AA?9?$AAJ?$AAM?$AA?$AA@ 1004a34c     LIBCMT:winapinls.obj
 0002:00009358       ??_C@_1M@DNMLCIHB@?$AAe?$AAs?$AA?9?$AAV?$AAE?$AA?$AA@ 1004a358     LIBCMT:winapinls.obj
 0002:00009364       ??_C@_1O@EOKHMKJK@?$AAs?$AAm?$AAs?$AA?9?$AAF?$AAI?$AA?$AA@ 1004a364     LIBCMT:winapinls.obj
 0002:00009374       ??_C@_1M@CAFJMKOF@?$AAa?$AAr?$AA?9?$AAY?$AAE?$AA?$AA@ 1004a374     LIBCMT:winapinls.obj
 0002:00009380       ??_C@_1M@CBFHIJLI@?$AAe?$AAn?$AA?9?$AAC?$AAB?$AA?$AA@ 1004a380     LIBCMT:winapinls.obj
 0002:0000938c       ??_C@_1M@BGNFLDN@?$AAe?$AAs?$AA?9?$AAC?$AAO?$AA?$AA@ 1004a38c     LIBCMT:winapinls.obj
 0002:00009398       ??_C@_1O@JMPHMAMC@?$AAs?$AAm?$AAn?$AA?9?$AAF?$AAI?$AA?$AA@ 1004a398     LIBCMT:winapinls.obj
 0002:000093a8       ??_C@_1M@JLANABKE@?$AAa?$AAr?$AA?9?$AAS?$AAY?$AA?$AA@ 1004a3a8     LIBCMT:winapinls.obj
 0002:000093b4       ??_C@_1M@HPKGCFGN@?$AAe?$AAn?$AA?9?$AAB?$AAZ?$AA?$AA@ 1004a3b4     LIBCMT:winapinls.obj
 0002:000093c0       ??_C@_1M@OLJCMLGM@?$AAe?$AAs?$AA?9?$AAP?$AAE?$AA?$AA@ 1004a3c0     LIBCMT:winapinls.obj
 0002:000093cc       ??_C@_1M@MKKGFKLE@?$AAa?$AAr?$AA?9?$AAJ?$AAO?$AA?$AA@ 1004a3cc     LIBCMT:winapinls.obj
 0002:000093d8       ??_C@_1M@EKPGLDNI@?$AAe?$AAn?$AA?9?$AAT?$AAT?$AA?$AA@ 1004a3d8     LIBCMT:winapinls.obj
 0002:000093e4       ??_C@_1M@OONGHFHE@?$AAe?$AAs?$AA?9?$AAA?$AAR?$AA?$AA@ 1004a3e4     LIBCMT:winapinls.obj
 0002:000093f0       ??_C@_1M@OOJFGBHE@?$AAa?$AAr?$AA?9?$AAL?$AAB?$AA?$AA@ 1004a3f0     LIBCMT:winapinls.obj
 0002:000093fc       ??_C@_1M@GCEJHNEG@?$AAe?$AAn?$AA?9?$AAZ?$AAW?$AA?$AA@ 1004a3fc     LIBCMT:winapinls.obj
 0002:00009408       ??_C@_1M@JNOCAHJI@?$AAe?$AAs?$AA?9?$AAE?$AAC?$AA?$AA@ 1004a408     LIBCMT:winapinls.obj
 0002:00009414       ??_C@_1M@JEFHPGGB@?$AAa?$AAr?$AA?9?$AAK?$AAW?$AA?$AA@ 1004a414     LIBCMT:winapinls.obj
 0002:00009420       ??_C@_1M@MLKIBJOJ@?$AAe?$AAn?$AA?9?$AAP?$AAH?$AA?$AA@ 1004a420     LIBCMT:winapinls.obj
 0002:0000942c       ??_C@_1M@BDNIPEND@?$AAe?$AAs?$AA?9?$AAC?$AAL?$AA?$AA@ 1004a42c     LIBCMT:winapinls.obj
 0002:00009438       ??_C@_1M@MPNMEKBD@?$AAa?$AAr?$AA?9?$AAA?$AAE?$AA?$AA@ 1004a438     LIBCMT:winapinls.obj
 0002:00009444       ??_C@_1M@KBJALCPI@?$AAe?$AAs?$AA?9?$AAU?$AAY?$AA?$AA@ 1004a444     LIBCMT:winapinls.obj
 0002:00009450       ??_C@_1M@LLCCOAGA@?$AAa?$AAr?$AA?9?$AAB?$AAH?$AA?$AA@ 1004a450     LIBCMT:winapinls.obj
 0002:0000945c       ??_C@_1M@PBFNCDEL@?$AAe?$AAs?$AA?9?$AAP?$AAY?$AA?$AA@ 1004a45c     LIBCMT:winapinls.obj
 0002:00009468       ??_C@_1M@EDGINPNP@?$AAa?$AAr?$AA?9?$AAQ?$AAA?$AA?$AA@ 1004a468     LIBCMT:winapinls.obj
 0002:00009474       ??_C@_1M@MKDBIIJI@?$AAe?$AAs?$AA?9?$AAB?$AAO?$AA?$AA@ 1004a474     LIBCMT:winapinls.obj
 0002:00009480       ??_C@_1M@CPKKEBLD@?$AAe?$AAs?$AA?9?$AAS?$AAV?$AA?$AA@ 1004a480     LIBCMT:winapinls.obj
 0002:0000948c       ??_C@_1M@NDBGMMJL@?$AAe?$AAs?$AA?9?$AAH?$AAN?$AA?$AA@ 1004a48c     LIBCMT:winapinls.obj
 0002:00009498       ??_C@_1M@JIJIBHDP@?$AAe?$AAs?$AA?9?$AAN?$AAI?$AA?$AA@ 1004a498     LIBCMT:winapinls.obj
 0002:000094a4       ??_C@_1M@CGFMKEEK@?$AAe?$AAs?$AA?9?$AAP?$AAR?$AA?$AA@ 1004a4a4     LIBCMT:winapinls.obj
 0002:000094b0       ??_C@_1O@ICJHKIIK@?$AAz?$AAh?$AA?9?$AAC?$AAH?$AAT?$AA?$AA@ 1004a4b0     LIBCMT:winapinls.obj
 0002:000094c0       ??_C@_15CLNEJCE@?$AAs?$AAr?$AA?$AA@ 1004a4c0     LIBCMT:winapinls.obj
 0002:000094c8       ??_C@_1M@KAHEKEIG@?$AAa?$AAf?$AA?9?$AAz?$AAa?$AA?$AA@ 1004a4c8     LIBCMT:winapinls.obj
 0002:000094d4       ??_C@_1M@GIECOABL@?$AAa?$AAr?$AA?9?$AAa?$AAe?$AA?$AA@ 1004a4d4     LIBCMT:winapinls.obj
 0002:000094e0       ??_C@_1M@BMLMEKGI@?$AAa?$AAr?$AA?9?$AAb?$AAh?$AA?$AA@ 1004a4e0     LIBCMT:winapinls.obj
 0002:000094ec       ??_C@_1M@DAPFDGGB@?$AAa?$AAr?$AA?9?$AAd?$AAz?$AA?$AA@ 1004a4ec     LIBCMT:winapinls.obj
 0002:000094f8       ??_C@_1M@FJNKGKIG@?$AAa?$AAr?$AA?9?$AAe?$AAg?$AA?$AA@ 1004a4f8     LIBCMT:winapinls.obj
 0002:00009504       ??_C@_1M@FLGKKCLO@?$AAa?$AAr?$AA?9?$AAi?$AAq?$AA?$AA@ 1004a504     LIBCMT:winapinls.obj
 0002:00009510       ??_C@_1M@GNDIPALM@?$AAa?$AAr?$AA?9?$AAj?$AAo?$AA?$AA@ 1004a510     LIBCMT:winapinls.obj
 0002:0000951c       ??_C@_1M@DDMJFMGJ@?$AAa?$AAr?$AA?9?$AAk?$AAw?$AA?$AA@ 1004a51c     LIBCMT:winapinls.obj
 0002:00009528       ??_C@_1M@EJALMLHM@?$AAa?$AAr?$AA?9?$AAl?$AAb?$AA?$AA@ 1004a528     LIBCMT:winapinls.obj
 0002:00009534       ??_C@_1M@MOBDBLOC@?$AAa?$AAr?$AA?9?$AAl?$AAy?$AA?$AA@ 1004a534     LIBCMT:winapinls.obj
 0002:00009540       ??_C@_1M@JAOCLHDH@?$AAa?$AAr?$AA?9?$AAm?$AAa?$AA?$AA@ 1004a540     LIBCMT:winapinls.obj
 0002:0000954c       ??_C@_1M@JHPMKJIE@?$AAa?$AAr?$AA?9?$AAo?$AAm?$AA?$AA@ 1004a54c     LIBCMT:winapinls.obj
 0002:00009558       ??_C@_1M@OEPGHFNH@?$AAa?$AAr?$AA?9?$AAq?$AAa?$AA?$AA@ 1004a558     LIBCMT:winapinls.obj
 0002:00009564       ??_C@_1M@KJDONENM@?$AAa?$AAr?$AA?9?$AAs?$AAa?$AA?$AA@ 1004a564     LIBCMT:winapinls.obj
 0002:00009570       ??_C@_1M@DMJDKLKM@?$AAa?$AAr?$AA?9?$AAs?$AAy?$AA?$AA@ 1004a570     LIBCMT:winapinls.obj
 0002:0000957c       ??_C@_1M@OMFIPEDC@?$AAa?$AAr?$AA?9?$AAt?$AAn?$AA?$AA@ 1004a57c     LIBCMT:winapinls.obj
 0002:00009588       ??_C@_1M@IHMHGAON@?$AAa?$AAr?$AA?9?$AAy?$AAe?$AA?$AA@ 1004a588     LIBCMT:winapinls.obj
 0002:00009594       ??_C@_1BG@KDCPGJGB@?$AAa?$AAz?$AA?9?$AAa?$AAz?$AA?9?$AAc?$AAy?$AAr?$AAl?$AA?$AA@ 1004a594     LIBCMT:winapinls.obj
 0002:000095ac       ??_C@_1BG@IBCKDDOE@?$AAa?$AAz?$AA?9?$AAa?$AAz?$AA?9?$AAl?$AAa?$AAt?$AAn?$AA?$AA@ 1004a5ac     LIBCMT:winapinls.obj
 0002:000095c4       ??_C@_1M@EGPFDCPD@?$AAb?$AAe?$AA?9?$AAb?$AAy?$AA?$AA@ 1004a5c4     LIBCMT:winapinls.obj
 0002:000095d0       ??_C@_1M@PCMGMCGC@?$AAb?$AAg?$AA?9?$AAb?$AAg?$AA?$AA@ 1004a5d0     LIBCMT:winapinls.obj
 0002:000095dc       ??_C@_1M@BJBMFGOB@?$AAb?$AAn?$AA?9?$AAi?$AAn?$AA?$AA@ 1004a5dc     LIBCMT:winapinls.obj
 0002:000095e8       ??_C@_1BG@EAKMMACD@?$AAb?$AAs?$AA?9?$AAb?$AAa?$AA?9?$AAl?$AAa?$AAt?$AAn?$AA?$AA@ 1004a5e8     LIBCMT:winapinls.obj
 0002:00009600       ??_C@_1M@KGADAODK@?$AAc?$AAa?$AA?9?$AAe?$AAs?$AA?$AA@ 1004a600     LIBCMT:winapinls.obj
 0002:0000960c       ??_C@_1M@COAJPDHI@?$AAc?$AAs?$AA?9?$AAc?$AAz?$AA?$AA@ 1004a60c     LIBCMT:winapinls.obj
 0002:00009618       ??_C@_1M@DHBHFONH@?$AAc?$AAy?$AA?9?$AAg?$AAb?$AA?$AA@ 1004a618     LIBCMT:winapinls.obj
 0002:00009624       ??_C@_1M@IMGKELGA@?$AAd?$AAa?$AA?9?$AAd?$AAk?$AA?$AA@ 1004a624     LIBCMT:winapinls.obj
 0002:00009630       ??_C@_1M@NNDGDNGA@?$AAd?$AAe?$AA?9?$AAa?$AAt?$AA?$AA@ 1004a630     LIBCMT:winapinls.obj
 0002:0000963c       ??_C@_1M@IKDBHEEM@?$AAd?$AAe?$AA?9?$AAc?$AAh?$AA?$AA@ 1004a63c     LIBCMT:winapinls.obj
 0002:00009648       ??_C@_1M@GFFOJMCJ@?$AAd?$AAe?$AA?9?$AAd?$AAe?$AA?$AA@ 1004a648     LIBCMT:winapinls.obj
 0002:00009654       ??_C@_1M@MDNLKBPM@?$AAd?$AAe?$AA?9?$AAl?$AAi?$AA?$AA@ 1004a654     LIBCMT:winapinls.obj
 0002:00009660       ??_C@_1M@NJBEEJNL@?$AAd?$AAe?$AA?9?$AAl?$AAu?$AA?$AA@ 1004a660     LIBCMT:winapinls.obj
 0002:0000966c       ??_C@_1O@GNNELBAP@?$AAd?$AAi?$AAv?$AA?9?$AAm?$AAv?$AA?$AA@ 1004a66c     LIBCMT:winapinls.obj
 0002:0000967c       ??_C@_1M@EJLEOGAE@?$AAe?$AAl?$AA?9?$AAg?$AAr?$AA?$AA@ 1004a67c     LIBCMT:winapinls.obj
 0002:00009688       ??_C@_1M@GMPONJN@?$AAe?$AAn?$AA?9?$AAa?$AAu?$AA?$AA@ 1004a688     LIBCMT:winapinls.obj
 0002:00009694       ??_C@_1M@NIDIIPGF@?$AAe?$AAn?$AA?9?$AAb?$AAz?$AA?$AA@ 1004a694     LIBCMT:winapinls.obj
 0002:000096a0       ??_C@_1M@JEHMIMFO@?$AAe?$AAn?$AA?9?$AAc?$AAa?$AA?$AA@ 1004a6a0     LIBCMT:winapinls.obj
 0002:000096ac       ??_C@_1M@IGMJCDLA@?$AAe?$AAn?$AA?9?$AAc?$AAb?$AA?$AA@ 1004a6ac     LIBCMT:winapinls.obj
 0002:000096b8       ??_C@_1M@BNFIGBKG@?$AAe?$AAn?$AA?9?$AAg?$AAb?$AA?$AA@ 1004a6b8     LIBCMT:winapinls.obj
 0002:000096c4       ??_C@_1M@LKIFDIGP@?$AAe?$AAn?$AA?9?$AAi?$AAe?$AA?$AA@ 1004a6c4     LIBCMT:winapinls.obj
 0002:000096d0       ??_C@_1M@PJKFGCCO@?$AAe?$AAn?$AA?9?$AAj?$AAm?$AA?$AA@ 1004a6d0     LIBCMT:winapinls.obj
 0002:000096dc       ??_C@_1M@KPPKEPBO@?$AAe?$AAn?$AA?9?$AAn?$AAz?$AA?$AA@ 1004a6dc     LIBCMT:winapinls.obj
 0002:000096e8       ??_C@_1M@GMDGLDOB@?$AAe?$AAn?$AA?9?$AAp?$AAh?$AA?$AA@ 1004a6e8     LIBCMT:winapinls.obj
 0002:000096f4       ??_C@_1M@ONGIBJNA@?$AAe?$AAn?$AA?9?$AAt?$AAt?$AA?$AA@ 1004a6f4     LIBCMT:winapinls.obj
 0002:00009700       ??_C@_1M@LLODPCMM@?$AAe?$AAn?$AA?9?$AAu?$AAs?$AA?$AA@ 1004a700     LIBCMT:winapinls.obj
 0002:0000970c       ??_C@_1M@LAKFNPAN@?$AAe?$AAn?$AA?9?$AAz?$AAa?$AA?$AA@ 1004a70c     LIBCMT:winapinls.obj
 0002:00009718       ??_C@_1M@MFNHNHEO@?$AAe?$AAn?$AA?9?$AAz?$AAw?$AA?$AA@ 1004a718     LIBCMT:winapinls.obj
 0002:00009724       ??_C@_1M@EJEINPHM@?$AAe?$AAs?$AA?9?$AAa?$AAr?$AA?$AA@ 1004a724     LIBCMT:winapinls.obj
 0002:00009730       ??_C@_1M@GNKPCCJA@?$AAe?$AAs?$AA?9?$AAb?$AAo?$AA?$AA@ 1004a730     LIBCMT:winapinls.obj
 0002:0000973c       ??_C@_1M@LEEGFONL@?$AAe?$AAs?$AA?9?$AAc?$AAl?$AA?$AA@ 1004a73c     LIBCMT:winapinls.obj
 0002:00009748       ??_C@_1M@KGPDPBDF@?$AAe?$AAs?$AA?9?$AAc?$AAo?$AA?$AA@ 1004a748     LIBCMT:winapinls.obj
 0002:00009754       ??_C@_1M@EIAHOHH@?$AAe?$AAs?$AA?9?$AAc?$AAr?$AA?$AA@ 1004a754     LIBCMT:winapinls.obj
 0002:00009760       ??_C@_1M@LLPGMBIN@?$AAe?$AAs?$AA?9?$AAd?$AAo?$AA?$AA@ 1004a760     LIBCMT:winapinls.obj
 0002:0000976c       ??_C@_1M@DKHMKNJA@?$AAe?$AAs?$AA?9?$AAe?$AAc?$AA?$AA@ 1004a76c     LIBCMT:winapinls.obj
 0002:00009778       ??_C@_1M@GKGFPKAP@?$AAe?$AAs?$AA?9?$AAe?$AAs?$AA?$AA@ 1004a778     LIBCMT:winapinls.obj
 0002:00009784       ??_C@_1M@LKHKGDLN@?$AAe?$AAs?$AA?9?$AAg?$AAt?$AA?$AA@ 1004a784     LIBCMT:winapinls.obj
 0002:00009790       ??_C@_1M@HEIIGGJD@?$AAe?$AAs?$AA?9?$AAh?$AAn?$AA?$AA@ 1004a790     LIBCMT:winapinls.obj
 0002:0000979c       ??_C@_1M@FBDHPPGD@?$AAe?$AAs?$AA?9?$AAm?$AAx?$AA?$AA@ 1004a79c     LIBCMT:winapinls.obj
 0002:000097a8       ??_C@_1M@DPAGLNDH@?$AAe?$AAs?$AA?9?$AAn?$AAi?$AA?$AA@ 1004a7a8     LIBCMT:winapinls.obj
 0002:000097b4       ??_C@_1M@MDGOPGDD@?$AAe?$AAs?$AA?9?$AAp?$AAa?$AA?$AA@ 1004a7b4     LIBCMT:winapinls.obj
 0002:000097c0       ??_C@_1M@EMAMGBGE@?$AAe?$AAs?$AA?9?$AAp?$AAe?$AA?$AA@ 1004a7c0     LIBCMT:winapinls.obj
 0002:000097cc       ??_C@_1M@IBMCAOEC@?$AAe?$AAs?$AA?9?$AAp?$AAr?$AA?$AA@ 1004a7cc     LIBCMT:winapinls.obj
 0002:000097d8       ??_C@_1M@FGMDIJED@?$AAe?$AAs?$AA?9?$AAp?$AAy?$AA?$AA@ 1004a7d8     LIBCMT:winapinls.obj
 0002:000097e4       ??_C@_1M@IIDEOLLL@?$AAe?$AAs?$AA?9?$AAs?$AAv?$AA?$AA@ 1004a7e4     LIBCMT:winapinls.obj
 0002:000097f0       ??_C@_1M@GAOBIPA@?$AAe?$AAs?$AA?9?$AAu?$AAy?$AA?$AA@ 1004a7f0     LIBCMT:winapinls.obj
 0002:000097fc       ??_C@_1M@JKFFICHJ@?$AAe?$AAs?$AA?9?$AAv?$AAe?$AA?$AA@ 1004a7fc     LIBCMT:winapinls.obj
 0002:00009808       ??_C@_1M@PNMLOJDF@?$AAe?$AAt?$AA?9?$AAe?$AAe?$AA?$AA@ 1004a808     LIBCMT:winapinls.obj
 0002:00009814       ??_C@_1M@GHHLIKEI@?$AAe?$AAu?$AA?9?$AAe?$AAs?$AA?$AA@ 1004a814     LIBCMT:winapinls.obj
 0002:00009820       ??_C@_1M@PBNONODE@?$AAf?$AAa?$AA?9?$AAi?$AAr?$AA?$AA@ 1004a820     LIBCMT:winapinls.obj
 0002:0000982c       ??_C@_1M@JEEHPMIL@?$AAf?$AAi?$AA?9?$AAf?$AAi?$AA?$AA@ 1004a82c     LIBCMT:winapinls.obj
 0002:00009838       ??_C@_1M@LMDCNDBA@?$AAf?$AAo?$AA?9?$AAf?$AAo?$AA?$AA@ 1004a838     LIBCMT:winapinls.obj
 0002:00009844       ??_C@_1M@JKEOHLDK@?$AAf?$AAr?$AA?9?$AAb?$AAe?$AA?$AA@ 1004a844     LIBCMT:winapinls.obj
 0002:00009850       ??_C@_1M@NOHADPMI@?$AAf?$AAr?$AA?9?$AAc?$AAa?$AA?$AA@ 1004a850     LIBCMT:winapinls.obj
 0002:0000985c       ??_C@_1M@KDHIHAEC@?$AAf?$AAr?$AA?9?$AAc?$AAh?$AA?$AA@ 1004a85c     LIBCMT:winapinls.obj
 0002:00009868       ??_C@_1M@MMBBFGAK@?$AAf?$AAr?$AA?9?$AAf?$AAr?$AA?$AA@ 1004a868     LIBCMT:winapinls.obj
 0002:00009874       ??_C@_1M@PAFNENNF@?$AAf?$AAr?$AA?9?$AAl?$AAu?$AA?$AA@ 1004a874     LIBCMT:winapinls.obj
 0002:00009880       ??_C@_1M@EOHDJGDD@?$AAf?$AAr?$AA?9?$AAm?$AAc?$AA?$AA@ 1004a880     LIBCMT:winapinls.obj
 0002:0000988c       ??_C@_1M@FAPLLOPF@?$AAg?$AAl?$AA?9?$AAe?$AAs?$AA?$AA@ 1004a88c     LIBCMT:winapinls.obj
 0002:00009898       ??_C@_1M@FOPBFLOO@?$AAg?$AAu?$AA?9?$AAi?$AAn?$AA?$AA@ 1004a898     LIBCMT:winapinls.obj
 0002:000098a4       ??_C@_1M@KBMCINPM@?$AAh?$AAe?$AA?9?$AAi?$AAl?$AA?$AA@ 1004a8a4     LIBCMT:winapinls.obj
 0002:000098b0       ??_C@_1M@BBPHKFPJ@?$AAh?$AAi?$AA?9?$AAi?$AAn?$AA?$AA@ 1004a8b0     LIBCMT:winapinls.obj
 0002:000098bc       ??_C@_1M@PMBNDPHD@?$AAh?$AAr?$AA?9?$AAb?$AAa?$AA?$AA@ 1004a8bc     LIBCMT:winapinls.obj
 0002:000098c8       ??_C@_1M@BPCKOEGE@?$AAh?$AAr?$AA?9?$AAh?$AAr?$AA?$AA@ 1004a8c8     LIBCMT:winapinls.obj
 0002:000098d4       ??_C@_1M@GACBMHKE@?$AAh?$AAu?$AA?9?$AAh?$AAu?$AA?$AA@ 1004a8d4     LIBCMT:winapinls.obj
 0002:000098e0       ??_C@_1M@MILPAJJC@?$AAh?$AAy?$AA?9?$AAa?$AAm?$AA?$AA@ 1004a8e0     LIBCMT:winapinls.obj
 0002:000098ec       ??_C@_1M@BABBICEC@?$AAi?$AAd?$AA?9?$AAi?$AAd?$AA?$AA@ 1004a8ec     LIBCMT:winapinls.obj
 0002:000098f8       ??_C@_1M@BIKNHHPF@?$AAi?$AAs?$AA?9?$AAi?$AAs?$AA?$AA@ 1004a8f8     LIBCMT:winapinls.obj
 0002:00009904       ??_C@_1M@NMPCJPHE@?$AAi?$AAt?$AA?9?$AAc?$AAh?$AA?$AA@ 1004a904     LIBCMT:winapinls.obj
 0002:00009910       ??_C@_1M@GHKGFEDF@?$AAi?$AAt?$AA?9?$AAi?$AAt?$AA?$AA@ 1004a910     LIBCMT:winapinls.obj
 0002:0000991c       ??_C@_1M@NIEJCJJA@?$AAj?$AAa?$AA?9?$AAj?$AAp?$AA?$AA@ 1004a91c     LIBCMT:winapinls.obj
 0002:00009928       ??_C@_1M@JILFNBIM@?$AAk?$AAa?$AA?9?$AAg?$AAe?$AA?$AA@ 1004a928     LIBCMT:winapinls.obj
 0002:00009934       ??_C@_1M@PACPMGPH@?$AAk?$AAk?$AA?9?$AAk?$AAz?$AA?$AA@ 1004a934     LIBCMT:winapinls.obj
 0002:00009940       ??_C@_1M@IELFGMHA@?$AAk?$AAn?$AA?9?$AAi?$AAn?$AA?$AA@ 1004a940     LIBCMT:winapinls.obj
 0002:0000994c       ??_C@_1O@IBBJHCH@?$AAk?$AAo?$AAk?$AA?9?$AAi?$AAn?$AA?$AA@ 1004a94c     LIBCMT:winapinls.obj
 0002:0000995c       ??_C@_1M@DMHAEOGC@?$AAk?$AAo?$AA?9?$AAk?$AAr?$AA?$AA@ 1004a95c     LIBCMT:winapinls.obj
 0002:00009968       ??_C@_1M@HBAHBIGA@?$AAk?$AAy?$AA?9?$AAk?$AAg?$AA?$AA@ 1004a968     LIBCMT:winapinls.obj
 0002:00009974       ??_C@_1M@KPMILCJG@?$AAl?$AAt?$AA?9?$AAl?$AAt?$AA?$AA@ 1004a974     LIBCMT:winapinls.obj
 0002:00009980       ??_C@_1M@BDEKKCA@?$AAl?$AAv?$AA?9?$AAl?$AAv?$AA?$AA@ 1004a980     LIBCMT:winapinls.obj
 0002:0000998c       ??_C@_1M@ELCKCCJJ@?$AAm?$AAi?$AA?9?$AAn?$AAz?$AA?$AA@ 1004a98c     LIBCMT:winapinls.obj
 0002:00009998       ??_C@_1M@CBOOLAPA@?$AAm?$AAk?$AA?9?$AAm?$AAk?$AA?$AA@ 1004a998     LIBCMT:winapinls.obj
 0002:000099a4       ??_C@_1M@GPHNBJKN@?$AAm?$AAl?$AA?9?$AAi?$AAn?$AA?$AA@ 1004a9a4     LIBCMT:winapinls.obj
 0002:000099b0       ??_C@_1M@PABJILIG@?$AAm?$AAn?$AA?9?$AAm?$AAn?$AA?$AA@ 1004a9b0     LIBCMT:winapinls.obj
 0002:000099bc       ??_C@_1M@FGBKKIPG@?$AAm?$AAr?$AA?9?$AAi?$AAn?$AA?$AA@ 1004a9bc     LIBCMT:winapinls.obj
 0002:000099c8       ??_C@_1M@NDBPDDAL@?$AAm?$AAs?$AA?9?$AAb?$AAn?$AA?$AA@ 1004a9c8     LIBCMT:winapinls.obj
 0002:000099d4       ??_C@_1M@OPIHOOPI@?$AAm?$AAs?$AA?9?$AAm?$AAy?$AA?$AA@ 1004a9d4     LIBCMT:winapinls.obj
 0002:000099e0       ??_C@_1M@PPDBCNFM@?$AAm?$AAt?$AA?9?$AAm?$AAt?$AA?$AA@ 1004a9e0     LIBCMT:winapinls.obj
 0002:000099ec       ??_C@_1M@KDJDKMDD@?$AAn?$AAb?$AA?9?$AAn?$AAo?$AA?$AA@ 1004a9ec     LIBCMT:winapinls.obj
 0002:000099f8       ??_C@_1M@KFCFLMJP@?$AAn?$AAl?$AA?9?$AAb?$AAe?$AA?$AA@ 1004a9f8     LIBCMT:winapinls.obj
 0002:00009a04       ??_C@_1M@KPOPDDGO@?$AAn?$AAl?$AA?9?$AAn?$AAl?$AA?$AA@ 1004aa04     LIBCMT:winapinls.obj
 0002:00009a10       ??_C@_1M@LJKPEMLN@?$AAn?$AAn?$AA?9?$AAn?$AAo?$AA?$AA@ 1004aa10     LIBCMT:winapinls.obj
 0002:00009a1c       ??_C@_1M@BDGHHBFL@?$AAn?$AAs?$AA?9?$AAz?$AAa?$AA?$AA@ 1004aa1c     LIBCMT:winapinls.obj
 0002:00009a28       ??_C@_1M@IDEHOAP@?$AAp?$AAa?$AA?9?$AAi?$AAn?$AA?$AA@ 1004aa28     LIBCMT:winapinls.obj
 0002:00009a34       ??_C@_1M@HDBKGOGH@?$AAp?$AAl?$AA?9?$AAp?$AAl?$AA?$AA@ 1004aa34     LIBCMT:winapinls.obj
 0002:00009a40       ??_C@_1M@LJLLCMEH@?$AAp?$AAt?$AA?9?$AAb?$AAr?$AA?$AA@ 1004aa40     LIBCMT:winapinls.obj
 0002:00009a4c       ??_C@_1M@NCMONAAL@?$AAp?$AAt?$AA?9?$AAp?$AAt?$AA?$AA@ 1004aa4c     LIBCMT:winapinls.obj
 0002:00009a58       ??_C@_1O@EAKMAJDN@?$AAq?$AAu?$AAz?$AA?9?$AAb?$AAo?$AA?$AA@ 1004aa58     LIBCMT:winapinls.obj
 0002:00009a68       ??_C@_1O@BHHPIGDN@?$AAq?$AAu?$AAz?$AA?9?$AAe?$AAc?$AA?$AA@ 1004aa68     LIBCMT:winapinls.obj
 0002:00009a78       ??_C@_1O@GBAPEKMJ@?$AAq?$AAu?$AAz?$AA?9?$AAp?$AAe?$AA?$AA@ 1004aa78     LIBCMT:winapinls.obj
 0002:00009a88       ??_C@_1M@CLGLEFBO@?$AAr?$AAo?$AA?9?$AAr?$AAo?$AA?$AA@ 1004aa88     LIBCMT:winapinls.obj
 0002:00009a94       ??_C@_1M@CEEDODME@?$AAr?$AAu?$AA?9?$AAr?$AAu?$AA?$AA@ 1004aa94     LIBCMT:winapinls.obj
 0002:00009aa0       ??_C@_1M@HPKKKMPP@?$AAs?$AAa?$AA?9?$AAi?$AAn?$AA?$AA@ 1004aaa0     LIBCMT:winapinls.obj
 0002:00009aac       ??_C@_1M@BKMAIGOJ@?$AAs?$AAe?$AA?9?$AAf?$AAi?$AA?$AA@ 1004aaac     LIBCMT:winapinls.obj
 0002:00009ab8       ??_C@_1M@NDPIFLFI@?$AAs?$AAe?$AA?9?$AAn?$AAo?$AA?$AA@ 1004aab8     LIBCMT:winapinls.obj
 0002:00009ac4       ??_C@_1M@DANKKHJ@?$AAs?$AAe?$AA?9?$AAs?$AAe?$AA?$AA@ 1004aac4     LIBCMT:winapinls.obj
 0002:00009ad0       ??_C@_1M@PNBLONPJ@?$AAs?$AAk?$AA?9?$AAs?$AAk?$AA?$AA@ 1004aad0     LIBCMT:winapinls.obj
 0002:00009adc       ??_C@_1M@LFMODOAL@?$AAs?$AAl?$AA?9?$AAs?$AAi?$AA?$AA@ 1004aadc     LIBCMT:winapinls.obj
 0002:00009ae8       ??_C@_1O@DFKOMPG@?$AAs?$AAm?$AAa?$AA?9?$AAn?$AAo?$AA?$AA@ 1004aae8     LIBCMT:winapinls.obj
 0002:00009af8       ??_C@_1O@NDKPBNNH@?$AAs?$AAm?$AAa?$AA?9?$AAs?$AAe?$AA?$AA@ 1004aaf8     LIBCMT:winapinls.obj
 0002:00009b08       ??_C@_1O@PLLKBHAB@?$AAs?$AAm?$AAj?$AA?9?$AAn?$AAo?$AA?$AA@ 1004ab08     LIBCMT:winapinls.obj
 0002:00009b18       ??_C@_1O@CLEPOGCA@?$AAs?$AAm?$AAj?$AA?9?$AAs?$AAe?$AA?$AA@ 1004ab18     LIBCMT:winapinls.obj
 0002:00009b28       ??_C@_1O@DLGJGKMK@?$AAs?$AAm?$AAn?$AA?9?$AAf?$AAi?$AA?$AA@ 1004ab28     LIBCMT:winapinls.obj
 0002:00009b38       ??_C@_1O@OJDJGAJC@?$AAs?$AAm?$AAs?$AA?9?$AAf?$AAi?$AA?$AA@ 1004ab38     LIBCMT:winapinls.obj
 0002:00009b48       ??_C@_1M@BOFOGHPB@?$AAs?$AAq?$AA?9?$AAa?$AAl?$AA?$AA@ 1004ab48     LIBCMT:winapinls.obj
 0002:00009b54       ??_C@_1BG@LJBBIPGB@?$AAs?$AAr?$AA?9?$AAb?$AAa?$AA?9?$AAc?$AAy?$AAr?$AAl?$AA?$AA@ 1004ab54     LIBCMT:winapinls.obj
 0002:00009b6c       ??_C@_1BG@JLBENFOE@?$AAs?$AAr?$AA?9?$AAb?$AAa?$AA?9?$AAl?$AAa?$AAt?$AAn?$AA?$AA@ 1004ab6c     LIBCMT:winapinls.obj
 0002:00009b84       ??_C@_1BG@KODPNHE@?$AAs?$AAr?$AA?9?$AAs?$AAp?$AA?9?$AAc?$AAy?$AAr?$AAl?$AA?$AA@ 1004ab84     LIBCMT:winapinls.obj
 0002:00009b9c       ??_C@_1BG@CIOGKHPB@?$AAs?$AAr?$AA?9?$AAs?$AAp?$AA?9?$AAl?$AAa?$AAt?$AAn?$AA?$AA@ 1004ab9c     LIBCMT:winapinls.obj
 0002:00009bb4       ??_C@_1M@NGFJLMAC@?$AAs?$AAv?$AA?9?$AAf?$AAi?$AA?$AA@ 1004abb4     LIBCMT:winapinls.obj
 0002:00009bc0       ??_C@_1M@MPJEJAJC@?$AAs?$AAv?$AA?9?$AAs?$AAe?$AA?$AA@ 1004abc0     LIBCMT:winapinls.obj
 0002:00009bcc       ??_C@_1M@MPNDHLFK@?$AAs?$AAw?$AA?9?$AAk?$AAe?$AA?$AA@ 1004abcc     LIBCMT:winapinls.obj
 0002:00009bd8       ??_C@_1O@KOHBJJI@?$AAs?$AAy?$AAr?$AA?9?$AAs?$AAy?$AA?$AA@ 1004abd8     LIBCMT:winapinls.obj
 0002:00009be8       ??_C@_1M@LDCEFHA@?$AAt?$AAa?$AA?9?$AAi?$AAn?$AA?$AA@ 1004abe8     LIBCMT:winapinls.obj
 0002:00009bf4       ??_C@_1M@CNJOFAK@?$AAt?$AAe?$AA?9?$AAi?$AAn?$AA?$AA@ 1004abf4     LIBCMT:winapinls.obj
 0002:00009c00       ??_C@_1M@GNAECACD@?$AAt?$AAh?$AA?9?$AAt?$AAh?$AA?$AA@ 1004ac00     LIBCMT:winapinls.obj
 0002:00009c0c       ??_C@_1M@CHBIHOJO@?$AAt?$AAn?$AA?9?$AAz?$AAa?$AA?$AA@ 1004ac0c     LIBCMT:winapinls.obj
 0002:00009c18       ??_C@_1M@GCCMIGPJ@?$AAt?$AAr?$AA?9?$AAt?$AAr?$AA?$AA@ 1004ac18     LIBCMT:winapinls.obj
 0002:00009c24       ??_C@_1M@CELMCNBK@?$AAt?$AAt?$AA?9?$AAr?$AAu?$AA?$AA@ 1004ac24     LIBCMT:winapinls.obj
 0002:00009c30       ??_C@_1M@KLMCELGA@?$AAu?$AAk?$AA?9?$AAu?$AAa?$AA?$AA@ 1004ac30     LIBCMT:winapinls.obj
 0002:00009c3c       ??_C@_1M@EPAJJAJF@?$AAu?$AAr?$AA?9?$AAp?$AAk?$AA?$AA@ 1004ac3c     LIBCMT:winapinls.obj
 0002:00009c48       ??_C@_1BG@GEGPMCDJ@?$AAu?$AAz?$AA?9?$AAu?$AAz?$AA?9?$AAc?$AAy?$AAr?$AAl?$AA?$AA@ 1004ac48     LIBCMT:winapinls.obj
 0002:00009c60       ??_C@_1BG@EGGKJILM@?$AAu?$AAz?$AA?9?$AAu?$AAz?$AA?9?$AAl?$AAa?$AAt?$AAn?$AA?$AA@ 1004ac60     LIBCMT:winapinls.obj
 0002:00009c78       ??_C@_1M@GFOCLFF@?$AAv?$AAi?$AA?9?$AAv?$AAn?$AA?$AA@ 1004ac78     LIBCMT:winapinls.obj
 0002:00009c84       ??_C@_1M@CPAMEDFI@?$AAx?$AAh?$AA?9?$AAz?$AAa?$AA?$AA@ 1004ac84     LIBCMT:winapinls.obj
 0002:00009c90       ??_C@_1O@EBKIFIGN@?$AAz?$AAh?$AA?9?$AAc?$AAh?$AAs?$AA?$AA@ 1004ac90     LIBCMT:winapinls.obj
 0002:00009ca0       ??_C@_1O@NMHPGANE@?$AAz?$AAh?$AA?9?$AAc?$AAh?$AAt?$AA?$AA@ 1004aca0     LIBCMT:winapinls.obj
 0002:00009cb0       ??_C@_1M@LPINJOMC@?$AAz?$AAh?$AA?9?$AAc?$AAn?$AA?$AA@ 1004acb0     LIBCMT:winapinls.obj
 0002:00009cbc       ??_C@_1M@OCJEJODD@?$AAz?$AAh?$AA?9?$AAh?$AAk?$AA?$AA@ 1004acbc     LIBCMT:winapinls.obj
 0002:00009cc8       ??_C@_1M@DNDLJINH@?$AAz?$AAh?$AA?9?$AAm?$AAo?$AA?$AA@ 1004acc8     LIBCMT:winapinls.obj
 0002:00009cd4       ??_C@_1M@MBFDNDND@?$AAz?$AAh?$AA?9?$AAs?$AAg?$AA?$AA@ 1004acd4     LIBCMT:winapinls.obj
 0002:00009ce0       ??_C@_1M@IMEPLEPE@?$AAz?$AAh?$AA?9?$AAt?$AAw?$AA?$AA@ 1004ace0     LIBCMT:winapinls.obj
 0002:00009cec       ??_C@_1M@BBGHNHJP@?$AAz?$AAu?$AA?9?$AAz?$AAa?$AA?$AA@ 1004acec     LIBCMT:winapinls.obj
 0002:00009cf8       ___newctype                1004acf8     LIBCMT:ctype.obj
 0002:00009ff8       __wctype                   1004aff8     LIBCMT:ctype.obj
 0002:0000a200       ___newclmap                1004b200     LIBCMT:ctype.obj
 0002:0000a380       ___newcumap                1004b380     LIBCMT:ctype.obj
 0002:0000a500       ___lc_category             1004b500     LIBCMT:wsetloca.obj
 0002:0000a548       ??_C@_1O@GIFLHMA@?$AAL?$AAC?$AA_?$AAA?$AAL?$AAL?$AA?$AA@ 1004b548     LIBCMT:wsetloca.obj
 0002:0000a558       ??_C@_1BG@PPOMIBNJ@?$AAL?$AAC?$AA_?$AAC?$AAO?$AAL?$AAL?$AAA?$AAT?$AAE?$AA?$AA@ 1004b558     LIBCMT:wsetloca.obj
 0002:0000a570       ??_C@_1BC@FFJGAPJM@?$AAL?$AAC?$AA_?$AAC?$AAT?$AAY?$AAP?$AAE?$AA?$AA@ 1004b570     LIBCMT:wsetloca.obj
 0002:0000a584       ??_C@_1BI@PCKFNJFB@?$AAL?$AAC?$AA_?$AAM?$AAO?$AAN?$AAE?$AAT?$AAA?$AAR?$AAY?$AA?$AA@ 1004b584     LIBCMT:wsetloca.obj
 0002:0000a59c       ??_C@_1BG@ENIEDKID@?$AAL?$AAC?$AA_?$AAN?$AAU?$AAM?$AAE?$AAR?$AAI?$AAC?$AA?$AA@ 1004b59c     LIBCMT:wsetloca.obj
 0002:0000a5b4       ??_C@_1BA@HAAOMIIG@?$AAL?$AAC?$AA_?$AAT?$AAI?$AAM?$AAE?$AA?$AA@ 1004b5b4     LIBCMT:wsetloca.obj
 0002:0000a648       ??_C@_15NBPDDFIP@?$AA?$DN?$AA?$DL?$AA?$AA@ 1004b648     LIBCMT:wsetloca.obj
 0002:0000a650       ??_C@_13PJJBFPED@?$AA?$DL?$AA?$AA@ 1004b650     LIBCMT:wsetloca.obj
 0002:0000a654       ??_C@_13NMPKAAJP@?$AA?$DN?$AA?$AA@ 1004b654     LIBCMT:wsetloca.obj
 0002:0000a658       ??_C@_13FHBKNHDA@?$AAC?$AA?$AA@ 1004b658     LIBCMT:wsetloca.obj
 0002:0000a65c       ??_C@_17MBJJLFDM@?$AA_?$AA?4?$AA?0?$AA?$AA@ 1004b65c     LIBCMT:wsetloca.obj
 0002:0000a664       ??_C@_13ENNFDPBH@?$AA_?$AA?$AA@ 1004b664     LIBCMT:wsetloca.obj
 0002:0000a668       ??_C@_13JOFGPIOO@?$AA?4?$AA?$AA@ 1004b668     LIBCMT:wsetloca.obj
 0002:0000a66c       ??_C@_06PGGFOGJG@1?$CDSNAN?$AA@ 1004b66c     LIBCMT:x10fout.obj
 0002:0000a674       ??_C@_05PHHOCPM@1?$CDIND?$AA@ 1004b674     LIBCMT:x10fout.obj
 0002:0000a67c       ??_C@_05DNEBIAHO@1?$CDINF?$AA@ 1004b67c     LIBCMT:x10fout.obj
 0002:0000a684       ??_C@_06IMKFLFPG@1?$CDQNAN?$AA@ 1004b684     LIBCMT:x10fout.obj
 0002:0000a68c       ??_C@_0M@HHGEPIBF@CreateFile2?$AA@ 1004b68c     LIBCMT:wopen.obj
 0002:0000a698       ??_C@_1BA@BALFACEM@?$AAC?$AAO?$AAN?$AAO?$AAU?$AAT?$AA$?$AA?$AA@ 1004b698     LIBCMT:initcon.obj
 0002:0000a6a8       ___rg_language             1004b6a8     LIBCMT:getqloc.obj
 0002:0000a9b4       ??_C@_1BC@LLOKLNP@?$AAa?$AAm?$AAe?$AAr?$AAi?$AAc?$AAa?$AAn?$AA?$AA@ 1004b9b4     LIBCMT:getqloc.obj
 0002:0000a9c8       ??_C@_1CC@HEIGCDGG@?$AAa?$AAm?$AAe?$AAr?$AAi?$AAc?$AAa?$AAn?$AA?5?$AAe?$AAn?$AAg?$AAl?$AAi?$AAs?$AAh?$AA?$AA@ 1004b9c8     LIBCMT:getqloc.obj
 0002:0000a9ec       ??_C@_1CC@IHCNOMIN@?$AAa?$AAm?$AAe?$AAr?$AAi?$AAc?$AAa?$AAn?$AA?9?$AAe?$AAn?$AAg?$AAl?$AAi?$AAs?$AAh?$AA?$AA@ 1004b9ec     LIBCMT:getqloc.obj
 0002:0000aa10       ??_C@_1BG@GKAGPCGG@?$AAa?$AAu?$AAs?$AAt?$AAr?$AAa?$AAl?$AAi?$AAa?$AAn?$AA?$AA@ 1004ba10     LIBCMT:getqloc.obj
 0002:0000aa28       ??_C@_1BA@GMENCENF@?$AAb?$AAe?$AAl?$AAg?$AAi?$AAa?$AAn?$AA?$AA@ 1004ba28     LIBCMT:getqloc.obj
 0002:0000aa38       ??_C@_1BC@PJMIIAAN@?$AAc?$AAa?$AAn?$AAa?$AAd?$AAi?$AAa?$AAn?$AA?$AA@ 1004ba38     LIBCMT:getqloc.obj
 0002:0000aa4c       ??_C@_17NOIMNFBF@?$AAc?$AAh?$AAh?$AA?$AA@ 1004ba4c     LIBCMT:getqloc.obj
 0002:0000aa54       ??_C@_17GGDALCHA@?$AAc?$AAh?$AAi?$AA?$AA@ 1004ba54     LIBCMT:getqloc.obj
 0002:0000aa5c       ??_C@_1BA@NPNJKIBL@?$AAc?$AAh?$AAi?$AAn?$AAe?$AAs?$AAe?$AA?$AA@ 1004ba5c     LIBCMT:getqloc.obj
 0002:0000aa6c       ??_C@_1CC@DINBAMMJ@?$AAc?$AAh?$AAi?$AAn?$AAe?$AAs?$AAe?$AA?9?$AAh?$AAo?$AAn?$AAg?$AAk?$AAo?$AAn?$AAg?$AA?$AA@ 1004ba6c     LIBCMT:getqloc.obj
 0002:0000aa90       ??_C@_1CG@IOBJPACO@?$AAc?$AAh?$AAi?$AAn?$AAe?$AAs?$AAe?$AA?9?$AAs?$AAi?$AAm?$AAp?$AAl?$AAi?$AAf?$AAi?$AAe?$AAd?$AA?$AA@ 1004ba90     LIBCMT:getqloc.obj
 0002:0000aab8       ??_C@_1CE@GAJNDCKG@?$AAc?$AAh?$AAi?$AAn?$AAe?$AAs?$AAe?$AA?9?$AAs?$AAi?$AAn?$AAg?$AAa?$AAp?$AAo?$AAr?$AAe?$AA?$AA@ 1004bab8     LIBCMT:getqloc.obj
 0002:0000aadc       ??_C@_1CI@PAJPIOOD@?$AAc?$AAh?$AAi?$AAn?$AAe?$AAs?$AAe?$AA?9?$AAt?$AAr?$AAa?$AAd?$AAi?$AAt?$AAi?$AAo?$AAn?$AAa?$AAl?$AA?$AA@ 1004badc     LIBCMT:getqloc.obj
 0002:0000ab04       ??_C@_1BM@NILJBMMD@?$AAd?$AAu?$AAt?$AAc?$AAh?$AA?9?$AAb?$AAe?$AAl?$AAg?$AAi?$AAa?$AAn?$AA?$AA@ 1004bb04     LIBCMT:getqloc.obj
 0002:0000ab20       ??_C@_1CC@OOJPJNEJ@?$AAe?$AAn?$AAg?$AAl?$AAi?$AAs?$AAh?$AA?9?$AAa?$AAm?$AAe?$AAr?$AAi?$AAc?$AAa?$AAn?$AA?$AA@ 1004bb20     LIBCMT:getqloc.obj
 0002:0000ab44       ??_C@_1BI@IOLFEEM@?$AAe?$AAn?$AAg?$AAl?$AAi?$AAs?$AAh?$AA?9?$AAa?$AAu?$AAs?$AA?$AA@ 1004bb44     LIBCMT:getqloc.obj
 0002:0000ab5c       ??_C@_1BO@HFFNLENJ@?$AAe?$AAn?$AAg?$AAl?$AAi?$AAs?$AAh?$AA?9?$AAb?$AAe?$AAl?$AAi?$AAz?$AAe?$AA?$AA@ 1004bb5c     LIBCMT:getqloc.obj
 0002:0000ab7c       ??_C@_1BI@HAPKJMPO@?$AAe?$AAn?$AAg?$AAl?$AAi?$AAs?$AAh?$AA?9?$AAc?$AAa?$AAn?$AA?$AA@ 1004bb7c     LIBCMT:getqloc.obj
 0002:0000ab94       ??_C@_1CE@HLNDMIOJ@?$AAe?$AAn?$AAg?$AAl?$AAi?$AAs?$AAh?$AA?9?$AAc?$AAa?$AAr?$AAi?$AAb?$AAb?$AAe?$AAa?$AAn?$AA?$AA@ 1004bb94     LIBCMT:getqloc.obj
 0002:0000abb8       ??_C@_1BI@LDHJHHAC@?$AAe?$AAn?$AAg?$AAl?$AAi?$AAs?$AAh?$AA?9?$AAi?$AAr?$AAe?$AA?$AA@ 1004bbb8     LIBCMT:getqloc.obj
 0002:0000abd0       ??_C@_1CA@NJMMCFOC@?$AAe?$AAn?$AAg?$AAl?$AAi?$AAs?$AAh?$AA?9?$AAj?$AAa?$AAm?$AAa?$AAi?$AAc?$AAa?$AA?$AA@ 1004bbd0     LIBCMT:getqloc.obj
 0002:0000abf0       ??_C@_1BG@BHJEBBGG@?$AAe?$AAn?$AAg?$AAl?$AAi?$AAs?$AAh?$AA?9?$AAn?$AAz?$AA?$AA@ 1004bbf0     LIBCMT:getqloc.obj
 0002:0000ac08       ??_C@_1CK@FGOEJJCO@?$AAe?$AAn?$AAg?$AAl?$AAi?$AAs?$AAh?$AA?9?$AAs?$AAo?$AAu?$AAt?$AAh?$AA?5?$AAa?$AAf?$AAr?$AAi?$AAc?$AAa?$AA?$AA@ 1004bc08     LIBCMT:getqloc.obj
 0002:0000ac34       ??_C@_1DE@PDBJPCJ@?$AAe?$AAn?$AAg?$AAl?$AAi?$AAs?$AAh?$AA?9?$AAt?$AAr?$AAi?$AAn?$AAi?$AAd?$AAa?$AAd?$AA?5?$AAy?$AA?5?$AAt?$AAo?$AAb?$AAa?$AAg?$AAo?$AA?$AA@ 1004bc34     LIBCMT:getqloc.obj
 0002:0000ac68       ??_C@_1BG@JGCANDME@?$AAe?$AAn?$AAg?$AAl?$AAi?$AAs?$AAh?$AA?9?$AAu?$AAk?$AA?$AA@ 1004bc68     LIBCMT:getqloc.obj
 0002:0000ac80       ??_C@_1BG@DINKMLE@?$AAe?$AAn?$AAg?$AAl?$AAi?$AAs?$AAh?$AA?9?$AAu?$AAs?$AA?$AA@ 1004bc80     LIBCMT:getqloc.obj
 0002:0000ac98       ??_C@_1BI@NMFDBHJE@?$AAe?$AAn?$AAg?$AAl?$AAi?$AAs?$AAh?$AA?9?$AAu?$AAs?$AAa?$AA?$AA@ 1004bc98     LIBCMT:getqloc.obj
 0002:0000acb0       ??_C@_1BO@OIHKJKII@?$AAf?$AAr?$AAe?$AAn?$AAc?$AAh?$AA?9?$AAb?$AAe?$AAl?$AAg?$AAi?$AAa?$AAn?$AA?$AA@ 1004bcb0     LIBCMT:getqloc.obj
 0002:0000acd0       ??_C@_1CA@NKAELJKI@?$AAf?$AAr?$AAe?$AAn?$AAc?$AAh?$AA?9?$AAc?$AAa?$AAn?$AAa?$AAd?$AAi?$AAa?$AAn?$AA?$AA@ 1004bcd0     LIBCMT:getqloc.obj
 0002:0000acf0       ??_C@_1CE@MGKCNLGN@?$AAf?$AAr?$AAe?$AAn?$AAc?$AAh?$AA?9?$AAl?$AAu?$AAx?$AAe?$AAm?$AAb?$AAo?$AAu?$AAr?$AAg?$AA?$AA@ 1004bcf0     LIBCMT:getqloc.obj
 0002:0000ad14       ??_C@_1BK@CEGEAILM@?$AAf?$AAr?$AAe?$AAn?$AAc?$AAh?$AA?9?$AAs?$AAw?$AAi?$AAs?$AAs?$AA?$AA@ 1004bd14     LIBCMT:getqloc.obj
 0002:0000ad30       ??_C@_1CA@PAFKEOCC@?$AAg?$AAe?$AAr?$AAm?$AAa?$AAn?$AA?9?$AAa?$AAu?$AAs?$AAt?$AAr?$AAi?$AAa?$AAn?$AA?$AA@ 1004bd30     LIBCMT:getqloc.obj
 0002:0000ad50       ??_C@_1CI@HCFHGOFD@?$AAg?$AAe?$AAr?$AAm?$AAa?$AAn?$AA?9?$AAl?$AAi?$AAc?$AAh?$AAt?$AAe?$AAn?$AAs?$AAt?$AAe?$AAi?$AAn?$AA?$AA@ 1004bd50     LIBCMT:getqloc.obj
 0002:0000ad78       ??_C@_1CE@FEDDNPDG@?$AAg?$AAe?$AAr?$AAm?$AAa?$AAn?$AA?9?$AAl?$AAu?$AAx?$AAe?$AAm?$AAb?$AAo?$AAu?$AAr?$AAg?$AA?$AA@ 1004bd78     LIBCMT:getqloc.obj
 0002:0000ad9c       ??_C@_1BK@LIMINNMN@?$AAg?$AAe?$AAr?$AAm?$AAa?$AAn?$AA?9?$AAs?$AAw?$AAi?$AAs?$AAs?$AA?$AA@ 1004bd9c     LIBCMT:getqloc.obj
 0002:0000adb8       ??_C@_1BM@LGMDBEPD@?$AAi?$AAr?$AAi?$AAs?$AAh?$AA?9?$AAe?$AAn?$AAg?$AAl?$AAi?$AAs?$AAh?$AA?$AA@ 1004bdb8     LIBCMT:getqloc.obj
 0002:0000add4       ??_C@_1BM@NNCFBAEE@?$AAi?$AAt?$AAa?$AAl?$AAi?$AAa?$AAn?$AA?9?$AAs?$AAw?$AAi?$AAs?$AAs?$AA?$AA@ 1004bdd4     LIBCMT:getqloc.obj
 0002:0000adf0       ??_C@_1BE@FEDJNPIB@?$AAn?$AAo?$AAr?$AAw?$AAe?$AAg?$AAi?$AAa?$AAn?$AA?$AA@ 1004bdf0     LIBCMT:getqloc.obj
 0002:0000ae04       ??_C@_1CC@CILKDEIE@?$AAn?$AAo?$AAr?$AAw?$AAe?$AAg?$AAi?$AAa?$AAn?$AA?9?$AAb?$AAo?$AAk?$AAm?$AAa?$AAl?$AA?$AA@ 1004be04     LIBCMT:getqloc.obj
 0002:0000ae28       ??_C@_1CE@DHMMHEPL@?$AAn?$AAo?$AAr?$AAw?$AAe?$AAg?$AAi?$AAa?$AAn?$AA?9?$AAn?$AAy?$AAn?$AAo?$AAr?$AAs?$AAk?$AA?$AA@ 1004be28     LIBCMT:getqloc.obj
 0002:0000ae4c       ??_C@_1CK@OPNMHECD@?$AAp?$AAo?$AAr?$AAt?$AAu?$AAg?$AAu?$AAe?$AAs?$AAe?$AA?9?$AAb?$AAr?$AAa?$AAz?$AAi?$AAl?$AAi?$AAa?$AAn?$AA?$AA@ 1004be4c     LIBCMT:getqloc.obj
 0002:0000ae78       ??_C@_1CE@KEEHCDB@?$AAs?$AAp?$AAa?$AAn?$AAi?$AAs?$AAh?$AA?9?$AAa?$AAr?$AAg?$AAe?$AAn?$AAt?$AAi?$AAn?$AAa?$AA?$AA@ 1004be78     LIBCMT:getqloc.obj
 0002:0000ae9c       ??_C@_1CA@GIAOLHJD@?$AAs?$AAp?$AAa?$AAn?$AAi?$AAs?$AAh?$AA?9?$AAb?$AAo?$AAl?$AAi?$AAv?$AAi?$AAa?$AA?$AA@ 1004be9c     LIBCMT:getqloc.obj
 0002:0000aebc       ??_C@_1BM@OJNDFNPD@?$AAs?$AAp?$AAa?$AAn?$AAi?$AAs?$AAh?$AA?9?$AAc?$AAh?$AAi?$AAl?$AAe?$AA?$AA@ 1004bebc     LIBCMT:getqloc.obj
 0002:0000aed8       ??_C@_1CC@OCOLPALL@?$AAs?$AAp?$AAa?$AAn?$AAi?$AAs?$AAh?$AA?9?$AAc?$AAo?$AAl?$AAo?$AAm?$AAb?$AAi?$AAa?$AA?$AA@ 1004bed8     LIBCMT:getqloc.obj
 0002:0000aefc       ??_C@_1CG@BPOFMKBB@?$AAs?$AAp?$AAa?$AAn?$AAi?$AAs?$AAh?$AA?9?$AAc?$AAo?$AAs?$AAt?$AAa?$AA?5?$AAr?$AAi?$AAc?$AAa?$AA?$AA@ 1004befc     LIBCMT:getqloc.obj
 0002:0000af24       ??_C@_1DG@IGOBAPBB@?$AAs?$AAp?$AAa?$AAn?$AAi?$AAs?$AAh?$AA?9?$AAd?$AAo?$AAm?$AAi?$AAn?$AAi?$AAc?$AAa?$AAn?$AA?5?$AAr?$AAe?$AAp?$AAu?$AAb?$AAl?$AAi?$AAc?$AA?$AA@ 1004bf24     LIBCMT:getqloc.obj
 0002:0000af5c       ??_C@_1CA@JHAPGEGI@?$AAs?$AAp?$AAa?$AAn?$AAi?$AAs?$AAh?$AA?9?$AAe?$AAc?$AAu?$AAa?$AAd?$AAo?$AAr?$AA?$AA@ 1004bf5c     LIBCMT:getqloc.obj
 0002:0000af7c       ??_C@_1CI@LAPALJPP@?$AAs?$AAp?$AAa?$AAn?$AAi?$AAs?$AAh?$AA?9?$AAe?$AAl?$AA?5?$AAs?$AAa?$AAl?$AAv?$AAa?$AAd?$AAo?$AAr?$AA?$AA@ 1004bf7c     LIBCMT:getqloc.obj
 0002:0000afa4       ??_C@_1CE@PDGBOFOM@?$AAs?$AAp?$AAa?$AAn?$AAi?$AAs?$AAh?$AA?9?$AAg?$AAu?$AAa?$AAt?$AAe?$AAm?$AAa?$AAl?$AAa?$AA?$AA@ 1004bfa4     LIBCMT:getqloc.obj
 0002:0000afc8       ??_C@_1CC@NBEBAODI@?$AAs?$AAp?$AAa?$AAn?$AAi?$AAs?$AAh?$AA?9?$AAh?$AAo?$AAn?$AAd?$AAu?$AAr?$AAa?$AAs?$AA?$AA@ 1004bfc8     LIBCMT:getqloc.obj
 0002:0000afec       ??_C@_1CA@LLKGHBMF@?$AAs?$AAp?$AAa?$AAn?$AAi?$AAs?$AAh?$AA?9?$AAm?$AAe?$AAx?$AAi?$AAc?$AAa?$AAn?$AA?$AA@ 1004bfec     LIBCMT:getqloc.obj
 0002:0000b00c       ??_C@_1BO@LKNDOIGD@?$AAs?$AAp?$AAa?$AAn?$AAi?$AAs?$AAh?$AA?9?$AAm?$AAo?$AAd?$AAe?$AAr?$AAn?$AA?$AA@ 1004c00c     LIBCMT:getqloc.obj
 0002:0000b02c       ??_C@_1CE@NMDMOEEB@?$AAs?$AAp?$AAa?$AAn?$AAi?$AAs?$AAh?$AA?9?$AAn?$AAi?$AAc?$AAa?$AAr?$AAa?$AAg?$AAu?$AAa?$AA?$AA@ 1004c02c     LIBCMT:getqloc.obj
 0002:0000b050       ??_C@_1BO@LLCBEJGB@?$AAs?$AAp?$AAa?$AAn?$AAi?$AAs?$AAh?$AA?9?$AAp?$AAa?$AAn?$AAa?$AAm?$AAa?$AA?$AA@ 1004c050     LIBCMT:getqloc.obj
 0002:0000b070       ??_C@_1CC@FKPGGIHO@?$AAs?$AAp?$AAa?$AAn?$AAi?$AAs?$AAh?$AA?9?$AAp?$AAa?$AAr?$AAa?$AAg?$AAu?$AAa?$AAy?$AA?$AA@ 1004c070     LIBCMT:getqloc.obj
 0002:0000b094       ??_C@_1BK@CDEIHOOP@?$AAs?$AAp?$AAa?$AAn?$AAi?$AAs?$AAh?$AA?9?$AAp?$AAe?$AAr?$AAu?$AA?$AA@ 1004c094     LIBCMT:getqloc.obj
 0002:0000b0b0       ??_C@_1CI@GAHAKKGP@?$AAs?$AAp?$AAa?$AAn?$AAi?$AAs?$AAh?$AA?9?$AAp?$AAu?$AAe?$AAr?$AAt?$AAo?$AA?5?$AAr?$AAi?$AAc?$AAo?$AA?$AA@ 1004c0b0     LIBCMT:getqloc.obj
 0002:0000b0d8       ??_C@_1CA@NKJBCAGP@?$AAs?$AAp?$AAa?$AAn?$AAi?$AAs?$AAh?$AA?9?$AAu?$AAr?$AAu?$AAg?$AAu?$AAa?$AAy?$AA?$AA@ 1004c0d8     LIBCMT:getqloc.obj
 0002:0000b0f8       ??_C@_1CE@ODILCONM@?$AAs?$AAp?$AAa?$AAn?$AAi?$AAs?$AAh?$AA?9?$AAv?$AAe?$AAn?$AAe?$AAz?$AAu?$AAe?$AAl?$AAa?$AA?$AA@ 1004c0f8     LIBCMT:getqloc.obj
 0002:0000b11c       ??_C@_1CA@OBNMCGFO@?$AAs?$AAw?$AAe?$AAd?$AAi?$AAs?$AAh?$AA?9?$AAf?$AAi?$AAn?$AAl?$AAa?$AAn?$AAd?$AA?$AA@ 1004c11c     LIBCMT:getqloc.obj
 0002:0000b13c       ??_C@_1M@PIPDDPPI@?$AAs?$AAw?$AAi?$AAs?$AAs?$AA?$AA@ 1004c13c     LIBCMT:getqloc.obj
 0002:0000b148       ??_C@_15GMFIMNFM@?$AAu?$AAs?$AA?$AA@ 1004c148     LIBCMT:getqloc.obj
 0002:0000b150       ??_C@_17HAEBFAGL@?$AAu?$AAs?$AAa?$AA?$AA@ 1004c150     LIBCMT:getqloc.obj
 0002:0000b158       ___rg_country              1004c158     LIBCMT:getqloc.obj
 0002:0000b26c       ??_C@_1BA@DPFJEPHB@?$AAa?$AAm?$AAe?$AAr?$AAi?$AAc?$AAa?$AA?$AA@ 1004c26c     LIBCMT:getqloc.obj
 0002:0000b27c       ??_C@_1BA@ELOGGFK@?$AAb?$AAr?$AAi?$AAt?$AAa?$AAi?$AAn?$AA?$AA@ 1004c27c     LIBCMT:getqloc.obj
 0002:0000b28c       ??_C@_1M@GHBGIGDA@?$AAc?$AAh?$AAi?$AAn?$AAa?$AA?$AA@ 1004c28c     LIBCMT:getqloc.obj
 0002:0000b298       ??_C@_1M@NCHEJOPO@?$AAc?$AAz?$AAe?$AAc?$AAh?$AA?$AA@ 1004c298     LIBCMT:getqloc.obj
 0002:0000b2a4       ??_C@_1BA@BKPAPBLA@?$AAe?$AAn?$AAg?$AAl?$AAa?$AAn?$AAd?$AA?$AA@ 1004c2a4     LIBCMT:getqloc.obj
 0002:0000b2b4       ??_C@_1BM@HKBCKIPC@?$AAg?$AAr?$AAe?$AAa?$AAt?$AA?5?$AAb?$AAr?$AAi?$AAt?$AAa?$AAi?$AAn?$AA?$AA@ 1004c2b4     LIBCMT:getqloc.obj
 0002:0000b2d0       ??_C@_1BA@PPCHPGJB@?$AAh?$AAo?$AAl?$AAl?$AAa?$AAn?$AAd?$AA?$AA@ 1004c2d0     LIBCMT:getqloc.obj
 0002:0000b2e0       ??_C@_1BE@JBMPEGDG@?$AAh?$AAo?$AAn?$AAg?$AA?9?$AAk?$AAo?$AAn?$AAg?$AA?$AA@ 1004c2e0     LIBCMT:getqloc.obj
 0002:0000b2f4       ??_C@_1BI@KOELBBPJ@?$AAn?$AAe?$AAw?$AA?9?$AAz?$AAe?$AAa?$AAl?$AAa?$AAn?$AAd?$AA?$AA@ 1004c2f4     LIBCMT:getqloc.obj
 0002:0000b30c       ??_C@_15HIEBHAIO@?$AAn?$AAz?$AA?$AA@ 1004c30c     LIBCMT:getqloc.obj
 0002:0000b314       ??_C@_1BC@CHBCPFPI@?$AAp?$AAr?$AA?5?$AAc?$AAh?$AAi?$AAn?$AAa?$AA?$AA@ 1004c314     LIBCMT:getqloc.obj
 0002:0000b328       ??_C@_1BC@JAOIIFKD@?$AAp?$AAr?$AA?9?$AAc?$AAh?$AAi?$AAn?$AAa?$AA?$AA@ 1004c328     LIBCMT:getqloc.obj
 0002:0000b33c       ??_C@_1BI@BEHPPHKC@?$AAp?$AAu?$AAe?$AAr?$AAt?$AAo?$AA?9?$AAr?$AAi?$AAc?$AAo?$AA?$AA@ 1004c33c     LIBCMT:getqloc.obj
 0002:0000b354       ??_C@_1O@PAEOFKDI@?$AAs?$AAl?$AAo?$AAv?$AAa?$AAk?$AA?$AA@ 1004c354     LIBCMT:getqloc.obj
 0002:0000b364       ??_C@_1BK@FIHMCKAM@?$AAs?$AAo?$AAu?$AAt?$AAh?$AA?5?$AAa?$AAf?$AAr?$AAi?$AAc?$AAa?$AA?$AA@ 1004c364     LIBCMT:getqloc.obj
 0002:0000b380       ??_C@_1BI@NAEOODKB@?$AAs?$AAo?$AAu?$AAt?$AAh?$AA?5?$AAk?$AAo?$AAr?$AAe?$AAa?$AA?$AA@ 1004c380     LIBCMT:getqloc.obj
 0002:0000b398       ??_C@_1BK@FBDGGIFF@?$AAs?$AAo?$AAu?$AAt?$AAh?$AA?9?$AAa?$AAf?$AAr?$AAi?$AAc?$AAa?$AA?$AA@ 1004c398     LIBCMT:getqloc.obj
 0002:0000b3b4       ??_C@_1BI@GHLEJDPK@?$AAs?$AAo?$AAu?$AAt?$AAh?$AA?9?$AAk?$AAo?$AAr?$AAe?$AAa?$AA?$AA@ 1004c3b4     LIBCMT:getqloc.obj
 0002:0000b3cc       ??_C@_1CE@PLHLOMJF@?$AAt?$AAr?$AAi?$AAn?$AAi?$AAd?$AAa?$AAd?$AA?5?$AA?$CG?$AA?5?$AAt?$AAo?$AAb?$AAa?$AAg?$AAo?$AA?$AA@ 1004c3cc     LIBCMT:getqloc.obj
 0002:0000b3f0       ??_C@_1BO@MODIMHHI@?$AAu?$AAn?$AAi?$AAt?$AAe?$AAd?$AA?9?$AAk?$AAi?$AAn?$AAg?$AAd?$AAo?$AAm?$AA?$AA@ 1004c3f0     LIBCMT:getqloc.obj
 0002:0000b410       ??_C@_1BM@FFHJONBJ@?$AAu?$AAn?$AAi?$AAt?$AAe?$AAd?$AA?9?$AAs?$AAt?$AAa?$AAt?$AAe?$AAs?$AA?$AA@ 1004c410     LIBCMT:getqloc.obj
 0002:0000b42c       ___rg_language_count       1004c42c     LIBCMT:getqloc.obj
 0002:0000b430       ___rg_country_count        1004c430     LIBCMT:getqloc.obj
 0002:0000b434       ??_C@_17DNCLJFIF@?$AAA?$AAC?$AAP?$AA?$AA@ 1004c434     LIBCMT:getqloc.obj
 0002:0000b43c       ??_C@_17CIKBIHLH@?$AAO?$AAC?$AAP?$AA?$AA@ 1004c43c     LIBCMT:getqloc.obj
 0002:0000b444       ___rglangidNotDefault      1004c444     LIBCMT:getqloc_downlevel.obj
 0002:0000b458       __real@00000000            1004c458     LIBCMT:wcstoq.obj
 0002:0000b460       __load_config_used         1004c460     LIBCMT:loadcfg.obj
 0002:0000cb90       ___safe_se_handler_table   1004db90     <linker-defined>
 0002:0000cca0       ___rtc_iaa                 1004dca0     LIBCMT:initsect.obj
 0002:0000cda4       ___rtc_izz                 1004dda4     LIBCMT:initsect.obj
 0002:0000cea8       ___rtc_taa                 1004dea8     LIBCMT:initsect.obj
 0002:0000cfac       ___rtc_tzz                 1004dfac     LIBCMT:initsect.obj
 0003:00000300       _backup_test2_P            1004f300     backup_test2_data.obj
 0003:00001070       _pci20041digout            10050070     xpctarget.obj
 0003:00001074       _nipcdio24cnfg             10050074     xpctarget.obj
 0003:00001078       _rtddm6604cnfg             10050078     xpctarget.obj
 0003:0000119c       _DefaultCOMIOBase          1005019c     xpcruntime:xpcimports.obj
 0003:000011ac       _DefaultCOMIRQ             100501ac     xpcruntime:xpcimports.obj
 0003:000011c0       __fltused                  100501c0     LIBCMT:fpinit.obj
 0003:000011c4       __ldused                   100501c4     LIBCMT:fpinit.obj
 0003:000011d0       __iob                      100501d0     LIBCMT:_file.obj
 0003:00001450       ___isa_enabled             10050450     LIBCMT:cpu_disp.obj
 0003:00001454       ___security_cookie         10050454     LIBCMT:gs_cookie.obj
 0003:00001458       ___security_cookie_complement 10050458     LIBCMT:gs_cookie.obj
 0003:00001630       ___nullstring              10050630     LIBCMT:output.obj
 0003:00001634       ___wnullstring             10050634     LIBCMT:output.obj
 0003:00001644       __cfltcvt_tab              10050644     LIBCMT:cmiscdat.obj
 0003:00001790       __mbctype                  10050790     LIBCMT:mbctype.obj
 0003:00001898       __mbcasemap                10050898     LIBCMT:mbctype.obj
 0003:00001998       ___initialmbcinfo          10050998     LIBCMT:mbctype.obj
 0003:00001bbc       ___ptmbcinfo               10050bbc     LIBCMT:mbctype.obj
 0003:00001cb0       ___badioinfo               10050cb0     LIBCMT:ioinit.obj
 0003:00001cf0       __lookuptrailbytes         10050cf0     LIBCMT:read.obj
 0003:00001df0       __d_inf                    10050df0     LIBCMT:util.obj
 0003:00001df8       __d_ind                    10050df8     LIBCMT:util.obj
 0003:00001e00       __d_max                    10050e00     LIBCMT:util.obj
 0003:00001e08       __d_min                    10050e08     LIBCMT:util.obj
 0003:00001e10       __d_mzero                  10050e10     LIBCMT:util.obj
 0003:00001f1c       ___abort_behavior          10050f1c     LIBCMT:abort.obj
 0003:00001f20       ___flsindex                10050f20     LIBCMT:tidtable.obj
 0003:00001f30       ___mb_cur_max              10050f30     LIBCMT:nlsdata.obj
 0003:00001f34       ___wclocalestr             10050f34     LIBCMT:nlsdata.obj
 0003:00001f38       ___lc_time_c               10050f38     LIBCMT:nlsdata.obj
 0003:0000209c       ___ptlocinfo               1005109c     LIBCMT:nlsdata.obj
 0003:000020a0       ___initiallocinfo          100510a0     LIBCMT:nlsdata.obj
 0003:00002158       ___initiallocalestructinfo 10051158     LIBCMT:nlsdata.obj
 0003:00002160       ___globallocalestatus      10051160     LIBCMT:glstatus.obj
 0003:00002164       __matherr_flag             10051164     LIBCMT:matherr.obj
 0003:00002170       __NLG_Destination          10051170     LIBCMT:exsup.obj
 0003:00002180       ___lconv                   10051180     LIBCMT:lconv.obj
 0003:00002184       ___lconv_static_decimal    10051184     LIBCMT:lconv.obj
 0003:00002188       ___lconv_c                 10051188     LIBCMT:lconv.obj
 0003:000021d8       ___lconv_static_W_decimal  100511d8     LIBCMT:lconv.obj
 0003:000021dc       __pctype                   100511dc     LIBCMT:ctype.obj
 0003:000021e0       __pwctype                  100511e0     LIBCMT:ctype.obj
 0003:00002220       __confh                    10051220     LIBCMT:initcon.obj
 0003:00002228       __pow10pos                 10051228     LIBCMT:constpow.obj
 0003:00002388       __pow10neg                 10051388     LIBCMT:constpow.obj
 0003:000024f0       __HUGE                     100514f0     LIBCMT:huge.obj
 0003:00002a3c       ___isa_available_default   10051a3c     rt_logging.obj
 0003:00002a4c       _pci20098PortA             10051a4c     xpctarget.obj
 0003:00002a50       _pci20098PortB             10051a50     xpctarget.obj
 0003:00002a54       _siepowercan_firmware_initialized 10051a54     xpctarget.obj
 0003:00002a58       _siepowercan_port1_configured 10051a58     xpctarget.obj
 0003:00002a5c       _siepowercan_port2_configured 10051a5c     xpctarget.obj
 0003:00002a60       _CANAC2_FIRMWARE_LOADED    10051a60     xpctarget.obj
 0003:00002a64       _rs232ports                10051a64     xpctarget.obj
 0003:00002a74       _NI_AT_MIO_16F_5_commreg2  10051a74     xpctarget.obj
 0003:00002a78       _RTD_DM6430_init           10051a78     xpctarget.obj
 0003:00002a7c       _RTD_DM6420_init           10051a7c     xpctarget.obj
 0003:00002a80       _CANAC2_FIRMWARE_LOADED_mb1 10051a80     xpctarget.obj
 0003:00002a84       _CANAC2_FIRMWARE_LOADED_mb2 10051a84     xpctarget.obj
 0003:00002a88       _CANAC2_FIRMWARE_LOADED_mb3 10051a88     xpctarget.obj
 0003:00002a8c       _xmlsize                   10051a8c     xpctarget.obj
 0003:000030d0       ___fastflag                100520d0     LIBCMT:fpinit.obj
 0003:000033f8       __C_Exit_Done              100523f8     LIBCMT:crt0dat.obj
 0003:000033fc       ___argc                    100523fc     LIBCMT:crt0dat.obj
 0003:00003400       ___argv                    10052400     LIBCMT:crt0dat.obj
 0003:00003404       ___wargv                   10052404     LIBCMT:crt0dat.obj
 0003:00003408       __environ                  10052408     LIBCMT:crt0dat.obj
 0003:0000340c       __wenviron                 1005240c     LIBCMT:crt0dat.obj
 0003:00003410       __pgmptr                   10052410     LIBCMT:crt0dat.obj
 0003:00003414       __wpgmptr                  10052414     LIBCMT:crt0dat.obj
 0003:00003418       __umaskval                 10052418     LIBCMT:crt0dat.obj
 0003:0000341c       __exitflag                 1005241c     LIBCMT:crt0dat.obj
 0003:00003420       __C_Termination_Done       10052420     LIBCMT:crt0dat.obj
 0003:00003424       ___winitenv                10052424     LIBCMT:crt0dat.obj
 0003:00003428       ___initenv                 10052428     LIBCMT:crt0dat.obj
 0003:0000342c       __cflush                   1005242c     LIBCMT:_file.obj
 0003:00003430       ___isa_available           10052430     LIBCMT:cpu_disp.obj
 0003:00003434       ___favor                   10052434     LIBCMT:cpu_disp.obj
 0003:0000343c       __aenvptr                  1005243c     LIBCMT:dllcrt0.obj
 0003:00003440       __wenvptr                  10052440     LIBCMT:dllcrt0.obj
 0003:00003444       ?_pnhHeap@@3P6AHI@ZA       10052444     LIBCMT:handler.obj
 0003:00003448       ___app_type                10052448     LIBCMT:crt0msg.obj
 0003:00003a78       __newmode                  10052a78     LIBCMT:_newmode.obj
 0003:00003a7c       __crtheap                  10052a7c     LIBCMT:heapinit.obj
 0003:00003a80       ___pInvalidArgHandler      10052a80     LIBCMT:invarg.obj
 0003:00003a84       __stdbuf                   10052a84     LIBCMT:_sftbuf.obj
 0003:00003be0       __maxwait                  10052be0     LIBCMT:crtheap.obj
 0003:00003be4       ?__pInconsistency@@3P6AXXZA 10052be4     LIBCMT:hooks.obj
 0003:00003be8       ___pPurecall               10052be8     LIBCMT:inithelp.obj
 0003:00003c04       ___mbcodepage              10052c04     LIBCMT:mbctype.obj
 0003:00003c08       ___ismbcodepage            10052c08     LIBCMT:mbctype.obj
 0003:00003c0c       ___mbulinfo                10052c0c     LIBCMT:mbctype.obj
 0003:00003c18       ___mblocalename            10052c18     LIBCMT:mbctype.obj
 0003:00003c20       ___pioinfo                 10052c20     LIBCMT:ioinit.obj
 0003:00003d20       ___error_mode              10052d20     LIBCMT:errmode.obj
 0003:00003e40       __outputformat             10052e40     LIBCMT:outputformat.obj
 0003:00003e48       __commode                  10052e48     LIBCMT:ncommode.obj
 0003:00003e4c       ___lconv_static_null       10052e4c     LIBCMT:lconv.obj
 0003:00003e50       ___lconv_static_W_null     10052e50     LIBCMT:lconv.obj
 0003:00003e54       ___locale_changed          10052e54     LIBCMT:wsetloca.obj
 0003:00003e58       __fmode                    10052e58     LIBCMT:txtmode.obj
 0003:00003e60       _CANAC2_2_receiveindex_mb3 10052e60     <common>
 0003:00006f34       _CANAC2_2_receivemaxindex_mb3 10055f34     <common>
 0003:00006f40       _CANAC2_2_sendindex_mb3    10055f40     <common>
 0003:00007260       _CANAC2_2_sendmaxindex_mb3 10056260     <common>
 0003:00007280       _CANAC2_1_receiveindex_mb3 10056280     <common>
 0003:000075a0       _CANAC2_1_receivemaxindex_mb3 100565a0     <common>
 0003:000075c0       _CANAC2_1_sendindex_mb3    100565c0     <common>
 0003:000078e0       _CANAC2_1_sendmaxindex_mb3 100568e0     <common>
 0003:00007900       _CANAC2_2_receive_mb3      10056900     <common>
 0003:00007c20       _CANAC2_2_send_mb3         10056c20     <common>
 0003:00007f40       _CANAC2_1_receive_mb3      10056f40     <common>
 0003:00008260       _CANAC2_1_send_mb3         10057260     <common>
 0003:00008580       _CANAC2_2_receiveindex_mb2 10057580     <common>
 0003:000088a0       _CANAC2_2_receivemaxindex_mb2 100578a0     <common>
 0003:000088c0       _CANAC2_2_sendindex_mb2    100578c0     <common>
 0003:00008be0       _CANAC2_2_sendmaxindex_mb2 10057be0     <common>
 0003:00008c00       _CANAC2_1_receiveindex_mb2 10057c00     <common>
 0003:00008f20       _CANAC2_1_receivemaxindex_mb2 10057f20     <common>
 0003:00008f40       _CANAC2_1_sendindex_mb2    10057f40     <common>
 0003:00009260       _CANAC2_1_sendmaxindex_mb2 10058260     <common>
 0003:00009280       _CANAC2_2_receive_mb2      10058280     <common>
 0003:000095a0       _CANAC2_2_send_mb2         100585a0     <common>
 0003:000098c0       _CANAC2_1_receive_mb2      100588c0     <common>
 0003:00009be0       _CANAC2_1_send_mb2         10058be0     <common>
 0003:00009f00       _CANAC2_2_receiveindex_mb1 10058f00     <common>
 0003:0000a220       _CANAC2_2_receivemaxindex_mb1 10059220     <common>
 0003:0000a240       _CANAC2_2_sendindex_mb1    10059240     <common>
 0003:0000a560       _CANAC2_2_sendmaxindex_mb1 10059560     <common>
 0003:0000a580       _CANAC2_1_receiveindex_mb1 10059580     <common>
 0003:0000a8a0       _CANAC2_1_receivemaxindex_mb1 100598a0     <common>
 0003:0000a8c0       _CANAC2_1_sendindex_mb1    100598c0     <common>
 0003:0000abe0       _CANAC2_1_sendmaxindex_mb1 10059be0     <common>
 0003:0000ac00       _CANAC2_2_receive_mb1      10059c00     <common>
 0003:0000af20       _CANAC2_2_send_mb1         10059f20     <common>
 0003:0000b240       _CANAC2_1_receive_mb1      1005a240     <common>
 0003:0000b560       _CANAC2_1_send_mb1         1005a560     <common>
 0003:0000b880       _CANAC2_2_receiveindex     1005a880     <common>
 0003:0000bba0       _CANAC2_2_receivemaxindex  1005aba0     <common>
 0003:0000bbc0       _CANAC2_2_sendindex        1005abc0     <common>
 0003:0000bee0       _CANAC2_2_sendmaxindex     1005aee0     <common>
 0003:0000bf00       _CANAC2_1_receiveindex     1005af00     <common>
 0003:0000c220       _CANAC2_1_receivemaxindex  1005b220     <common>
 0003:0000c240       _CANAC2_1_sendindex        1005b240     <common>
 0003:0000c560       _CANAC2_1_sendmaxindex     1005b560     <common>
 0003:0000c580       _CANAC2_2_receive          1005b580     <common>
 0003:0000c8a0       _CANAC2_2_send             1005b8a0     <common>
 0003:0000cbc0       _CANAC2_1_receive          1005bbc0     <common>
 0003:0000cee0       _CANAC2_1_send             1005bee0     <common>
 0003:0000d200       _siepowercan_can_object_buffer_port2 1005c200     <common>
 0003:00011220       _siepowercan_can_object_buffer_port1 10060220     <common>
 0003:00015220       _rtNaNF                    10064220     <common>
 0003:00015234       _rtMinusInfF               10064234     <common>
 0003:00015238       _rtInfF                    10064238     <common>
 0003:00015240       _rtNaN                     10064240     <common>
 0003:00015248       _rtMinusInf                10064248     <common>
 0003:00015250       _rtInf                     10064250     <common>
 0003:00015260       _backup_test2_M_           10064260     <common>
 0003:00017c60       _backup_test2_DW           10066c60     <common>
 0003:00017da0       _backup_test2_B            10066da0     <common>
 0003:00017e80       _xpceaddEvent              10066e80     <common>
 0003:00017ed0       _xpceDeRegisterISR         10066ed0     <common>
 0003:00017ed4       _xpceRegisterISR           10066ed4     <common>
 0003:00017ed8       _xpcIsModelInit            10066ed8     <common>
 0003:00017edc       _xpcGetElapsedTime         10066edc     <common>
 0003:00017ee0       _xpcBusyWait               10066ee0     <common>
 0003:00017ee4       _xpcFreePhysicalMemory     10066ee4     <common>
 0003:00017ee8       _xpcAllocPhysicalMemory    10066ee8     <common>
 0003:00017eec       _xpcReserveMemoryRegion    10066eec     <common>
 0003:00017ef0       _xpcOutpB                  10066ef0     <common>
 0003:00017ef4       _xpcOutpW                  10066ef4     <common>
 0003:00017ef8       _xpcOutpDW                 10066ef8     <common>
 0003:00017efc       _xpcInpB                   10066efc     <common>
 0003:00017f00       _xpcInpW                   10066f00     <common>
 0003:00017f04       _xpcInpDW                  10066f04     <common>
 0003:00017f08       _slTestRegAssessment       10066f08     <common>
 0003:00017f0c       _slTestTerminate           10066f0c     <common>
 0003:00017f10       _slTestEvalOnFail          10066f10     <common>
 0003:00017f14       _slTestLogAssessments      10066f14     <common>
 0003:00017f18       _slTestInitialize          10066f18     <common>
 0003:00017f1c       _unRegisterPTPTimeRead     10066f1c     <common>
 0003:00017f20       _registerPTPTimeRead       10066f20     <common>
 0003:00017f24       _slrteGetCurrentStepSize   10066f24     <common>
 0003:00017f28       _slrteSetStepSizeDelta     10066f28     <common>
 0003:00017f2c       _xpceGetIntTimerGranularityNS 10066f2c     <common>
 0003:00017f30       _sendToAsyncQueueTgtAppSvc 10066f30     <common>
 0003:00017f34       _terminateToAsyncQueueTgtAppSvc 10066f34     <common>
 0003:00017f38       _startToAsyncQueueTgtAppSvc 10066f38     <common>
 0003:00017f3c       _getStatusFlags            10066f3c     <common>
 0003:00017f40       _getCommService            10066f40     <common>
 0003:00017f44       _getMemoryService          10066f44     <common>
 0003:00017f48       _StreamVideo               10066f48     <common>
 0003:00017f4c       _StopVideoDisplay          10066f4c     <common>
 0003:00017f50       _StartVideoDisplay         10066f50     <common>
 0003:00017f54       _DestroyVideoDisplay       10066f54     <common>
 0003:00017f58       _CreateVideoDisplay        10066f58     <common>
 0003:00017f5c       _ConvertUImage             10066f5c     <common>
 0003:00017f60       _StopVideo                 10066f60     <common>
 0003:00017f64       _ReadFrameBuffer           10066f64     <common>
 0003:00017f68       _StartVideo                10066f68     <common>
 0003:00017f6c       _GetVideoConfigs           10066f6c     <common>
 0003:00017f70       _FindUsbVideoDevice        10066f70     <common>
 0003:00017f74       _xpceDeleteSemaphore       10066f74     <common>
 0003:00017f78       _xpceSignalSemaphore       10066f78     <common>
 0003:00017f7c       _xpceWaitSemaphore         10066f7c     <common>
 0003:00017f80       _xpceCreateSemaphore       10066f80     <common>
 0003:00017f84       _TBGiveSpinFast            10066f84     <common>
 0003:00017f88       _TBTakeSpinFast            10066f88     <common>
 0003:00017f8c       _TBDeleteSpin              10066f8c     <common>
 0003:00017f90       _TBCreateSpin              10066f90     <common>
 0003:00017f94       _xpceScopeAcqOK            10066f94     <common>
 0003:00017f98       _rl32eRestartAcquisition   10066f98     <common>
 0003:00017f9c       _rl32eSetTargetScopeSigFt  10066f9c     <common>
 0003:00017fa0       _rl32eSetTargetScope       10066fa0     <common>
 0003:00017fa4       _xpceFSScopeSet            10066fa4     <common>
 0003:00017fa8       _rl32eSetScope             10066fa8     <common>
 0003:00017fac       _rl32eAddSignal            10066fac     <common>
 0003:00017fb0       _rl32eGetSignalNo          10066fb0     <common>
 0003:00017fb4       _rl32eDefScope             10066fb4     <common>
 0003:00017fb8       _rl32eScopeExists          10066fb8     <common>
 0003:00017fbc       _xpceUDPClose              10066fbc     <common>
 0003:00017fc0       _xpceUDPReceive            10066fc0     <common>
 0003:00017fc4       _xpceUDPSend               10066fc4     <common>
 0003:00017fc8       _xpceUDPOpenReceive        10066fc8     <common>
 0003:00017fcc       _xpceUDPOpenSend           10066fcc     <common>
 0003:00017fd0       _rl32eSendBlock            10066fd0     <common>
 0003:00017fd4       _rl32eLineStatus           10066fd4     <common>
 0003:00017fd8       _rl32eReceiveBufferCount   10066fd8     <common>
 0003:00017fdc       _rl32eReceiveChar          10066fdc     <common>
 0003:00017fe0       _rl32eSendChar             10066fe0     <common>
 0003:00017fe4       _rl32eCloseCOMPort         10066fe4     <common>
 0003:00017fe8       _rl32eInitCOMPort          10066fe8     <common>
 0003:00017fec       _xpceGetParamDims          10066fec     <common>
 0003:00017ff0       _xpceGetParameter          10066ff0     <common>
 0003:00017ff4       _xpceSetParameter          10066ff4     <common>
 0003:00017ff8       _xpceGetSignalValue        10066ff8     <common>
 0003:00017ffc       _xpceAssignPCIInterrupt    10066ffc     <common>
 0003:00018000       _rl32eGetPCIInfoAtSlot     10067000     <common>
 0003:00018004       _rl32eGetPCIInfo           10067004     <common>
 0003:00018008       _rl32eShowPCIInfo          10067008     <common>
 0003:0001800c       _rl32eShowPCIDev           1006700c     <common>
 0003:00018010       _xpceGetTET                10067010     <common>
 0003:00018014       _xpceFTSubtract            10067014     <common>
 0003:00018018       _xpceFTAdd                 10067018     <common>
 0003:0001801c       _xpceFTReadTime            1006701c     <common>
 0003:00018020       ___unguarded_readlc_active 10067020     <common>
 0003:00018030       ___setlc_active            10067030     <common>
 0003:00018034       __nhandle                  10067034     <common>
 0003:00018040       _encodedKERNEL32Functions  10067040     <common>
 0003:000180e8       __debugger_hook_dummy      100670e8     <common>
 0003:000180f4       ___use_sse2_mathfcns       100670f4     <common>
 0003:00018100       __pmatherr                 10067100     <common>
 0003:0001810c       __pDestructExceptionObject 1006710c     <common>
 0003:00018118       __acmdln                   10067118     <common>
 0003:00018140       __bufin                    10067140     <common>
 0003:0001947c       ___piob                    1006847c     <common>
 0003:00019480       __nstream                  10068480     <common>
 0003:00019484       ___dyn_tls_init_callback   10068484     <common>
 0003:00019494       ___onexitend               10068494     <common>
 0003:00019498       ___onexitbegin             10068498     <common>
 0003:0001949c       ___mbctype_initialized     1006849c     <common>
 0003:000194a0       ___env_initialized         100684a0     <common>
 0004:00000000       __imp__GetModuleHandleA@4  10069000     kernel32:KERNEL32.dll
 0004:00000004       __imp__GetProcAddress@8    10069004     kernel32:KERNEL32.dll
 0004:00000008       __imp__HeapAlloc@12        10069008     kernel32:KERNEL32.dll
 0004:0000000c       __imp__IsDebuggerPresent@0 1006900c     kernel32:KERNEL32.dll
 0004:00000010       __imp__IsProcessorFeaturePresent@4 10069010     kernel32:KERNEL32.dll
 0004:00000014       __imp__EncodePointer@4     10069014     kernel32:KERNEL32.dll
 0004:00000018       __imp__DecodePointer@4     10069018     kernel32:KERNEL32.dll
 0004:0000001c       __imp__GetLastError@0      1006901c     kernel32:KERNEL32.dll
 0004:00000020       __imp__ExitProcess@4       10069020     kernel32:KERNEL32.dll
 0004:00000024       __imp__GetModuleHandleExW@12 10069024     kernel32:KERNEL32.dll
 0004:00000028       __imp__AreFileApisANSI@0   10069028     kernel32:KERNEL32.dll
 0004:0000002c       __imp__MultiByteToWideChar@24 1006902c     kernel32:KERNEL32.dll
 0004:00000030       __imp__WideCharToMultiByte@32 10069030     kernel32:KERNEL32.dll
 0004:00000034       __imp__HeapFree@12         10069034     kernel32:KERNEL32.dll
 0004:00000038       __imp__HeapReAlloc@16      10069038     kernel32:KERNEL32.dll
 0004:0000003c       __imp__EnterCriticalSection@4 1006903c     kernel32:KERNEL32.dll
 0004:00000040       __imp__LeaveCriticalSection@4 10069040     kernel32:KERNEL32.dll
 0004:00000044       __imp__GetStdHandle@4      10069044     kernel32:KERNEL32.dll
 0004:00000048       __imp__GetFileType@4       10069048     kernel32:KERNEL32.dll
 0004:0000004c       __imp__GetModuleFileNameW@12 1006904c     kernel32:KERNEL32.dll
 0004:00000050       __imp__WriteConsoleW@20    10069050     kernel32:KERNEL32.dll
 0004:00000054       __imp__GetCommandLineA@0   10069054     kernel32:KERNEL32.dll
 0004:00000058       __imp__GetCurrentThreadId@0 10069058     kernel32:KERNEL32.dll
 0004:0000005c       __imp__WriteFile@20        1006905c     kernel32:KERNEL32.dll
 0004:00000060       __imp__GetProcessHeap@0    10069060     kernel32:KERNEL32.dll
 0004:00000064       __imp__UnhandledExceptionFilter@4 10069064     kernel32:KERNEL32.dll
 0004:00000068       __imp__SetUnhandledExceptionFilter@4 10069068     kernel32:KERNEL32.dll
 0004:0000006c       __imp__SetLastError@4      1006906c     kernel32:KERNEL32.dll
 0004:00000070       __imp__InitializeCriticalSectionAndSpinCount@8 10069070     kernel32:KERNEL32.dll
 0004:00000074       __imp__CreateEventW@16     10069074     kernel32:KERNEL32.dll
 0004:00000078       __imp__Sleep@4             10069078     kernel32:KERNEL32.dll
 0004:0000007c       __imp__GetCurrentProcess@0 1006907c     kernel32:KERNEL32.dll
 0004:00000080       __imp__TerminateProcess@8  10069080     kernel32:KERNEL32.dll
 0004:00000084       __imp__TlsAlloc@0          10069084     kernel32:KERNEL32.dll
 0004:00000088       __imp__TlsGetValue@4       10069088     kernel32:KERNEL32.dll
 0004:0000008c       __imp__TlsSetValue@8       1006908c     kernel32:KERNEL32.dll
 0004:00000090       __imp__TlsFree@4           10069090     kernel32:KERNEL32.dll
 0004:00000094       __imp__GetStartupInfoW@4   10069094     kernel32:KERNEL32.dll
 0004:00000098       __imp__GetTickCount@0      10069098     kernel32:KERNEL32.dll
 0004:0000009c       __imp__GetModuleHandleW@4  1006909c     kernel32:KERNEL32.dll
 0004:000000a0       __imp__CreateSemaphoreW@16 100690a0     kernel32:KERNEL32.dll
 0004:000000a4       __imp__DeleteCriticalSection@4 100690a4     kernel32:KERNEL32.dll
 0004:000000a8       __imp__FatalAppExitA@8     100690a8     kernel32:KERNEL32.dll
 0004:000000ac       __imp__SetConsoleCtrlHandler@8 100690ac     kernel32:KERNEL32.dll
 0004:000000b0       __imp__FreeLibrary@4       100690b0     kernel32:KERNEL32.dll
 0004:000000b4       __imp__LoadLibraryExW@12   100690b4     kernel32:KERNEL32.dll
 0004:000000b8       __imp__IsValidCodePage@4   100690b8     kernel32:KERNEL32.dll
 0004:000000bc       __imp__GetACP@0            100690bc     kernel32:KERNEL32.dll
 0004:000000c0       __imp__GetOEMCP@0          100690c0     kernel32:KERNEL32.dll
 0004:000000c4       __imp__GetCPInfo@8         100690c4     kernel32:KERNEL32.dll
 0004:000000c8       __imp__CloseHandle@4       100690c8     kernel32:KERNEL32.dll
 0004:000000cc       __imp__RtlUnwind@16        100690cc     kernel32:KERNEL32.dll
 0004:000000d0       __imp__ReadFile@20         100690d0     kernel32:KERNEL32.dll
 0004:000000d4       __imp__GetConsoleMode@8    100690d4     kernel32:KERNEL32.dll
 0004:000000d8       __imp__ReadConsoleW@20     100690d8     kernel32:KERNEL32.dll
 0004:000000dc       __imp__GetConsoleCP@0      100690dc     kernel32:KERNEL32.dll
 0004:000000e0       __imp__DeleteFileW@4       100690e0     kernel32:KERNEL32.dll
 0004:000000e4       __imp__SetFilePointerEx@20 100690e4     kernel32:KERNEL32.dll
 0004:000000e8       __imp__RaiseException@16   100690e8     kernel32:KERNEL32.dll
 0004:000000ec       __imp__OutputDebugStringW@4 100690ec     kernel32:KERNEL32.dll
 0004:000000f0       __imp__GetCurrentThread@0  100690f0     kernel32:KERNEL32.dll
 0004:000000f4       __imp__GetModuleFileNameA@12 100690f4     kernel32:KERNEL32.dll
 0004:000000f8       __imp__QueryPerformanceCounter@4 100690f8     kernel32:KERNEL32.dll
 0004:000000fc       __imp__GetCurrentProcessId@0 100690fc     kernel32:KERNEL32.dll
 0004:00000100       __imp__GetSystemTimeAsFileTime@4 10069100     kernel32:KERNEL32.dll
 0004:00000104       __imp__GetEnvironmentStringsW@0 10069104     kernel32:KERNEL32.dll
 0004:00000108       __imp__FreeEnvironmentStringsW@4 10069108     kernel32:KERNEL32.dll
 0004:0000010c       __imp__HeapSize@12         1006910c     kernel32:KERNEL32.dll
 0004:00000110       __imp__GetDateFormatW@24   10069110     kernel32:KERNEL32.dll
 0004:00000114       __imp__GetTimeFormatW@24   10069114     kernel32:KERNEL32.dll
 0004:00000118       __imp__CompareStringW@24   10069118     kernel32:KERNEL32.dll
 0004:0000011c       __imp__LCMapStringW@24     1006911c     kernel32:KERNEL32.dll
 0004:00000120       __imp__GetLocaleInfoW@16   10069120     kernel32:KERNEL32.dll
 0004:00000124       __imp__IsValidLocale@8     10069124     kernel32:KERNEL32.dll
 0004:00000128       __imp__GetUserDefaultLCID@0 10069128     kernel32:KERNEL32.dll
 0004:0000012c       __imp__EnumSystemLocalesW@8 1006912c     kernel32:KERNEL32.dll
 0004:00000130       __imp__GetStringTypeW@16   10069130     kernel32:KERNEL32.dll
 0004:00000134       __imp__FlushFileBuffers@4  10069134     kernel32:KERNEL32.dll
 0004:00000138       __imp__SetStdHandle@8      10069138     kernel32:KERNEL32.dll
 0004:0000013c       __imp__CreateFileW@28      1006913c     kernel32:KERNEL32.dll
 0004:00000140       __imp__SetEndOfFile@4      10069140     kernel32:KERNEL32.dll
 0004:00000144       \177KERNEL32_NULL_THUNK_DATA 10069144     kernel32:KERNEL32.dll
 0004:000001b0       __IMPORT_DESCRIPTOR_KERNEL32 100691b0     kernel32:KERNEL32.dll
 0004:000001c4       __NULL_IMPORT_DESCRIPTOR   100691c4     kernel32:KERNEL32.dll

 entry point at        0001:00016163

