 Registration_Estimation_xpc

 Timestamp is 584a7bd7 (Fri Dec 09 04:39:35 2016)

 Preferred load address is 10000000

 Start         Length     Name                   Class
 0001:00000000 00040481H .text$mn                CODE
 0002:00000000 00000104H .CRT$XCA                DATA
 0002:00000104 00000104H .CRT$XCZ                DATA
 0002:00000208 00000104H .CRT$XIA                DATA
 0002:0000030c 00000118H .CRT$XIC                DATA
 0002:00000424 00000104H .CRT$XIZ                DATA
 0002:00000528 00000104H .CRT$XPA                DATA
 0002:0000062c 00000109H .CRT$XPX                DATA
 0002:00000738 00000104H .CRT$XPXA               DATA
 0002:0000083c 00000104H .CRT$XPZ                DATA
 0002:00000940 00000104H .CRT$XTA                DATA
 0002:00000a44 00000104H .CRT$XTZ                DATA
 0002:00000b50 0000ce0eH .rdata                  DATA
 0002:0000d960 000001b1H .rdata$debug            DATA
 0002:0000db20 0000010eH .rdata$sxdata           DATA
 0002:0000dc30 00000104H .rtc$IAA                DATA
 0002:0000dd34 00000104H .rtc$IZZ                DATA
 0002:0000de38 00000104H .rtc$TAA                DATA
 0002:0000df3c 00000104H .rtc$TZZ                DATA
 0002:0000e040 00000991H .xdata$x                DATA
 0002:0000e9e0 00000227H .edata                  DATA
 0003:00000000 00002fbdH .data                   DATA
 0003:00002fc0 00017ce4H .bss                    DATA
 0004:00000000 000001b0H .idata$5                DATA
 0004:000001b0 00000014H .idata$2                DATA
 0004:000001c4 00000014H .idata$3                DATA
 0004:000001d8 000001b0H .idata$4                DATA
 0004:00000388 0000076bH .idata$6                DATA

  Address         Publics by Value              Rva+Base       Lib:Object

 0000:00000000       ___guard_fids_table        00000000     <absolute>
 0000:00000000       __except_list              00000000     <absolute>
 0000:00000000       ___guard_fids_count        00000000     <absolute>
 0000:00000000       ___guard_flags             00000000     <absolute>
 0000:00000003       ___safe_se_handler_count   00000003     <absolute>
 0000:00000000       ___ImageBase               10000000     <linker-defined>
 0001:00000330       _MdlInitialize             10001330 f   Registration_Estimation.obj
 0001:00000340       _MdlInitializeSampleTimes  10001340 f   Registration_Estimation.obj
 0001:00000350       _MdlInitializeSizes        10001350 f   Registration_Estimation.obj
 0001:00000360       _MdlOutputs                10001360 f   Registration_Estimation.obj
 0001:00000370       _MdlStart                  10001370 f   Registration_Estimation.obj
 0001:00000380       _MdlTerminate              10001380 f   Registration_Estimation.obj
 0001:00000390       _MdlUpdate                 10001390 f   Registration_Estimation.obj
 0001:00000470       _Registration_Estimation   10001470 f   Registration_Estimation.obj
 0001:00004470       _Registration_Estimation_GetCAPIStaticMap 10005470 f   Registration_Estimation_capi.obj
 0001:00004480       _Registration_Estimation_InitializeDataMapInfo 10005480 f   Registration_Estimation_capi.obj
 0001:00004510       _TgtConnBackgroundTask     10005510 f   Registration_Estimation_tgtconn.obj
 0001:00004520       _TgtConnInit               10005520 f   Registration_Estimation_tgtconn.obj
 0001:00004540       _TgtConnPostStep           10005540 f   Registration_Estimation_tgtconn.obj
 0001:00004550       _TgtConnPreStep            10005550 f   Registration_Estimation_tgtconn.obj
 0001:00004560       _TgtConnTerm               10005560 f   Registration_Estimation_tgtconn.obj
 0001:00004570       _rtGetInf                  10005570 f   rtGetInf.obj
 0001:000045a0       _rtGetInfF                 100055a0 f   rtGetInf.obj
 0001:000045c0       _rtGetMinusInf             100055c0 f   rtGetInf.obj
 0001:000045f0       _rtGetMinusInfF            100055f0 f   rtGetInf.obj
 0001:00004610       _rtGetNaN                  10005610 f   rtGetNaN.obj
 0001:00004640       _rtGetNaNF                 10005640 f   rtGetNaN.obj
 0001:00004f70       _rt_CreateLogVar           10005f70 f   rt_logging.obj
 0001:00005000       _rt_CreateLogVarWithConvert 10006000 f   rt_logging.obj
 0001:00005980       _rt_CreateStructLogVar     10006980 f   rt_logging.obj
 0001:000066f0       _rt_GetMxIdFromDTypeId     100076f0 f   rt_logging.obj
 0001:00006720       _rt_GetMxIdFromDTypeIdForRSim 10007720 f   rt_logging.obj
 0001:00009060       _rt_StartDataLogging       1000a060 f   rt_logging.obj
 0001:00009520       _rt_StartDataLoggingWithStartTime 1000a520 f   rt_logging.obj
 0001:00009e80       _rt_StopDataLogging        1000ae80 f   rt_logging.obj
 0001:00009ea0       _rt_StopDataLoggingImpl    1000aea0 f   rt_logging.obj
 0001:0000a1c0       _rt_UpdateLogVar           1000b1c0 f   rt_logging.obj
 0001:0000b580       _rt_UpdateStructLogVar     1000c580 f   rt_logging.obj
 0001:0000b610       _rt_UpdateTXXFYLogVars     1000c610 f   rt_logging.obj
 0001:0000b950       _rt_UpdateTXYLogVars       1000c950 f   rt_logging.obj
 0001:0000bba0       _rt_CleanUpForStateLogWithMMI 1000cba0 f   rt_logging_mmi.obj
 0001:0000bcb0       _rt_FillStateSigInfoFromMMI 1000ccb0 f   rt_logging_mmi.obj
 0001:0000c060       _rt_mxCreateCharMatrixFromStrings 1000d060 f   rt_matrx.obj
 0001:0000c1b0       _rt_mxCreateDoubleMatrix   1000d1b0 f   rt_matrx.obj
 0001:0000c210       _rt_mxCreateNumericArray   1000d210 f   rt_matrx.obj
 0001:0000c290       _rt_mxCreateString         1000d290 f   rt_matrx.obj
 0001:0000c320       _rt_mxDuplicateArray       1000d320 f   rt_matrx.obj
 0001:0000c380       _rt_mxGetDimensions        1000d380 f   rt_matrx.obj
 0001:0000c3c0       _rt_mxGetEps               1000d3c0 f   rt_matrx.obj
 0001:0000c3d0       _rt_mxGetString            1000d3d0 f   rt_matrx.obj
 0001:0000c450       _rtIsInf                   1000d450 f   rt_nonfinite.obj
 0001:0000c490       _rtIsInfF                  1000d490 f   rt_nonfinite.obj
 0001:0000c4d0       _rtIsNaN                   1000d4d0 f   rt_nonfinite.obj
 0001:0000c4f0       _rtIsNaNF                  1000d4f0 f   rt_nonfinite.obj
 0001:0000c510       _rt_InitInfAndNaN          1000d510 f   rt_nonfinite.obj
 0001:0000c570       _rtPrintfNoOp              1000d570 f   rt_printf.obj
 0001:0000c580       _rt_ZCFcn                  1000d580 f   rt_zcfcn.obj
 0001:0000c640       _rtwCAPI_CountSysRan       1000d640 f   rtw_modelmap_utils.obj
 0001:0000c6e0       _rtwCAPI_EncodePath        1000d6e0 f   rtw_modelmap_utils.obj
 0001:0000c7d0       _rtwCAPI_FillSysRan        1000d7d0 f   rtw_modelmap_utils.obj
 0001:0000c8c0       _rtwCAPI_FreeFullPaths     1000d8c0 f   rtw_modelmap_utils.obj
 0001:0000c950       _rtwCAPI_GetFullStateBlockPath 1000d950 f   rtw_modelmap_utils.obj
 0001:0000cb00       _rtwCAPI_GetNumContStateRecords 1000db00 f   rtw_modelmap_utils.obj
 0001:0000cbc0       _rtwCAPI_GetNumSigLogRecords 1000dbc0 f   rtw_modelmap_utils.obj
 0001:0000cc10       _rtwCAPI_GetNumSigLogRecordsForRTWLogging 1000dc10 f   rtw_modelmap_utils.obj
 0001:0000cca0       _rtwCAPI_GetNumStateRecords 1000dca0 f   rtw_modelmap_utils.obj
 0001:0000ccf0       _rtwCAPI_GetNumStateRecordsForRTWLogging 1000dcf0 f   rtw_modelmap_utils.obj
 0001:0000cd80       _rtwCAPI_GetSigAddrFromMap 1000dd80 f   rtw_modelmap_utils.obj
 0001:0000ce40       _rtwCAPI_GetSigLogRecordInfo 1000de40 f   rtw_modelmap_utils.obj
 0001:0000d270       _rtwCAPI_GetStateRecordInfo 1000e270 f   rtw_modelmap_utils.obj
 0001:0000d720       _rtwCAPI_GetStateWidth     1000e720 f   rtw_modelmap_utils.obj
 0001:0000d780       _rtwCAPI_HasStates         1000e780 f   rtw_modelmap_utils.obj
 0001:0000d7f0       _rtwCAPI_UpdateFullPaths   1000e7f0 f   rtw_modelmap_utils.obj
 0001:0000d9d0       _DllMain@12                1000e9d0 f   xpctarget.obj
 0001:0000d9e0       _Registration_Estimation_ChangeStepSize 1000e9e0 f   xpctarget.obj
 0001:0000da30       _SLRTSetErrorStatus        1000ea30 f   xpctarget.obj
 0001:0000da50       _changeStepSize            1000ea50 f   xpctarget.obj
 0001:0000daa0       _getDLMVersion             1000eaa0 f   xpctarget.obj
 0001:0000dab0       _getRefMdlPath             1000eab0 f   xpctarget.obj
 0001:0000db30       _getRefMdlSignalNumber     1000eb30 f   xpctarget.obj
 0001:0000dbe0       _getrlmdlinfo              1000ebe0 f   xpctarget.obj
 0001:0000ddc0       _updateDiscreteEvents      1000edc0 f   xpctarget.obj
 0001:0000ddd0       _getNumRef                 1000edd0 f   appmappingData.obj
 0001:0000e210       _xpcudpbytereceive         1000f210 f   xpcudpbytereceive.obj
 0001:0000e260       _encconteccnt328mpci       1000f260 f   encconteccnt328mpci.obj
 0001:0000f900       _dopci8255                 10010900 f   dopci8255.obj
 0001:00010c00       _dacbpcidda0x12            10011c00 f   dacbpcidda0x12.obj
 0001:000117a0       _GetPCIDeviceFull          100127a0 f   xpcruntime:xpcimports.obj
 0001:000117d0       _ShowPCIDevice             100127d0 f   xpcruntime:xpcimports.obj
 0001:00011e40       _xpcGetPciConfigAtSlot     10012e40 f   xpcruntime:xpcimports.obj
 0001:000120c0       _xpcInitProcs              100130c0 f   xpcruntime:xpcimports.obj
 0001:00012c20       _xpceuploadevent           10013c20 f   xpcruntime:xpcimports.obj
 0001:00012c21       __heap_alloc               10013c21 f i LIBCMT:malloc.obj
 0001:00012c5e       _malloc                    10013c5e f   LIBCMT:malloc.obj
 0001:00012cf0       __get_printf_count_output  10013cf0 f   LIBCMT:printf.obj
 0001:00012d05       __printf_l                 10013d05 f   LIBCMT:printf.obj
 0001:00012d1c       __printf_p                 10013d1c f   LIBCMT:printf.obj
 0001:00012d32       __printf_p_l               10013d32 f   LIBCMT:printf.obj
 0001:00012d49       __printf_s_l               10013d49 f   LIBCMT:printf.obj
 0001:00012d60       __set_printf_count_output  10013d60 f   LIBCMT:printf.obj
 0001:00012d88       _printf                    10013d88 f   LIBCMT:printf.obj
 0001:00012e37       _printf_s                  10013e37 f   LIBCMT:printf.obj
 0001:00012e50       _ceil                      10013e50 f   LIBCMT:ceil_pentium4.obj
 0001:00012e90       __ceil_pentium4            10013e90 f   LIBCMT:ceil_pentium4.obj
 0001:00012f70       _memset                    10013f70 f   LIBCMT:memset.obj
 0001:00013000       __fpmath                   10014000 f   LIBCMT:fpinit.obj
 0001:00013017       ___setfflag                10014017 f   LIBCMT:fpinit.obj
 0001:0001302a       __cfltcvt_init             1001402a f   LIBCMT:fpinit.obj
 0001:0001308a       ___raise_securityfailure   1001408a f   LIBCMT:gs_report.obj
 0001:000130c7       ___report_gsfailure        100140c7 f   LIBCMT:gs_report.obj
 0001:000131c2       ___report_rangecheckfailure 100141c2 f   LIBCMT:gs_report.obj
 0001:000131ce       ___report_securityfailure  100141ce f   LIBCMT:gs_report.obj
 0001:0001329e       ___report_securityfailureEx 1001429e f   LIBCMT:gs_report.obj
 0001:000133b4       ___copy_path_to_wide_string 100143b4 f   LIBCMT:crt0dat.obj
 0001:00013466       ___copy_to_char            10014466 f   LIBCMT:crt0dat.obj
 0001:0001351b       ___crtCorExitProcess       1001451b f   LIBCMT:crt0dat.obj
 0001:0001354f       ___crtExitProcess          1001454f f   LIBCMT:crt0dat.obj
 0001:00013565       ___freeCrtMemory           10014565 f   LIBCMT:crt0dat.obj
 0001:00013672       __amsg_exit                10014672 f   LIBCMT:crt0dat.obj
 0001:0001368e       __c_exit                   1001468e f   LIBCMT:crt0dat.obj
 0001:0001369d       __cexit                    1001469d f   LIBCMT:crt0dat.obj
 0001:000136ac       __cinit                    100146ac f   LIBCMT:crt0dat.obj
 0001:00013730       __exit                     10014730 f   LIBCMT:crt0dat.obj
 0001:00013744       __exit_app                 10014744 f   LIBCMT:crt0dat.obj
 0001:00013752       __get_pgmptr               10014752 f   LIBCMT:crt0dat.obj
 0001:00013781       __get_wpgmptr              10014781 f   LIBCMT:crt0dat.obj
 0001:000137b0       __init_pointers            100147b0 f   LIBCMT:crt0dat.obj
 0001:0001381e       __initterm_e               1001481e f   LIBCMT:crt0dat.obj
 0001:00013840       __lockexit                 10014840 f   LIBCMT:crt0dat.obj
 0001:00013849       __unlockexit               10014849 f   LIBCMT:crt0dat.obj
 0001:00013981       _exit                      10014981 f   LIBCMT:crt0dat.obj
 0001:00013995       _calloc                    10014995 f   LIBCMT:calloc.obj
 0001:000139d5       _free                      100149d5 f   LIBCMT:free.obj
 0001:00013a0d       _realloc                   10014a0d f   LIBCMT:realloc.obj
 0001:00013ac0       _memmove                   10014ac0 f   LIBCMT:memmove.obj
 0001:00014110       _strchr                    10015110 f   LIBCMT:strchr.obj
 0001:0001417e       ___from_strstr_to_strchr   1001517e     LIBCMT:strchr.obj
 0001:00014240       _strncat                   10015240 f   LIBCMT:strncat.obj
 0001:00014380       _strncpy                   10015380 f   LIBCMT:strncpy.obj
 0001:000144a4       ___initstdio               100154a4 f   LIBCMT:_file.obj
 0001:00014517       ___endstdio                10015517 f   LIBCMT:_file.obj
 0001:0001453e       ___iob_func                1001553e f   LIBCMT:_file.obj
 0001:00014544       __lock_file                10015544 f   LIBCMT:_file.obj
 0001:00014583       __lock_file2               10015583 f   LIBCMT:_file.obj
 0001:000145b3       __unlock_file              100155b3 f   LIBCMT:_file.obj
 0001:000145ed       __unlock_file2             100155ed f   LIBCMT:_file.obj
 0001:0001461a       __fclose_nolock            1001561a f   LIBCMT:fclose.obj
 0001:00014686       _fclose                    10015686 f   LIBCMT:fclose.obj
 0001:000146fd       __fsopen                   100156fd f   LIBCMT:fopen.obj
 0001:000147c1       _fopen                     100157c1 f   LIBCMT:fopen.obj
 0001:000147d6       _fopen_s                   100157d6 f   LIBCMT:fopen.obj
 0001:0001481b       __fprintf_l                1001581b f   LIBCMT:fprintf.obj
 0001:00014835       __fprintf_p                10015835 f   LIBCMT:fprintf.obj
 0001:0001484e       __fprintf_p_l              1001584e f   LIBCMT:fprintf.obj
 0001:00014868       __fprintf_s_l              10015868 f   LIBCMT:fprintf.obj
 0001:00014882       _fprintf                   10015882 f   LIBCMT:fprintf.obj
 0001:00014994       _fprintf_s                 10015994 f   LIBCMT:fprintf.obj
 0001:000149ad       __fread_nolock             100159ad f   LIBCMT:fread.obj
 0001:000149c8       __fread_nolock_s           100159c8 f   LIBCMT:fread.obj
 0001:00014b8d       _fread                     10015b8d f   LIBCMT:fread.obj
 0001:00014ba8       _fread_s                   10015ba8 f   LIBCMT:fread.obj
 0001:00014c39       __fwrite_nolock            10015c39 f   LIBCMT:fwrite.obj
 0001:00014d92       _fwrite                    10015d92 f   LIBCMT:fwrite.obj
 0001:00014e14       __unlink                   10015e14 f   LIBCMT:unlink.obj
 0001:00014e1d       _remove                    10015e1d f   LIBCMT:unlink.obj
 0001:00014e5f       _rewind                    10015e5f f   LIBCMT:rewind.obj
 0001:00014f1e       __scprintf                 10015f1e f   LIBCMT:sprintf.obj
 0001:00014f31       __scprintf_l               10015f31 f   LIBCMT:sprintf.obj
 0001:00014f48       __scprintf_p               10015f48 f   LIBCMT:sprintf.obj
 0001:00014f5b       __scprintf_p_l             10015f5b f   LIBCMT:sprintf.obj
 0001:00014f72       __snprintf_s               10015f72 f   LIBCMT:sprintf.obj
 0001:00014f91       __snprintf_s_l             10015f91 f   LIBCMT:sprintf.obj
 0001:00014fb1       __sprintf_l                10015fb1 f   LIBCMT:sprintf.obj
 0001:00014fcb       __sprintf_p                10015fcb f   LIBCMT:sprintf.obj
 0001:00014fe7       __sprintf_p_l              10015fe7 f   LIBCMT:sprintf.obj
 0001:00015004       __sprintf_s_l              10016004 f   LIBCMT:sprintf.obj
 0001:00015021       _sprintf                   10016021 f   LIBCMT:sprintf.obj
 0001:000150a5       _sprintf_s                 100160a5 f   LIBCMT:sprintf.obj
 0001:000150c1       _ldexp                     100160c1 f   LIBCMT:ldexp.obj
 0001:000152ad       @__security_check_cookie@4 100162ad f   LIBCMT:secchk.obj
 0001:000152c0       __ftoui3                   100162c0 f   LIBCMT:ftol3.obj
 0001:000152cf       __ftoul3                   100162cf f   LIBCMT:ftol3.obj
 0001:000152de       __ftol3                    100162de f   LIBCMT:ftol3.obj
 0001:000152eb       __ftol3_NaN                100162eb f   LIBCMT:ftol3.obj
 0001:00015303       __ftol3_work               10016303 f   LIBCMT:ftol3.obj
 0001:00015389       __ftol3_common             10016389 f   LIBCMT:ftol3.obj
 0001:0001544b       __ftol3_arg_error          1001644b f   LIBCMT:ftol3.obj
 0001:0001545d       __ftol3_except             1001645d f   LIBCMT:ftol3.obj
 0001:0001549f       __dtoui3                   1001649f f   LIBCMT:ftol3.obj
 0001:000154ae       __dtoul3                   100164ae f   LIBCMT:ftol3.obj
 0001:000154bd       __dtol3                    100164bd f   LIBCMT:ftol3.obj
 0001:000154ca       __dtol3_NaN                100164ca f   LIBCMT:ftol3.obj
 0001:000154e7       __dtol3_work               100164e7 f   LIBCMT:ftol3.obj
 0001:000155cc       __ultod3                   100165cc f   LIBCMT:ftol3.obj
 0001:0001565d       __ltod3                    1001665d f   LIBCMT:ftol3.obj
 0001:00015690       _memcpy                    10016690 f   LIBCMT:memcpy.obj
 0001:00015cd4       ___isa_available_init      10016cd4 f   LIBCMT:cpu_disp.obj
 0001:00015e4d       __invoke_watson_if_error   10016e4d f i LIBCMT:wassert.obj
 0001:00015e6d       __wassert                  10016e6d f   LIBCMT:wassert.obj
 0001:00016511       __CRT_INIT@12              10017511 f   LIBCMT:dllcrt0.obj
 0001:00016683       __DllMainCRTStartup@12     10017683 f   LIBCMT:dllcrt0.obj
 0001:000167b4       ___DllXcptFilter           100177b4 f   LIBCMT:dllcrt0.obj
 0001:000167d9       ?_query_new_handler@@YAP6AHI@ZXZ 100177d9 f   LIBCMT:handler.obj
 0001:000167e6       ?_set_new_handler@@YAP6AHI@ZH@Z 100177e6 f   LIBCMT:handler.obj
 0001:000167ef       ?_set_new_handler@@YAP6AHI@ZP6AHI@Z@Z 100177ef f   LIBCMT:handler.obj
 0001:00016824       __callnewh                 10017824 f   LIBCMT:handler.obj
 0001:0001684a       __initp_heap_handler       1001784a f   LIBCMT:handler.obj
 0001:00016857       __FF_MSGBANNER             10017857 f   LIBCMT:crt0msg.obj
 0001:00016890       __GET_RTERRMSG             10017890 f   LIBCMT:crt0msg.obj
 0001:000168b4       __NMSG_WRITE               100178b4 f   LIBCMT:crt0msg.obj
 0001:00016a71       ___doserrno                10017a71 f   LIBCMT:dosmap.obj
 0001:00016a84       __dosmaperr                10017a84 f   LIBCMT:dosmap.obj
 0001:00016aa5       __errno                    10017aa5 f   LIBCMT:dosmap.obj
 0001:00016ab8       __get_doserrno             10017ab8 f   LIBCMT:dosmap.obj
 0001:00016adb       __get_errno                10017adb f   LIBCMT:dosmap.obj
 0001:00016afe       __get_errno_from_oserr     10017afe f   LIBCMT:dosmap.obj
 0001:00016b3f       __set_doserrno             10017b3f f   LIBCMT:dosmap.obj
 0001:00016b5e       __set_errno                10017b5e f   LIBCMT:dosmap.obj
 0001:00016b7d       __get_heap_handle          10017b7d f   LIBCMT:heapinit.obj
 0001:00016b83       __heap_init                10017b83 f   LIBCMT:heapinit.obj
 0001:00016b98       __heap_term                10017b98 f   LIBCMT:heapinit.obj
 0001:00016ba0       ?_invalid_parameter@@YAXPBG00II@Z 10017ba0 f   LIBCMT:invarg.obj
 0001:00016ba5       ?_invoke_watson@@YAXPBG00II@Z 10017ba5 f   LIBCMT:invarg.obj
 0001:00016bbd       __call_reportfault         10017bbd f   LIBCMT:invarg.obj
 0001:00016ce2       __get_invalid_parameter_handler 10017ce2 f   LIBCMT:invarg.obj
 0001:00016cef       __initp_misc_invarg        10017cef f   LIBCMT:invarg.obj
 0001:00016cfc       __invalid_parameter        10017cfc f   LIBCMT:invarg.obj
 0001:00016d27       __invalid_parameter_noinfo 10017d27 f   LIBCMT:invarg.obj
 0001:00016d37       __invalid_parameter_noinfo_noreturn 10017d37 f   LIBCMT:invarg.obj
 0001:00016d52       __invoke_watson            10017d52 f   LIBCMT:invarg.obj
 0001:00016d7d       __set_invalid_parameter_handler 10017d7d f   LIBCMT:invarg.obj
 0001:00016da2       __vprintf_l                10017da2 f   LIBCMT:vprintf.obj
 0001:00016dbd       __vprintf_p                10017dbd f   LIBCMT:vprintf.obj
 0001:00016dd7       __vprintf_p_l              10017dd7 f   LIBCMT:vprintf.obj
 0001:00016df2       __vprintf_s_l              10017df2 f   LIBCMT:vprintf.obj
 0001:00016e0d       _vprintf                   10017e0d f   LIBCMT:vprintf.obj
 0001:00016e27       _vprintf_helper            10017e27 f   LIBCMT:vprintf.obj
 0001:00016eb4       _vprintf_s                 10017eb4 f   LIBCMT:vprintf.obj
 0001:00016ece       __ftbuf                    10017ece f   LIBCMT:_sftbuf.obj
 0001:00016eff       __stbuf                    10017eff f   LIBCMT:_sftbuf.obj
 0001:00016fa5       ??0_LocaleUpdate@@QAE@PAUlocaleinfo_struct@@@Z 10017fa5 f i LIBCMT:output.obj
 0001:0001702d       ??1_LocaleUpdate@@QAE@XZ   1001802d f i LIBCMT:output.obj
 0001:0001703b       ?GetLocaleT@_LocaleUpdate@@QAEPAUlocaleinfo_struct@@XZ 1001803b f i LIBCMT:output.obj
 0001:0001703e       __output_l                 1001803e f   LIBCMT:output.obj
 0001:00017bbe       _get_int64_arg             10018bbe f i LIBCMT:output.obj
 0001:00017bd1       _get_int_arg               10018bd1 f i LIBCMT:output.obj
 0001:00017be1       _get_short_arg             10018be1 f i LIBCMT:output.obj
 0001:00017ce0       __SEH_prolog4              10018ce0 f   LIBCMT:sehprolg4.obj
 0001:00017d25       __SEH_epilog4              10018d25 f   LIBCMT:sehprolg4.obj
 0001:00017d80       __except_handler4          10018d80 f   LIBCMT:chandler4.obj
 0001:00017f14       ___libm_error_support      10018f14 f   LIBCMT:libm_error.obj
 0001:000181fc       ___libm_setusermatherr     100191fc f   LIBCMT:libm_error.obj
 0001:00018228       __sse2_mathfcns_init       10019228 f   LIBCMT:mathfcns.obj
 0001:00018237       __set_SSE2_enable          10019237 f   LIBCMT:mathfcns.obj
 0001:00018256       __ceil_default             10019256 f   LIBCMT:ceil.obj
 0001:0001832d       __VEC_memset               1001932d f   LIBCMT:p4_memset.obj
 0001:000183f5       ?strrchr@@YAPADPADH@Z      100193f5 f i LIBCMT:cvt.obj
 0001:000183fe       __cfltcvt                  100193fe f   LIBCMT:cvt.obj
 0001:0001841f       __cfltcvt_l                1001941f f   LIBCMT:cvt.obj
 0001:000184a5       __cftoa                    100194a5 f   LIBCMT:cvt.obj
 0001:000184c3       __cftoa_l                  100194c3 f   LIBCMT:cvt.obj
 0001:0001881f       __cftoe                    1001981f f   LIBCMT:cvt.obj
 0001:0001898e       __cftoe_l                  1001998e f   LIBCMT:cvt.obj
 0001:00018a5c       __cftof                    10019a5c f   LIBCMT:cvt.obj
 0001:00018b63       __cftof_l                  10019b63 f   LIBCMT:cvt.obj
 0001:00018c24       __cftog                    10019c24 f   LIBCMT:cvt.obj
 0001:00018c42       __cftog_l                  10019c42 f   LIBCMT:cvt.obj
 0001:00018d41       __cropzeros                10019d41 f   LIBCMT:cvt.obj
 0001:00018d52       __cropzeros_l              10019d52 f   LIBCMT:cvt.obj
 0001:00018dd2       __fassign                  10019dd2 f   LIBCMT:cvt.obj
 0001:00018dea       __fassign_l                10019dea f   LIBCMT:cvt.obj
 0001:00018e2c       __forcdecpt                10019e2c f   LIBCMT:cvt.obj
 0001:00018e3d       __forcdecpt_l              10019e3d f   LIBCMT:cvt.obj
 0001:00018eb1       __positive                 10019eb1 f   LIBCMT:cvt.obj
 0001:00018ef3       __setdefaultprecision      10019ef3 f   LIBCMT:fp8.obj
 0001:00018f1a       __initp_misc_cfltcvt_tab   10019f1a f   LIBCMT:cmiscdat.obj
 0001:00018f39       __crt_debugger_hook        10019f39 f   LIBCMT:dbghook.obj
 0001:00018f6e       ___crtCloseThreadpoolTimer 10019f6e f   LIBCMT:winapisupp.obj
 0001:00018f85       ___crtCloseThreadpoolWait  10019f85 f   LIBCMT:winapisupp.obj
 0001:00018f9c       ___crtCreateEventExW       10019f9c f   LIBCMT:winapisupp.obj
 0001:00018fd7       ___crtCreateSemaphoreExW   10019fd7 f   LIBCMT:winapisupp.obj
 0001:00019011       ___crtCreateSymbolicLinkW  1001a011 f   LIBCMT:winapisupp.obj
 0001:0001903a       ___crtCreateThreadpoolTimer 1001a03a f   LIBCMT:winapisupp.obj
 0001:0001905b       ___crtCreateThreadpoolWait 1001a05b f   LIBCMT:winapisupp.obj
 0001:0001907c       ___crtFlsAlloc             1001a07c f   LIBCMT:winapisupp.obj
 0001:0001909a       ___crtFlsFree              1001a09a f   LIBCMT:winapisupp.obj
 0001:000190b9       ___crtFlsGetValue          1001a0b9 f   LIBCMT:winapisupp.obj
 0001:000190d8       ___crtFlsSetValue          1001a0d8 f   LIBCMT:winapisupp.obj
 0001:000190fa       ___crtFlushProcessWriteBuffers 1001a0fa f   LIBCMT:winapisupp.obj
 0001:0001910a       ___crtFreeLibraryWhenCallbackReturns 1001a10a f   LIBCMT:winapisupp.obj
 0001:00019124       ___crtGetCurrentProcessorNumber 1001a124 f   LIBCMT:winapisupp.obj
 0001:00019136       ___crtGetFileInformationByHandleEx 1001a136 f   LIBCMT:winapisupp.obj
 0001:00019162       ___crtGetLogicalProcessorInformation 1001a162 f   LIBCMT:winapisupp.obj
 0001:00019188       ___crtGetShowWindowMode    1001a188 f   LIBCMT:winapisupp.obj
 0001:000191ab       ___crtGetTickCount64       1001a1ab f   LIBCMT:winapisupp.obj
 0001:000191c3       ___crtInitializeCriticalSectionEx 1001a1c3 f   LIBCMT:winapisupp.obj
 0001:000191f1       ___crtIsPackagedApp        1001a1f1 f   LIBCMT:winapisupp.obj
 0001:00019231       ___crtLoadWinApiPointers   1001a231 f   LIBCMT:winapisupp.obj
 0001:000194bc       ___crtSetFileInformationByHandle 1001a4bc f   LIBCMT:winapisupp.obj
 0001:000194e8       ___crtSetThreadStackGuarantee 1001a4e8 f   LIBCMT:winapisupp.obj
 0001:00019503       ___crtSetThreadpoolTimer   1001a503 f   LIBCMT:winapisupp.obj
 0001:00019523       ___crtSetThreadpoolWait    1001a523 f   LIBCMT:winapisupp.obj
 0001:00019540       ___crtSetUnhandledExceptionFilter 1001a540 f   LIBCMT:winapisupp.obj
 0001:0001954e       ___crtSleep                1001a54e f   LIBCMT:winapisupp.obj
 0001:0001955c       ___crtTerminateProcess     1001a55c f   LIBCMT:winapisupp.obj
 0001:00019571       ___crtUnhandledException   1001a571 f   LIBCMT:winapisupp.obj
 0001:00019587       ___crtWaitForThreadpoolTimerCallbacks 1001a587 f   LIBCMT:winapisupp.obj
 0001:000195a1       __RTC_Initialize           1001a5a1 f   LIBCMT:initsect.obj
 0001:000195c1       __RTC_Terminate            1001a5c1 f   LIBCMT:initsect.obj
 0001:000195e1       __lock                     1001a5e1 f   LIBCMT:mlock.obj
 0001:00019615       __lockerr_exit             1001a615 f   LIBCMT:mlock.obj
 0001:00019635       __mtdeletelocks            1001a635 f   LIBCMT:mlock.obj
 0001:00019689       __mtinitlocknum            1001a689 f   LIBCMT:mlock.obj
 0001:00019732       __mtinitlocks              1001a732 f   LIBCMT:mlock.obj
 0001:0001976b       __unlock                   1001a76b f   LIBCMT:mlock.obj
 0001:00019780       __FindPESection            1001a780 f   LIBCMT:pesect.obj
 0001:000197d0       __IsNonwritableInCurrentImage 1001a7d0 f   LIBCMT:pesect.obj
 0001:00019890       __ValidateImageBase        1001a890 f   LIBCMT:pesect.obj
 0001:000198c1       ___onexitinit              1001a8c1 f   LIBCMT:onexit.obj
 0001:000198f0       __onexit                   1001a8f0 f   LIBCMT:onexit.obj
 0001:000199ec       _atexit                    1001a9ec f   LIBCMT:onexit.obj
 0001:00019a01       __calloc_crt               1001aa01 f   LIBCMT:crtheap.obj
 0001:00019a49       __malloc_crt               1001aa49 f   LIBCMT:crtheap.obj
 0001:00019a90       __realloc_crt              1001aa90 f   LIBCMT:crtheap.obj
 0001:00019ada       __recalloc_crt             1001aada f   LIBCMT:crtheap.obj
 0001:00019b28       __set_malloc_crt_max_wait  1001ab28 f   LIBCMT:crtheap.obj
 0001:00019b3b       _wait_a_bit                1001ab3b f i LIBCMT:crtheap.obj
 0001:00019b5f       ?_inconsistency@@YAXXZ     1001ab5f f   LIBCMT:hooks.obj
 0001:00019b97       ?terminate@@YAXXZ          1001ab97 f   LIBCMT:hooks.obj
 0001:00019bcb       ?unexpected@@YAXXZ         1001abcb f   LIBCMT:hooks.obj
 0001:00019bde       __initp_eh_hooks           1001abde f   LIBCMT:hooks.obj
 0001:00019bef       ___getlocaleinfo           1001abef f   LIBCMT:inithelp.obj
 0001:00019dc8       __initp_misc_purevirt      1001adc8 f   LIBCMT:inithelp.obj
 0001:00019dd5       ___fpecode                 1001add5 f   LIBCMT:winsig.obj
 0001:00019dde       ___get_sigabrt             1001adde f   LIBCMT:winsig.obj
 0001:00019deb       ___pxcptinfoptrs           1001adeb f   LIBCMT:winsig.obj
 0001:00019df4       __initp_misc_winsig        1001adf4 f   LIBCMT:winsig.obj
 0001:00019eb5       _raise                     1001aeb5 f   LIBCMT:winsig.obj
 0001:0001a0aa       _signal                    1001b0aa f   LIBCMT:winsig.obj
 0001:0001a301       __initp_misc_rand_s        1001b301 f   LIBCMT:rand_s.obj
 0001:0001a30e       _rand_s                    1001b30e f   LIBCMT:rand_s.obj
 0001:0001a414       ___initmbctable            1001b414 f   LIBCMT:mbctype.obj
 0001:0001a6cb       ___updatetmbcinfo          1001b6cb f   LIBCMT:mbctype.obj
 0001:0001a771       __getmbcp                  1001b771 f   LIBCMT:mbctype.obj
 0001:0001a7a2       __setmbcp                  1001b7a2 f   LIBCMT:mbctype.obj
 0001:0001a94a       __setmbcp_nolock           1001b94a f   LIBCMT:mbctype.obj
 0001:0001ab35       __calloc_impl              1001bb35 f   LIBCMT:calloc_impl.obj
 0001:0001abaf       __fcloseall                1001bbaf f   LIBCMT:closeall.obj
 0001:0001ac4c       __fflush_nolock            1001bc4c f   LIBCMT:fflush.obj
 0001:0001ac92       __flush                    1001bc92 f   LIBCMT:fflush.obj
 0001:0001acf6       __flushall                 1001bcf6 f   LIBCMT:fflush.obj
 0001:0001acff       _fflush                    1001bcff f   LIBCMT:fflush.obj
 0001:0001ae3c       __fileno                   1001be3c f   LIBCMT:fileno.obj
 0001:0001ae60       __close                    1001be60 f   LIBCMT:close.obj
 0001:0001af3b       __close_nolock             1001bf3b f   LIBCMT:close.obj
 0001:0001afd5       __freebuf                  1001bfd5 f   LIBCMT:_freebuf.obj
 0001:0001b005       __getstream                1001c005 f   LIBCMT:stream.obj
 0001:0001b124       __openfile                 1001c124 f   LIBCMT:_open.obj
 0001:0001b3a0       __local_unwind4            1001c3a0 f   LIBCMT:exsup4.obj
 0001:0001b476       __seh_longjmp_unwind4@4    1001c476 f   LIBCMT:exsup4.obj
 0001:0001b492       @_EH4_CallFilterFunc@8     1001c492 f   LIBCMT:exsup4.obj
 0001:0001b4a9       @_EH4_TransferToHandler@8  1001c4a9 f   LIBCMT:exsup4.obj
 0001:0001b4c2       @_EH4_GlobalUnwind2@8      1001c4c2 f   LIBCMT:exsup4.obj
 0001:0001b4db       @_EH4_LocalUnwind@16       1001c4db f   LIBCMT:exsup4.obj
 0001:0001b4f2       __vfprintf_l               1001c4f2 f   LIBCMT:vfprintf.obj
 0001:0001b510       __vfprintf_p               1001c510 f   LIBCMT:vfprintf.obj
 0001:0001b52d       __vfprintf_p_l             1001c52d f   LIBCMT:vfprintf.obj
 0001:0001b54b       __vfprintf_s_l             1001c54b f   LIBCMT:vfprintf.obj
 0001:0001b569       _vfprintf                  1001c569 f   LIBCMT:vfprintf.obj
 0001:0001b586       _vfprintf_helper           1001c586 f   LIBCMT:vfprintf.obj
 0001:0001b697       _vfprintf_s                1001c697 f   LIBCMT:vfprintf.obj
 0001:0001b6b4       __ioinit                   1001c6b4 f   LIBCMT:ioinit.obj
 0001:0001b968       __ioterm                   1001c968 f   LIBCMT:ioinit.obj
 0001:0001b9ba       __filbuf                   1001c9ba f   LIBCMT:_filbuf.obj
 0001:0001badb       _memcpy_s                  1001cadb f   LIBCMT:memcpy_s.obj
 0001:0001bb5a       __read                     1001cb5a f   LIBCMT:read.obj
 0001:0001bc6e       __read_nolock              1001cc6e f   LIBCMT:read.obj
 0001:0001c3ff       __flsbuf                   1001d3ff f   LIBCMT:_flsbuf.obj
 0001:0001c54e       __write                    1001d54e f   LIBCMT:write.obj
 0001:0001c63d       __write_nolock             1001d63d f   LIBCMT:write.obj
 0001:0001cea2       __wremove                  1001dea2 f   LIBCMT:wunlink.obj
 0001:0001ced0       __wunlink                  1001ded0 f   LIBCMT:wunlink.obj
 0001:0001ced9       __lseek                    1001ded9 f   LIBCMT:lseek.obj
 0001:0001cfc8       __lseek_nolock             1001dfc8 f   LIBCMT:lseek.obj
 0001:0001d06f       __vscprintf                1001e06f f   LIBCMT:vsprintf.obj
 0001:0001d089       __vscprintf_helper         1001e089 f   LIBCMT:vsprintf.obj
 0001:0001d0e5       __vscprintf_l              1001e0e5 f   LIBCMT:vsprintf.obj
 0001:0001d100       __vscprintf_p              1001e100 f   LIBCMT:vsprintf.obj
 0001:0001d11a       __vscprintf_p_l            1001e11a f   LIBCMT:vsprintf.obj
 0001:0001d135       __vsprintf_l               1001e135 f   LIBCMT:vsprintf.obj
 0001:0001d1b9       _vsprintf                  1001e1b9 f   LIBCMT:vsprintf.obj
 0001:0001d1d1       __vsnprintf_c              1001e1d1 f   LIBCMT:vsnprnc.obj
 0001:0001d1f8       __vsnprintf_c_l            1001e1f8 f   LIBCMT:vsnprnc.obj
 0001:0001d220       __vsnprintf_helper         1001e220 f   LIBCMT:vsnprnc.obj
 0001:0001d2ea       __vsnprintf_s              1001e2ea f   LIBCMT:vsnprnc.obj
 0001:0001d308       __vsnprintf_s_l            1001e308 f   LIBCMT:vsnprnc.obj
 0001:0001d408       __vsprintf_p               1001e408 f   LIBCMT:vsnprnc.obj
 0001:0001d42f       __vsprintf_p_l             1001e42f f   LIBCMT:vsnprnc.obj
 0001:0001d457       __vsprintf_s_l             1001e457 f   LIBCMT:vsnprnc.obj
 0001:0001d4cc       _vsprintf_s                1001e4cc f   LIBCMT:vsnprnc.obj
 0001:0001d4e7       __chgsign                  1001e4e7 f   LIBCMT:ieeemisc.obj
 0001:0001d514       __chgsignf                 1001e514 f   LIBCMT:ieeemisc.obj
 0001:0001d535       __copysign                 1001e535 f   LIBCMT:ieeemisc.obj
 0001:0001d55d       __copysignf                1001e55d f   LIBCMT:ieeemisc.obj
 0001:0001d579       __finite                   1001e579 f   LIBCMT:ieeemisc.obj
 0001:0001d591       __fpclass                  1001e591 f   LIBCMT:ieeemisc.obj
 0001:0001d62d       __isnan                    1001e62d f   LIBCMT:ieeemisc.obj
 0001:0001d660       __logb                     1001e660 f   LIBCMT:ieeemisc.obj
 0001:0001d741       __nextafter                1001e741 f   LIBCMT:ieeemisc.obj
 0001:0001d9e1       __scalb                    1001e9e1 f   LIBCMT:ieeemisc.obj
 0001:0001d9f9       __add_exp                  1001e9f9 f   LIBCMT:util.obj
 0001:0001da28       __decomp                   1001ea28 f   LIBCMT:util.obj
 0001:0001dafa       __get_exp                  1001eafa f   LIBCMT:util.obj
 0001:0001db13       __set_bexp                 1001eb13 f   LIBCMT:util.obj
 0001:0001db3c       __set_exp                  1001eb3c f   LIBCMT:util.obj
 0001:0001db6b       __sptype                   1001eb6b f   LIBCMT:util.obj
 0001:0001dbc6       __errcode                  1001ebc6 f   LIBCMT:fpexcept.obj
 0001:0001dbf8       __except1                  1001ebf8 f   LIBCMT:fpexcept.obj
 0001:0001dcc0       __except2                  1001ecc0 f   LIBCMT:fpexcept.obj
 0001:0001ddc0       __handle_exc               1001edc0 f   LIBCMT:fpexcept.obj
 0001:0001df9e       __handle_qnan1             1001ef9e f   LIBCMT:fpexcept.obj
 0001:0001dfee       __handle_qnan2             1001efee f   LIBCMT:fpexcept.obj
 0001:0001e04e       __raise_exc                1001f04e f   LIBCMT:fpexcept.obj
 0001:0001e06f       __raise_exc_ex             1001f06f f   LIBCMT:fpexcept.obj
 0001:0001e354       __raise_excf               1001f354 f   LIBCMT:fpexcept.obj
 0001:0001e375       __set_errno_from_matherr   1001f375 f   LIBCMT:fpexcept.obj
 0001:0001e3a2       __umatherr                 1001f3a2 f   LIBCMT:fpexcept.obj
 0001:0001e442       ___clrfp_sse2              1001f442 f   LIBCMT:fpctrl.obj
 0001:0001e463       ___ctrlfp_sse2             1001f463 f   LIBCMT:fpctrl.obj
 0001:0001e49c       ___fclrf_sse2              1001f49c f   LIBCMT:fpctrl.obj
 0001:0001e4b9       ___get_fpsr_sse2           1001f4b9 f   LIBCMT:fpctrl.obj
 0001:0001e4d5       ___set_fpsr_sse2           1001f4d5 f   LIBCMT:fpctrl.obj
 0001:0001e54b       ___set_statfp_sse2         1001f54b f   LIBCMT:fpctrl.obj
 0001:0001e564       ___statfp_sse2             1001f564 f   LIBCMT:fpctrl.obj
 0001:0001e579       __clrfp                    1001f579 f   LIBCMT:fpctrl.obj
 0001:0001e58a       __ctrlfp                   1001f58a f   LIBCMT:fpctrl.obj
 0001:0001e5b5       __set_statfp               1001f5b5 f   LIBCMT:fpctrl.obj
 0001:0001e60d       __statfp                   1001f60d f   LIBCMT:fpctrl.obj
 0001:0001e61d       _wcscat_s                  1001f61d f   LIBCMT:wcscat_s.obj
 0001:0001e689       _wcscpy_s                  1001f689 f   LIBCMT:wcscpy_s.obj
 0001:0001e6e5       _wcslen                    1001f6e5 f   LIBCMT:wcslen.obj
 0001:0001e6fe       _wcsncat_s                 1001f6fe f   LIBCMT:wcsncat_s.obj
 0001:0001e7cc       __set_abort_behavior       1001f7cc f   LIBCMT:abort.obj
 0001:0001e7eb       _abort                     1001f7eb f   LIBCMT:abort.obj
 0001:0001e82e       ___set_app_type            1001f82e f   LIBCMT:errmode.obj
 0001:0001e83b       __set_error_mode           1001f83b f   LIBCMT:errmode.obj
 0001:0001e997       __i64tow_s                 1001f997 f   LIBCMT:xtows.obj
 0001:0001e9c8       __itow_s                   1001f9c8 f   LIBCMT:xtows.obj
 0001:0001e9f1       __ltow_s                   1001f9f1 f   LIBCMT:xtows.obj
 0001:0001ea1b       __ui64tow_s                1001fa1b f   LIBCMT:xtows.obj
 0001:0001ea36       __ultow_s                  1001fa36 f   LIBCMT:xtows.obj
 0001:0001eb41       _setvbuf                   1001fb41 f   LIBCMT:setvbuf.obj
 0001:0001ec47       __fwprintf_l               1001fc47 f   LIBCMT:fwprintf.obj
 0001:0001ec61       __fwprintf_p               1001fc61 f   LIBCMT:fwprintf.obj
 0001:0001ec7a       __fwprintf_p_l             1001fc7a f   LIBCMT:fwprintf.obj
 0001:0001ec94       __fwprintf_s_l             1001fc94 f   LIBCMT:fwprintf.obj
 0001:0001ecae       _fwprintf                  1001fcae f   LIBCMT:fwprintf.obj
 0001:0001ed42       _fwprintf_s                1001fd42 f   LIBCMT:fwprintf.obj
 0001:0001ed5b       __vsnwprintf_s             1001fd5b f   LIBCMT:vswprnc.obj
 0001:0001ed79       __vsnwprintf_s_l           1001fd79 f   LIBCMT:vswprnc.obj
 0001:0001ee7d       __vswprintf_c              1001fe7d f   LIBCMT:vswprnc.obj
 0001:0001eea4       __vswprintf_c_l            1001fea4 f   LIBCMT:vswprnc.obj
 0001:0001eecc       __vswprintf_helper         1001fecc f   LIBCMT:vswprnc.obj
 0001:0001efc7       __vswprintf_p              1001ffc7 f   LIBCMT:vswprnc.obj
 0001:0001efee       __vswprintf_p_l            1001ffee f   LIBCMT:vswprnc.obj
 0001:0001f016       __vswprintf_s_l            10020016 f   LIBCMT:vswprnc.obj
 0001:0001f08d       _vswprintf_s               1002008d f   LIBCMT:vswprnc.obj
 0001:0001f0a8       ___crtMessageBoxW          100200a8 f   LIBCMT:crtmboxw.obj
 0001:0001f28e       ___crtMessageBoxWaitThreadW@4 1002028e f   LIBCMT:crtmboxw.obj
 0001:0001f2ac       __XcptFilter               100202ac f   LIBCMT:winxfltr.obj
 0001:0001f407       ___CppXcptFilter           10020407 f   LIBCMT:winxfltr.obj
 0001:0001f459       ___get_flsindex            10020459 f   LIBCMT:tidtable.obj
 0001:0001f45f       ___threadhandle            1002045f f   LIBCMT:tidtable.obj
 0001:0001f465       ___threadid                10020465 f   LIBCMT:tidtable.obj
 0001:0001f46b       __freefls@4                1002046b f   LIBCMT:tidtable.obj
 0001:0001f5a0       __freeptd                  100205a0 f   LIBCMT:tidtable.obj
 0001:0001f5d6       __getptd                   100205d6 f   LIBCMT:tidtable.obj
 0001:0001f5ee       __getptd_noexit            100205ee f   LIBCMT:tidtable.obj
 0001:0001f65d       __initptd                  1002065d f   LIBCMT:tidtable.obj
 0001:0001f710       __mtinit                   10020710 f   LIBCMT:tidtable.obj
 0001:0001f786       __mtterm                   10020786 f   LIBCMT:tidtable.obj
 0001:0001f7a3       __set_pgmptr               100207a3 f i LIBCMT:stdargv.obj
 0001:0001f7b0       __setargv                  100207b0 f   LIBCMT:stdargv.obj
 0001:0001f9df       __setenvp                  100209df f   LIBCMT:stdenvp.obj
 0001:0001fac0       ___security_init_cookie    10020ac0 f   LIBCMT:gs_support.obj
 0001:0001fb5c       ___crtGetEnvironmentStringsA 10020b5c f   LIBCMT:a_env.obj
 0001:0001fbf0       _strlen                    10020bf0 f   LIBCMT:strlen.obj
 0001:0001fc7b       _wcsncpy_s                 10020c7b f   LIBCMT:wcsncpy_s.obj
 0001:0001fd39       __output_s_l               10020d39 f   LIBCMT:outputs.obj
 0001:000209c1       __output_p_l               100219c1 f   LIBCMT:outputp.obj
 0001:00021cf9       __validate_param_reuseA    10022cf9 f   LIBCMT:outputp.obj
 0001:00021e2f       _get_crtdouble_arg         10022e2f f i LIBCMT:outputp.obj
 0001:00021f2e       __isatty                   10022f2e f   LIBCMT:isatty.obj
 0001:00021f82       ___addlocaleref            10022f82 f   LIBCMT:localref.obj
 0001:00022017       ___freetlocinfo            10023017 f   LIBCMT:localref.obj
 0001:00022171       ___removelocaleref         10023171 f   LIBCMT:localref.obj
 0001:00022211       ___updatetlocinfo          10023211 f   LIBCMT:localref.obj
 0001:00022291       __updatetlocinfoEx_nolock  10023291 f   LIBCMT:localref.obj
 0001:000222dc       ___iswcsym                 100232dc f i LIBCMT:_wctype.obj
 0001:00022300       ___iswcsymf                10023300 f i LIBCMT:_wctype.obj
 0001:00022324       __isleadbyte_l             10023324 f i LIBCMT:_wctype.obj
 0001:0002235e       __iswalnum_l               1002335e f i LIBCMT:_wctype.obj
 0001:00022372       __iswalpha_l               10023372 f i LIBCMT:_wctype.obj
 0001:00022386       __iswblank_l               10023386 f i LIBCMT:_wctype.obj
 0001:000223a1       __iswcntrl_l               100233a1 f i LIBCMT:_wctype.obj
 0001:000223b2       __iswcsym_l                100233b2 f i LIBCMT:_wctype.obj
 0001:000223d6       __iswcsymf_l               100233d6 f i LIBCMT:_wctype.obj
 0001:000223fa       __iswdigit_l               100233fa f i LIBCMT:_wctype.obj
 0001:0002240b       __iswgraph_l               1002340b f i LIBCMT:_wctype.obj
 0001:0002241f       __iswlower_l               1002341f f i LIBCMT:_wctype.obj
 0001:00022430       __iswprint_l               10023430 f i LIBCMT:_wctype.obj
 0001:00022444       __iswpunct_l               10023444 f i LIBCMT:_wctype.obj
 0001:00022455       __iswspace_l               10023455 f i LIBCMT:_wctype.obj
 0001:00022466       __iswupper_l               10023466 f i LIBCMT:_wctype.obj
 0001:00022477       __iswxdigit_l              10023477 f i LIBCMT:_wctype.obj
 0001:0002248b       _isleadbyte                1002348b f i LIBCMT:_wctype.obj
 0001:0002249c       _iswalnum                  1002349c f i LIBCMT:_wctype.obj
 0001:000224b0       _iswalpha                  100234b0 f i LIBCMT:_wctype.obj
 0001:000224c4       _iswascii                  100234c4 f i LIBCMT:_wctype.obj
 0001:000224d6       _iswblank                  100234d6 f i LIBCMT:_wctype.obj
 0001:000224f1       _iswcntrl                  100234f1 f i LIBCMT:_wctype.obj
 0001:00022502       _iswdigit                  10023502 f i LIBCMT:_wctype.obj
 0001:00022513       _iswgraph                  10023513 f i LIBCMT:_wctype.obj
 0001:00022527       _iswlower                  10023527 f i LIBCMT:_wctype.obj
 0001:00022538       _iswprint                  10023538 f i LIBCMT:_wctype.obj
 0001:0002254c       _iswpunct                  1002354c f i LIBCMT:_wctype.obj
 0001:0002255d       _iswspace                  1002355d f i LIBCMT:_wctype.obj
 0001:0002256e       _iswupper                  1002356e f i LIBCMT:_wctype.obj
 0001:0002257f       _iswxdigit                 1002357f f i LIBCMT:_wctype.obj
 0001:00022593       __wctomb_l                 10023593 f   LIBCMT:wctomb.obj
 0001:000225e2       __wctomb_s_l               100235e2 f   LIBCMT:wctomb.obj
 0001:00022706       _wctomb                    10023706 f   LIBCMT:wctomb.obj
 0001:00022739       _wctomb_s                  10023739 f   LIBCMT:wctomb.obj
 0001:00022760       __aulldvrm                 10023760 f   LIBCMT:ulldvrm.obj
 0001:000227f5       __matherr                  100237f5 f   LIBCMT:matherr.obj
 0001:000227f8       __frnd                     100237f8 f   LIBCMT:frnd.obj
 0001:0002280c       ___isascii                 1002380c f i LIBCMT:_ctype.obj
 0001:0002281c       ___iscsym                  1002381c f i LIBCMT:_ctype.obj
 0001:0002283c       ___iscsymf                 1002383c f i LIBCMT:_ctype.obj
 0001:00022859       ___toascii                 10023859 f i LIBCMT:_ctype.obj
 0001:00022864       __isalnum_l                10023864 f i LIBCMT:_ctype.obj
 0001:000228bc       __isalpha_l                100238bc f i LIBCMT:_ctype.obj
 0001:00022914       __isblank_l                10023914 f i LIBCMT:_ctype.obj
 0001:0002296e       __iscntrl_l                1002396e f i LIBCMT:_ctype.obj
 0001:000229c0       __iscsym_l                 100239c0 f i LIBCMT:_ctype.obj
 0001:000229e1       __iscsymf_l                100239e1 f i LIBCMT:_ctype.obj
 0001:00022a02       __isdigit_l                10023a02 f i LIBCMT:_ctype.obj
 0001:00022a54       __isgraph_l                10023a54 f i LIBCMT:_ctype.obj
 0001:00022aac       __islower_l                10023aac f i LIBCMT:_ctype.obj
 0001:00022afe       __isprint_l                10023afe f i LIBCMT:_ctype.obj
 0001:00022b56       __ispunct_l                10023b56 f i LIBCMT:_ctype.obj
 0001:00022ba8       __isspace_l                10023ba8 f i LIBCMT:_ctype.obj
 0001:00022bfa       __isupper_l                10023bfa f i LIBCMT:_ctype.obj
 0001:00022c4c       __isxdigit_l               10023c4c f i LIBCMT:_ctype.obj
 0001:00022ca4       _isalnum                   10023ca4 f i LIBCMT:_ctype.obj
 0001:00022cd1       _isalpha                   10023cd1 f i LIBCMT:_ctype.obj
 0001:00022cfe       _isblank                   10023cfe f i LIBCMT:_ctype.obj
 0001:00022d33       _iscntrl                   10023d33 f i LIBCMT:_ctype.obj
 0001:00022d5e       _isdigit                   10023d5e f i LIBCMT:_ctype.obj
 0001:00022d89       _isgraph                   10023d89 f i LIBCMT:_ctype.obj
 0001:00022db6       _islower                   10023db6 f i LIBCMT:_ctype.obj
 0001:00022de1       _isprint                   10023de1 f i LIBCMT:_ctype.obj
 0001:00022e0e       _ispunct                   10023e0e f i LIBCMT:_ctype.obj
 0001:00022e39       _isspace                   10023e39 f i LIBCMT:_ctype.obj
 0001:00022e64       _isupper                   10023e64 f i LIBCMT:_ctype.obj
 0001:00022e8f       _isxdigit                  10023e8f f i LIBCMT:_ctype.obj
 0001:00022ebc       __tolower                  10023ebc f   LIBCMT:tolower.obj
 0001:00022ec7       __tolower_l                10023ec7 f   LIBCMT:tolower.obj
 0001:0002300a       _tolower                   1002400a f   LIBCMT:tolower.obj
 0001:00023036       _strcpy_s                  10024036 f   LIBCMT:strcpy_s.obj
 0001:00023090       _strrchr                   10024090 f   LIBCMT:strrchr.obj
 0001:000231c7       __fptostr                  100241c7 f   LIBCMT:_fptostr.obj
 0001:00023277       ___crt_atoflt_l            10024277 f   LIBCMT:atodbl.obj
 0001:0002331b       __atodbl                   1002431b f   LIBCMT:atodbl.obj
 0001:00023330       __atodbl_l                 10024330 f   LIBCMT:atodbl.obj
 0001:000233be       __atoflt                   100243be f   LIBCMT:atodbl.obj
 0001:000233d3       __atoflt_l                 100243d3 f   LIBCMT:atodbl.obj
 0001:000233eb       __atoldbl                  100243eb f   LIBCMT:atodbl.obj
 0001:00023400       __atoldbl_l                10024400 f   LIBCMT:atodbl.obj
 0001:0002348f       ___dtold                   1002448f f   LIBCMT:cfout.obj
 0001:00023557       __fltout2                  10024557 f   LIBCMT:cfout.obj
 0001:000235f0       __alldvrm                  100245f0 f   LIBCMT:lldvrm.obj
 0001:000236d0       __aullshr                  100246d0 f   LIBCMT:ullshr.obj
 0001:000236ef       __get_output_format        100246ef f   LIBCMT:outputformat.obj
 0001:000236f5       __set_output_format        100246f5 f   LIBCMT:outputformat.obj
 0001:00023727       __controlfp_s              10024727 f   LIBCMT:contrlfp.obj
 0001:00023784       __fptrap                   10024784 f   LIBCMT:crt0fp.obj
 0001:0002378d       __msize                    1002478d f   LIBCMT:msize.obj
 0001:000237be       __recalloc                 100247be f   LIBCMT:recalloc.obj
 0001:00023827       _strncpy_s                 10024827 f   LIBCMT:strncpy_s.obj
 0001:000239af       __MallocaIsSizeInRange     100249af f i LIBCMT:a_loc.obj
 0001:000239c0       __MarkAllocaS              100249c0 f i LIBCMT:a_loc.obj
 0001:000239d4       ___crtGetLocaleInfoA       100249d4 f   LIBCMT:a_loc.obj
 0001:00023a0e       __freea                    10024a0e f i LIBCMT:a_loc.obj
 0001:00023a2c       _GetTableIndexFromLcid     10024a2c f   LIBCMT:winapinls.obj
 0001:00023a61       _GetTableIndexFromLocaleName 10024a61 f   LIBCMT:winapinls.obj
 0001:00023aaf       ___crtCompareStringEx      10024aaf f   LIBCMT:winapinls.obj
 0001:00023afb       ___crtDownlevelLCIDToLocaleName 10024afb f   LIBCMT:winapinls.obj
 0001:00023b77       ___crtDownlevelLocaleNameToLCID 10024b77 f   LIBCMT:winapinls.obj
 0001:00023bb5       ___crtEnumSystemLocalesEx  10024bb5 f   LIBCMT:winapinls.obj
 0001:00023bf2       ___crtGetDateFormatEx      10024bf2 f   LIBCMT:winapinls.obj
 0001:00023c3b       ___crtGetLocaleInfoEx      10024c3b f   LIBCMT:winapinls.obj
 0001:00023c6a       ___crtGetTimeFormatEx      10024c6a f   LIBCMT:winapinls.obj
 0001:00023c9f       ___crtGetUserDefaultLocaleName 10024c9f f   LIBCMT:winapinls.obj
 0001:00023cca       ___crtIsValidLocaleName    10024cca f   LIBCMT:winapinls.obj
 0001:00023cf5       ___crtLCMapStringEx        10024cf5 f   LIBCMT:winapinls.obj
 0001:00023d41       ___wcsnicmp_ascii          10024d41 f   LIBCMT:winapinls.obj
 0001:00023fd3       ___crtLCMapStringA         10024fd3 f   LIBCMT:a_map.obj
 0001:00024111       ___crtGetStringTypeA       10025111 f   LIBCMT:a_str.obj
 0001:00024151       __commit                   10025151 f   LIBCMT:commit.obj
 0001:0002423a       ___lock_fhandle            1002523a f   LIBCMT:osfinfo.obj
 0001:000242c8       __alloc_osfhnd             100252c8 f   LIBCMT:osfinfo.obj
 0001:00024471       __free_osfhnd              10025471 f   LIBCMT:osfinfo.obj
 0001:000244f7       __get_osfhandle            100254f7 f   LIBCMT:osfinfo.obj
 0001:0002455e       __open_osfhandle           1002555e f   LIBCMT:osfinfo.obj
 0001:00024674       __set_osfhnd               10025674 f   LIBCMT:osfinfo.obj
 0001:000246f6       __unlock_fhandle           100256f6 f   LIBCMT:osfinfo.obj
 0001:0002471c       __open                     1002571c f   LIBCMT:open.obj
 0001:000247cc       __sopen                    100257cc f   LIBCMT:open.obj
 0001:000247ff       __sopen_helper             100257ff f   LIBCMT:open.obj
 0001:000248c8       __sopen_nolock             100258c8 f   LIBCMT:open.obj
 0001:00024916       __sopen_s                  10025916 f   LIBCMT:open.obj
 0001:00024934       __mbsnbcmp                 10025934 f   LIBCMT:mbsnbcmp.obj
 0001:0002494c       __mbsnbcmp_l               1002594c f   LIBCMT:mbsnbcmp.obj
 0001:00024a63       __mbsnbicmp                10025a63 f   LIBCMT:mbsnbicm.obj
 0001:00024a7b       __mbsnbicmp_l              10025a7b f   LIBCMT:mbsnbicm.obj
 0001:00024c40       __global_unwind2           10025c40 f   LIBCMT:exsup.obj
 0001:00024ca5       __local_unwind2            10025ca5 f   LIBCMT:exsup.obj
 0001:00024d29       __abnormal_termination     10025d29 f   LIBCMT:exsup.obj
 0001:00024d4c       __NLG_Notify1              10025d4c f   LIBCMT:exsup.obj
 0001:00024d55       __NLG_Notify               10025d55 f   LIBCMT:exsup.obj
 0001:00024d6c       __NLG_Dispatch             10025d6c     LIBCMT:exsup.obj
 0001:00024d6c       __NLG_Dispatch2            10025d6c     LIBCMT:exsup.obj
 0001:00024d74       __NLG_Call                 10025d74 f   LIBCMT:exsup.obj
 0001:00024d76       __NLG_Return2              10025d76     LIBCMT:exsup.obj
 0001:00024d77       __getbuf                   10025d77 f   LIBCMT:_getbuf.obj
 0001:00024dbd       __lseeki64                 10025dbd f   LIBCMT:lseeki64.obj
 0001:00024eb9       __lseeki64_nolock          10025eb9 f   LIBCMT:lseeki64.obj
 0001:00024f2c       __mbtowc_l                 10025f2c f   LIBCMT:mbtowc.obj
 0001:00025021       _mbtowc                    10026021 f   LIBCMT:mbtowc.obj
 0001:00025039       __putwch                   10026039 f   LIBCMT:putwch.obj
 0001:00025085       __putwch_nolock            10026085 f   LIBCMT:putwch.obj
 0001:000250d0       __chkstk                   100260d0 f   LIBCMT:chkstk.obj
 0001:000250d0       __alloca_probe             100260d0 f   LIBCMT:chkstk.obj
 0001:000250fb       __vfwprintf_l              100260fb f   LIBCMT:vfwprint.obj
 0001:00025119       __vfwprintf_p              10026119 f   LIBCMT:vfwprint.obj
 0001:00025136       __vfwprintf_p_l            10026136 f   LIBCMT:vfwprint.obj
 0001:00025154       __vfwprintf_s_l            10026154 f   LIBCMT:vfwprint.obj
 0001:00025172       _vfwprintf                 10026172 f   LIBCMT:vfwprint.obj
 0001:0002518f       _vfwprintf_helper          1002618f f   LIBCMT:vfwprint.obj
 0001:00025222       _vfwprintf_s               10026222 f   LIBCMT:vfwprint.obj
 0001:0002523f       __woutput_l                1002623f f   LIBCMT:woutput.obj
 0001:00025f1e       __woutput_s_l              10026f1e f   LIBCMT:woutputs.obj
 0001:00026c35       __validate_param_reuseW    10027c35 f   LIBCMT:woutputp.obj
 0001:00026dad       __woutput_p_l              10027dad f   LIBCMT:woutputp.obj
 0001:000281d6       __ismbbalnum               100291d6 f   LIBCMT:ismbbyte.obj
 0001:000281ef       __ismbbalnum_l             100291ef f   LIBCMT:ismbbyte.obj
 0001:00028209       __ismbbalpha               10029209 f   LIBCMT:ismbbyte.obj
 0001:00028222       __ismbbalpha_l             10029222 f   LIBCMT:ismbbyte.obj
 0001:0002823c       __ismbbblank               1002923c f   LIBCMT:ismbbyte.obj
 0001:0002825d       __ismbbblank_l             1002925d f   LIBCMT:ismbbyte.obj
 0001:0002827f       __ismbbgraph               1002927f f   LIBCMT:ismbbyte.obj
 0001:00028298       __ismbbgraph_l             10029298 f   LIBCMT:ismbbyte.obj
 0001:000282b2       __ismbbkalnum              100292b2 f   LIBCMT:ismbbyte.obj
 0001:000282c8       __ismbbkalnum_l            100292c8 f   LIBCMT:ismbbyte.obj
 0001:000282df       __ismbbkana                100292df f   LIBCMT:ismbbyte.obj
 0001:000282f0       __ismbbkana_l              100292f0 f   LIBCMT:ismbbyte.obj
 0001:0002833c       __ismbbkprint              1002933c f   LIBCMT:ismbbyte.obj
 0001:00028352       __ismbbkprint_l            10029352 f   LIBCMT:ismbbyte.obj
 0001:00028369       __ismbbkpunct              10029369 f   LIBCMT:ismbbyte.obj
 0001:0002837f       __ismbbkpunct_l            1002937f f   LIBCMT:ismbbyte.obj
 0001:00028396       __ismbblead                10029396 f   LIBCMT:ismbbyte.obj
 0001:000283ac       __ismbblead_l              100293ac f   LIBCMT:ismbbyte.obj
 0001:000283c3       __ismbbprint               100293c3 f   LIBCMT:ismbbyte.obj
 0001:000283dc       __ismbbprint_l             100293dc f   LIBCMT:ismbbyte.obj
 0001:000283f6       __ismbbpunct               100293f6 f   LIBCMT:ismbbyte.obj
 0001:0002840c       __ismbbpunct_l             1002940c f   LIBCMT:ismbbyte.obj
 0001:00028423       __ismbbtrail               10029423 f   LIBCMT:ismbbyte.obj
 0001:00028439       __ismbbtrail_l             10029439 f   LIBCMT:ismbbyte.obj
 0001:00028676       __strtol_l                 10029676 f   LIBCMT:strtol.obj
 0001:00028691       __strtoul_l                10029691 f   LIBCMT:strtol.obj
 0001:000286ac       _strtol                    100296ac f   LIBCMT:strtol.obj
 0001:000286d6       _strtoul                   100296d6 f   LIBCMT:strtol.obj
 0001:00028700       ___free_lconv_mon          10029700 f   LIBCMT:initmon.obj
 0001:000287fc       ___init_monetary           100297fc f   LIBCMT:initmon.obj
 0001:00028bd5       ___free_lconv_num          10029bd5 f   LIBCMT:initnum.obj
 0001:00028c3c       ___init_numeric            10029c3c f   LIBCMT:initnum.obj
 0001:00028e7a       ___free_lc_time            10029e7a f   LIBCMT:inittime.obj
 0001:000291fa       ___init_time               1002a1fa f   LIBCMT:inittime.obj
 0001:00029a69       _localeconv                1002aa69 f   LIBCMT:lconv.obj
 0001:00029a8f       __iswctype_l               1002aa8f f   LIBCMT:iswctype.obj
 0001:00029aa1       _is_wctype                 1002aaa1 f   LIBCMT:iswctype.obj
 0001:00029aaa       _iswctype                  1002aaaa f   LIBCMT:iswctype.obj
 0001:00029b00       ____lc_codepage_func       1002ab00 f   LIBCMT:initctyp.obj
 0001:00029b26       ____lc_collate_cp_func     1002ab26 f   LIBCMT:initctyp.obj
 0001:00029b4c       ____lc_locale_name_func    1002ab4c f   LIBCMT:initctyp.obj
 0001:00029b74       ____mb_cur_max_func        1002ab74 f   LIBCMT:initctyp.obj
 0001:00029b9a       ____mb_cur_max_l_func      1002ab9a f   LIBCMT:initctyp.obj
 0001:00029bb1       ___init_ctype              1002abb1 f   LIBCMT:initctyp.obj
 0001:00029f49       ___pctype_func             1002af49 f   LIBCMT:ctype.obj
 0001:00029f72       ___pwctype_func            1002af72 f   LIBCMT:ctype.obj
 0001:00029f78       __isctype                  1002af78 f   LIBCMT:isctype.obj
 0001:00029fa7       __isctype_l                1002afa7 f   LIBCMT:isctype.obj
 0001:0002a058       ___init_dummy              1002b058 f   LIBCMT:wsetloca.obj
 0001:0002a05b       __locterm                  1002b05b f   LIBCMT:wsetloca.obj
 0001:0002a0ad       ____setlc_active_func      1002b0ad f   LIBCMT:wsetloca.obj
 0001:0002a0b3       ____unguarded_readlc_active_add_func 1002b0b3 f   LIBCMT:wsetloca.obj
 0001:0002a0b9       ___copy_locale_name        1002b0b9 f   LIBCMT:wsetloca.obj
 0001:0002a11d       ___create_locale           1002b11d f   LIBCMT:wsetloca.obj
 0001:0002a126       ___free_locale             1002b126 f   LIBCMT:wsetloca.obj
 0001:0002a12b       ___get_current_locale      1002b12b f   LIBCMT:wsetloca.obj
 0001:0002a130       ___lc_lctowcs              1002b130 f   LIBCMT:wsetloca.obj
 0001:0002a19e       ___lc_wcstolc              1002b19e f   LIBCMT:wsetloca.obj
 0001:0002a2ca       __configthreadlocale       1002b2ca f   LIBCMT:wsetloca.obj
 0001:0002a350       __create_locale            1002b350 f   LIBCMT:wsetloca.obj
 0001:0002a3b2       __expandlocale             1002b3b2 f   LIBCMT:wsetloca.obj
 0001:0002a6a9       __free_locale              1002b6a9 f   LIBCMT:wsetloca.obj
 0001:0002a760       __get_current_locale       1002b760 f   LIBCMT:wsetloca.obj
 0001:0002a80f       __wcreate_locale           1002b80f f   LIBCMT:wsetloca.obj
 0001:0002a8e6       __wcscats                  1002b8e6 f   LIBCMT:wsetloca.obj
 0001:0002a925       __wsetlocale               1002b925 f   LIBCMT:wsetloca.obj
 0001:0002b267       __CopyMan                  1002c267 f i LIBCMT:intrncvt.obj
 0001:0002b284       __FillZeroMan              1002c284 f i LIBCMT:intrncvt.obj
 0001:0002b293       __IncMan                   1002c293 f i LIBCMT:intrncvt.obj
 0001:0002b2f5       __IsZeroMan                1002c2f5 f i LIBCMT:intrncvt.obj
 0001:0002b312       __RoundMan                 1002c312 f i LIBCMT:intrncvt.obj
 0001:0002b413       __ShrMan                   1002c413 f i LIBCMT:intrncvt.obj
 0001:0002b4a1       __ZeroTail                 1002c4a1 f i LIBCMT:intrncvt.obj
 0001:0002b4e9       ___addl                    1002c4e9 f i LIBCMT:intrncvt.obj
 0001:0002b50d       __ld12cvt                  1002c50d f i LIBCMT:intrncvt.obj
 0001:0002ba78       __ld12tod                  1002ca78 f   LIBCMT:intrncvt.obj
 0001:0002bfea       __ld12tof                  1002cfea f   LIBCMT:intrncvt.obj
 0001:0002c55c       __ld12told                 1002d55c f   LIBCMT:intrncvt.obj
 0001:0002c62b       ___STRINGTOLD_L            1002d62b f   LIBCMT:strgtold.obj
 0001:0002c686       ___ld12mul                 1002d686 f i LIBCMT:strgtold.obj
 0001:0002c952       ___multtenpow12            1002d952 f i LIBCMT:strgtold.obj
 0001:0002cca5       ___shl_12                  1002dca5 f i LIBCMT:strgtold.obj
 0001:0002ccd6       ___shr_12                  1002dcd6 f i LIBCMT:strgtold.obj
 0001:0002cd06       ___strgtold12_l            1002dd06 f   LIBCMT:strgtold.obj
 0001:0002d4ae       _$I10_OUTPUT               1002e4ae f   LIBCMT:x10fout.obj
 0001:0002de82       ___add_12                  1002ee82 f i LIBCMT:x10fout.obj
 0001:0002e02e       ___control87_2             1002f02e f   LIBCMT:ieee87.obj
 0001:0002e6a2       __clearfp                  1002f6a2 f   LIBCMT:ieee87.obj
 0001:0002e782       __control87                1002f782 f i LIBCMT:ieee87.obj
 0001:0002ea84       __controlfp                1002fa84 f   LIBCMT:ieee87.obj
 0001:0002ed8f       __fpreset                  1002fd8f f   LIBCMT:ieee87.obj
 0001:0002ee5c       __set_controlfp            1002fe5c f   LIBCMT:ieee87.obj
 0001:0002eecf       __statusfp                 1002fecf f   LIBCMT:ieee87.obj
 0001:0002ef69       __statusfp2                1002ff69 f   LIBCMT:ieee87.obj
 0001:0002efd0       __alloca_probe_16          1002ffd0 f   LIBCMT:alloca16.obj
 0001:0002efe6       __alloca_probe_8           1002ffe6     LIBCMT:alloca16.obj
 0001:0002effc       _wcsnlen                   1002fffc f   LIBCMT:wcslen_s.obj
 0001:0002f0a3       __wopen                    100300a3 f   LIBCMT:wopen.obj
 0001:0002f153       __wsopen                   10030153 f   LIBCMT:wopen.obj
 0001:0002f186       __wsopen_helper            10030186 f   LIBCMT:wopen.obj
 0001:0002f24f       __wsopen_nolock            1003024f f   LIBCMT:wopen.obj
 0001:0002f9a2       __wsopen_s                 100309a2 f   LIBCMT:wopen.obj
 0001:0002f9c0       _strncmp                   100309c0 f   LIBCMT:strncmp.obj
 0001:0002fa38       __strnicmp                 10030a38 f   LIBCMT:strnicmp.obj
 0001:0002faa3       __strnicmp_l               10030aa3 f   LIBCMT:strnicmp.obj
 0001:0002fb54       ___termconout              10030b54 f   LIBCMT:initcon.obj
 0001:0002fb6b       ___initconout              10030b6b f   LIBCMT:initcon.obj
 0001:0002fb8a       __fputwc_nolock            10030b8a f   LIBCMT:fputwc.obj
 0001:0002fd10       _fputwc                    10030d10 f   LIBCMT:fputwc.obj
 0001:0002fd87       _putwc                     10030d87 f   LIBCMT:fputwc.obj
 0001:0002ff71       __wcstol_l                 10030f71 f   LIBCMT:wcstol.obj
 0001:0002ff89       __wcstoul_l                10030f89 f   LIBCMT:wcstol.obj
 0001:0002ffa1       _wcstol                    10030fa1 f   LIBCMT:wcstol.obj
 0001:0002ffb9       _wcstoul                   10030fb9 f   LIBCMT:wcstol.obj
 0001:0002ffd1       ___init_collate            10030fd1 f   LIBCMT:initcoll.obj
 0001:000300f1       _memcmp                    100310f1 f   LIBCMT:memcmp.obj
 0001:00033005       _wcscmp                    10034005 f   LIBCMT:wcscmp.obj
 0001:00033043       _wcscspn                   10034043 f   LIBCMT:wcscspn.obj
 0001:0003308e       _wcsncmp                   1003408e f   LIBCMT:wcsncmp.obj
 0001:000330c4       _wcspbrk                   100340c4 f   LIBCMT:wcspbrk.obj
 0001:000336c8       ___get_qualified_locale    100346c8 f   LIBCMT:getqloc.obj
 0001:00033f38       ___get_qualified_locale_downlevel 10034f38 f   LIBCMT:getqloc_downlevel.obj
 0001:00034154       ___mtold12                 10035154 f   LIBCMT:mantold.obj
 0001:00034334       __chsize                   10035334 f   LIBCMT:chsize.obj
 0001:0003434e       __chsize_nolock            1003534e f   LIBCMT:chsize.obj
 0001:00034504       __chsize_s                 10035504 f   LIBCMT:chsize.obj
 0001:000345f2       __get_fmode                100355f2 f   LIBCMT:setmode.obj
 0001:0003461c       __set_fmode                1003561c f   LIBCMT:setmode.obj
 0001:00034657       __setmode                  10035657 f   LIBCMT:setmode.obj
 0001:0003475c       __setmode_nolock           1003575c f   LIBCMT:setmode.obj
 0001:00034830       ___ascii_strnicmp          10035830 f   LIBCMT:_strnicm.obj
 0001:00034891       __flswbuf                  10035891 f   LIBCMT:_flswbuf.obj
 0001:000349f3       __wchartodigit             100359f3 f   LIBCMT:wchtodig.obj
 0001:00034b92       __wtoi                     10035b92 f   LIBCMT:wtox.obj
 0001:00034b9b       __wtoi64                   10035b9b f   LIBCMT:wtox.obj
 0001:00034baf       __wtoi64_l                 10035baf f   LIBCMT:wtox.obj
 0001:00034bc6       __wtoi_l                   10035bc6 f   LIBCMT:wtox.obj
 0001:00034bcf       __wtol                     10035bcf f   LIBCMT:wtox.obj
 0001:00034be3       __wtol_l                   10035be3 f   LIBCMT:wtox.obj
 0001:00034bfa       __wtoll                    10035bfa f   LIBCMT:wtox.obj
 0001:00034c0e       __wtoll_l                  10035c0e f   LIBCMT:wtox.obj
 0001:00034c25       _wcschr                    10035c25 f   LIBCMT:wcschr.obj
 0001:00034cd3       __wcsicmp                  10035cd3 f   LIBCMT:wcsicmp.obj
 0001:00034d66       __wcsicmp_l                10035d66 f   LIBCMT:wcsicmp.obj
 0001:00034e41       __wcsnicmp                 10035e41 f   LIBCMT:wcsnicmp.obj
 0001:00034ef7       __wcsnicmp_l               10035ef7 f   LIBCMT:wcsnicmp.obj
 0001:000352c0       __wcstof_l                 100362c0 f   LIBCMT:wcstoq.obj
 0001:00035373       __wcstoi64                 10036373 f   LIBCMT:wcstoq.obj
 0001:0003539d       __wcstoi64_l               1003639d f   LIBCMT:wcstoq.obj
 0001:000353b8       __wcstoimax_l              100363b8 f   LIBCMT:wcstoq.obj
 0001:000353c1       __wcstold_l                100363c1 f   LIBCMT:wcstoq.obj
 0001:000353ca       __wcstoll_l                100363ca f   LIBCMT:wcstoq.obj
 0001:000353d3       __wcstoui64                100363d3 f   LIBCMT:wcstoq.obj
 0001:000353fd       __wcstoui64_l              100363fd f   LIBCMT:wcstoq.obj
 0001:00035418       __wcstoull_l               10036418 f   LIBCMT:wcstoq.obj
 0001:00035421       __wcstoumax_l              10036421 f   LIBCMT:wcstoq.obj
 0001:0003542a       _wcstof                    1003642a f   LIBCMT:wcstoq.obj
 0001:0003543f       _wcstoimax                 1003643f f   LIBCMT:wcstoq.obj
 0001:00035448       _wcstold                   10036448 f   LIBCMT:wcstoq.obj
 0001:00035451       _wcstoll                   10036451 f   LIBCMT:wcstoq.obj
 0001:0003545a       _wcstoull                  1003645a f   LIBCMT:wcstoq.obj
 0001:00035463       _wcstoumax                 10036463 f   LIBCMT:wcstoq.obj
 0001:0003546c       __towlower_l               1003646c f   LIBCMT:towlower.obj
 0001:0003551d       _towlower                  1003651d f   LIBCMT:towlower.obj
 0001:0003552e       __wcstod_l                 1003652e f   LIBCMT:wcstod.obj
 0001:00035629       _wcstod                    10036629 f   LIBCMT:wcstod.obj
 0001:00035640       __allmul                   10036640 f   LIBCMT:llmul.obj
 0001:00035674       ___crtLCMapStringW         10036674 f   LIBCMT:w_map.obj
 0001:000356a3       __wfltin2                  100366a3 f   LIBCMT:wcfin.obj
 0001:00035750       ___WSTRINGTOLD_L           10036750 f   LIBCMT:wstrgtold.obj
 0001:000357ab       ___wstrgtold12_l           100367ab f   LIBCMT:wstrgtold.obj
 0001:00035ffc       _GetModuleHandleA@4        10036ffc f   kernel32:KERNEL32.dll
 0001:00036002       _GetProcAddress@8          10037002 f   kernel32:KERNEL32.dll
 0001:00036008       _HeapAlloc@12              10037008 f   kernel32:KERNEL32.dll
 0001:0003600e       _IsDebuggerPresent@0       1003700e f   kernel32:KERNEL32.dll
 0001:00036014       _IsProcessorFeaturePresent@4 10037014 f   kernel32:KERNEL32.dll
 0001:0003601a       _EncodePointer@4           1003701a f   kernel32:KERNEL32.dll
 0001:00036020       _DecodePointer@4           10037020 f   kernel32:KERNEL32.dll
 0001:00036026       _GetLastError@0            10037026 f   kernel32:KERNEL32.dll
 0001:0003602c       _ExitProcess@4             1003702c f   kernel32:KERNEL32.dll
 0001:00036032       _GetModuleHandleExW@12     10037032 f   kernel32:KERNEL32.dll
 0001:00036038       _AreFileApisANSI@0         10037038 f   kernel32:KERNEL32.dll
 0001:0003603e       _MultiByteToWideChar@24    1003703e f   kernel32:KERNEL32.dll
 0001:00036044       _WideCharToMultiByte@32    10037044 f   kernel32:KERNEL32.dll
 0001:0003604a       _HeapFree@12               1003704a f   kernel32:KERNEL32.dll
 0001:00036050       _HeapReAlloc@16            10037050 f   kernel32:KERNEL32.dll
 0001:00036056       _EnterCriticalSection@4    10037056 f   kernel32:KERNEL32.dll
 0001:0003605c       _LeaveCriticalSection@4    1003705c f   kernel32:KERNEL32.dll
 0001:00036062       _GetStdHandle@4            10037062 f   kernel32:KERNEL32.dll
 0001:00036068       _GetFileType@4             10037068 f   kernel32:KERNEL32.dll
 0001:0003606e       _GetModuleFileNameW@12     1003706e f   kernel32:KERNEL32.dll
 0001:00036074       _WriteConsoleW@20          10037074 f   kernel32:KERNEL32.dll
 0001:0003607a       _GetCommandLineA@0         1003707a f   kernel32:KERNEL32.dll
 0001:00036080       _GetCurrentThreadId@0      10037080 f   kernel32:KERNEL32.dll
 0001:00036086       _WriteFile@20              10037086 f   kernel32:KERNEL32.dll
 0001:0003608c       _GetProcessHeap@0          1003708c f   kernel32:KERNEL32.dll
 0001:00036092       _UnhandledExceptionFilter@4 10037092 f   kernel32:KERNEL32.dll
 0001:00036098       _SetUnhandledExceptionFilter@4 10037098 f   kernel32:KERNEL32.dll
 0001:0003609e       _SetLastError@4            1003709e f   kernel32:KERNEL32.dll
 0001:000360a4       _InitializeCriticalSectionAndSpinCount@8 100370a4 f   kernel32:KERNEL32.dll
 0001:000360aa       _CreateEventW@16           100370aa f   kernel32:KERNEL32.dll
 0001:000360b0       _Sleep@4                   100370b0 f   kernel32:KERNEL32.dll
 0001:000360b6       _GetCurrentProcess@0       100370b6 f   kernel32:KERNEL32.dll
 0001:000360bc       _TerminateProcess@8        100370bc f   kernel32:KERNEL32.dll
 0001:000360c2       _TlsAlloc@0                100370c2 f   kernel32:KERNEL32.dll
 0001:000360c8       _TlsGetValue@4             100370c8 f   kernel32:KERNEL32.dll
 0001:000360ce       _TlsSetValue@8             100370ce f   kernel32:KERNEL32.dll
 0001:000360d4       _TlsFree@4                 100370d4 f   kernel32:KERNEL32.dll
 0001:000360da       _GetStartupInfoW@4         100370da f   kernel32:KERNEL32.dll
 0001:000360e0       _GetTickCount@0            100370e0 f   kernel32:KERNEL32.dll
 0001:000360e6       _GetModuleHandleW@4        100370e6 f   kernel32:KERNEL32.dll
 0001:000360ec       _CreateSemaphoreW@16       100370ec f   kernel32:KERNEL32.dll
 0001:000360f2       _DeleteCriticalSection@4   100370f2 f   kernel32:KERNEL32.dll
 0001:000360f8       _FatalAppExitA@8           100370f8 f   kernel32:KERNEL32.dll
 0001:000360fe       _SetConsoleCtrlHandler@8   100370fe f   kernel32:KERNEL32.dll
 0001:00036104       _FreeLibrary@4             10037104 f   kernel32:KERNEL32.dll
 0001:0003610a       _LoadLibraryExW@12         1003710a f   kernel32:KERNEL32.dll
 0001:00036110       _IsValidCodePage@4         10037110 f   kernel32:KERNEL32.dll
 0001:00036116       _GetACP@0                  10037116 f   kernel32:KERNEL32.dll
 0001:0003611c       _GetOEMCP@0                1003711c f   kernel32:KERNEL32.dll
 0001:00036122       _GetCPInfo@8               10037122 f   kernel32:KERNEL32.dll
 0001:00036128       _CloseHandle@4             10037128 f   kernel32:KERNEL32.dll
 0001:0003612e       _RtlUnwind@16              1003712e f   kernel32:KERNEL32.dll
 0001:00036134       _ReadFile@20               10037134 f   kernel32:KERNEL32.dll
 0001:0003613a       _GetConsoleMode@8          1003713a f   kernel32:KERNEL32.dll
 0001:00036140       _ReadConsoleW@20           10037140 f   kernel32:KERNEL32.dll
 0001:00036146       _GetConsoleCP@0            10037146 f   kernel32:KERNEL32.dll
 0001:0003614c       _DeleteFileW@4             1003714c f   kernel32:KERNEL32.dll
 0001:00036152       _SetFilePointerEx@20       10037152 f   kernel32:KERNEL32.dll
 0001:00036158       _RaiseException@16         10037158 f   kernel32:KERNEL32.dll
 0001:0003615e       _OutputDebugStringW@4      1003715e f   kernel32:KERNEL32.dll
 0001:00036164       _GetCurrentThread@0        10037164 f   kernel32:KERNEL32.dll
 0001:0003616a       _GetModuleFileNameA@12     1003716a f   kernel32:KERNEL32.dll
 0001:00036170       _QueryPerformanceCounter@4 10037170 f   kernel32:KERNEL32.dll
 0001:00036176       _GetCurrentProcessId@0     10037176 f   kernel32:KERNEL32.dll
 0001:0003617c       _GetSystemTimeAsFileTime@4 1003717c f   kernel32:KERNEL32.dll
 0001:00036182       _GetEnvironmentStringsW@0  10037182 f   kernel32:KERNEL32.dll
 0001:00036188       _FreeEnvironmentStringsW@4 10037188 f   kernel32:KERNEL32.dll
 0001:0003618e       _HeapSize@12               1003718e f   kernel32:KERNEL32.dll
 0001:00036194       _GetDateFormatW@24         10037194 f   kernel32:KERNEL32.dll
 0001:0003619a       _GetTimeFormatW@24         1003719a f   kernel32:KERNEL32.dll
 0001:000361a0       _CompareStringW@24         100371a0 f   kernel32:KERNEL32.dll
 0001:000361a6       _LCMapStringW@24           100371a6 f   kernel32:KERNEL32.dll
 0001:000361ac       _GetLocaleInfoW@16         100371ac f   kernel32:KERNEL32.dll
 0001:000361b2       _IsValidLocale@8           100371b2 f   kernel32:KERNEL32.dll
 0001:000361b8       _GetUserDefaultLCID@0      100371b8 f   kernel32:KERNEL32.dll
 0001:000361be       _EnumSystemLocalesW@8      100371be f   kernel32:KERNEL32.dll
 0001:000361c4       _GetStringTypeW@16         100371c4 f   kernel32:KERNEL32.dll
 0001:000361ca       _FlushFileBuffers@4        100371ca f   kernel32:KERNEL32.dll
 0001:000361d0       _SetStdHandle@8            100371d0 f   kernel32:KERNEL32.dll
 0001:000361d6       _CreateFileW@28            100371d6 f   kernel32:KERNEL32.dll
 0001:000361dc       _SetEndOfFile@4            100371dc f   kernel32:KERNEL32.dll
 0002:00000000       ___xc_a                    10042000     LIBCMT:crt0init.obj
 0002:00000104       ___xc_z                    10042104     LIBCMT:crt0init.obj
 0002:00000208       ___xi_a                    10042208     LIBCMT:crt0init.obj
 0002:00000424       ___xi_z                    10042424     LIBCMT:crt0init.obj
 0002:00000528       ___xp_a                    10042528     LIBCMT:crt0init.obj
 0002:0000083c       ___xp_z                    1004283c     LIBCMT:crt0init.obj
 0002:00000940       ___xt_a                    10042940     LIBCMT:crt0init.obj
 0002:00000a44       ___xt_z                    10042a44     LIBCMT:crt0init.obj
 0002:00000b88       _Registration_Estimation_M 10042b88     Registration_Estimation.obj
 0002:00000b8c       ??_C@_0BI@PEBACBDB@Error?5creating?5scope?53?6?$AA@ 10042b8c     Registration_Estimation.obj
 0002:00000ba8       ??_C@_0N@GMLOCEOH@count_to_mm1?$AA@ 10042ba8     Registration_Estimation.obj
 0002:00000bb8       ??_C@_09LIAEOFKL@Xdata?4dat?$AA@ 10042bb8     Registration_Estimation.obj
 0002:00000bc4       ??_C@_0BI@PBFPDHLE@Error?5creating?5scope?54?6?$AA@ 10042bc4     Registration_Estimation.obj
 0002:00000be0       ??_C@_0M@OJGPAKGO@count_to_mm?$AA@ 10042be0     Registration_Estimation.obj
 0002:00000bf0       ??_C@_09FHMGIOJF@Ydata?4dat?$AA@ 10042bf0     Registration_Estimation.obj
 0002:00000bfc       ??_C@_0BI@PAJNFNID@Error?5creating?5scope?55?6?$AA@ 10042bfc     Registration_Estimation.obj
 0002:00000c18       ??_C@_0O@FCMEFKFF@Hit?5?5Crossing?$AA@ 10042c18     Registration_Estimation.obj
 0002:00000c28       ??_C@_0BI@PCNLODNK@Error?5creating?5scope?56?6?$AA@ 10042c28     Registration_Estimation.obj
 0002:00000c44       ??_C@_0BB@BHGHOFID@Data?5Store?5Read1?$AA@ 10042c44     Registration_Estimation.obj
 0002:00000c58       ??_C@_06KFNFIEK@?$CF15?46f?$AA@ 10042c58     Registration_Estimation.obj
 0002:00000c60       ??_C@_0BI@PHJEPFFP@Error?5creating?5scope?51?6?$AA@ 10042c60     Registration_Estimation.obj
 0002:00000c7c       ??_C@_0N@EHJDHHCE@count_to_mm2?$AA@ 10042c7c     Registration_Estimation.obj
 0002:00000c8c       ??_C@_09LMPBDFJG@Zdata?4dat?$AA@ 10042c8c     Registration_Estimation.obj
 0002:00000c98       ??_C@_0BI@PFNCELAG@Error?5creating?5scope?52?6?$AA@ 10042c98     Registration_Estimation.obj
 0002:00000cb4       ??_C@_0BE@FCJPLBLD@Byte?5Unpacking?51?1s3?$AA@ 10042cb4     Registration_Estimation.obj
 0002:00000ccc       ??_C@_0BI@PDBJIJON@Error?5creating?5scope?57?6?$AA@ 10042ccc     Registration_Estimation.obj
 0002:00000ce8       ??_C@_0BE@JELKHHOB@MATLAB?5Function2?1p1?$AA@ 10042ce8     Registration_Estimation.obj
 0002:00000d00       ??_C@_0BI@PIEFMONA@Error?5creating?5scope?58?6?$AA@ 10042d00     Registration_Estimation.obj
 0002:00000d1c       ??_C@_0L@HPNPCGCH@enable?4dat?$AA@ 10042d1c     Registration_Estimation.obj
 0002:00000d2c       ??_C@_0BI@PJIHKEOH@Error?5creating?5scope?59?6?$AA@ 10042d2c     Registration_Estimation.obj
 0002:00000d48       ??_C@_0BC@OJJPBDHH@FixedStepDiscrete?$AA@ 10042d48     Registration_Estimation.obj
 0002:00000d60       ??_C@_04EPKDLPPB@tout?$AA@ 10042d60     Registration_Estimation.obj
 0002:00000d66       ??_C@_00CNPNBAHC@?$AA@     10042d66     Registration_Estimation.obj
 0002:00000d68       ??_C@_03HBFGMJOD@rt_?$AA@  10042d68     Registration_Estimation.obj
 0002:00000d6c       ??_C@_09JLALMMJD@Receive?51?$AA@ 10042d6c     Registration_Estimation.obj
 0002:00000d78       ??_C@_0CC@ILKEJCDN@Registration_Estimation?1Receive?5@ 10042d78     Registration_Estimation.obj
 0002:00000da0       ??_C@_0BA@JCPIANNA@CNT32?98M?$CIPCI?$CJ?53?$AA@ 10042da0     Registration_Estimation.obj
 0002:00000db4       ??_C@_0CI@DPODKGMH@Registration_Estimation?1CNT32?98M@ 10042db4     Registration_Estimation.obj
 0002:00000de4       ??_C@_0BA@ILODDMJB@CNT32?98M?$CIPCI?$CJ?52?$AA@ 10042de4     Registration_Estimation.obj
 0002:00000df8       ??_C@_0CI@CGPIJHIG@Registration_Estimation?1CNT32?98M@ 10042df8     Registration_Estimation.obj
 0002:00000e28       ??_C@_0BA@KAMOGPFC@CNT32?98M?$CIPCI?$CJ?51?$AA@ 10042e28     Registration_Estimation.obj
 0002:00000e3c       ??_C@_0CI@NNFMEEF@Registration_Estimation?1CNT32?98M@ 10042e3c     Registration_Estimation.obj
 0002:00000e6c       ??_C@_0BA@KOPDHJJN@PCI?9DDA?508?512?53?$AA@ 10042e6c     Registration_Estimation.obj
 0002:00000e80       ??_C@_0CI@DOINCIK@Registration_Estimation?1PCI?9DDA?5@ 10042e80     Registration_Estimation.obj
 0002:00000eb0       ??_C@_0BA@OBLCOPFK@PCI?9DDA?508?512?54?$AA@ 10042eb0     Registration_Estimation.obj
 0002:00000ec4       ??_C@_0CI@EMKJEEEN@Registration_Estimation?1PCI?9DDA?5@ 10042ec4     Registration_Estimation.obj
 0002:00000ef4       ??_C@_0BA@PIKJNOBL@PCI?9DDA?508?512?55?$AA@ 10042ef4     Registration_Estimation.obj
 0002:00000f08       ??_C@_0CI@FFLCHFAM@Registration_Estimation?1PCI?9DDA?5@ 10042f08     Registration_Estimation.obj
 0002:00000f38       ??_C@_0O@GDKFENNN@PCI?9DDA08?512?5?$AA@ 10042f38     Registration_Estimation.obj
 0002:00000f48       ??_C@_0CG@JMBLJABD@Registration_Estimation?1PCI?9DDA0@ 10042f48     Registration_Estimation.obj
 0002:00000f78       __real@3ca0000000000000    10042f78     Registration_Estimation.obj
 0002:00000f88       __real@3defffffffffffff    10042f88     Registration_Estimation.obj
 0002:00000f98       __real@3e00000000200000    10042f98     Registration_Estimation.obj
 0002:00000fa8       __real@3f847ae147ae147b    10042fa8     Registration_Estimation.obj
 0002:00000fb8       __real@3ff0000000000000    10042fb8     Registration_Estimation.obj
 0002:00000fc8       __real@4008000000000000    10042fc8     Registration_Estimation.obj
 0002:00000fd8       __real@4014000000000000    10042fd8     Registration_Estimation.obj
 0002:00000fe8       __real@4051800000000000    10042fe8     Registration_Estimation.obj
 0002:00000ff8       __real@407f400000000000    10042ff8     Registration_Estimation.obj
 0002:00001008       __real@409f400000000000    10043008     Registration_Estimation.obj
 0002:00001018       __real@40c3880000000000    10043018     Registration_Estimation.obj
 0002:00001028       __real@411e848000000000    10043028     Registration_Estimation.obj
 0002:00001038       __real@4190000000000000    10043038     Registration_Estimation.obj
 0002:00001048       __real@41f0000000000000    10043048     Registration_Estimation.obj
 0002:00001058       __real@bf7eb851eb851eb8    10043058     Registration_Estimation.obj
 0002:00001068       __real@bff0000000000000    10043068     Registration_Estimation.obj
 0002:00001080       __xmm@00000000000000003f847ae147ae147b 10043080     Registration_Estimation.obj
 0002:000010a0       __xmm@00000001000000010000000100000001 100430a0     Registration_Estimation.obj
 0002:000010c0       __xmm@000001e2000000230000004200000001 100430c0     Registration_Estimation.obj
 0002:000010e0       __xmm@41f00000000000000000000000000000 100430e0     Registration_Estimation.obj
 0002:00001100       __xmm@7fffffffffffffff7fffffffffffffff 10043100     Registration_Estimation.obj
 0002:0000262c       ??_C@_0BD@KDGDPNDI@MATLAB?5Function?1p1?$AA@ 1004462c     Registration_Estimation_capi.obj
 0002:00002644       ??_C@_04BKKAELJL@motX?$AA@ 10044644     Registration_Estimation_capi.obj
 0002:0000264c       ??_C@_0BD@IIEOKOPL@MATLAB?5Function?1p2?$AA@ 1004464c     Registration_Estimation_capi.obj
 0002:00002664       ??_C@_04DLLHKNK@motY?$AA@  10044664     Registration_Estimation_capi.obj
 0002:0000266c       ??_C@_0BB@BJOHOPHO@MATLAB?5Function1?$AA@ 1004466c     Registration_Estimation_capi.obj
 0002:00002680       ??_C@_08MKNAGGCH@Signal?51?$AA@ 10044680     Registration_Estimation_capi.obj
 0002:0000268c       ??_C@_0BE@LPJHCECC@MATLAB?5Function2?1p2?$AA@ 1004468c     Registration_Estimation_capi.obj
 0002:000026a4       ??_C@_0BE@KJNKFOFB@MATLAB?5Function3?1p1?$AA@ 100446a4     Registration_Estimation_capi.obj
 0002:000026bc       ??_C@_0BE@ICPHANJC@MATLAB?5Function3?1p2?$AA@ 100446bc     Registration_Estimation_capi.obj
 0002:000026d4       ??_C@_0BE@JLOMDMND@MATLAB?5Function3?1p3?$AA@ 100446d4     Registration_Estimation_capi.obj
 0002:000026ec       ??_C@_03LCFCCKMA@Abs?$AA@  100446ec     Registration_Estimation_capi.obj
 0002:000026f0       ??_C@_08LJDLLPJB@Y?5enable?$AA@ 100446f0     Registration_Estimation_capi.obj
 0002:000026fc       ??_C@_04FNILJHCI@Abs1?$AA@ 100446fc     Registration_Estimation_capi.obj
 0002:00002704       ??_C@_08GBPNJCEO@X?5Enable?$AA@ 10044704     Registration_Estimation_capi.obj
 0002:00002710       ??_C@_04HGKGMEOL@Abs2?$AA@ 10044710     Registration_Estimation_capi.obj
 0002:00002718       ??_C@_0BA@IBIFMAKE@Data?5Store?5Read?$AA@ 10044718     Registration_Estimation_capi.obj
 0002:0000272c       ??_C@_0BB@DMEKLGEA@Data?5Store?5Read2?$AA@ 1004472c     Registration_Estimation_capi.obj
 0002:00002740       ??_C@_0BB@CFFBIHAB@Data?5Store?5Read3?$AA@ 10044740     Registration_Estimation_capi.obj
 0002:00002754       ??_C@_07NBIGLNNE@Voltage?$AA@ 10044754     Registration_Estimation_capi.obj
 0002:00002760       ??_C@_09KGGNCPDB@VoltageY?5?$AA@ 10044760     Registration_Estimation_capi.obj
 0002:0000276c       ??_C@_08EHDCJHMC@Voltage1?$AA@ 1004476c     Registration_Estimation_capi.obj
 0002:00002778       ??_C@_09DAEBENAE@x?5Voltage?$AA@ 10044778     Registration_Estimation_capi.obj
 0002:00002784       ??_C@_08GMBPMEAB@Voltage2?$AA@ 10044784     Registration_Estimation_capi.obj
 0002:00002790       ??_C@_06NCIFHNFG@Y?5Data?$AA@ 10044790     Registration_Estimation_capi.obj
 0002:00002798       ??_C@_06HEPCHGOC@X?5Data?$AA@ 10044798     Registration_Estimation_capi.obj
 0002:000027a0       ??_C@_0BB@BHLBHFIE@Byte?5Unpacking?51?$AA@ 100447a0     Registration_Estimation_capi.obj
 0002:000027b4       ??_C@_09GDHNBGIO@orce?5Data?$AA@ 100447b4     Registration_Estimation_capi.obj
 0002:000027c0       ??_C@_06JMEOMOEA@counts?$AA@ 100447c0     Registration_Estimation_capi.obj
 0002:000027c8       ??_C@_0N@GFDFJHHC@Receive?51?1p1?$AA@ 100447c8     Registration_Estimation_capi.obj
 0002:000027d8       ??_C@_0N@EOBIMELB@Receive?51?1p2?$AA@ 100447d8     Registration_Estimation_capi.obj
 0002:000027e8       ??_C@_04LGKGJOPM@Sign?$AA@ 100447e8     Registration_Estimation_capi.obj
 0002:000027f0       ??_C@_05HCOABPBL@Sign1?$AA@ 100447f0     Registration_Estimation_capi.obj
 0002:000027f8       ??_C@_05FJMNEMNI@Sign2?$AA@ 100447f8     Registration_Estimation_capi.obj
 0002:00002800       ??_C@_04JMNNLCJG@Sum1?$AA@ 10044800     Registration_Estimation_capi.obj
 0002:00002808       ??_C@_04LHPAOBFF@Sum2?$AA@ 10044808     Registration_Estimation_capi.obj
 0002:00002810       ??_C@_04KOOLNABE@Sum3?$AA@ 10044810     Registration_Estimation_capi.obj
 0002:00002818       ??_C@_0BC@HLOAMCHO@Data?5Store?5Memory?$AA@ 10044818     Registration_Estimation_capi.obj
 0002:00002830       ??_C@_0N@DKJJGJMJ@InitialValue?$AA@ 10044830     Registration_Estimation_capi.obj
 0002:00002840       ??_C@_0BD@HBJLLLEL@Data?5Store?5Memory1?$AA@ 10044840     Registration_Estimation_capi.obj
 0002:00002858       ??_C@_0BD@FKLGOIII@Data?5Store?5Memory2?$AA@ 10044858     Registration_Estimation_capi.obj
 0002:00002870       ??_C@_0BD@EDKNNJMJ@Data?5Store?5Memory3?$AA@ 10044870     Registration_Estimation_capi.obj
 0002:00002888       ??_C@_0BB@GDNBGGCP@encoder?5offsets1?$AA@ 10044888     Registration_Estimation_capi.obj
 0002:0000289c       ??_C@_05LPIJGKJ@Value?$AA@ 1004489c     Registration_Estimation_capi.obj
 0002:000028a4       ??_C@_0BB@EIPMDFOM@encoder?5offsets2?$AA@ 100448a4     Registration_Estimation_capi.obj
 0002:000028b8       ??_C@_0BB@FBOHAEKN@encoder?5offsets3?$AA@ 100448b8     Registration_Estimation_capi.obj
 0002:000028cc       ??_C@_04OMOMKKFL@Gain?$AA@ 100448cc     Registration_Estimation_capi.obj
 0002:000028d4       ??_C@_0BC@IEAIMBLN@HitCrossingOffset?$AA@ 100448d4     Registration_Estimation_capi.obj
 0002:000028ec       ??_C@_02KKFPAPOP@P1?$AA@   100448ec     Registration_Estimation_capi.obj
 0002:000028f0       ??_C@_02IBHCFMCM@P2?$AA@   100448f0     Registration_Estimation_capi.obj
 0002:000028f4       ??_C@_02JIGJGNGN@P3?$AA@   100448f4     Registration_Estimation_capi.obj
 0002:000028f8       ??_C@_02NHCIPLKK@P4?$AA@   100448f8     Registration_Estimation_capi.obj
 0002:000028fc       ??_C@_02MODDMKOL@P5?$AA@   100448fc     Registration_Estimation_capi.obj
 0002:00002900       ??_C@_02OFBOJJCI@P6?$AA@   10044900     Registration_Estimation_capi.obj
 0002:00002904       ??_C@_02PMAFKIGJ@P7?$AA@   10044904     Registration_Estimation_capi.obj
 0002:00002908       ??_C@_02HLJNLEKG@P8?$AA@   10044908     Registration_Estimation_capi.obj
 0002:0000290c       ??_C@_02GCIGIFOH@P9?$AA@   1004490c     Registration_Estimation_capi.obj
 0002:00002910       ??_C@_03OPFJJGBF@P10?$AA@  10044910     Registration_Estimation_capi.obj
 0002:00002914       ??_C@_03PGECKHFE@P11?$AA@  10044914     Registration_Estimation_capi.obj
 0002:00002918       ??_C@_03NNGPPEJH@P12?$AA@  10044918     Registration_Estimation_capi.obj
 0002:0000291c       ??_C@_03MEHEMFNG@P13?$AA@  1004491c     Registration_Estimation_capi.obj
 0002:00002920       ??_C@_03ILDFFDBB@P14?$AA@  10044920     Registration_Estimation_capi.obj
 0002:00002924       ??_C@_03JCCOGCFA@P15?$AA@  10044924     Registration_Estimation_capi.obj
 0002:00002928       ??_C@_03LJADDBJD@P16?$AA@  10044928     Registration_Estimation_capi.obj
 0002:0000292c       ??_C@_03KABIAANC@P17?$AA@  1004492c     Registration_Estimation_capi.obj
 0002:00002930       ??_C@_03CHIABMBN@P18?$AA@  10044930     Registration_Estimation_capi.obj
 0002:00002934       ??_C@_03DOJLCNFM@P19?$AA@  10044934     Registration_Estimation_capi.obj
 0002:00002938       ??_C@_03ONBPCIEM@P20?$AA@  10044938     Registration_Estimation_capi.obj
 0002:0000293c       ??_C@_03PEAEBJAN@P21?$AA@  1004493c     Registration_Estimation_capi.obj
 0002:00002940       ??_C@_03NPCJEKMO@P22?$AA@  10044940     Registration_Estimation_capi.obj
 0002:00002944       ??_C@_03MGDCHLIP@P23?$AA@  10044944     Registration_Estimation_capi.obj
 0002:00002948       ??_C@_03IJHDONEI@P24?$AA@  10044948     Registration_Estimation_capi.obj
 0002:0000294c       ??_C@_03JAGINMAJ@P25?$AA@  1004494c     Registration_Estimation_capi.obj
 0002:00002950       ??_C@_03LLEFIPMK@P26?$AA@  10044950     Registration_Estimation_capi.obj
 0002:00002954       ??_C@_03KCFOLOIL@P27?$AA@  10044954     Registration_Estimation_capi.obj
 0002:00002958       ??_C@_03CFMGKCEE@P28?$AA@  10044958     Registration_Estimation_capi.obj
 0002:0000295c       ??_C@_03DMNNJDAF@P29?$AA@  1004495c     Registration_Estimation_capi.obj
 0002:00002960       ??_C@_03OMNNECHL@P30?$AA@  10044960     Registration_Estimation_capi.obj
 0002:00002964       ??_C@_03PFMGHDDK@P31?$AA@  10044964     Registration_Estimation_capi.obj
 0002:00002968       ??_C@_03NOOLCAPJ@P32?$AA@  10044968     Registration_Estimation_capi.obj
 0002:0000296c       ??_C@_03MHPABBLI@P33?$AA@  1004496c     Registration_Estimation_capi.obj
 0002:00002970       ??_C@_03IILBIHHP@P34?$AA@  10044970     Registration_Estimation_capi.obj
 0002:00002974       ??_C@_03JBKKLGDO@P35?$AA@  10044974     Registration_Estimation_capi.obj
 0002:00002978       ??_C@_06BNJCAIGJ@double?$AA@ 10044978     Registration_Estimation_capi.obj
 0002:00002980       ??_C@_06CNMIJIPB@real_T?$AA@ 10044980     Registration_Estimation_capi.obj
 0002:00002988       ??_C@_0O@PPAIJIHF@unsigned?5char?$AA@ 10044988     Registration_Estimation_capi.obj
 0002:00002998       ??_C@_09JBMFCIMO@boolean_T?$AA@ 10044998     Registration_Estimation_capi.obj
 0002:000029a4       ??_C@_07NCEHLPOC@uint8_T?$AA@ 100449a4     Registration_Estimation_capi.obj
 0002:000029b0       ??_C@_05KNFBNCOH@float?$AA@ 100449b0     Registration_Estimation_capi.obj
 0002:000029b8       ??_C@_0CJ@GGPBKPNK@Could?5not?5start?5ToAsyncQueue?5app@ 100449b8     Registration_Estimation_tgtconn.obj
 0002:00003250       ??_C@_0DJ@FHKINPLE@Unexpected?5itemKind?5?$DN?5DATA_ITEM?5@ 10045250     rt_logging.obj
 0002:00003294       ??_C@_0DA@IEHFPFCJ@Unexpected?5itemKind?$DN?$CFd?5in?5rt_Pro@ 10045294     rt_logging.obj
 0002:000032d0       ??_C@_0DA@IFLHJPBO@Unexpected?5itemKind?$DN?$CFd?5in?5rt_Pro@ 100452d0     rt_logging.obj
 0002:0000330c       ??_C@_0DA@IAPIIJJL@Unexpected?5itemKind?$DN?$CFd?5in?5rt_Pro@ 1004530c     rt_logging.obj
 0002:00003348       ??_C@_0BE@LCIGPJIG@MATLAB?55?40?5MAT?9file?$AA@ 10045348     rt_logging.obj
 0002:00003360       ??_C@_0FB@PCJEAJIB@?$CK?$CK?$CK?5Log?5variable?5?$CFs?5has?5wrapped?5@ 10045360     rt_logging.obj
 0002:000033c8       ??_C@_0MG@NKMLMOGF@?$CK?$CK?$CK?5To?5avoid?5wrapping?0?5explicitl@ 100453c8     rt_logging.obj
 0002:000034b8       ??_C@_0N@IPAEOLLP@_rtw_tmw?4tmw?$AA@ 100454b8     rt_logging.obj
 0002:000034c8       ??_C@_04HDOCAJNK@?$CFs?$CFs?$AA@ 100454c8     rt_logging.obj
 0002:000034d0       ??_C@_03ELIABIOC@w?$CLb?$AA@ 100454d0     rt_logging.obj
 0002:000034d4       ??_C@_0BF@JPILDDFA@?$CK?$CK?$CK?5Error?5opening?5?$CFs?$AA@ 100454d4     rt_logging.obj
 0002:000034f0       ??_C@_0BK@EEMDELA@unable?5to?5open?5data?5file?6?$AA@ 100454f0     rt_logging.obj
 0002:00003510       ??_C@_04CGFJFPFD@none?$AA@ 10045510     rt_logging.obj
 0002:00003518       ??_C@_0EE@LCGFPNON@?$CK?$CK?$CK?5Error?5creating?5signals?5struc@ 10045518     rt_logging.obj
 0002:0000356c       ??_C@_0CE@NHECEDMK@?$CK?$CK?$CK?5Error?5creating?5log?5variable?5@ 1004556c     rt_logging.obj
 0002:00003598       ??_C@_0DB@IOCGKAGH@?$CK?$CK?$CK?5Errors?5occurred?5when?5startin@ 10045598     rt_logging.obj
 0002:000035d4       ??_C@_0BO@BBLOGEBK@?$CK?$CK?$CK?5Memory?5allocation?5error?4?6?$AA@ 100455d4     rt_logging.obj
 0002:000035f8       ??_C@_0N@LGFBAGEL@?5?$CIreal?5part?$CJ?$AA@ 100455f8     rt_logging.obj
 0002:00003608       ??_C@_0KH@CGNMHNFE@?5?5?5?5varName?5?5?5?5?5?5?5?5?5?5?$DN?5?$CFs?$CFs?6?5?5?5?5@ 10045608     rt_logging.obj
 0002:000036d0       ??_C@_0LE@OALKKEFM@?5?5?5?5varName?5?5?5?5?5?5?5?5?5?5?$DN?5?$CFs?5?$CIcompl@ 100456d0     rt_logging.obj
 0002:000037a8       ??_C@_0KF@JDDLEOKO@?5?5?5?5varName?5?5?5?5?5?5?5?5?5?5?$DN?5?$CFs?6?5?5?5?5nR@ 100457a8     rt_logging.obj
 0002:00003870       ??_C@_0DP@HPDMIOFM@?$CK?$CK?$CK?5Using?5a?5default?5buffer?5of?5si@ 10045870     rt_logging.obj
 0002:000038c0       ??_C@_0KE@JEFOLKNF@?6?$CK?$CK?$CK?5Memory?5required?5to?5log?5vari@ 100458c0     rt_logging.obj
 0002:00003988       ??_C@_0JP@DKLMHCBI@?$CK?$CK?$CK?5Details?3?6?5?5?5?5?5?5?5varName?5?5?5?5?5@ 10045988     rt_logging.obj
 0002:00003a48       ??_C@_0CM@CAMILBED@?$CK?$CK?$CK?5Error?5allocating?5memory?5for?5@ 10045a48     rt_logging.obj
 0002:00003a7c       ??_C@_0DF@BBCNMOPM@?$CK?$CK?$CK?5Error?5allocating?5memory?5for?5@ 10045a7c     rt_logging.obj
 0002:00003ac0       ??_C@_0JP@DBCLPCCI@?$CK?$CK?$CK?5Details?3?6?5?5?5?5?5?5?5varName?5?5?5?5?5@ 10045ac0     rt_logging.obj
 0002:00003b80       ??_C@_0FK@DPGAOBGA@?$CK?$CK?$CK?5Error?5allocating?5memory?5for?5@ 10045b80     rt_logging.obj
 0002:00003bec       ??_C@_0BI@GGDNPHLJ@?$CK?$CK?$CK?5Error?5writing?5to?5?$CFs?$AA@ 10045bec     rt_logging.obj
 0002:00003c08       ??_C@_0CB@IBGJGELG@?$CK?$CK?$CK?5Error?5writing?5?$CFs?5due?5to?3?5?$CFs?6@ 10045c08     rt_logging.obj
 0002:00003c30       ??_C@_0CN@FLMCHCPB@?$CK?$CK?$CK?5Error?5writing?5log?5variable?5?$CF@ 10045c30     rt_logging.obj
 0002:00003c68       ??_C@_0DH@GAJCNOJP@?$CK?$CK?$CK?5Error?5writing?5structure?5log?5@ 10045c68     rt_logging.obj
 0002:00003cac       ??_C@_0BD@POEALECL@?$CK?$CK?5created?5?$CFs?5?$CK?$CK?6?6?$AA@ 10045cac     rt_logging.obj
 0002:00003cc8       __real@0000000000000000    10045cc8     rt_logging.obj
 0002:00003cd8       __real@4020000000000000    10045cd8     rt_logging.obj
 0002:00003ce8       __real@41dfffffffc00000    10045ce8     rt_logging.obj
 0002:00003cf8       __real@41efffffffe00000    10045cf8     rt_logging.obj
 0002:00003d08       __real@4330000000000000    10045d08     rt_logging.obj
 0002:00003d18       __real@8000000000000000    10045d18     rt_logging.obj
 0002:00003d28       __real@bfbf9add3afd2773    10045d28     rt_logging.obj
 0002:00003d38       __real@c000000000000000    10045d38     rt_logging.obj
 0002:00003d50       __xmm@20202020202020202020202020202020 10045d50     rt_logging.obj
 0002:00003d80       __real@3cb0000000000000    10045d80     rt_matrx.obj
 0002:00003d90       __real@3fe0000000000000    10045d90     rt_matrx.obj
 0002:00003db0       ??_C@_0BI@INNPNFJN@Memory?5Allocation?5Error?$AA@ 10045db0     rtw_modelmap_utils.obj
 0002:00003dd0       ??_C@_1HC@OAPLBLFC@?$AAC?$AA?3?$AA?2?$AAP?$AAR?$AAO?$AAG?$AAR?$AAA?$AA?$HO?$AA1?$AA?2?$AAM?$AAA?$AAT?$AAL?$AAA?$AAB?$AA?2?$AAR?$AA2?$AA0?$AA1?$AA6?$AAa?$AA?2?$AAr?$AAt?$AAw?$AA?2?$AAc?$AA?2@ 10045dd0     rtw_modelmap_utils.obj
 0002:00003e58       ??_C@_1CI@OEAJCJND@?$AAj?$AA?5?$AA?$DN?$AA?$DN?$AA?5?$AAe?$AAn?$AAc?$AAo?$AAd?$AAe?$AAd?$AAP?$AAa?$AAt?$AAh?$AAL?$AAe?$AAn?$AA?$AA@ 10045e58     rtw_modelmap_utils.obj
 0002:00003e88       ??_C@_1DC@NFAOIFKB@?$AAe?$AAn?$AAc?$AAo?$AAd?$AAe?$AAd?$AAP?$AAa?$AAt?$AAh?$AA?$FL?$AAj?$AA?9?$AA1?$AA?$FN?$AA?5?$AA?$DN?$AA?$DN?$AA?5?$AA?8?$AA?2?$AA0?$AA?8?$AA?$AA@ 10045e88     rtw_modelmap_utils.obj
 0002:00003ec4       ??_C@_1DI@FLNJGPEE@?$AAs?$AAi?$AAg?$AAC?$AAo?$AAm?$AAp?$AAl?$AAe?$AAx?$AAi?$AAt?$AAy?$AA?$FL?$AA?$CK?$AAs?$AAi?$AAg?$AAI?$AAd?$AAx?$AA?$FN?$AA?5?$AA?$CB?$AA?$DN?$AA?5?$AA1?$AA?$AA@ 10045ec4     rtw_modelmap_utils.obj
 0002:00003f08       ??_C@_1KI@OFELMGBG@?$AA?$CI?$AA?$CI?$AA?$CI?$AAd?$AAa?$AAt?$AAa?$AAT?$AAy?$AAp?$AAe?$AAM?$AAa?$AAp?$AA?$CJ?$AA?$FL?$AA?$CI?$AA?$CI?$AA?$CI?$AAs?$AAt?$AAa?$AAt?$AAe?$AAs?$AA?$CJ?$AA?$FL?$AA?$CI?$AAi?$AA?$CJ?$AA?$FN?$AA?4@ 10045f08     rtw_modelmap_utils.obj
 0002:00003fd4       ??_C@_1DA@ILCMPHNE@?$AAf?$AAu?$AAl?$AAl?$AAP?$AAa?$AAt?$AAh?$AA?5?$AA?$CB?$AA?$DN?$AA?5?$AA?$CI?$AA?$CI?$AAv?$AAo?$AAi?$AAd?$AA?5?$AA?$CK?$AA?$CJ?$AA0?$AA?$CJ?$AA?$AA@ 10045fd4     rtw_modelmap_utils.obj
 0002:00004010       ??_C@_1CI@OEPPFCCA@?$AAp?$AAa?$AAt?$AAh?$AA?5?$AA?$CB?$AA?$DN?$AA?5?$AA?$CI?$AA?$CI?$AAv?$AAo?$AAi?$AAd?$AA?5?$AA?$CK?$AA?$CJ?$AA0?$AA?$CJ?$AA?$AA@ 10046010     rtw_modelmap_utils.obj
 0002:00004040       ??_C@_1FK@GLJIMFHB@?$AA?$CI?$AA?$CI?$AAm?$AAm?$AAi?$AA?$CJ?$AA?9?$AA?$DO?$AAI?$AAn?$AAs?$AAt?$AAa?$AAn?$AAc?$AAe?$AAM?$AAa?$AAp?$AA?4?$AAf?$AAu?$AAl?$AAl?$AAP?$AAa?$AAt?$AAh?$AA?$CJ?$AA?5?$AA?$DN?$AA?$DN@ 10046040     rtw_modelmap_utils.obj
 0002:000040ac       ??_C@_1DG@HPCJGNCE@?$AAm?$AAm?$AAi?$AAP?$AAa?$AAt?$AAh?$AA?$FL?$AAp?$AAa?$AAt?$AAh?$AAL?$AAe?$AAn?$AA?9?$AA1?$AA?$FN?$AA?5?$AA?$DN?$AA?$DN?$AA?5?$AA?8?$AA?2?$AA0?$AA?8?$AA?$AA@ 100460ac     rtw_modelmap_utils.obj
 0002:000040ec       ??_C@_1DM@DBAOGGOO@?$AAm?$AAm?$AAi?$AAP?$AAa?$AAt?$AAh?$AA?$FL?$AAm?$AAm?$AAi?$AAP?$AAa?$AAt?$AAh?$AAL?$AAe?$AAn?$AA?9?$AA1?$AA?$FN?$AA?5?$AA?$DN?$AA?$DN?$AA?5?$AA?8?$AA?2?$AA0?$AA?8?$AA?$AA@ 100460ec     rtw_modelmap_utils.obj
 0002:00004134       ??_C@_1DC@LHIAKAFE@?$AAb?$AAl?$AAo?$AAc?$AAk?$AAP?$AAa?$AAt?$AAh?$AA?5?$AA?$CB?$AA?$DN?$AA?5?$AA?$CI?$AA?$CI?$AAv?$AAo?$AAi?$AAd?$AA?5?$AA?$CK?$AA?$CJ?$AA0?$AA?$CJ?$AA?$AA@ 10046134     rtw_modelmap_utils.obj
 0002:00004170       ??_C@_1GI@KIEJKPGC@?$AAf?$AAu?$AAl?$AAl?$AAS?$AAt?$AAa?$AAt?$AAe?$AAB?$AAl?$AAo?$AAc?$AAk?$AAP?$AAa?$AAt?$AAh?$AA?$FL?$AAf?$AAu?$AAl?$AAl?$AAS?$AAt?$AAa?$AAt?$AAe?$AAB?$AAl?$AAo?$AAc@ 10046170     rtw_modelmap_utils.obj
 0002:000041f0       ??_C@_1EE@DNPIBJHC@?$AA?$CI?$AA?$CI?$AAd?$AAi?$AAm?$AAM?$AAa?$AAp?$AA?$CJ?$AA?$FL?$AA?$CI?$AAm?$AAa?$AAp?$AAI?$AAd?$AAx?$AA?$CJ?$AA?$FN?$AA?4?$AAn?$AAu?$AAm?$AAD?$AAi?$AAm?$AAs?$AA?$CJ?$AA?5?$AA?$DN?$AA?$DN?$AA?5@ 100461f0     rtw_modelmap_utils.obj
 0002:00004244       ??_C@_06JFOKFOED@CSTATE?$AA@ 10046244     rtw_modelmap_utils.obj
 0002:0000424c       ??_C@_06FAENGAMN@DSTATE?$AA@ 1004624c     rtw_modelmap_utils.obj
 0002:00004254       ??_C@_1BI@LEBJNOGG@?$AAc?$AAs?$AAv?$AAI?$AAd?$AAx?$AA?5?$AA?$DO?$AA?$DN?$AA?5?$AA0?$AA?$AA@ 10046254     rtw_modelmap_utils.obj
 0002:00004270       ??_C@_1BA@KDMGHCHP@?$AAT?$AAI?$AAD?$AA?$DN?$AA?$DN?$AA?9?$AA1?$AA?$AA@ 10046270     rtw_modelmap_utils.obj
 0002:00004284       ??_C@_1DM@DHGKBPCE@?$AAs?$AAi?$AAg?$AAP?$AAa?$AAt?$AAh?$AA?$FL?$AAs?$AAi?$AAg?$AAP?$AAa?$AAt?$AAh?$AAL?$AAe?$AAn?$AA?9?$AA1?$AA?$FN?$AA?5?$AA?$DN?$AA?$DN?$AA?5?$AA?8?$AA?2?$AA0?$AA?8?$AA?$AA@ 10046284     rtw_modelmap_utils.obj
 0002:000042cc       _serialfifoground          100462cc     xpc_datatype_ground.obj
 0002:000042d8       _bcmsg1553ground           100462d8     xpc_datatype_ground.obj
 0002:000042e8       _bcstatground              100462e8     xpc_datatype_ground.obj
 0002:00004300       _bmmsg1553ground           10046300     xpc_datatype_ground.obj
 0002:00004320       _ptsetfilename             10046320     xpctarget.obj
 0002:00004324       _xmlfile                   10046324     xpctarget.obj
 0002:0000432c       ??_C@_0BI@CLOLHENL@Registration_Estimation?$AA@ 1004632c     xpctarget.obj
 0002:00004348       ??_C@_0L@CHBJKKFC@xpceSetVar?$AA@ 10046348     xpctarget.obj
 0002:00004358       ??_C@_03ICACBPID@6?44?$AA@ 10046358     xpctarget.obj
 0002:00004360       __real@3fb999999999999a    10046360     xpctarget.obj
 0002:00004370       __real@4059000000000000    10046370     xpctarget.obj
 0002:00004380       _Registration_Estimation_BIOMAP 10046380     appmappingData.obj
 0002:00004524       _Registration_Estimation_dtmap 10046524     appmappingData.obj
 0002:00004548       _Registration_Estimation_LBLMAP 10046548     appmappingData.obj
 0002:000046f0       _Registration_Estimation_SIDMAP 100466f0     appmappingData.obj
 0002:00004898       _Registration_Estimation_SBIO 10046898     appmappingData.obj
 0002:00004928       _Registration_Estimation_SLBL 10046928     appmappingData.obj
 0002:000049b8       _Registration_Estimation_PTIDSMAP 100469b8     appmappingData.obj
 0002:00004ec8       _Registration_Estimation_PTNAMESMAP 10046ec8     appmappingData.obj
 0002:000053d8       _Registration_Estimation_SPTMAP 100473d8     appmappingData.obj
 0002:00005660       _appInfo                   10047660     appmappingData.obj
 0002:00005a88       ??_C@_0ED@LKHIFFLC@Wrong?5number?5of?5input?5arguments?5@ 10047a88     xpcudpbytereceive.obj
 0002:00005ad8       ??_C@_0CN@MHEKKFIE@Output?5port?5width?5argument?5must?5@ 10047ad8     xpcudpbytereceive.obj
 0002:00005b10       ??_C@_0DC@KNMLNALJ@Error?5in?5udpbytereceive?3?5memory?5@ 10047b10     xpcudpbytereceive.obj
 0002:00005b4c       ??_C@_0CI@CAMPNCMJ@Error?3?5No?5UDP?5channel?5free?5or?5UD@ 10047b4c     xpcudpbytereceive.obj
 0002:00005b7c       ??_C@_0BE@CKBAIFD@encconteccnt328mpci?$AA@ 10047b7c     encconteccnt328mpci.obj
 0002:00005b94       ??_C@_0CG@PDPCNMMO@?$CFs?3?5?$CFd?5input?5args?5expected?0?5?$CFd?5p@ 10047b94     encconteccnt328mpci.obj
 0002:00005bc4       ??_C@_07GNCCFEIM@?$CFs?$CI?$CFd?$CJ?6?$AA@ 10047bc4     encconteccnt328mpci.obj
 0002:00005bd0       ??_C@_0CE@CLLJOMGM@?$CFs?$CI?$CFd?$CJ?5Sample?5Time?5?$CFf?5?$CIChannel?5?$CF@ 10047bd0     encconteccnt328mpci.obj
 0002:00005bfc       ??_C@_0CK@NDIIACOD@?$CFs?$CI?$CFd?$CJ?5PCI?5Bus?5?$CFd?5?5?5Slot?5?$CFd?5?5?5Ch@ 10047bfc     encconteccnt328mpci.obj
 0002:00005c30       ??_C@_0CO@OADOCJBA@?$CFs?3?5CNT32?98M?$CIPCI?$CJ?5not?5found?5at?5b@ 10047c30     encconteccnt328mpci.obj
 0002:00005c68       ??_C@_0CB@GGINOLOG@?5?5?5Initial?5Value?3?50x?$CFx?5Load?3?5?$CFd?6@ 10047c68     encconteccnt328mpci.obj
 0002:00005c90       ??_C@_0BL@JCCHIDDO@?5?5?5Start?5Method?3?5?$CFd?5?$CI0x?$CFx?$CJ?$AA@ 10047c90     encconteccnt328mpci.obj
 0002:00005cb0       ??_C@_0BL@ONAHILHM@?5?5?5Stop?5Method?3?5?$CFd?5?$CI0x?$CFx?$CJ?6?$AA@ 10047cb0     encconteccnt328mpci.obj
 0002:00005cd0       ??_C@_0BO@DJDJGILF@?5?5?5Input?5Signal?3?50x?$CFx?5?$CI0x?$CFx?$CJ?6?$AA@ 10047cd0     encconteccnt328mpci.obj
 0002:00005cf8       ??_C@_0GI@GFJKDDOK@?5?5?5Input?5Signal?5Overloaded?5?$CIStar@ 10047cf8     encconteccnt328mpci.obj
 0002:00005d74       ??_C@_0DK@GPOKCJIM@?5?5?5Rise?1Fall?1Match?50?1Match?51?5?5?5P@ 10047d74     encconteccnt328mpci.obj
 0002:00005dbc       ??_C@_0CD@KKOOHPOD@?5?5?5Zero?9Clear?3?5?$CFd?1?$CFd?1?$CFd?1?$CFd?5?$CI0x?$CFx@ 10047dbc     encconteccnt328mpci.obj
 0002:00005de8       ??_C@_0DC@FPLMBIJB@?5?5?5Match?50?5Overloaded?5?$CIPreset?1Ze@ 10047de8     encconteccnt328mpci.obj
 0002:00005e24       ??_C@_0DC@LHKLIIDA@?5?5?5Match?51?5Overloaded?5?$CIPreset?1Ze@ 10047e24     encconteccnt328mpci.obj
 0002:00005e60       ??_C@_0BO@EIIFPMDO@?5?5?5Digital?5Filter?3?5?$CFd?5?$CI0x?$CFx?$CJ?6?$AA@ 10047e60     encconteccnt328mpci.obj
 0002:00005e84       ??_C@_0BL@OJPKOPMK@?5?5?5Index?5Logic?3?5?$CFd?5?$CI0x?$CFx?$CJ?6?$AA@ 10047e84     encconteccnt328mpci.obj
 0002:00005ea4       ??_C@_0BL@JKPAGFND@?5?5?5Pulse?5Input?3?5?$CFd?5?$CI0x?$CFx?$CJ?6?$AA@ 10047ea4     encconteccnt328mpci.obj
 0002:00005ec4       ??_C@_0BJ@GNILLNEI@?5?5?5Direction?3?5?$CFd?5?$CI0x?$CFx?$CJ?6?$AA@ 10047ec4     encconteccnt328mpci.obj
 0002:00005ee4       ??_C@_0BO@DKFKJOII@?5?5?5Operation?5Mode?3?5?$CFd?5?$CI0x?$CFx?$CJ?6?$AA@ 10047ee4     encconteccnt328mpci.obj
 0002:00005f08       ??_C@_0BH@DBDDMMGO@?5?5?5COUNTER?5MODE?3?50x?$CFx?6?$AA@ 10047f08     encconteccnt328mpci.obj
 0002:00005f24       ??_C@_0BG@PGOHHDMJ@?5?5?5Preset?5Value?3?50x?$CFx?$AA@ 10047f24     encconteccnt328mpci.obj
 0002:00005f40       ??_C@_0BH@OBCHHCLB@?5?5?5Match?50?5Value?3?50x?$CFx?$AA@ 10047f40     encconteccnt328mpci.obj
 0002:00005f5c       ??_C@_0BI@PPJDJHAK@?5?5?5Match?51?5Value?3?50x?$CFx?6?$AA@ 10047f5c     encconteccnt328mpci.obj
 0002:00005f78       ??_C@_0CB@BHICGGII@?5?5?5One?5Shot?5Duration?3?5?$CFd?5?$CI0x?$CFx?$CJ?6@ 10047f78     encconteccnt328mpci.obj
 0002:00005fa0       ??_C@_0FK@MHKNLCPD@?5?5?5Output?5Signal?5?$CIMatch?50?11?5Abno@ 10047fa0     encconteccnt328mpci.obj
 0002:0000600c       ??_C@_0BB@JCAIALPL@?5?5?5OUTPUT?3?50x?$CFx?6?$AA@ 1004800c     encconteccnt328mpci.obj
 0002:00006020       ??_C@_0BM@KEHJNHBI@?5?5?5Index?5Enable?3?5?$CFd?5?$CI0x?$CFx?$CJ?6?$AA@ 10048020     encconteccnt328mpci.obj
 0002:00006044       ??_C@_0BC@PJJJOOAA@?5?5?5Z?9PULSE?3?50x?$CFx?6?$AA@ 10048044     encconteccnt328mpci.obj
 0002:0000605c       ??_C@_0CH@LIFPIGPB@?5?5?5Enable?5Digital?5Input?3?5?$CFd?5Outp@ 1004805c     encconteccnt328mpci.obj
 0002:0000608c       ??_C@_0DF@HCJHNGFD@?5?5?5Digital?5Output?5Initial?5Value?3@ 1004808c     encconteccnt328mpci.obj
 0002:000060cc       ??_C@_0CP@CNANCOON@?5?5?5External?5Output?5Signal?5Overlo@ 100480cc     encconteccnt328mpci.obj
 0002:00006104       ??_C@_0BC@MPAJBIJ@CB?5PCI?9DAS1602?116?$AA@ 10048104     dopci8255.obj
 0002:0000611c       ??_C@_0P@HKDMEDDF@CB?5PCI?9DAS1200?$AA@ 1004811c     dopci8255.obj
 0002:00006130       ??_C@_0BC@NLEKMPOI@CB?5PCI?9DAS1200?1JR?$AA@ 10048130     dopci8255.obj
 0002:00006148       ??_C@_0O@OECMNDND@CB?5PCI?9DIO48H?$AA@ 10048148     dopci8255.obj
 0002:00006158       ??_C@_0BA@MBPMNBMJ@CB?5PCI?9DDA02?112?$AA@ 10048158     dopci8255.obj
 0002:0000616c       ??_C@_0BA@EOLMCEGJ@CB?5PCI?9DDA04?112?$AA@ 1004816c     dopci8255.obj
 0002:00006180       ??_C@_0BA@ILEMMJGI@CB?5PCI?9DDA08?112?$AA@ 10048180     dopci8255.obj
 0002:00006194       ??_C@_0O@MIFNHFGL@CB?5PCI?9DIO24H?$AA@ 10048194     dopci8255.obj
 0002:000061a4       ??_C@_0O@BMNICGAE@CB?5PCI?9DIO96H?$AA@ 100481a4     dopci8255.obj
 0002:000061b4       ??_C@_0N@PCCDCCJA@CB?5PCI?9DIO24?$AA@ 100481b4     dopci8255.obj
 0002:000061c4       ??_C@_0BC@GIJMFEIN@CB?5PCI?9DAS1602?112?$AA@ 100481c4     dopci8255.obj
 0002:000061dc       ??_C@_0M@DJFFBOOL@NI?5PCI?96503?$AA@ 100481dc     dopci8255.obj
 0002:000061ec       ??_C@_0O@CJHADKHB@NI?5PCI?9DIO?996?$AA@ 100481ec     dopci8255.obj
 0002:000061fc       ??_C@_0M@PLHAOKFN@NI?5PXI?96508?$AA@ 100481fc     dopci8255.obj
 0002:0000620c       ??_C@_0N@NMILOOOH@NI?5PCI?96025E?$AA@ 1004820c     dopci8255.obj
 0002:0000621c       ??_C@_0BA@CMHAIHFM@CB?5PCI?9DUAL?9AC5?$AA@ 1004821c     dopci8255.obj
 0002:00006230       ??_C@_0BA@KFJABEMN@CB?5PCI?9DDA02?116?$AA@ 10048230     dopci8255.obj
 0002:00006244       ??_C@_0BA@CKNAOBGN@CB?5PCI?9DDA04?116?$AA@ 10048244     dopci8255.obj
 0002:00006258       ??_C@_0BA@OPCAAMGM@CB?5PCI?9DDA08?116?$AA@ 10048258     dopci8255.obj
 0002:0000626c       ??_C@_0BB@IGAELBME@CB?5PCIM?9DDA06?116?$AA@ 1004826c     dopci8255.obj
 0002:00006280       ??_C@_0BD@IPMBHKCA@CB?5PCIM?9DAS1602?116?$AA@ 10048280     dopci8255.obj
 0002:00006298       ??_C@_0N@MMEAKPPD@CB?5PCI?9DIO96?$AA@ 10048298     dopci8255.obj
 0002:000062a8       ??_C@_0BE@MDOBOAKD@CB?5?$CIMC?$CJ?5PCI?9DAS1001?$AA@ 100482a8     dopci8255.obj
 0002:000062c0       ??_C@_0BE@OIMMLDGA@CB?5?$CIMC?$CJ?5PCI?9DAS1002?$AA@ 100482c0     dopci8255.obj
 0002:000062d8       ??_C@_0BI@IHCNPKCM@No?5?$CFs?5at?5bus?5?$CFd?5slot?5?$CFd?$AA@ 100482d8     dopci8255.obj
 0002:000062f4       ??_C@_0CJ@MHHCOHM@Board?5base?5address?5came?5up?50?0?5ca@ 100482f4     dopci8255.obj
 0002:00006328       ??_C@_0BG@EPCOHGPO@?$CFs?3?5board?5not?5present?$AA@ 10048328     dacbpcidda0x12.obj
 0002:00006344       ??_C@_0CI@NFFNBHJA@?$CFs?5?$CIbus?5?$CFd?0?5slot?5?$CFd?$CJ?3?5board?5not?5@ 10048344     dacbpcidda0x12.obj
 0002:00006378       __real@3ee4f8b588e368f1    10048378     dacbpcidda0x12.obj
 0002:00006388       __real@4004000000000000    10048388     dacbpcidda0x12.obj
 0002:00006398       __real@4024000000000000    10048398     dacbpcidda0x12.obj
 0002:000063a8       __real@4034000000000000    100483a8     dacbpcidda0x12.obj
 0002:000063b8       __real@40b0000000000000    100483b8     dacbpcidda0x12.obj
 0002:000063c8       __real@40f0000000000000    100483c8     dacbpcidda0x12.obj
 0002:000063d4       ??_C@_0CC@DMFKNLL@VendorId?5?$DN?50x?$CFx?0?5DeviceId?5?$DN?50x?$CFx@ 100483d4     xpcruntime:xpcimports.obj
 0002:000063f8       ??_C@_0DH@OHCBLNMG@Subsystem?5Device?5ID?5?$DN?50x?$CFx?6Subsy@ 100483f8     xpcruntime:xpcimports.obj
 0002:00006430       ??_C@_0BD@MMMMEFCM@Class?5Code?5?$DN?50x?$CFx?6?$AA@ 10048430     xpcruntime:xpcimports.obj
 0002:00006444       ??_C@_0BE@OLDDDNHM@InterruptLine?5?$DN?5?$CFd?6?$AA@ 10048444     xpcruntime:xpcimports.obj
 0002:00006458       ??_C@_0BF@OLKLEKBD@bus?5?$DN?5?$CFd?0?5slot?5?$DN?5?$CFd?6?$AA@ 10048458     xpcruntime:xpcimports.obj
 0002:00006470       ??_C@_0CE@DGLLGDFH@?5?5?5?5Phys?5?5?5Virtual?5?5?5Length?5IO?1M@ 10048470     xpcruntime:xpcimports.obj
 0002:00006494       ??_C@_0BI@FEOPLEMG@?$CF08x?5?$CF08x?5?$CF08x?5?5?5?5?5?5?$CFc?6?$AA@ 10048494     xpcruntime:xpcimports.obj
 0002:000064ac       ??_C@_0BB@BNNCEDPC@rl32eScopeExists?$AA@ 100484ac     xpcruntime:xpcimports.obj
 0002:000064c0       ??_C@_0BM@FJBFEGFG@rl32eScopeExists?5not?5found?6?$AA@ 100484c0     xpcruntime:xpcimports.obj
 0002:000064dc       ??_C@_0O@BNNGKJEA@rl32eDefScope?$AA@ 100484dc     xpcruntime:xpcimports.obj
 0002:000064ec       ??_C@_0BJ@CDNOENKA@rl32eDefScope?5not?5found?6?$AA@ 100484ec     xpcruntime:xpcimports.obj
 0002:00006508       ??_C@_0P@CKNKILDP@rl32eAddSignal?$AA@ 10048508     xpcruntime:xpcimports.obj
 0002:00006518       ??_C@_0BK@GMJAJBAI@rl32eAddSignal?5not?5found?6?$AA@ 10048518     xpcruntime:xpcimports.obj
 0002:00006534       ??_C@_0BB@LDMIHGCE@rl32eGetSignalNo?$AA@ 10048534     xpcruntime:xpcimports.obj
 0002:00006548       ??_C@_0BM@LGAMBAID@rl32eGetSignalNo?5not?5found?6?$AA@ 10048548     xpcruntime:xpcimports.obj
 0002:00006564       ??_C@_0O@CFDGALBP@rl32eSetScope?$AA@ 10048564     xpcruntime:xpcimports.obj
 0002:00006574       ??_C@_0BJ@JCLHHIN@rl32eSetScope?5not?5found?6?$AA@ 10048574     xpcruntime:xpcimports.obj
 0002:00006590       ??_C@_0P@IKMCBMHH@xpceFSScopeSet?$AA@ 10048590     xpcruntime:xpcimports.obj
 0002:000065a0       ??_C@_0BK@JODJPNNH@xpceFSScopeSet?5not?5found?6?$AA@ 100485a0     xpcruntime:xpcimports.obj
 0002:000065bc       ??_C@_0BE@DLACEEJM@rl32eSetTargetScope?$AA@ 100485bc     xpcruntime:xpcimports.obj
 0002:000065d0       ??_C@_0BP@JCHFMKPJ@rl32eSetTargetScope?5not?5found?6?$AA@ 100485d0     xpcruntime:xpcimports.obj
 0002:000065f0       ??_C@_0BJ@LIDLNDHC@rl32eSetTargetScopeSigFt?$AA@ 100485f0     xpcruntime:xpcimports.obj
 0002:0000660c       ??_C@_0CE@JLGHCFHI@rl32eSetTargetScopeSigFt?5not?5fou@ 1004860c     xpcruntime:xpcimports.obj
 0002:00006630       ??_C@_0BI@JAPOIDNG@rl32eRestartAcquisition?$AA@ 10048630     xpcruntime:xpcimports.obj
 0002:00006648       ??_C@_0CD@LLBEFFBO@rl32eRestartAcquisition?5not?5foun@ 10048648     xpcruntime:xpcimports.obj
 0002:0000666c       ??_C@_0P@IEIIADJB@xpceScopeAcqOK?$AA@ 1004866c     xpcruntime:xpcimports.obj
 0002:0000667c       ??_C@_0BK@NJCKNFPN@xpceScopeAcqOK?5not?5found?6?$AA@ 1004867c     xpcruntime:xpcimports.obj
 0002:00006698       ??_C@_0BA@IJINKAHF@xpceRegisterISR?$AA@ 10048698     xpcruntime:xpcimports.obj
 0002:000066a8       ??_C@_0BL@NNDLOEJE@xpceRegisterISR?5not?5found?6?$AA@ 100486a8     xpcruntime:xpcimports.obj
 0002:000066c4       ??_C@_0BC@NLBADGKF@xpceDeRegisterISR?$AA@ 100486c4     xpcruntime:xpcimports.obj
 0002:000066d8       ??_C@_0BN@DCAIKFFD@xpceDeRegisterISR?5not?5found?6?$AA@ 100486d8     xpcruntime:xpcimports.obj
 0002:000066f8       ??_C@_0P@CPGPNKEB@xpceFTReadTime?$AA@ 100486f8     xpcruntime:xpcimports.obj
 0002:00006708       ??_C@_0BK@NMABIODN@xpceFTReadTime?5not?5found?6?$AA@ 10048708     xpcruntime:xpcimports.obj
 0002:00006724       ??_C@_09PHNHCHFH@xpceFTAdd?$AA@ 10048724     xpcruntime:xpcimports.obj
 0002:00006730       ??_C@_0BF@FJLEIILA@xpceFTAdd?5not?5found?6?$AA@ 10048730     xpcruntime:xpcimports.obj
 0002:00006748       ??_C@_0P@KEODBLHO@xpceFTSubtract?$AA@ 10048748     xpcruntime:xpcimports.obj
 0002:00006758       ??_C@_0BK@HONODOKP@xpceFTSubtract?5not?5found?6?$AA@ 10048758     xpcruntime:xpcimports.obj
 0002:00006774       ??_C@_07JPMEPILD@xpcInpB?$AA@ 10048774     xpcruntime:xpcimports.obj
 0002:0000677c       ??_C@_0BD@PGABEJOL@xpcInpB?5not?5found?6?$AA@ 1004877c     xpcruntime:xpcimports.obj
 0002:00006790       ??_C@_07KIHBBOKH@xpcInpW?$AA@ 10048790     xpcruntime:xpcimports.obj
 0002:00006798       ??_C@_0BD@FPCJFMCC@xpcInpW?5not?5found?6?$AA@ 10048798     xpcruntime:xpcimports.obj
 0002:000067ac       ??_C@_08KDIAJBOP@xpcInpDW?$AA@ 100487ac     xpcruntime:xpcimports.obj
 0002:000067b8       ??_C@_0BE@PIELDNIL@xpcInpDW?5not?5found?6?$AA@ 100487b8     xpcruntime:xpcimports.obj
 0002:000067cc       ??_C@_08PJFMOIGO@xpcOutpB?$AA@ 100487cc     xpcruntime:xpcimports.obj
 0002:000067d8       ??_C@_0BE@HCKNCEKF@xpcOutpB?5not?5found?6?$AA@ 100487d8     xpcruntime:xpcimports.obj
 0002:000067ec       ??_C@_08MOOJAOHK@xpcOutpW?$AA@ 100487ec     xpcruntime:xpcimports.obj
 0002:000067f8       ??_C@_0BE@NLIFDBGM@xpcOutpW?5not?5found?6?$AA@ 100487f8     xpcruntime:xpcimports.obj
 0002:0000680c       ??_C@_09FLIEKHJG@xpcOutpDW?$AA@ 1004880c     xpcruntime:xpcimports.obj
 0002:00006818       ??_C@_0BF@GJKLPNHB@xpcOutpDW?5not?5found?6?$AA@ 10048818     xpcruntime:xpcimports.obj
 0002:00006830       ??_C@_0BH@EHOLELHH@xpcReserveMemoryRegion?$AA@ 10048830     xpcruntime:xpcimports.obj
 0002:00006848       ??_C@_0CC@KAAAGPI@xpcReserveMemoryRegion?5not?5found@ 10048848     xpcruntime:xpcimports.obj
 0002:0000686c       ??_C@_0BA@JGPMHGAF@rl32eShowPCIDev?$AA@ 1004886c     xpcruntime:xpcimports.obj
 0002:0000687c       ??_C@_0BL@DDFFLNHI@rl32eShowPCIDev?5not?5found?6?$AA@ 1004887c     xpcruntime:xpcimports.obj
 0002:00006898       ??_C@_0BB@KBCOJPFB@rl32eShowPCIInfo?$AA@ 10048898     xpcruntime:xpcimports.obj
 0002:000068ac       ??_C@_0BM@IFDMAGLO@rl32eShowPCIInfo?5not?5found?6?$AA@ 100488ac     xpcruntime:xpcimports.obj
 0002:000068c8       ??_C@_0BA@BGPAADB@rl32eGetPCIInfo?$AA@ 100488c8     xpcruntime:xpcimports.obj
 0002:000068d8       ??_C@_0BL@IGOMLDCK@rl32eGetPCIInfo?5not?5found?6?$AA@ 100488d8     xpcruntime:xpcimports.obj
 0002:000068f4       ??_C@_0BG@NJPFKFDP@rl32eGetPCIInfoAtSlot?$AA@ 100488f4     xpcruntime:xpcimports.obj
 0002:0000690c       ??_C@_0CB@BBKIPMLA@rl32eGetPCIInfoAtSlot?5not?5found?6@ 1004890c     xpcruntime:xpcimports.obj
 0002:00006930       ??_C@_0BH@OKBOPNFG@xpceAssignPCIInterrupt?$AA@ 10048930     xpcruntime:xpcimports.obj
 0002:00006948       ??_C@_0CC@CDNDNJBJ@xpceAssignPCIInterrupt?5not?5found@ 10048948     xpcruntime:xpcimports.obj
 0002:0000696c       ??_C@_0BB@FCHHFAAH@rl32eInitCOMPort?$AA@ 1004896c     xpcruntime:xpcimports.obj
 0002:00006980       ??_C@_0BM@DDJGKAHB@rl32eInitCOMPort?5not?5found?6?$AA@ 10048980     xpcruntime:xpcimports.obj
 0002:0000699c       ??_C@_0BC@CHEEFCP@rl32eCloseCOMPort?$AA@ 1004899c     xpcruntime:xpcimports.obj
 0002:000069b0       ??_C@_0BN@KCOFELEM@rl32eCloseCOMPort?5not?5found?6?$AA@ 100489b0     xpcruntime:xpcimports.obj
 0002:000069d0       ??_C@_0O@LLJGKFOG@rl32eSendChar?$AA@ 100489d0     xpcruntime:xpcimports.obj
 0002:000069e0       ??_C@_0BJ@JCJKDACJ@rl32eSendChar?5not?5found?6?$AA@ 100489e0     xpcruntime:xpcimports.obj
 0002:000069fc       ??_C@_0BB@OMFKCOEK@rl32eReceiveChar?$AA@ 100489fc     xpcruntime:xpcimports.obj
 0002:00006a10       ??_C@_0BM@HGAIOAND@rl32eReceiveChar?5not?5found?6?$AA@ 10048a10     xpcruntime:xpcimports.obj
 0002:00006a2c       ??_C@_0BI@PKEJFHMJ@rl32eReceiveBufferCount?$AA@ 10048a2c     xpcruntime:xpcimports.obj
 0002:00006a44       ??_C@_0CD@LNMOFLAH@rl32eReceiveBufferCount?5not?5foun@ 10048a44     xpcruntime:xpcimports.obj
 0002:00006a68       ??_C@_0BA@CFIJOJPK@rl32eLineStatus?$AA@ 10048a68     xpcruntime:xpcimports.obj
 0002:00006a78       ??_C@_0BL@PLIDKKGI@rl32eLineStatus?5not?5found?6?$AA@ 10048a78     xpcruntime:xpcimports.obj
 0002:00006a94       ??_C@_0P@MDMKIJF@rl32eSendBlock?$AA@ 10048a94     xpcruntime:xpcimports.obj
 0002:00006aa4       ??_C@_0BK@KNBNFIKH@rl32eSendBlock?5not?5found?6?$AA@ 10048aa4     xpcruntime:xpcimports.obj
 0002:00006ac0       ??_C@_0BD@PCKOKHO@xpceGetSignalValue?$AA@ 10048ac0     xpcruntime:xpcimports.obj
 0002:00006ad4       ??_C@_0BO@GCBDJHMB@xpceGetSignalValue?5not?5found?6?$AA@ 10048ad4     xpcruntime:xpcimports.obj
 0002:00006af4       ??_C@_0BB@BJONJAGA@xpceSetParameter?$AA@ 10048af4     xpcruntime:xpcimports.obj
 0002:00006b08       ??_C@_0BM@BJIKDLHA@xpceSetParameter?5not?5found?6?$AA@ 10048b08     xpcruntime:xpcimports.obj
 0002:00006b24       ??_C@_0BB@GNFDFMCM@xpceGetParameter?$AA@ 10048b24     xpcruntime:xpcimports.obj
 0002:00006b38       ??_C@_0BM@POHNKBC@xpceGetParameter?5not?5found?6?$AA@ 10048b38     xpcruntime:xpcimports.obj
 0002:00006b54       ??_C@_0BB@CEIJLFCD@xpceGetParamDims?$AA@ 10048b54     xpcruntime:xpcimports.obj
 0002:00006b68       ??_C@_0BM@OABDBKAO@xpceGetParamDims?5not?5found?6?$AA@ 10048b68     xpcruntime:xpcimports.obj
 0002:00006b84       ??_C@_0L@OCBLLHBM@xpceGetTET?$AA@ 10048b84     xpcruntime:xpcimports.obj
 0002:00006b90       ??_C@_0BG@HNOFBOB@xpceGetTET?5not?5found?6?$AA@ 10048b90     xpcruntime:xpcimports.obj
 0002:00006ba8       ??_C@_0BA@FHMIOKFL@xpceUDPOpenSend?$AA@ 10048ba8     xpcruntime:xpcimports.obj
 0002:00006bb8       ??_C@_0BL@HNLPFEK@xpceUDPOpenSend?5not?5found?6?$AA@ 10048bb8     xpcruntime:xpcimports.obj
 0002:00006bd4       ??_C@_0BD@BCELJJJL@xpceUDPOpenReceive?$AA@ 10048bd4     xpcruntime:xpcimports.obj
 0002:00006be8       ??_C@_0BO@IFKJBHKC@xpceUDPOpenReceive?5not?5found?6?$AA@ 10048be8     xpcruntime:xpcimports.obj
 0002:00006c08       ??_C@_0M@OFPFLJGN@xpceUDPSend?$AA@ 10048c08     xpcruntime:xpcimports.obj
 0002:00006c14       ??_C@_0BH@NOIKLPAB@xpceUDPSend?5not?5found?6?$AA@ 10048c14     xpcruntime:xpcimports.obj
 0002:00006c2c       ??_C@_0P@PLFDECIN@xpceUDPReceive?$AA@ 10048c2c     xpcruntime:xpcimports.obj
 0002:00006c3c       ??_C@_0BK@OPJMLDLH@xpceUDPReceive?5not?5found?6?$AA@ 10048c3c     xpcruntime:xpcimports.obj
 0002:00006c58       ??_C@_0N@IEHPMFME@xpceUDPClose?$AA@ 10048c58     xpcruntime:xpcimports.obj
 0002:00006c68       ??_C@_0BI@FHPFHECO@xpceUDPClose?5not?5found?6?$AA@ 10048c68     xpcruntime:xpcimports.obj
 0002:00006c80       ??_C@_0P@OKGNGAGH@xpcIsModelInit?$AA@ 10048c80     xpcruntime:xpcimports.obj
 0002:00006c90       ??_C@_0BK@DHEMLBIM@xpcIsModelInit?5not?5found?6?$AA@ 10048c90     xpcruntime:xpcimports.obj
 0002:00006cac       ??_C@_0BH@KJJLCAOJ@xpcAllocPhysicalMemory?$AA@ 10048cac     xpcruntime:xpcimports.obj
 0002:00006cc4       ??_C@_0CC@MOJPNHKL@xpcAllocPhysicalMemory?5not?5found@ 10048cc4     xpcruntime:xpcimports.obj
 0002:00006ce8       ??_C@_0BG@CBNPGAEL@xpcFreePhysicalMemory?$AA@ 10048ce8     xpcruntime:xpcimports.obj
 0002:00006d00       ??_C@_0CB@PKJEBPOG@xpcFreePhysicalMemory?5not?5found?6@ 10048d00     xpcruntime:xpcimports.obj
 0002:00006d24       ??_C@_0BC@JGKNLICL@xpcGetElapsedTime?$AA@ 10048d24     xpcruntime:xpcimports.obj
 0002:00006d38       ??_C@_0BN@OEOAHCIO@xpcGetElapsedTime?5not?5found?6?$AA@ 10048d38     xpcruntime:xpcimports.obj
 0002:00006d58       ??_C@_0M@ICBLMODA@xpcBusyWait?$AA@ 10048d58     xpcruntime:xpcimports.obj
 0002:00006d64       ??_C@_0BH@FBOPECBI@xpcBusyWait?5not?5found?6?$AA@ 10048d64     xpcruntime:xpcimports.obj
 0002:00006d7c       ??_C@_0N@LKKJEKKA@TBCreateSpin?$AA@ 10048d7c     xpcruntime:xpcimports.obj
 0002:00006d8c       ??_C@_0BI@FHKMLKOE@TBCreateSpin?5not?5found?6?$AA@ 10048d8c     xpcruntime:xpcimports.obj
 0002:00006da4       ??_C@_0N@HOAJHNBD@TBDeleteSpin?$AA@ 10048da4     xpcruntime:xpcimports.obj
 0002:00006db4       ??_C@_0BI@BKCPAAG@TBDeleteSpin?5not?5found?6?$AA@ 10048db4     xpcruntime:xpcimports.obj
 0002:00006dcc       ??_C@_0P@DAHDDBJG@TBTakeSpinFast?$AA@ 10048dcc     xpcruntime:xpcimports.obj
 0002:00006ddc       ??_C@_0BK@NKAIBHGB@TBTakeSpinFast?5not?5found?6?$AA@ 10048ddc     xpcruntime:xpcimports.obj
 0002:00006df8       ??_C@_0P@FKNAAELA@TBGiveSpinFast?$AA@ 10048df8     xpcruntime:xpcimports.obj
 0002:00006e08       ??_C@_0BK@KGPJBJND@TBGiveSpinFast?5not?5found?6?$AA@ 10048e08     xpcruntime:xpcimports.obj
 0002:00006e24       ??_C@_0BE@IIGBFDHK@xpceCreateSemaphore?$AA@ 10048e24     xpcruntime:xpcimports.obj
 0002:00006e38       ??_C@_0BP@KFBAFFKJ@xpceCreateSemaphore?5not?5found?6?$AA@ 10048e38     xpcruntime:xpcimports.obj
 0002:00006e58       ??_C@_0BC@IFNIONKJ@xpceWaitSemaphore?$AA@ 10048e58     xpcruntime:xpcimports.obj
 0002:00006e6c       ??_C@_0BN@NMFAADIO@xpceWaitSemaphore?5not?5found?6?$AA@ 10048e6c     xpcruntime:xpcimports.obj
 0002:00006e8c       ??_C@_0BE@NNDIOBKE@xpceSignalSemaphore?$AA@ 10048e8c     xpcruntime:xpcimports.obj
 0002:00006ea0       ??_C@_0BP@LBANMHJP@xpceSignalSemaphore?5not?5found?6?$AA@ 10048ea0     xpcruntime:xpcimports.obj
 0002:00006ec0       ??_C@_0BE@MEBEKOIM@xpceDeleteSemaphore?$AA@ 10048ec0     xpcruntime:xpcimports.obj
 0002:00006ed4       ??_C@_0BP@OFNCKOJH@xpceDeleteSemaphore?5not?5found?6?$AA@ 10048ed4     xpcruntime:xpcimports.obj
 0002:00006ef4       ??_C@_0BD@MFNDMBOF@FindUsbVideoDevice?$AA@ 10048ef4     xpcruntime:xpcimports.obj
 0002:00006f08       ??_C@_0BO@POKLDHMI@FindUsbVideoDevice?5not?5found?6?$AA@ 10048f08     xpcruntime:xpcimports.obj
 0002:00006f28       ??_C@_0BA@PLPAPNAB@GetVideoConfigs?$AA@ 10048f28     xpcruntime:xpcimports.obj
 0002:00006f38       ??_C@_0BL@DALDHKHC@GetVideoConfigs?5not?5found?6?$AA@ 10048f38     xpcruntime:xpcimports.obj
 0002:00006f54       ??_C@_0L@GBAEMHMH@StartVideo?$AA@ 10048f54     xpcruntime:xpcimports.obj
 0002:00006f60       ??_C@_0BG@HDCELEBP@StartVideo?5not?5found?6?$AA@ 10048f60     xpcruntime:xpcimports.obj
 0002:00006f78       ??_C@_0BA@FDNPOCLN@ReadFrameBuffer?$AA@ 10048f78     xpcruntime:xpcimports.obj
 0002:00006f88       ??_C@_0BL@JHGHPNBI@ReadFrameBuffer?5not?5found?6?$AA@ 10048f88     xpcruntime:xpcimports.obj
 0002:00006fa4       ??_C@_09FAHCLKAG@StopVideo?$AA@ 10048fa4     xpcruntime:xpcimports.obj
 0002:00006fb0       ??_C@_0BF@NKGKKADL@StopVideo?5not?5found?6?$AA@ 10048fb0     xpcruntime:xpcimports.obj
 0002:00006fc8       ??_C@_0O@MCPKDLLL@ConvertUImage?$AA@ 10048fc8     xpcruntime:xpcimports.obj
 0002:00006fd8       ??_C@_0BJ@PHJKOAFL@ConvertUImage?5not?5found?6?$AA@ 10048fd8     xpcruntime:xpcimports.obj
 0002:00006ff4       ??_C@_0BD@NKCBPBJJ@CreateVideoDisplay?$AA@ 10048ff4     xpcruntime:xpcimports.obj
 0002:00007008       ??_C@_0BO@HPPLLNFP@CreateVideoDisplay?5not?5found?6?$AA@ 10049008     xpcruntime:xpcimports.obj
 0002:00007028       ??_C@_0BE@KJCKGPHA@DestroyVideoDisplay?$AA@ 10049028     xpcruntime:xpcimports.obj
 0002:0000703c       ??_C@_0BP@FMGLJAIJ@DestroyVideoDisplay?5not?5found?6?$AA@ 1004903c     xpcruntime:xpcimports.obj
 0002:0000705c       ??_C@_0BC@HCMIMIDN@StartVideoDisplay?$AA@ 1004905c     xpcruntime:xpcimports.obj
 0002:00007070       ??_C@_0BN@EFIEBGOO@StartVideoDisplay?5not?5found?6?$AA@ 10049070     xpcruntime:xpcimports.obj
 0002:00007090       ??_C@_0BB@JBBLMILG@StopVideoDisplay?$AA@ 10049090     xpcruntime:xpcimports.obj
 0002:000070a4       ??_C@_0BM@DBJBPLEL@StopVideoDisplay?5not?5found?6?$AA@ 100490a4     xpcruntime:xpcimports.obj
 0002:000070c0       ??_C@_0M@MFJEGMHC@StreamVideo?$AA@ 100490c0     xpcruntime:xpcimports.obj
 0002:000070cc       ??_C@_0BH@OINCDMLA@StreamVideo?5not?5found?6?$AA@ 100490cc     xpcruntime:xpcimports.obj
 0002:000070e4       ??_C@_0N@IGGLCIGE@xpceaddEvent?$AA@ 100490e4     xpcruntime:xpcimports.obj
 0002:000070f4       ??_C@_0BI@NHJNFMKH@xpceaddEvent?5not?5found?6?$AA@ 100490f4     xpcruntime:xpcimports.obj
 0002:0000710c       ??_C@_0BB@LCMHHHFN@getMemoryService?$AA@ 1004910c     xpcruntime:xpcimports.obj
 0002:00007120       ??_C@_0BM@MPLCNIIE@getMemoryService?5not?5found?6?$AA@ 10049120     xpcruntime:xpcimports.obj
 0002:0000713c       ??_C@_0P@KIKONDKK@getCommService?$AA@ 1004913c     xpcruntime:xpcimports.obj
 0002:0000714c       ??_C@_0BK@NCECBKNM@getCommService?5not?5found?6?$AA@ 1004914c     xpcruntime:xpcimports.obj
 0002:00007168       ??_C@_0P@GDLHFECE@getStatusFlags?$AA@ 10049168     xpcruntime:xpcimports.obj
 0002:00007178       ??_C@_0BK@NEKDLJHG@getStatusFlags?5not?5found?6?$AA@ 10049178     xpcruntime:xpcimports.obj
 0002:00007194       ??_C@_0BL@CDFCLKOL@startToAsyncQueueTgtAppSvc?$AA@ 10049194     xpcruntime:xpcimports.obj
 0002:000071b0       ??_C@_0CG@JGOFFKEL@startToAsyncQueueTgtAppSvc?5not?5f@ 100491b0     xpcruntime:xpcimports.obj
 0002:000071d8       ??_C@_0BP@IJNGPPPE@terminateToAsyncQueueTgtAppSvc?$AA@ 100491d8     xpcruntime:xpcimports.obj
 0002:000071f8       ??_C@_0CK@NDEMAMKF@terminateToAsyncQueueTgtAppSvc?5n@ 100491f8     xpcruntime:xpcimports.obj
 0002:00007224       ??_C@_0BK@IDACEHAO@sendToAsyncQueueTgtAppSvc?$AA@ 10049224     xpcruntime:xpcimports.obj
 0002:00007240       ??_C@_0CF@PNCKPEHN@sendToAsyncQueueTgtAppSvc?5not?5fo@ 10049240     xpcruntime:xpcimports.obj
 0002:00007268       ??_C@_0BN@HJOHIFOM@xpceGetIntTimerGranularityNS?$AA@ 10049268     xpcruntime:xpcimports.obj
 0002:00007288       ??_C@_0CI@OADDPMKB@xpceGetIntTimerGranularityNS?5not@ 10049288     xpcruntime:xpcimports.obj
 0002:000072b0       ??_C@_0BG@CCHICKPN@slrteSetStepSizeDelta?$AA@ 100492b0     xpcruntime:xpcimports.obj
 0002:000072c8       ??_C@_0CB@MKHINEIJ@slrteSetStepSizeDelta?5not?5found?6@ 100492c8     xpcruntime:xpcimports.obj
 0002:000072ec       ??_C@_0BI@CLNBLDKJ@slrteGetCurrentStepSize?$AA@ 100492ec     xpcruntime:xpcimports.obj
 0002:00007304       ??_C@_0CD@GIOJPGJA@slrteGetCurrentStepSize?5not?5foun@ 10049304     xpcruntime:xpcimports.obj
 0002:00007328       ??_C@_0BE@FCLCBOC@registerPTPTimeRead?$AA@ 10049328     xpcruntime:xpcimports.obj
 0002:0000733c       ??_C@_0BP@LHPKAJIP@registerPTPTimeRead?5not?5found?6?$AA@ 1004933c     xpcruntime:xpcimports.obj
 0002:0000735c       ??_C@_0BG@KIGCDDJI@unRegisterPTPTimeRead?$AA@ 1004935c     xpcruntime:xpcimports.obj
 0002:00007374       ??_C@_0CB@MLFFBFCM@unRegisterPTPTimeRead?5not?5found?6@ 10049374     xpcruntime:xpcimports.obj
 0002:00007398       ??_C@_0BB@IPMDDBHK@slTestInitialize?$AA@ 10049398     xpcruntime:xpcimports.obj
 0002:000073ac       ??_C@_0BM@LAJFCCJH@slTestInitialize?5not?5found?6?$AA@ 100493ac     xpcruntime:xpcimports.obj
 0002:000073c8       ??_C@_0BF@OOMPMEBC@slTestLogAssessments?$AA@ 100493c8     xpcruntime:xpcimports.obj
 0002:000073e0       ??_C@_0CA@FGJCEBAG@slTestLogAssessments?5not?5found?6?$AA@ 100493e0     xpcruntime:xpcimports.obj
 0002:00007400       ??_C@_0BB@HJHKONHO@slTestEvalOnFail?$AA@ 10049400     xpcruntime:xpcimports.obj
 0002:00007414       ??_C@_0BM@JIKCFFNJ@slTestEvalOnFail?5not?5found?6?$AA@ 10049414     xpcruntime:xpcimports.obj
 0002:00007430       ??_C@_0BA@LBHLABFP@slTestTerminate?$AA@ 10049430     xpcruntime:xpcimports.obj
 0002:00007440       ??_C@_0BL@EMFGKAPA@slTestTerminate?5not?5found?6?$AA@ 10049440     xpcruntime:xpcimports.obj
 0002:0000745c       ??_C@_0BE@JPNPBBEO@slTestRegAssessment?$AA@ 1004945c     xpcruntime:xpcimports.obj
 0002:00007470       ??_C@_0BP@FBDEJJJH@slTestRegAssessment?5not?5found?6?$AA@ 10049470     xpcruntime:xpcimports.obj
 0002:000074d8       __FPinit                   100494d8     LIBCMT:fpinit.obj
 0002:000074e4       ??_C@_1BI@BGOHAHKC@?$AAm?$AAs?$AAc?$AAo?$AAr?$AAe?$AAe?$AA?4?$AAd?$AAl?$AAl?$AA?$AA@ 100494e4     LIBCMT:crt0dat.obj
 0002:000074fc       ??_C@_0P@MIGLKIOC@CorExitProcess?$AA@ 100494fc     LIBCMT:crt0dat.obj
 0002:00007594       ??_C@_17LGKOMLJ@?$AA?4?$AA?4?$AA?4?$AA?$AA@ 10049594     LIBCMT:wassert.obj
 0002:0000759c       ??_C@_13LBAGMAIH@?$AA?6?$AA?$AA@ 1004959c     LIBCMT:wassert.obj
 0002:000075a0       ??_C@_15IABLJNFO@?$AA?6?$AA?6?$AA?$AA@ 100495a0     LIBCMT:wassert.obj
 0002:000075a8       ??_C@_1CE@OJBNHDMO@?$AAA?$AAs?$AAs?$AAe?$AAr?$AAt?$AAi?$AAo?$AAn?$AA?5?$AAf?$AAa?$AAi?$AAl?$AAe?$AAd?$AA?$CB?$AA?$AA@ 100495a8     LIBCMT:wassert.obj
 0002:000075cc       ??_C@_1BE@PHKBBGE@?$AAP?$AAr?$AAo?$AAg?$AAr?$AAa?$AAm?$AA?3?$AA?5?$AA?$AA@ 100495cc     LIBCMT:wassert.obj
 0002:000075e0       ??_C@_1CO@EAEJAADC@?$AA?$DM?$AAp?$AAr?$AAo?$AAg?$AAr?$AAa?$AAm?$AA?5?$AAn?$AAa?$AAm?$AAe?$AA?5?$AAu?$AAn?$AAk?$AAn?$AAo?$AAw?$AAn?$AA?$DO?$AA?$AA@ 100495e0     LIBCMT:wassert.obj
 0002:00007610       ??_C@_1O@HEMHKNDC@?$AAF?$AAi?$AAl?$AAe?$AA?3?$AA?5?$AA?$AA@ 10049610     LIBCMT:wassert.obj
 0002:00007620       ??_C@_1O@KCAFKHJE@?$AAL?$AAi?$AAn?$AAe?$AA?3?$AA?5?$AA?$AA@ 10049620     LIBCMT:wassert.obj
 0002:00007630       ??_C@_1BK@PEDCIPMA@?$AAE?$AAx?$AAp?$AAr?$AAe?$AAs?$AAs?$AAi?$AAo?$AAn?$AA?3?$AA?5?$AA?$AA@ 10049630     LIBCMT:wassert.obj
 0002:00007650       ??_C@_1OA@EGMLFBHJ@?$AAF?$AAo?$AAr?$AA?5?$AAi?$AAn?$AAf?$AAo?$AAr?$AAm?$AAa?$AAt?$AAi?$AAo?$AAn?$AA?5?$AAo?$AAn?$AA?5?$AAh?$AAo?$AAw?$AA?5?$AAy?$AAo?$AAu?$AAr?$AA?5?$AAp?$AAr?$AAo?$AAg@ 10049650     LIBCMT:wassert.obj
 0002:00007730       ??_C@_1HK@POCJMFGK@?$AA?$CI?$AAP?$AAr?$AAe?$AAs?$AAs?$AA?5?$AAR?$AAe?$AAt?$AAr?$AAy?$AA?5?$AAt?$AAo?$AA?5?$AAd?$AAe?$AAb?$AAu?$AAg?$AA?5?$AAt?$AAh?$AAe?$AA?5?$AAa?$AAp?$AAp?$AAl?$AAi?$AAc@ 10049730     LIBCMT:wassert.obj
 0002:000077b0       ??_C@_1EK@MBDPDCGA@?$AAM?$AAi?$AAc?$AAr?$AAo?$AAs?$AAo?$AAf?$AAt?$AA?5?$AAV?$AAi?$AAs?$AAu?$AAa?$AAl?$AA?5?$AAC?$AA?$CL?$AA?$CL?$AA?5?$AAR?$AAu?$AAn?$AAt?$AAi?$AAm?$AAe?$AA?5?$AAL?$AAi?$AAb@ 100497b0     LIBCMT:wassert.obj
 0002:000077fc       __pDefaultRawDllMain       100497fc     LIBCMT:dllcrt0.obj
 0002:000077fc       __pRawDllMain              100497fc     LIBCMT:dllcrt0.obj
 0002:00007800       ?ProcessDetach@NativeDll@<CrtImplementationDetails>@@0IB 10049800     LIBCMT:handler.obj
 0002:00007804       ?ProcessAttach@NativeDll@<CrtImplementationDetails>@@0IB 10049804     LIBCMT:handler.obj
 0002:00007808       ?ThreadAttach@NativeDll@<CrtImplementationDetails>@@0IB 10049808     LIBCMT:handler.obj
 0002:0000780c       ?ThreadDetach@NativeDll@<CrtImplementationDetails>@@0IB 1004980c     LIBCMT:handler.obj
 0002:00007810       ?ProcessVerifier@NativeDll@<CrtImplementationDetails>@@0IB 10049810     LIBCMT:handler.obj
 0002:000078d0       ??_C@_1FK@PGACCAFB@?$AAR?$AA6?$AA0?$AA0?$AA2?$AA?$AN?$AA?6?$AA?9?$AA?5?$AAf?$AAl?$AAo?$AAa?$AAt?$AAi?$AAn?$AAg?$AA?5?$AAp?$AAo?$AAi?$AAn?$AAt?$AA?5?$AAs?$AAu?$AAp?$AAp?$AAo?$AAr?$AAt?$AA?5@ 100498d0     LIBCMT:crt0msg.obj
 0002:00007930       ??_C@_1FE@LLNEDJMD@?$AAR?$AA6?$AA0?$AA0?$AA8?$AA?$AN?$AA?6?$AA?9?$AA?5?$AAn?$AAo?$AAt?$AA?5?$AAe?$AAn?$AAo?$AAu?$AAg?$AAh?$AA?5?$AAs?$AAp?$AAa?$AAc?$AAe?$AA?5?$AAf?$AAo?$AAr?$AA?5?$AAa?$AAr@ 10049930     LIBCMT:crt0msg.obj
 0002:00007988       ??_C@_1FI@HONFMGBI@?$AAR?$AA6?$AA0?$AA0?$AA9?$AA?$AN?$AA?6?$AA?9?$AA?5?$AAn?$AAo?$AAt?$AA?5?$AAe?$AAn?$AAo?$AAu?$AAg?$AAh?$AA?5?$AAs?$AAp?$AAa?$AAc?$AAe?$AA?5?$AAf?$AAo?$AAr?$AA?5?$AAe?$AAn@ 10049988     LIBCMT:crt0msg.obj
 0002:000079e0       ??_C@_1EG@BEHAGFJD@?$AAR?$AA6?$AA0?$AA1?$AA0?$AA?$AN?$AA?6?$AA?9?$AA?5?$AAa?$AAb?$AAo?$AAr?$AAt?$AA?$CI?$AA?$CJ?$AA?5?$AAh?$AAa?$AAs?$AA?5?$AAb?$AAe?$AAe?$AAn?$AA?5?$AAc?$AAa?$AAl?$AAl?$AAe?$AAd@ 100499e0     LIBCMT:crt0msg.obj
 0002:00007a28       ??_C@_1FI@LOGNIKDM@?$AAR?$AA6?$AA0?$AA1?$AA6?$AA?$AN?$AA?6?$AA?9?$AA?5?$AAn?$AAo?$AAt?$AA?5?$AAe?$AAn?$AAo?$AAu?$AAg?$AAh?$AA?5?$AAs?$AAp?$AAa?$AAc?$AAe?$AA?5?$AAf?$AAo?$AAr?$AA?5?$AAt?$AAh@ 10049a28     LIBCMT:crt0msg.obj
 0002:00007a80       ??_C@_1FK@BEOGODMC@?$AAR?$AA6?$AA0?$AA1?$AA7?$AA?$AN?$AA?6?$AA?9?$AA?5?$AAu?$AAn?$AAe?$AAx?$AAp?$AAe?$AAc?$AAt?$AAe?$AAd?$AA?5?$AAm?$AAu?$AAl?$AAt?$AAi?$AAt?$AAh?$AAr?$AAe?$AAa?$AAd?$AA?5@ 10049a80     LIBCMT:crt0msg.obj
 0002:00007ae0       ??_C@_1EC@JIBHAOPH@?$AAR?$AA6?$AA0?$AA1?$AA8?$AA?$AN?$AA?6?$AA?9?$AA?5?$AAu?$AAn?$AAe?$AAx?$AAp?$AAe?$AAc?$AAt?$AAe?$AAd?$AA?5?$AAh?$AAe?$AAa?$AAp?$AA?5?$AAe?$AAr?$AAr?$AAo?$AAr?$AA?$AN?$AA?6@ 10049ae0     LIBCMT:crt0msg.obj
 0002:00007b28       ??_C@_1FC@ECHBIFBC@?$AAR?$AA6?$AA0?$AA1?$AA9?$AA?$AN?$AA?6?$AA?9?$AA?5?$AAu?$AAn?$AAa?$AAb?$AAl?$AAe?$AA?5?$AAt?$AAo?$AA?5?$AAo?$AAp?$AAe?$AAn?$AA?5?$AAc?$AAo?$AAn?$AAs?$AAo?$AAl?$AAe?$AA?5@ 10049b28     LIBCMT:crt0msg.obj
 0002:00007b80       ??_C@_1GK@FHCKBEFA@?$AAR?$AA6?$AA0?$AA2?$AA4?$AA?$AN?$AA?6?$AA?9?$AA?5?$AAn?$AAo?$AAt?$AA?5?$AAe?$AAn?$AAo?$AAu?$AAg?$AAh?$AA?5?$AAs?$AAp?$AAa?$AAc?$AAe?$AA?5?$AAf?$AAo?$AAr?$AA?5?$AA_?$AAo@ 10049b80     LIBCMT:crt0msg.obj
 0002:00007bf0       ??_C@_1EM@MAADIHMB@?$AAR?$AA6?$AA0?$AA2?$AA5?$AA?$AN?$AA?6?$AA?9?$AA?5?$AAp?$AAu?$AAr?$AAe?$AA?5?$AAv?$AAi?$AAr?$AAt?$AAu?$AAa?$AAl?$AA?5?$AAf?$AAu?$AAn?$AAc?$AAt?$AAi?$AAo?$AAn?$AA?5?$AAc@ 10049bf0     LIBCMT:crt0msg.obj
 0002:00007c40       ??_C@_1GK@MCAAGJMO@?$AAR?$AA6?$AA0?$AA2?$AA6?$AA?$AN?$AA?6?$AA?9?$AA?5?$AAn?$AAo?$AAt?$AA?5?$AAe?$AAn?$AAo?$AAu?$AAg?$AAh?$AA?5?$AAs?$AAp?$AAa?$AAc?$AAe?$AA?5?$AAf?$AAo?$AAr?$AA?5?$AAs?$AAt@ 10049c40     LIBCMT:crt0msg.obj
 0002:00007cb0       ??_C@_1GK@MFGOKLAG@?$AAR?$AA6?$AA0?$AA2?$AA7?$AA?$AN?$AA?6?$AA?9?$AA?5?$AAn?$AAo?$AAt?$AA?5?$AAe?$AAn?$AAo?$AAu?$AAg?$AAh?$AA?5?$AAs?$AAp?$AAa?$AAc?$AAe?$AA?5?$AAf?$AAo?$AAr?$AA?5?$AAl?$AAo@ 10049cb0     LIBCMT:crt0msg.obj
 0002:00007d20       ??_C@_1EK@HHFLMAOL@?$AAR?$AA6?$AA0?$AA2?$AA8?$AA?$AN?$AA?6?$AA?9?$AA?5?$AAu?$AAn?$AAa?$AAb?$AAl?$AAe?$AA?5?$AAt?$AAo?$AA?5?$AAi?$AAn?$AAi?$AAt?$AAi?$AAa?$AAl?$AAi?$AAz?$AAe?$AA?5?$AAh?$AAe@ 10049d20     LIBCMT:crt0msg.obj
 0002:00007d6c       ??_C@_1DO@BMFCDCD@?$AAR?$AA6?$AA0?$AA3?$AA0?$AA?$AN?$AA?6?$AA?9?$AA?5?$AAC?$AAR?$AAT?$AA?5?$AAn?$AAo?$AAt?$AA?5?$AAi?$AAn?$AAi?$AAt?$AAi?$AAa?$AAl?$AAi?$AAz?$AAe?$AAd?$AA?$AN?$AA?6?$AA?$AA@ 10049d6c     LIBCMT:crt0msg.obj
 0002:00007db0       ??_C@_1MG@ENCOOIDF@?$AAR?$AA6?$AA0?$AA3?$AA1?$AA?$AN?$AA?6?$AA?9?$AA?5?$AAA?$AAt?$AAt?$AAe?$AAm?$AAp?$AAt?$AA?5?$AAt?$AAo?$AA?5?$AAi?$AAn?$AAi?$AAt?$AAi?$AAa?$AAl?$AAi?$AAz?$AAe?$AA?5?$AAt@ 10049db0     LIBCMT:crt0msg.obj
 0002:00007e78       ??_C@_1GG@GOPILAJP@?$AAR?$AA6?$AA0?$AA3?$AA2?$AA?$AN?$AA?6?$AA?9?$AA?5?$AAn?$AAo?$AAt?$AA?5?$AAe?$AAn?$AAo?$AAu?$AAg?$AAh?$AA?5?$AAs?$AAp?$AAa?$AAc?$AAe?$AA?5?$AAf?$AAo?$AAr?$AA?5?$AAl?$AAo@ 10049e78     LIBCMT:crt0msg.obj
 0002:00007ee0       ??_C@_1BOO@KGEDBGAJ@?$AAR?$AA6?$AA0?$AA3?$AA3?$AA?$AN?$AA?6?$AA?9?$AA?5?$AAA?$AAt?$AAt?$AAe?$AAm?$AAp?$AAt?$AA?5?$AAt?$AAo?$AA?5?$AAu?$AAs?$AAe?$AA?5?$AAM?$AAS?$AAI?$AAL?$AA?5?$AAc?$AAo?$AAd@ 10049ee0     LIBCMT:crt0msg.obj
 0002:000080d0       ??_C@_1GG@MKFPEKFO@?$AAR?$AA6?$AA0?$AA3?$AA4?$AA?$AN?$AA?6?$AA?9?$AA?5?$AAi?$AAn?$AAc?$AAo?$AAn?$AAs?$AAi?$AAs?$AAt?$AAe?$AAn?$AAt?$AA?5?$AAo?$AAn?$AAe?$AAx?$AAi?$AAt?$AA?5?$AAb?$AAe?$AAg@ 1004a0d0     LIBCMT:crt0msg.obj
 0002:00008138       ??_C@_1BO@BFCDCGC@?$AAD?$AAO?$AAM?$AAA?$AAI?$AAN?$AA?5?$AAe?$AAr?$AAr?$AAo?$AAr?$AA?$AN?$AA?6?$AA?$AA@ 1004a138     LIBCMT:crt0msg.obj
 0002:00008158       ??_C@_1BK@KMOMNAAI@?$AAS?$AAI?$AAN?$AAG?$AA?5?$AAe?$AAr?$AAr?$AAo?$AAr?$AA?$AN?$AA?6?$AA?$AA@ 1004a158     LIBCMT:crt0msg.obj
 0002:00008174       ??_C@_1BM@JBBEPPHI@?$AAT?$AAL?$AAO?$AAS?$AAS?$AA?5?$AAe?$AAr?$AAr?$AAo?$AAr?$AA?$AN?$AA?6?$AA?$AA@ 1004a174     LIBCMT:crt0msg.obj
 0002:00008190       ??_C@_15JNBOKNOG@?$AA?$AN?$AA?6?$AA?$AA@ 1004a190     LIBCMT:crt0msg.obj
 0002:00008198       ??_C@_1BO@BKOMIGKJ@?$AAr?$AAu?$AAn?$AAt?$AAi?$AAm?$AAe?$AA?5?$AAe?$AAr?$AAr?$AAo?$AAr?$AA?5?$AA?$AA@ 1004a198     LIBCMT:crt0msg.obj
 0002:000081b8       ??_C@_1DE@JNGNBFGO@?$AAR?$AAu?$AAn?$AAt?$AAi?$AAm?$AAe?$AA?5?$AAE?$AAr?$AAr?$AAo?$AAr?$AA?$CB?$AA?6?$AA?6?$AAP?$AAr?$AAo?$AAg?$AAr?$AAa?$AAm?$AA?3?$AA?5?$AA?$AA@ 1004a1b8     LIBCMT:crt0msg.obj
 0002:000081ec       ??_C@_06OJHGLDPL@?$CInull?$CJ?$AA@ 1004a1ec     LIBCMT:output.obj
 0002:000081f4       ??_C@_1O@CEDCILHN@?$AA?$CI?$AAn?$AAu?$AAl?$AAl?$AA?$CJ?$AA?$AA@ 1004a1f4     LIBCMT:output.obj
 0002:00008208       ___lookuptable             1004a208     LIBCMT:output.obj
 0002:000082d0       ??_C@_03MGHMBJCF@log?$AA@  1004a2d0     LIBCMT:libm_error.obj
 0002:000082d4       ??_C@_05HGHHAHAP@log10?$AA@ 1004a2d4     LIBCMT:libm_error.obj
 0002:000082dc       ??_C@_03KHJOGHMM@exp?$AA@  1004a2dc     LIBCMT:libm_error.obj
 0002:000082e0       ??_C@_03JGHBODFD@pow?$AA@  1004a2e0     LIBCMT:libm_error.obj
 0002:000082e4       ??_C@_04FIHNOPOL@asin?$AA@ 1004a2e4     LIBCMT:libm_error.obj
 0002:000082ec       ??_C@_04PDIFKINK@acos?$AA@ 1004a2ec     LIBCMT:libm_error.obj
 0002:000082f4       ??_C@_05EOHGHCHD@exp10?$AA@ 1004a2f4     LIBCMT:libm_error.obj
 0002:000082fc       ??_C@_04MLLJIGOK@atan?$AA@ 1004a2fc     LIBCMT:libm_error.obj
 0002:00008304       ??_C@_04GFPJNGEK@ceil?$AA@ 1004a304     LIBCMT:libm_error.obj
 0002:0000830c       ??_C@_05PBJFFIGL@floor?$AA@ 1004a30c     LIBCMT:libm_error.obj
 0002:00008314       ??_C@_04EHEDPDJG@modf?$AA@ 1004a314     LIBCMT:libm_error.obj
 0002:0000831c       ??_C@_03BLEJJJBH@sin?$AA@  1004a31c     LIBCMT:libm_error.obj
 0002:00008320       ??_C@_03LALBNOCG@cos?$AA@  1004a320     LIBCMT:libm_error.obj
 0002:00008324       ??_C@_03IIINPABG@tan?$AA@  1004a324     LIBCMT:libm_error.obj
 0002:00008328       ??_C@_04EIAKFFMI@sqrt?$AA@ 1004a328     LIBCMT:libm_error.obj
 0002:00008330       ??_C@_05KLBDPFGC@e?$CL000?$AA@ 1004a330     LIBCMT:cvt.obj
 0002:00008338       ??_C@_1BK@MGMFAEKH@?$AAk?$AAe?$AAr?$AAn?$AAe?$AAl?$AA3?$AA2?$AA?4?$AAd?$AAl?$AAl?$AA?$AA@ 1004a338     LIBCMT:winapisupp.obj
 0002:00008354       ??_C@_08KNHFBNJ@FlsAlloc?$AA@ 1004a354     LIBCMT:winapisupp.obj
 0002:00008360       ??_C@_07PEJMOBNF@FlsFree?$AA@ 1004a360     LIBCMT:winapisupp.obj
 0002:00008368       ??_C@_0M@GDNOONDI@FlsGetValue?$AA@ 1004a368     LIBCMT:winapisupp.obj
 0002:00008374       ??_C@_0M@JCPCPOEF@FlsSetValue?$AA@ 1004a374     LIBCMT:winapisupp.obj
 0002:00008380       ??_C@_0BM@HCFOFFN@InitializeCriticalSectionEx?$AA@ 1004a380     LIBCMT:winapisupp.obj
 0002:0000839c       ??_C@_0P@DLHPPCNH@CreateEventExW?$AA@ 1004a39c     LIBCMT:winapisupp.obj
 0002:000083ac       ??_C@_0BD@KIEEOEEH@CreateSemaphoreExW?$AA@ 1004a3ac     LIBCMT:winapisupp.obj
 0002:000083c0       ??_C@_0BI@BKLFFAPO@SetThreadStackGuarantee?$AA@ 1004a3c0     LIBCMT:winapisupp.obj
 0002:000083d8       ??_C@_0BG@OGFAJCKC@CreateThreadpoolTimer?$AA@ 1004a3d8     LIBCMT:winapisupp.obj
 0002:000083f0       ??_C@_0BD@LPLEMMDI@SetThreadpoolTimer?$AA@ 1004a3f0     LIBCMT:winapisupp.obj
 0002:00008404       ??_C@_0CA@FMNJENH@WaitForThreadpoolTimerCallbacks?$AA@ 1004a404     LIBCMT:winapisupp.obj
 0002:00008424       ??_C@_0BF@DCFCCNOC@CloseThreadpoolTimer?$AA@ 1004a424     LIBCMT:winapisupp.obj
 0002:0000843c       ??_C@_0BF@FLABGKKM@CreateThreadpoolWait?$AA@ 1004a43c     LIBCMT:winapisupp.obj
 0002:00008454       ??_C@_0BC@MGCOHNA@SetThreadpoolWait?$AA@ 1004a454     LIBCMT:winapisupp.obj
 0002:00008468       ??_C@_0BE@OCIOMIMP@CloseThreadpoolWait?$AA@ 1004a468     LIBCMT:winapisupp.obj
 0002:0000847c       ??_C@_0BJ@LKGHFHBO@FlushProcessWriteBuffers?$AA@ 1004a47c     LIBCMT:winapisupp.obj
 0002:00008498       ??_C@_0BP@KALKKPMO@FreeLibraryWhenCallbackReturns?$AA@ 1004a498     LIBCMT:winapisupp.obj
 0002:000084b8       ??_C@_0BK@DFNBACLA@GetCurrentProcessorNumber?$AA@ 1004a4b8     LIBCMT:winapisupp.obj
 0002:000084d4       ??_C@_0BP@KHGALBC@GetLogicalProcessorInformation?$AA@ 1004a4d4     LIBCMT:winapisupp.obj
 0002:000084f4       ??_C@_0BE@FKKLLFLM@CreateSymbolicLinkW?$AA@ 1004a4f4     LIBCMT:winapisupp.obj
 0002:00008508       ??_C@_0BJ@OHNKDLIJ@SetDefaultDllDirectories?$AA@ 1004a508     LIBCMT:winapisupp.obj
 0002:00008524       ??_C@_0BE@LJANKFHF@EnumSystemLocalesEx?$AA@ 1004a524     LIBCMT:winapisupp.obj
 0002:00008538       ??_C@_0BA@IHGNDAEB@CompareStringEx?$AA@ 1004a538     LIBCMT:winapisupp.obj
 0002:00008548       ??_C@_0BA@EPCJIIPD@GetDateFormatEx?$AA@ 1004a548     LIBCMT:winapisupp.obj
 0002:00008558       ??_C@_0BA@ONOKGCMP@GetLocaleInfoEx?$AA@ 1004a558     LIBCMT:winapisupp.obj
 0002:00008568       ??_C@_0BA@CIJJKCJJ@GetTimeFormatEx?$AA@ 1004a568     LIBCMT:winapisupp.obj
 0002:00008578       ??_C@_0BJ@PBCCBIPI@GetUserDefaultLocaleName?$AA@ 1004a578     LIBCMT:winapisupp.obj
 0002:00008594       ??_C@_0BC@CELBKLLA@IsValidLocaleName?$AA@ 1004a594     LIBCMT:winapisupp.obj
 0002:000085a8       ??_C@_0O@KKBNKAPF@LCMapStringEx?$AA@ 1004a5a8     LIBCMT:winapisupp.obj
 0002:000085b8       ??_C@_0BE@JOGNEJCI@GetCurrentPackageId?$AA@ 1004a5b8     LIBCMT:winapisupp.obj
 0002:000085cc       ??_C@_0P@CDHHOHKP@GetTickCount64?$AA@ 1004a5cc     LIBCMT:winapisupp.obj
 0002:000085dc       ??_C@_0BO@KPCLFDJJ@GetFileInformationByHandleExW?$AA@ 1004a5dc     LIBCMT:winapisupp.obj
 0002:000085fc       ??_C@_0BM@MHIDLABK@SetFileInformationByHandleW?$AA@ 1004a5fc     LIBCMT:winapisupp.obj
 0002:00008618       ??_C@_1BK@GAEMIDIL@?$AAA?$AAD?$AAV?$AAA?$AAP?$AAI?$AA3?$AA2?$AA?4?$AAD?$AAL?$AAL?$AA?$AA@ 1004a618     LIBCMT:rand_s.obj
 0002:00008634       ??_C@_0BC@JEAENNKH@SystemFunction036?$AA@ 1004a634     LIBCMT:rand_s.obj
 0002:00008658       ??_C@_1M@HPNHIDJI@?$AAj?$AAa?$AA?9?$AAJ?$AAP?$AA?$AA@ 1004a658     LIBCMT:mbctype.obj
 0002:00008664       ??_C@_1M@BIBDDEMK@?$AAz?$AAh?$AA?9?$AAC?$AAN?$AA?$AA@ 1004a664     LIBCMT:mbctype.obj
 0002:00008670       ??_C@_1M@JLOOOEGK@?$AAk?$AAo?$AA?9?$AAK?$AAR?$AA?$AA@ 1004a670     LIBCMT:mbctype.obj
 0002:0000867c       ??_C@_1M@CLNBBOPM@?$AAz?$AAh?$AA?9?$AAT?$AAW?$AA?$AA@ 1004a67c     LIBCMT:mbctype.obj
 0002:000086a8       ??_C@_04FJHINJAO@tanh?$AA@ 1004a6a8     LIBCMT:fpexcept.obj
 0002:000086b0       ??_C@_05KNGEOGJB@atan2?$AA@ 1004a6b0     LIBCMT:fpexcept.obj
 0002:000086b8       ??_C@_04ODHECPBC@fabs?$AA@ 1004a6b8     LIBCMT:fpexcept.obj
 0002:000086c0       ??_C@_05CEJMAHNP@ldexp?$AA@ 1004a6c0     LIBCMT:fpexcept.obj
 0002:000086c8       ??_C@_05KBKMEMPO@_cabs?$AA@ 1004a6c8     LIBCMT:fpexcept.obj
 0002:000086d0       ??_C@_06MEIMCGCF@_hypot?$AA@ 1004a6d0     LIBCMT:fpexcept.obj
 0002:000086d8       ??_C@_04KEPJIHGP@fmod?$AA@ 1004a6d8     LIBCMT:fpexcept.obj
 0002:000086e0       ??_C@_05GKKHEGJL@frexp?$AA@ 1004a6e0     LIBCMT:fpexcept.obj
 0002:000086e8       ??_C@_03MJLDFKDL@_y0?$AA@  1004a6e8     LIBCMT:fpexcept.obj
 0002:000086ec       ??_C@_03NAKIGLHK@_y1?$AA@  1004a6ec     LIBCMT:fpexcept.obj
 0002:000086f0       ??_C@_03ONILCKOB@_yn?$AA@  1004a6f0     LIBCMT:fpexcept.obj
 0002:000086f4       ??_C@_05JGDBENOH@_logb?$AA@ 1004a6f4     LIBCMT:fpexcept.obj
 0002:000086fc       ??_C@_0L@KDOEJCKC@_nextafter?$AA@ 1004a6fc     LIBCMT:fpexcept.obj
 0002:00008708       ??_C@_04COOMCNPB@sinh?$AA@ 1004a708     LIBCMT:fpexcept.obj
 0002:00008710       ??_C@_04HPJJNFIM@cosh?$AA@ 1004a710     LIBCMT:fpexcept.obj
 0002:00008718       ??_C@_1BG@GOEBHBDC@?$AAU?$AAS?$AAE?$AAR?$AA3?$AA2?$AA?4?$AAD?$AAL?$AAL?$AA?$AA@ 1004a718     LIBCMT:crtmboxw.obj
 0002:00008730       ??_C@_0M@DLDCCGNP@MessageBoxW?$AA@ 1004a730     LIBCMT:crtmboxw.obj
 0002:0000873c       ??_C@_0BA@HNOPNCHB@GetActiveWindow?$AA@ 1004a73c     LIBCMT:crtmboxw.obj
 0002:0000874c       ??_C@_0BD@HHGDFDBJ@GetLastActivePopup?$AA@ 1004a74c     LIBCMT:crtmboxw.obj
 0002:00008760       ??_C@_0BK@DEKFELLI@GetUserObjectInformationW?$AA@ 1004a760     LIBCMT:crtmboxw.obj
 0002:0000877c       ??_C@_0BI@DFKBFLJE@GetProcessWindowStation?$AA@ 1004a77c     LIBCMT:crtmboxw.obj
 0002:00008798       __XcptActTab               1004a798     LIBCMT:winxfltr.obj
 0002:00008828       __XcptActTabCount          1004a828     LIBCMT:winxfltr.obj
 0002:0000882c       __XcptActTabSize           1004a82c     LIBCMT:winxfltr.obj
 0002:00008830       __First_FPE_Indx           1004a830     LIBCMT:winxfltr.obj
 0002:00008834       __Num_FPE                  1004a834     LIBCMT:winxfltr.obj
 0002:00008838       ___lookuptable_s           1004a838     LIBCMT:outputs.obj
 0002:00008894       ??_C@_03KOEHGMDN@Sun?$AA@  1004a894     LIBCMT:nlsdata.obj
 0002:00008898       ??_C@_03PDAGKDH@Mon?$AA@   1004a898     LIBCMT:nlsdata.obj
 0002:0000889c       ??_C@_03NAGEINEP@Tue?$AA@  1004a89c     LIBCMT:nlsdata.obj
 0002:000088a0       ??_C@_03MHOMLAJA@Wed?$AA@  1004a8a0     LIBCMT:nlsdata.obj
 0002:000088a4       ??_C@_03IOFIKPDN@Thu?$AA@  1004a8a4     LIBCMT:nlsdata.obj
 0002:000088a8       ??_C@_03IDIOELNC@Fri?$AA@  1004a8a8     LIBCMT:nlsdata.obj
 0002:000088ac       ??_C@_03FEFJNEK@Sat?$AA@   1004a8ac     LIBCMT:nlsdata.obj
 0002:000088b0       ??_C@_06OOPIFAJ@Sunday?$AA@ 1004a8b0     LIBCMT:nlsdata.obj
 0002:000088b8       ??_C@_06JLEDEDGH@Monday?$AA@ 1004a8b8     LIBCMT:nlsdata.obj
 0002:000088c0       ??_C@_07BAAGCFCM@Tuesday?$AA@ 1004a8c0     LIBCMT:nlsdata.obj
 0002:000088c8       ??_C@_09DLIGFAKA@Wednesday?$AA@ 1004a8c8     LIBCMT:nlsdata.obj
 0002:000088d4       ??_C@_08HACCIKIA@Thursday?$AA@ 1004a8d4     LIBCMT:nlsdata.obj
 0002:000088e0       ??_C@_06JECMNKMI@Friday?$AA@ 1004a8e0     LIBCMT:nlsdata.obj
 0002:000088e8       ??_C@_08INBOOONO@Saturday?$AA@ 1004a8e8     LIBCMT:nlsdata.obj
 0002:000088f4       ??_C@_03JIHJHPIE@Jan?$AA@  1004a8f4     LIBCMT:nlsdata.obj
 0002:000088f8       ??_C@_03HJBDCHOM@Feb?$AA@  1004a8f8     LIBCMT:nlsdata.obj
 0002:000088fc       ??_C@_03ODNJBKGA@Mar?$AA@  1004a8fc     LIBCMT:nlsdata.obj
 0002:00008900       ??_C@_03LEOLGMJP@Apr?$AA@  1004a900     LIBCMT:nlsdata.obj
 0002:00008904       ??_C@_03CNMDKL@May?$AA@    1004a904     LIBCMT:nlsdata.obj
 0002:00008908       ??_C@_03IDFGHECI@Jun?$AA@  1004a908     LIBCMT:nlsdata.obj
 0002:0000890c       ??_C@_03LBGABGKK@Jul?$AA@  1004a90c     LIBCMT:nlsdata.obj
 0002:00008910       ??_C@_03IFJFEIGA@Aug?$AA@  1004a910     LIBCMT:nlsdata.obj
 0002:00008914       ??_C@_03GGCAPAJC@Sep?$AA@  1004a914     LIBCMT:nlsdata.obj
 0002:00008918       ??_C@_03BMAOKBAD@Oct?$AA@  1004a918     LIBCMT:nlsdata.obj
 0002:0000891c       ??_C@_03JPJOFNIA@Nov?$AA@  1004a91c     LIBCMT:nlsdata.obj
 0002:00008920       ??_C@_03MKABNOCG@Dec?$AA@  1004a920     LIBCMT:nlsdata.obj
 0002:00008924       ??_C@_07CGJPFGJA@January?$AA@ 1004a924     LIBCMT:nlsdata.obj
 0002:0000892c       ??_C@_08GNJGEPFN@February?$AA@ 1004a92c     LIBCMT:nlsdata.obj
 0002:00008938       ??_C@_05HPCKOFNC@March?$AA@ 1004a938     LIBCMT:nlsdata.obj
 0002:00008940       ??_C@_05DMJDNLEJ@April?$AA@ 1004a940     LIBCMT:nlsdata.obj
 0002:00008948       ??_C@_04CNLMGBGM@June?$AA@ 1004a948     LIBCMT:nlsdata.obj
 0002:00008950       ??_C@_04MIEPOIFP@July?$AA@ 1004a950     LIBCMT:nlsdata.obj
 0002:00008958       ??_C@_06LBBHFDDG@August?$AA@ 1004a958     LIBCMT:nlsdata.obj
 0002:00008960       ??_C@_09BHHEALKD@September?$AA@ 1004a960     LIBCMT:nlsdata.obj
 0002:0000896c       ??_C@_07JJNFCEND@October?$AA@ 1004a96c     LIBCMT:nlsdata.obj
 0002:00008974       ??_C@_08HCHEGEOA@November?$AA@ 1004a974     LIBCMT:nlsdata.obj
 0002:00008980       ??_C@_08EDHMEBNP@December?$AA@ 1004a980     LIBCMT:nlsdata.obj
 0002:0000898c       ??_C@_02DEDBPAFC@AM?$AA@   1004a98c     LIBCMT:nlsdata.obj
 0002:00008990       ??_C@_02CJNFDJBF@PM?$AA@   1004a990     LIBCMT:nlsdata.obj
 0002:00008994       ??_C@_08BPBNCDIB@MM?1dd?1yy?$AA@ 1004a994     LIBCMT:nlsdata.obj
 0002:000089a0       ??_C@_0BE@CKGJFCPC@dddd?0?5MMMM?5dd?0?5yyyy?$AA@ 1004a9a0     LIBCMT:nlsdata.obj
 0002:000089b4       ??_C@_08JCCMCCIL@HH?3mm?3ss?$AA@ 1004a9b4     LIBCMT:nlsdata.obj
 0002:000089c0       ??_C@_17MBGCMIPB@?$AAS?$AAu?$AAn?$AA?$AA@ 1004a9c0     LIBCMT:nlsdata.obj
 0002:000089c8       ??_C@_17KBOMKBF@?$AAM?$AAo?$AAn?$AA?$AA@ 1004a9c8     LIBCMT:nlsdata.obj
 0002:000089d0       ??_C@_17BMKGEGOJ@?$AAT?$AAu?$AAe?$AA?$AA@ 1004a9d0     LIBCMT:nlsdata.obj
 0002:000089d8       ??_C@_17CJEDCEPE@?$AAW?$AAe?$AAd?$AA?$AA@ 1004a9d8     LIBCMT:nlsdata.obj
 0002:000089e0       ??_C@_17PDPHAADD@?$AAT?$AAh?$AAu?$AA?$AA@ 1004a9e0     LIBCMT:nlsdata.obj
 0002:000089e8       ??_C@_17HFOLPPLP@?$AAF?$AAr?$AAi?$AA?$AA@ 1004a9e8     LIBCMT:nlsdata.obj
 0002:000089f0       ??_C@_17GGIBDPIH@?$AAS?$AAa?$AAt?$AA?$AA@ 1004a9f0     LIBCMT:nlsdata.obj
 0002:000089f8       ??_C@_1O@IHNHDHPB@?$AAS?$AAu?$AAn?$AAd?$AAa?$AAy?$AA?$AA@ 1004a9f8     LIBCMT:nlsdata.obj
 0002:00008a08       ??_C@_1O@MMNBFLIA@?$AAM?$AAo?$AAn?$AAd?$AAa?$AAy?$AA?$AA@ 1004aa08     LIBCMT:nlsdata.obj
 0002:00008a18       ??_C@_1BA@ENFBFFEK@?$AAT?$AAu?$AAe?$AAs?$AAd?$AAa?$AAy?$AA?$AA@ 1004aa18     LIBCMT:nlsdata.obj
 0002:00008a28       ??_C@_1BE@EBOGMDOH@?$AAW?$AAe?$AAd?$AAn?$AAe?$AAs?$AAd?$AAa?$AAy?$AA?$AA@ 1004aa28     LIBCMT:nlsdata.obj
 0002:00008a3c       ??_C@_1BC@HHMNLIHE@?$AAT?$AAh?$AAu?$AAr?$AAs?$AAd?$AAa?$AAy?$AA?$AA@ 1004aa3c     LIBCMT:nlsdata.obj
 0002:00008a50       ??_C@_1O@PDICJHAG@?$AAF?$AAr?$AAi?$AAd?$AAa?$AAy?$AA?$AA@ 1004aa50     LIBCMT:nlsdata.obj
 0002:00008a60       ??_C@_1BC@ENMNNPAJ@?$AAS?$AAa?$AAt?$AAu?$AAr?$AAd?$AAa?$AAy?$AA?$AA@ 1004aa60     LIBCMT:nlsdata.obj
 0002:00008a74       ??_C@_17DKNBKCHM@?$AAJ?$AAa?$AAn?$AA?$AA@ 1004aa74     LIBCMT:nlsdata.obj
 0002:00008a7c       ??_C@_17LMDJEKJN@?$AAF?$AAe?$AAb?$AA?$AA@ 1004aa7c     LIBCMT:nlsdata.obj
 0002:00008a84       ??_C@_17CKNLEDEC@?$AAM?$AAa?$AAr?$AA?$AA@ 1004aa84     LIBCMT:nlsdata.obj
 0002:00008a8c       ??_C@_17LFPOIHDD@?$AAA?$AAp?$AAr?$AA?$AA@ 1004aa8c     LIBCMT:nlsdata.obj
 0002:00008a94       ??_C@_17PNNKMEED@?$AAM?$AAa?$AAy?$AA?$AA@ 1004aa94     LIBCMT:nlsdata.obj
 0002:00008a9c       ??_C@_17KCJGOCPB@?$AAJ?$AAu?$AAn?$AA?$AA@ 1004aa9c     LIBCMT:nlsdata.obj
 0002:00008aa4       ??_C@_17IJPCKHK@?$AAJ?$AAu?$AAl?$AA?$AA@ 1004aaa4     LIBCMT:nlsdata.obj
 0002:00008aac       ??_C@_17ICPELBCN@?$AAA?$AAu?$AAg?$AA?$AA@ 1004aaac     LIBCMT:nlsdata.obj
 0002:00008ab4       ??_C@_17HCHCOKMG@?$AAS?$AAe?$AAp?$AA?$AA@ 1004aab4     LIBCMT:nlsdata.obj
 0002:00008abc       ??_C@_17FNLKOI@?$AAO?$AAc?$AAt?$AA?$AA@ 1004aabc     LIBCMT:nlsdata.obj
 0002:00008ac4       ??_C@_17BBDMLCIG@?$AAN?$AAo?$AAv?$AA?$AA@ 1004aac4     LIBCMT:nlsdata.obj
 0002:00008acc       ??_C@_17EGKACKIF@?$AAD?$AAe?$AAc?$AA?$AA@ 1004aacc     LIBCMT:nlsdata.obj
 0002:00008ad4       ??_C@_1BA@EFMEIEBA@?$AAJ?$AAa?$AAn?$AAu?$AAa?$AAr?$AAy?$AA?$AA@ 1004aad4     LIBCMT:nlsdata.obj
 0002:00008ae4       ??_C@_1BC@JGDDFFAM@?$AAF?$AAe?$AAb?$AAr?$AAu?$AAa?$AAr?$AAy?$AA?$AA@ 1004aae4     LIBCMT:nlsdata.obj
 0002:00008af8       ??_C@_1M@IKEENEDF@?$AAM?$AAa?$AAr?$AAc?$AAh?$AA?$AA@ 1004aaf8     LIBCMT:nlsdata.obj
 0002:00008b04       ??_C@_1M@GJNLMHFD@?$AAA?$AAp?$AAr?$AAi?$AAl?$AA?$AA@ 1004ab04     LIBCMT:nlsdata.obj
 0002:00008b10       ??_C@_19EPFLPGAP@?$AAJ?$AAu?$AAn?$AAe?$AA?$AA@ 1004ab10     LIBCMT:nlsdata.obj
 0002:00008b1c       ??_C@_19BIFMLPCD@?$AAJ?$AAu?$AAl?$AAy?$AA?$AA@ 1004ab1c     LIBCMT:nlsdata.obj
 0002:00008b28       ??_C@_1O@PAHLKOAC@?$AAA?$AAu?$AAg?$AAu?$AAs?$AAt?$AA?$AA@ 1004ab28     LIBCMT:nlsdata.obj
 0002:00008b38       ??_C@_1BE@DKAAMBJL@?$AAS?$AAe?$AAp?$AAt?$AAe?$AAm?$AAb?$AAe?$AAr?$AA?$AA@ 1004ab38     LIBCMT:nlsdata.obj
 0002:00008b4c       ??_C@_1BA@EPANDLNG@?$AAO?$AAc?$AAt?$AAo?$AAb?$AAe?$AAr?$AA?$AA@ 1004ab4c     LIBCMT:nlsdata.obj
 0002:00008b5c       ??_C@_1BC@BGLIFPF@?$AAN?$AAo?$AAv?$AAe?$AAm?$AAb?$AAe?$AAr?$AA?$AA@ 1004ab5c     LIBCMT:nlsdata.obj
 0002:00008b70       ??_C@_1BC@FEMKIFH@?$AAD?$AAe?$AAc?$AAe?$AAm?$AAb?$AAe?$AAr?$AA?$AA@ 1004ab70     LIBCMT:nlsdata.obj
 0002:00008b84       ??_C@_15ODEHAHHF@?$AAA?$AAM?$AA?$AA@ 1004ab84     LIBCMT:nlsdata.obj
 0002:00008b8c       ??_C@_15CLMNNGEL@?$AAP?$AAM?$AA?$AA@ 1004ab8c     LIBCMT:nlsdata.obj
 0002:00008b94       ??_C@_1BC@IEBCMHCM@?$AAM?$AAM?$AA?1?$AAd?$AAd?$AA?1?$AAy?$AAy?$AA?$AA@ 1004ab94     LIBCMT:nlsdata.obj
 0002:00008ba8       ??_C@_1CI@KNAKOEBC@?$AAd?$AAd?$AAd?$AAd?$AA?0?$AA?5?$AAM?$AAM?$AAM?$AAM?$AA?5?$AAd?$AAd?$AA?0?$AA?5?$AAy?$AAy?$AAy?$AAy?$AA?$AA@ 1004aba8     LIBCMT:nlsdata.obj
 0002:00008bd0       ??_C@_1BC@GDGBMEMK@?$AAH?$AAH?$AA?3?$AAm?$AAm?$AA?3?$AAs?$AAs?$AA?$AA@ 1004abd0     LIBCMT:nlsdata.obj
 0002:00008be4       ??_C@_1M@BMHNFIME@?$AAe?$AAn?$AA?9?$AAU?$AAS?$AA?$AA@ 1004abe4     LIBCMT:nlsdata.obj
 0002:00008bf0       _LcidToLocaleNameTable     1004abf0     LIBCMT:winapinls.obj
 0002:00009310       _LocaleNameToIndexTable    1004b310     LIBCMT:winapinls.obj
 0002:00009a30       ??_C@_15EMKDOKLE@?$AAa?$AAr?$AA?$AA@ 1004ba30     LIBCMT:winapinls.obj
 0002:00009a38       ??_C@_15KNPADPLH@?$AAb?$AAg?$AA?$AA@ 1004ba38     LIBCMT:winapinls.obj
 0002:00009a40       ??_C@_15EDMHLDMO@?$AAc?$AAa?$AA?$AA@ 1004ba40     LIBCMT:winapinls.obj
 0002:00009a48       ??_C@_1O@BPEAJADD@?$AAz?$AAh?$AA?9?$AAC?$AAH?$AAS?$AA?$AA@ 1004ba48     LIBCMT:winapinls.obj
 0002:00009a58       ??_C@_15LJNHCMNK@?$AAc?$AAs?$AA?$AA@ 1004ba58     LIBCMT:winapinls.obj
 0002:00009a60       ??_C@_15FOMCIDHG@?$AAd?$AAa?$AA?$AA@ 1004ba60     LIBCMT:winapinls.obj
 0002:00009a68       ??_C@_15NBKABECB@?$AAd?$AAe?$AA?$AA@ 1004ba68     LIBCMT:winapinls.obj
 0002:00009a70       ??_C@_15GHPEIIAO@?$AAe?$AAl?$AA?$AA@ 1004ba70     LIBCMT:winapinls.obj
 0002:00009a78       ??_C@_15MNPNEAIF@?$AAe?$AAn?$AA?$AA@ 1004ba78     LIBCMT:winapinls.obj
 0002:00009a80       ??_C@_15GPIOMPMH@?$AAe?$AAs?$AA?$AA@ 1004ba80     LIBCMT:winapinls.obj
 0002:00009a88       ??_C@_15NGLOAKJC@?$AAf?$AAi?$AA?$AA@ 1004ba88     LIBCMT:winapinls.obj
 0002:00009a90       ??_C@_15FBKGNKAM@?$AAf?$AAr?$AA?$AA@ 1004ba90     LIBCMT:winapinls.obj
 0002:00009a98       ??_C@_15KGGCNEFK@?$AAh?$AAe?$AA?$AA@ 1004ba98     LIBCMT:winapinls.obj
 0002:00009aa0       ??_C@_15PGHLIDMF@?$AAh?$AAu?$AA?$AA@ 1004baa0     LIBCMT:winapinls.obj
 0002:00009aa8       ??_C@_15BIEMAPLM@?$AAi?$AAs?$AA?$AA@ 1004baa8     LIBCMT:winapinls.obj
 0002:00009ab0       ??_C@_15IFJLDHAF@?$AAi?$AAt?$AA?$AA@ 1004bab0     LIBCMT:winapinls.obj
 0002:00009ab8       ??_C@_15GEMIOCAG@?$AAj?$AAa?$AA?$AA@ 1004bab8     LIBCMT:winapinls.obj
 0002:00009ac0       ??_C@_15EPELEGJA@?$AAk?$AAo?$AA?$AA@ 1004bac0     LIBCMT:winapinls.obj
 0002:00009ac8       ??_C@_15NDDHIMN@?$AAn?$AAl?$AA?$AA@ 1004bac8     LIBCMT:winapinls.obj
 0002:00009ad0       ??_C@_15BPIGNHCD@?$AAn?$AAo?$AA?$AA@ 1004bad0     LIBCMT:winapinls.obj
 0002:00009ad8       ??_C@_15DEOPBLCG@?$AAp?$AAl?$AA?$AA@ 1004bad8     LIBCMT:winapinls.obj
 0002:00009ae0       ??_C@_15KBECGEFG@?$AAp?$AAt?$AA?$AA@ 1004bae0     LIBCMT:winapinls.obj
 0002:00009ae8       ??_C@_15GLJCBFMD@?$AAr?$AAo?$AA?$AA@ 1004bae8     LIBCMT:winapinls.obj
 0002:00009af0       ??_C@_15FEDGKCDI@?$AAr?$AAu?$AA?$AA@ 1004baf0     LIBCMT:winapinls.obj
 0002:00009af8       ??_C@_15GLKMLLHM@?$AAh?$AAr?$AA?$AA@ 1004baf8     LIBCMT:winapinls.obj
 0002:00009b00       ??_C@_15CPKMFBDB@?$AAs?$AAk?$AA?$AA@ 1004bb00     LIBCMT:winapinls.obj
 0002:00009b08       ??_C@_15BAAIOGMK@?$AAs?$AAq?$AA?$AA@ 1004bb08     LIBCMT:winapinls.obj
 0002:00009b10       ??_C@_15INNPNOHD@?$AAs?$AAv?$AA?$AA@ 1004bb10     LIBCMT:winapinls.obj
 0002:00009b18       ??_C@_15CABMMOGH@?$AAt?$AAh?$AA?$AA@ 1004bb18     LIBCMT:winapinls.obj
 0002:00009b20       ??_C@_15BPLIHJJM@?$AAt?$AAr?$AA?$AA@ 1004bb20     LIBCMT:winapinls.obj
 0002:00009b28       ??_C@_15NEOEKKDJ@?$AAu?$AAr?$AA?$AA@ 1004bb28     LIBCMT:winapinls.obj
 0002:00009b30       ??_C@_15NFICGAJK@?$AAi?$AAd?$AA?$AA@ 1004bb30     LIBCMT:winapinls.obj
 0002:00009b38       ??_C@_15PJPFLCCM@?$AAu?$AAk?$AA?$AA@ 1004bb38     LIBCMT:winapinls.obj
 0002:00009b40       ??_C@_15HPJPHDM@?$AAb?$AAe?$AA?$AA@ 1004bb40     LIBCMT:winapinls.obj
 0002:00009b48       ??_C@_15LCHLGJII@?$AAs?$AAl?$AA?$AA@ 1004bb48     LIBCMT:winapinls.obj
 0002:00009b50       ??_C@_15PCFJPHHO@?$AAe?$AAt?$AA?$AA@ 1004bb50     LIBCMT:winapinls.obj
 0002:00009b58       ??_C@_15HPFPGODN@?$AAl?$AAv?$AA?$AA@ 1004bb58     LIBCMT:winapinls.obj
 0002:00009b60       ??_C@_15NFFGKGLG@?$AAl?$AAt?$AA?$AA@ 1004bb60     LIBCMT:winapinls.obj
 0002:00009b68       ??_C@_15BDAKCCHN@?$AAf?$AAa?$AA?$AA@ 1004bb68     LIBCMT:winapinls.obj
 0002:00009b70       ??_C@_15NFGIAIAJ@?$AAv?$AAi?$AA?$AA@ 1004bb70     LIBCMT:winapinls.obj
 0002:00009b78       ??_C@_15LMKNDMHN@?$AAh?$AAy?$AA?$AA@ 1004bb78     LIBCMT:winapinls.obj
 0002:00009b80       ??_C@_15IJBHMCFL@?$AAa?$AAz?$AA?$AA@ 1004bb80     LIBCMT:winapinls.obj
 0002:00009b88       ??_C@_15EKOFJABL@?$AAe?$AAu?$AA?$AA@ 1004bb88     LIBCMT:winapinls.obj
 0002:00009b90       ??_C@_15BGHADCNK@?$AAm?$AAk?$AA?$AA@ 1004bb90     LIBCMT:winapinls.obj
 0002:00009b98       ??_C@_15JDNICKHM@?$AAa?$AAf?$AA?$AA@ 1004bb98     LIBCMT:winapinls.obj
 0002:00009ba0       ??_C@_15KPJEDBKD@?$AAk?$AAa?$AA?$AA@ 1004bba0     LIBCMT:winapinls.obj
 0002:00009ba8       ??_C@_15PDNFFFEO@?$AAf?$AAo?$AA?$AA@ 1004bba8     LIBCMT:winapinls.obj
 0002:00009bb0       ??_C@_15OMLEGLOC@?$AAh?$AAi?$AA?$AA@ 1004bbb0     LIBCMT:winapinls.obj
 0002:00009bb8       ??_C@_15IDNNENKK@?$AAm?$AAs?$AA?$AA@ 1004bbb8     LIBCMT:winapinls.obj
 0002:00009bc0       ??_C@_15MACJNBMH@?$AAk?$AAk?$AA?$AA@ 1004bbc0     LIBCMT:winapinls.obj
 0002:00009bc8       ??_C@_15DKDJEOND@?$AAk?$AAy?$AA?$AA@ 1004bbc8     LIBCMT:winapinls.obj
 0002:00009bd0       ??_C@_15DFGDLJBG@?$AAs?$AAw?$AA?$AA@ 1004bbd0     LIBCMT:winapinls.obj
 0002:00009bd8       ??_C@_15BBFAICNG@?$AAu?$AAz?$AA?$AA@ 1004bbd8     LIBCMT:winapinls.obj
 0002:00009be0       ??_C@_15DKNDCGEA@?$AAt?$AAt?$AA?$AA@ 1004bbe0     LIBCMT:winapinls.obj
 0002:00009be8       ??_C@_15MGIFMDPL@?$AAp?$AAa?$AA?$AA@ 1004bbe8     LIBCMT:winapinls.obj
 0002:00009bf0       ??_C@_15HCNDBBA@?$AAg?$AAu?$AA?$AA@ 1004bbf0     LIBCMT:winapinls.obj
 0002:00009bf8       ??_C@_15FNBEIBON@?$AAt?$AAa?$AA?$AA@ 1004bbf8     LIBCMT:winapinls.obj
 0002:00009c00       ??_C@_15NCHGBGLK@?$AAt?$AAe?$AA?$AA@ 1004bc00     LIBCMT:winapinls.obj
 0002:00009c08       ??_C@_15PHPHCBPF@?$AAk?$AAn?$AA?$AA@ 1004bc08     LIBCMT:winapinls.obj
 0002:00009c10       ??_C@_15DLGBCKMP@?$AAm?$AAr?$AA?$AA@ 1004bc10     LIBCMT:winapinls.obj
 0002:00009c18       ??_C@_15EABBLBFF@?$AAs?$AAa?$AA?$AA@ 1004bc18     LIBCMT:winapinls.obj
 0002:00009c20       ??_C@_15CBKOMCOI@?$AAm?$AAn?$AA?$AA@ 1004bc20     LIBCMT:winapinls.obj
 0002:00009c28       ??_C@_15CKDMCJAF@?$AAg?$AAl?$AA?$AA@ 1004bc28     LIBCMT:winapinls.obj
 0002:00009c30       ??_C@_17CNJFBPG@?$AAk?$AAo?$AAk?$AA?$AA@ 1004bc30     LIBCMT:winapinls.obj
 0002:00009c38       ??_C@_17FFBJICPL@?$AAs?$AAy?$AAr?$AA?$AA@ 1004bc38     LIBCMT:winapinls.obj
 0002:00009c40       ??_C@_17KPNDCPAF@?$AAd?$AAi?$AAv?$AA?$AA@ 1004bc40     LIBCMT:winapinls.obj
 0002:00009c48       ??_C@_11LOCGONAA@?$AA?$AA@ 1004bc48     LIBCMT:winapinls.obj
 0002:00009c4c       ??_C@_1M@OKAHONE@?$AAa?$AAr?$AA?9?$AAS?$AAA?$AA?$AA@ 1004bc4c     LIBCMT:winapinls.obj
 0002:00009c58       ??_C@_1M@FFFIGIGK@?$AAb?$AAg?$AA?9?$AAB?$AAG?$AA?$AA@ 1004bc58     LIBCMT:winapinls.obj
 0002:00009c64       ??_C@_1M@BJNKEDC@?$AAc?$AAa?$AA?9?$AAE?$AAS?$AA?$AA@ 1004bc64     LIBCMT:winapinls.obj
 0002:00009c70       ??_C@_1M@IJJHFJHA@?$AAc?$AAs?$AA?9?$AAC?$AAZ?$AA?$AA@ 1004bc70     LIBCMT:winapinls.obj
 0002:00009c7c       ??_C@_1M@CLPEOBGI@?$AAd?$AAa?$AA?9?$AAD?$AAK?$AA?$AA@ 1004bc7c     LIBCMT:winapinls.obj
 0002:00009c88       ??_C@_1M@MCMADGCB@?$AAd?$AAe?$AA?9?$AAD?$AAE?$AA?$AA@ 1004bc88     LIBCMT:winapinls.obj
 0002:00009c94       ??_C@_1M@OOCKEMAM@?$AAe?$AAl?$AA?9?$AAG?$AAR?$AA?$AA@ 1004bc94     LIBCMT:winapinls.obj
 0002:00009ca0       ??_C@_1M@DDNJFGID@?$AAf?$AAi?$AA?9?$AAF?$AAI?$AA?$AA@ 1004bca0     LIBCMT:winapinls.obj
 0002:00009cac       ??_C@_1M@GLIPPMAC@?$AAf?$AAr?$AA?9?$AAF?$AAR?$AA?$AA@ 1004bcac     LIBCMT:winapinls.obj
 0002:00009cb8       ??_C@_1M@GFMCHPE@?$AAh?$AAe?$AA?9?$AAI?$AAL?$AA?$AA@ 1004bcb8     LIBCMT:winapinls.obj
 0002:00009cc4       ??_C@_1M@MHLPGNKM@?$AAh?$AAu?$AA?9?$AAH?$AAU?$AA?$AA@ 1004bcc4     LIBCMT:winapinls.obj
 0002:00009cd0       ??_C@_1M@LPDDNNPN@?$AAi?$AAs?$AA?9?$AAI?$AAS?$AA?$AA@ 1004bcd0     LIBCMT:winapinls.obj
 0002:00009cdc       ??_C@_1M@MADIPODN@?$AAi?$AAt?$AA?9?$AAI?$AAT?$AA?$AA@ 1004bcdc     LIBCMT:winapinls.obj
 0002:00009ce8       ??_C@_1M@IHBJJGG@?$AAn?$AAl?$AA?9?$AAN?$AAL?$AA?$AA@ 1004bce8     LIBCMT:winapinls.obj
 0002:00009cf4       ??_C@_1M@EANAGDL@?$AAn?$AAb?$AA?9?$AAN?$AAO?$AA?$AA@ 1004bcf4     LIBCMT:winapinls.obj
 0002:00009d00       ??_C@_1M@NEIEMEGP@?$AAp?$AAl?$AA?9?$AAP?$AAL?$AA?$AA@ 1004bd00     LIBCMT:winapinls.obj
 0002:00009d0c       ??_C@_1M@BOCFIGEP@?$AAp?$AAt?$AA?9?$AAB?$AAR?$AA?$AA@ 1004bd0c     LIBCMT:winapinls.obj
 0002:00009d18       ??_C@_1M@IMPFOPBG@?$AAr?$AAo?$AA?9?$AAR?$AAO?$AA?$AA@ 1004bd18     LIBCMT:winapinls.obj
 0002:00009d24       ??_C@_1M@IDNNEJMM@?$AAr?$AAu?$AA?9?$AAR?$AAU?$AA?$AA@ 1004bd24     LIBCMT:winapinls.obj
 0002:00009d30       ??_C@_1M@LILEEOGM@?$AAh?$AAr?$AA?9?$AAH?$AAR?$AA?$AA@ 1004bd30     LIBCMT:winapinls.obj
 0002:00009d3c       ??_C@_1M@FKIFEHPB@?$AAs?$AAk?$AA?9?$AAS?$AAK?$AA?$AA@ 1004bd3c     LIBCMT:winapinls.obj
 0002:00009d48       ??_C@_1M@LJMAMNPJ@?$AAs?$AAq?$AA?9?$AAA?$AAL?$AA?$AA@ 1004bd48     LIBCMT:winapinls.obj
 0002:00009d54       ??_C@_1M@GIAKDKJK@?$AAs?$AAv?$AA?9?$AAS?$AAE?$AA?$AA@ 1004bd54     LIBCMT:winapinls.obj
 0002:00009d60       ??_C@_1M@MKJKIKCL@?$AAt?$AAh?$AA?9?$AAT?$AAH?$AA?$AA@ 1004bd60     LIBCMT:winapinls.obj
 0002:00009d6c       ??_C@_1M@MFLCCMPB@?$AAt?$AAr?$AA?9?$AAT?$AAR?$AA?$AA@ 1004bd6c     LIBCMT:winapinls.obj
 0002:00009d78       ??_C@_1M@OIJHDKJN@?$AAu?$AAr?$AA?9?$AAP?$AAK?$AA?$AA@ 1004bd78     LIBCMT:winapinls.obj
 0002:00009d84       ??_C@_1M@LHIPCIEK@?$AAi?$AAd?$AA?9?$AAI?$AAD?$AA?$AA@ 1004bd84     LIBCMT:winapinls.obj
 0002:00009d90       ??_C@_1M@MFMOBGI@?$AAu?$AAk?$AA?9?$AAU?$AAA?$AA?$AA@ 1004bd90     LIBCMT:winapinls.obj
 0002:00009d9c       ??_C@_1M@OBGLJIPL@?$AAb?$AAe?$AA?9?$AAB?$AAY?$AA?$AA@ 1004bd9c     LIBCMT:winapinls.obj
 0002:00009da8       ??_C@_1M@BCFAJEAD@?$AAs?$AAl?$AA?9?$AAS?$AAI?$AA?$AA@ 1004bda8     LIBCMT:winapinls.obj
 0002:00009db4       ??_C@_1M@FKFFEDDN@?$AAe?$AAt?$AA?9?$AAE?$AAE?$AA?$AA@ 1004bdb4     LIBCMT:winapinls.obj
 0002:00009dc0       ??_C@_1M@KGKKAACI@?$AAl?$AAv?$AA?9?$AAL?$AAV?$AA?$AA@ 1004bdc0     LIBCMT:winapinls.obj
 0002:00009dcc       ??_C@_1M@IFGBIJO@?$AAl?$AAt?$AA?9?$AAL?$AAT?$AA?$AA@ 1004bdcc     LIBCMT:winapinls.obj
 0002:00009dd8       ??_C@_1M@FGEAHEDM@?$AAf?$AAa?$AA?9?$AAI?$AAR?$AA?$AA@ 1004bdd8     LIBCMT:winapinls.obj
 0002:00009de4       ??_C@_1M@KBMAIBFN@?$AAv?$AAi?$AA?9?$AAV?$AAN?$AA?$AA@ 1004bde4     LIBCMT:winapinls.obj
 0002:00009df0       ??_C@_1M@GPCBKDJK@?$AAh?$AAy?$AA?9?$AAA?$AAM?$AA?$AA@ 1004bdf0     LIBCMT:winapinls.obj
 0002:00009dfc       ??_C@_1BG@BECMDDJB@?$AAa?$AAz?$AA?9?$AAA?$AAZ?$AA?9?$AAL?$AAa?$AAt?$AAn?$AA?$AA@ 1004bdfc     LIBCMT:winapinls.obj
 0002:00009e14       ??_C@_1M@MAOFCAEA@?$AAe?$AAu?$AA?9?$AAE?$AAS?$AA?$AA@ 1004be14     LIBCMT:winapinls.obj
 0002:00009e20       ??_C@_1M@IGHABKPI@?$AAm?$AAk?$AA?9?$AAM?$AAK?$AA?$AA@ 1004be20     LIBCMT:winapinls.obj
 0002:00009e2c       ??_C@_1M@IAIGNEJG@?$AAt?$AAn?$AA?9?$AAZ?$AAA?$AA?$AA@ 1004be2c     LIBCMT:winapinls.obj
 0002:00009e38       ??_C@_1M@IIJCOJFA@?$AAx?$AAh?$AA?9?$AAZ?$AAA?$AA?$AA@ 1004be38     LIBCMT:winapinls.obj
 0002:00009e44       ??_C@_1M@LGPJHNJH@?$AAz?$AAu?$AA?9?$AAZ?$AAA?$AA?$AA@ 1004be44     LIBCMT:winapinls.obj
 0002:00009e50       ??_C@_1M@HOKAOIO@?$AAa?$AAf?$AA?9?$AAZ?$AAA?$AA?$AA@ 1004be50     LIBCMT:winapinls.obj
 0002:00009e5c       ??_C@_1M@DPCLHLIE@?$AAk?$AAa?$AA?9?$AAG?$AAE?$AA?$AA@ 1004be5c     LIBCMT:winapinls.obj
 0002:00009e68       ??_C@_1M@BLKMHJBI@?$AAf?$AAo?$AA?9?$AAF?$AAO?$AA?$AA@ 1004be68     LIBCMT:winapinls.obj
 0002:00009e74       ??_C@_1M@LGGJAPPB@?$AAh?$AAi?$AA?9?$AAI?$AAN?$AA?$AA@ 1004be74     LIBCMT:winapinls.obj
 0002:00009e80       ??_C@_1M@FIKPIHFE@?$AAm?$AAt?$AA?9?$AAM?$AAT?$AA?$AA@ 1004be80     LIBCMT:winapinls.obj
 0002:00009e8c       ??_C@_1M@HEGGPBFA@?$AAs?$AAe?$AA?9?$AAN?$AAO?$AA?$AA@ 1004be8c     LIBCMT:winapinls.obj
 0002:00009e98       ??_C@_1M@EIBJEEPA@?$AAm?$AAs?$AA?9?$AAM?$AAY?$AA?$AA@ 1004be98     LIBCMT:winapinls.obj
 0002:00009ea4       ??_C@_1M@FHLBGMPP@?$AAk?$AAk?$AA?9?$AAK?$AAZ?$AA?$AA@ 1004bea4     LIBCMT:winapinls.obj
 0002:00009eb0       ??_C@_1M@NGJJLCGI@?$AAk?$AAy?$AA?9?$AAK?$AAG?$AA?$AA@ 1004beb0     LIBCMT:winapinls.obj
 0002:00009ebc       ??_C@_1M@GIENNBFC@?$AAs?$AAw?$AA?9?$AAK?$AAE?$AA?$AA@ 1004bebc     LIBCMT:winapinls.obj
 0002:00009ec8       ??_C@_1BG@NDGMJIMJ@?$AAu?$AAz?$AA?9?$AAU?$AAZ?$AA?9?$AAL?$AAa?$AAt?$AAn?$AA?$AA@ 1004bec8     LIBCMT:winapinls.obj
 0002:00009ee0       ??_C@_1M@IDCCIHBC@?$AAt?$AAt?$AA?9?$AAR?$AAU?$AA?$AA@ 1004bee0     LIBCMT:winapinls.obj
 0002:00009eec       ??_C@_1M@LOICPMOJ@?$AAb?$AAn?$AA?9?$AAI?$AAN?$AA?$AA@ 1004beec     LIBCMT:winapinls.obj
 0002:00009ef8       ??_C@_1M@KPKKNEAH@?$AAp?$AAa?$AA?9?$AAI?$AAN?$AA?$AA@ 1004bef8     LIBCMT:winapinls.obj
 0002:00009f04       ??_C@_1M@PJGPPBOG@?$AAg?$AAu?$AA?9?$AAI?$AAN?$AA?$AA@ 1004bf04     LIBCMT:winapinls.obj
 0002:00009f10       ??_C@_1M@KMKMOPHI@?$AAt?$AAa?$AA?9?$AAI?$AAN?$AA?$AA@ 1004bf10     LIBCMT:winapinls.obj
 0002:00009f1c       ??_C@_1M@KFEHEPAC@?$AAt?$AAe?$AA?9?$AAI?$AAN?$AA?$AA@ 1004bf1c     LIBCMT:winapinls.obj
 0002:00009f28       ??_C@_1M@CDCLMGHI@?$AAk?$AAn?$AA?9?$AAI?$AAN?$AA?$AA@ 1004bf28     LIBCMT:winapinls.obj
 0002:00009f34       ??_C@_1M@MIODLDKF@?$AAm?$AAl?$AA?9?$AAI?$AAN?$AA?$AA@ 1004bf34     LIBCMT:winapinls.obj
 0002:00009f40       ??_C@_1M@PBIEACPO@?$AAm?$AAr?$AA?9?$AAI?$AAN?$AA?$AA@ 1004bf40     LIBCMT:winapinls.obj
 0002:00009f4c       ??_C@_1M@NIDEAGPH@?$AAs?$AAa?$AA?9?$AAI?$AAN?$AA?$AA@ 1004bf4c     LIBCMT:winapinls.obj
 0002:00009f58       ??_C@_1M@FHIHCBIO@?$AAm?$AAn?$AA?9?$AAM?$AAN?$AA?$AA@ 1004bf58     LIBCMT:winapinls.obj
 0002:00009f64       ??_C@_1M@JAIJPENP@?$AAc?$AAy?$AA?9?$AAG?$AAB?$AA?$AA@ 1004bf64     LIBCMT:winapinls.obj
 0002:00009f70       ??_C@_1M@PHGFBEPN@?$AAg?$AAl?$AA?9?$AAE?$AAS?$AA?$AA@ 1004bf70     LIBCMT:winapinls.obj
 0002:00009f7c       ??_C@_1O@KPIPDNCP@?$AAk?$AAo?$AAk?$AA?9?$AAI?$AAN?$AA?$AA@ 1004bf7c     LIBCMT:winapinls.obj
 0002:00009f8c       ??_C@_1O@KNHJLDJA@?$AAs?$AAy?$AAr?$AA?9?$AAS?$AAY?$AA?$AA@ 1004bf8c     LIBCMT:winapinls.obj
 0002:00009f9c       ??_C@_1O@MKEKBLAH@?$AAd?$AAi?$AAv?$AA?9?$AAM?$AAV?$AA?$AA@ 1004bf9c     LIBCMT:winapinls.obj
 0002:00009fac       ??_C@_1O@OHDCKDDF@?$AAq?$AAu?$AAz?$AA?9?$AAB?$AAO?$AA?$AA@ 1004bfac     LIBCMT:winapinls.obj
 0002:00009fbc       ??_C@_1M@LEPJNLFD@?$AAn?$AAs?$AA?9?$AAZ?$AAA?$AA?$AA@ 1004bfbc     LIBCMT:winapinls.obj
 0002:00009fc8       ??_C@_1M@OMLEIIJB@?$AAm?$AAi?$AA?9?$AAN?$AAZ?$AA?$AA@ 1004bfc8     LIBCMT:winapinls.obj
 0002:00009fd4       ??_C@_1M@PMPEAILG@?$AAa?$AAr?$AA?9?$AAI?$AAQ?$AA?$AA@ 1004bfd4     LIBCMT:winapinls.obj
 0002:00009fe0       ??_C@_1M@CNKPNOEE@?$AAd?$AAe?$AA?9?$AAC?$AAH?$AA?$AA@ 1004bfe0     LIBCMT:winapinls.obj
 0002:00009fec       ??_C@_1M@LKMGMLKO@?$AAe?$AAn?$AA?9?$AAG?$AAB?$AA?$AA@ 1004bfec     LIBCMT:winapinls.obj
 0002:00009ff8       ??_C@_1M@PGKJFFGL@?$AAe?$AAs?$AA?9?$AAM?$AAX?$AA?$AA@ 1004bff8     LIBCMT:winapinls.obj
 0002:0000a004       ??_C@_1M@DNNANBDC@?$AAf?$AAr?$AA?9?$AAB?$AAE?$AA?$AA@ 1004c004     LIBCMT:winapinls.obj
 0002:0000a010       ??_C@_1M@HLGMDFHM@?$AAi?$AAt?$AA?9?$AAC?$AAH?$AA?$AA@ 1004c010     LIBCMT:winapinls.obj
 0002:0000a01c       ??_C@_1M@CLLBGJH@?$AAn?$AAl?$AA?9?$AAB?$AAE?$AA?$AA@ 1004c01c     LIBCMT:winapinls.obj
 0002:0000a028       ??_C@_1M@BODBOGLF@?$AAn?$AAn?$AA?9?$AAN?$AAO?$AA?$AA@ 1004c028     LIBCMT:winapinls.obj
 0002:0000a034       ??_C@_1M@HFFAHKAD@?$AAp?$AAt?$AA?9?$AAP?$AAT?$AA?$AA@ 1004c034     LIBCMT:winapinls.obj
 0002:0000a040       ??_C@_1BG@LNOAKHIE@?$AAs?$AAr?$AA?9?$AAS?$AAP?$AA?9?$AAL?$AAa?$AAt?$AAn?$AA?$AA@ 1004c040     LIBCMT:winapinls.obj
 0002:0000a058       ??_C@_1M@HBMHBGAK@?$AAs?$AAv?$AA?9?$AAF?$AAI?$AA?$AA@ 1004c058     LIBCMT:winapinls.obj
 0002:0000a064       ??_C@_1BG@DGCJGJBE@?$AAa?$AAz?$AA?9?$AAA?$AAZ?$AA?9?$AAC?$AAy?$AAr?$AAl?$AA?$AA@ 1004c064     LIBCMT:winapinls.obj
 0002:0000a07c       ??_C@_1M@KEJDAAHB@?$AAs?$AAe?$AA?9?$AAS?$AAE?$AA?$AA@ 1004c07c     LIBCMT:winapinls.obj
 0002:0000a088       ??_C@_1M@HEIBJJAD@?$AAm?$AAs?$AA?9?$AAB?$AAN?$AA?$AA@ 1004c088     LIBCMT:winapinls.obj
 0002:0000a094       ??_C@_1BG@PBGJMCEM@?$AAu?$AAz?$AA?9?$AAU?$AAZ?$AA?9?$AAC?$AAy?$AAr?$AAl?$AA?$AA@ 1004c094     LIBCMT:winapinls.obj
 0002:0000a0ac       ??_C@_1O@LAOBCMDF@?$AAq?$AAu?$AAz?$AA?9?$AAE?$AAC?$AA?$AA@ 1004c0ac     LIBCMT:winapinls.obj
 0002:0000a0bc       ??_C@_1M@POEEMAIO@?$AAa?$AAr?$AA?9?$AAE?$AAG?$AA?$AA@ 1004c0bc     LIBCMT:winapinls.obj
 0002:0000a0c8       ??_C@_1M@EFAKDEDL@?$AAz?$AAh?$AA?9?$AAH?$AAK?$AA?$AA@ 1004c0c8     LIBCMT:winapinls.obj
 0002:0000a0d4       ??_C@_1M@HKKIJHGI@?$AAd?$AAe?$AA?9?$AAA?$AAT?$AA?$AA@ 1004c0d4     LIBCMT:winapinls.obj
 0002:0000a0e0       ??_C@_1M@KBFBEHJF@?$AAe?$AAn?$AA?9?$AAA?$AAU?$AA?$AA@ 1004c0e0     LIBCMT:winapinls.obj
 0002:0000a0ec       ??_C@_1M@MNPLFAAH@?$AAe?$AAs?$AA?9?$AAE?$AAS?$AA?$AA@ 1004c0ec     LIBCMT:winapinls.obj
 0002:0000a0f8       ??_C@_1M@HJOOJFMA@?$AAf?$AAr?$AA?9?$AAC?$AAA?$AA?$AA@ 1004c0f8     LIBCMT:winapinls.obj
 0002:0000a104       ??_C@_1BG@JPOFPNAB@?$AAs?$AAr?$AA?9?$AAS?$AAP?$AA?9?$AAC?$AAy?$AAr?$AAl?$AA?$AA@ 1004c104     LIBCMT:winapinls.obj
 0002:0000a11c       ??_C@_1M@LNFOCMOB@?$AAs?$AAe?$AA?9?$AAF?$AAI?$AA?$AA@ 1004c11c     LIBCMT:winapinls.obj
 0002:0000a128       ??_C@_1O@MGJBOAMB@?$AAq?$AAu?$AAz?$AA?9?$AAP?$AAE?$AA?$AA@ 1004c128     LIBCMT:winapinls.obj
 0002:0000a138       ??_C@_1M@GJINLBOK@?$AAa?$AAr?$AA?9?$AAL?$AAY?$AA?$AA@ 1004c138     LIBCMT:winapinls.obj
 0002:0000a144       ??_C@_1M@GGMNHJNL@?$AAz?$AAh?$AA?9?$AAS?$AAG?$AA?$AA@ 1004c144     LIBCMT:winapinls.obj
 0002:0000a150       ??_C@_1M@HOIKODND@?$AAd?$AAe?$AA?9?$AAL?$AAU?$AA?$AA@ 1004c150     LIBCMT:winapinls.obj
 0002:0000a15c       ??_C@_1M@DDOCCGFG@?$AAe?$AAn?$AA?9?$AAC?$AAA?$AA?$AA@ 1004c15c     LIBCMT:winapinls.obj
 0002:0000a168       ??_C@_1M@BNOEMJLF@?$AAe?$AAs?$AA?9?$AAG?$AAT?$AA?$AA@ 1004c168     LIBCMT:winapinls.obj
 0002:0000a174       ??_C@_1M@EOGNKEK@?$AAf?$AAr?$AA?9?$AAC?$AAH?$AA?$AA@ 1004c174     LIBCMT:winapinls.obj
 0002:0000a180       ??_C@_1M@FLIDJFHL@?$AAh?$AAr?$AA?9?$AAB?$AAA?$AA?$AA@ 1004c180     LIBCMT:winapinls.obj
 0002:0000a18c       ??_C@_1O@FMCELNAJ@?$AAs?$AAm?$AAj?$AA?9?$AAN?$AAO?$AA?$AA@ 1004c18c     LIBCMT:winapinls.obj
 0002:0000a19c       ??_C@_1M@JHGLJMGJ@?$AAa?$AAr?$AA?9?$AAD?$AAZ?$AA?$AA@ 1004c19c     LIBCMT:winapinls.obj
 0002:0000a1a8       ??_C@_1M@JKKFDCNP@?$AAz?$AAh?$AA?9?$AAM?$AAO?$AA?$AA@ 1004c1a8     LIBCMT:winapinls.obj
 0002:0000a1b4       ??_C@_1M@GEEFALPE@?$AAd?$AAe?$AA?9?$AAL?$AAI?$AA?$AA@ 1004c1b4     LIBCMT:winapinls.obj
 0002:0000a1c0       ??_C@_1M@IGEOFBG@?$AAe?$AAn?$AA?9?$AAN?$AAZ?$AA?$AA@ 1004c1c0     LIBCMT:winapinls.obj
 0002:0000a1cc       ??_C@_1M@KDBONEHP@?$AAe?$AAs?$AA?9?$AAC?$AAR?$AA?$AA@ 1004c1cc     LIBCMT:winapinls.obj
 0002:0000a1d8       ??_C@_1M@FHMDOHNN@?$AAf?$AAr?$AA?9?$AAL?$AAU?$AA?$AA@ 1004c1d8     LIBCMT:winapinls.obj
 0002:0000a1e4       ??_C@_1BG@NFKKMAFG@?$AAb?$AAs?$AA?9?$AAB?$AAA?$AA?9?$AAL?$AAa?$AAt?$AAn?$AA?$AA@ 1004c1e4     LIBCMT:winapinls.obj
 0002:0000a1fc       ??_C@_1O@IMNBEMCI@?$AAs?$AAm?$AAj?$AA?9?$AAS?$AAE?$AA?$AA@ 1004c1fc     LIBCMT:winapinls.obj
 0002:0000a20c       ??_C@_1M@DHHMBNDP@?$AAa?$AAr?$AA?9?$AAM?$AAA?$AA?$AA@ 1004c20c     LIBCMT:winapinls.obj
 0002:0000a218       ??_C@_1M@BNBLJCGH@?$AAe?$AAn?$AA?9?$AAI?$AAE?$AA?$AA@ 1004c218     LIBCMT:winapinls.obj
 0002:0000a224       ??_C@_1M@GEPAFMDL@?$AAe?$AAs?$AA?9?$AAP?$AAA?$AA?$AA@ 1004c224     LIBCMT:winapinls.obj
 0002:0000a230       ??_C@_1M@OJONDMDL@?$AAf?$AAr?$AA?9?$AAM?$AAC?$AA?$AA@ 1004c230     LIBCMT:winapinls.obj
 0002:0000a23c       ??_C@_1BG@OBCNFJB@?$AAs?$AAr?$AA?9?$AAB?$AAA?$AA?9?$AAL?$AAa?$AAt?$AAn?$AA?$AA@ 1004c23c     LIBCMT:winapinls.obj
 0002:0000a254       ??_C@_1O@KEMEEGPO@?$AAs?$AAm?$AAa?$AA?9?$AAN?$AAO?$AA?$AA@ 1004c254     LIBCMT:winapinls.obj
 0002:0000a264       ??_C@_1M@ELMGFODK@?$AAa?$AAr?$AA?9?$AAT?$AAN?$AA?$AA@ 1004c264     LIBCMT:winapinls.obj
 0002:0000a270       ??_C@_1M@BHDLHFAF@?$AAe?$AAn?$AA?9?$AAZ?$AAA?$AA?$AA@ 1004c270     LIBCMT:winapinls.obj
 0002:0000a27c       ??_C@_1M@BMGIGLIF@?$AAe?$AAs?$AA?9?$AAD?$AAO?$AA?$AA@ 1004c27c     LIBCMT:winapinls.obj
 0002:0000a288       ??_C@_1BG@CMBHIPBE@?$AAs?$AAr?$AA?9?$AAB?$AAA?$AA?9?$AAC?$AAy?$AAr?$AAl?$AA?$AA@ 1004c288     LIBCMT:winapinls.obj
 0002:0000a2a0       ??_C@_1O@HEDBLHNP@?$AAs?$AAm?$AAa?$AA?9?$AAS?$AAE?$AA?$AA@ 1004c2a0     LIBCMT:winapinls.obj
 0002:0000a2b0       ??_C@_1M@DAGCADIM@?$AAa?$AAr?$AA?9?$AAO?$AAM?$AA?$AA@ 1004c2b0     LIBCMT:winapinls.obj
 0002:0000a2bc       ??_C@_1M@FODLMICG@?$AAe?$AAn?$AA?9?$AAJ?$AAM?$AA?$AA@ 1004c2bc     LIBCMT:winapinls.obj
 0002:0000a2c8       ??_C@_1M@DNMLCIHB@?$AAe?$AAs?$AA?9?$AAV?$AAE?$AA?$AA@ 1004c2c8     LIBCMT:winapinls.obj
 0002:0000a2d4       ??_C@_1O@EOKHMKJK@?$AAs?$AAm?$AAs?$AA?9?$AAF?$AAI?$AA?$AA@ 1004c2d4     LIBCMT:winapinls.obj
 0002:0000a2e4       ??_C@_1M@CAFJMKOF@?$AAa?$AAr?$AA?9?$AAY?$AAE?$AA?$AA@ 1004c2e4     LIBCMT:winapinls.obj
 0002:0000a2f0       ??_C@_1M@CBFHIJLI@?$AAe?$AAn?$AA?9?$AAC?$AAB?$AA?$AA@ 1004c2f0     LIBCMT:winapinls.obj
 0002:0000a2fc       ??_C@_1M@BGNFLDN@?$AAe?$AAs?$AA?9?$AAC?$AAO?$AA?$AA@ 1004c2fc     LIBCMT:winapinls.obj
 0002:0000a308       ??_C@_1O@JMPHMAMC@?$AAs?$AAm?$AAn?$AA?9?$AAF?$AAI?$AA?$AA@ 1004c308     LIBCMT:winapinls.obj
 0002:0000a318       ??_C@_1M@JLANABKE@?$AAa?$AAr?$AA?9?$AAS?$AAY?$AA?$AA@ 1004c318     LIBCMT:winapinls.obj
 0002:0000a324       ??_C@_1M@HPKGCFGN@?$AAe?$AAn?$AA?9?$AAB?$AAZ?$AA?$AA@ 1004c324     LIBCMT:winapinls.obj
 0002:0000a330       ??_C@_1M@OLJCMLGM@?$AAe?$AAs?$AA?9?$AAP?$AAE?$AA?$AA@ 1004c330     LIBCMT:winapinls.obj
 0002:0000a33c       ??_C@_1M@MKKGFKLE@?$AAa?$AAr?$AA?9?$AAJ?$AAO?$AA?$AA@ 1004c33c     LIBCMT:winapinls.obj
 0002:0000a348       ??_C@_1M@EKPGLDNI@?$AAe?$AAn?$AA?9?$AAT?$AAT?$AA?$AA@ 1004c348     LIBCMT:winapinls.obj
 0002:0000a354       ??_C@_1M@OONGHFHE@?$AAe?$AAs?$AA?9?$AAA?$AAR?$AA?$AA@ 1004c354     LIBCMT:winapinls.obj
 0002:0000a360       ??_C@_1M@OOJFGBHE@?$AAa?$AAr?$AA?9?$AAL?$AAB?$AA?$AA@ 1004c360     LIBCMT:winapinls.obj
 0002:0000a36c       ??_C@_1M@GCEJHNEG@?$AAe?$AAn?$AA?9?$AAZ?$AAW?$AA?$AA@ 1004c36c     LIBCMT:winapinls.obj
 0002:0000a378       ??_C@_1M@JNOCAHJI@?$AAe?$AAs?$AA?9?$AAE?$AAC?$AA?$AA@ 1004c378     LIBCMT:winapinls.obj
 0002:0000a384       ??_C@_1M@JEFHPGGB@?$AAa?$AAr?$AA?9?$AAK?$AAW?$AA?$AA@ 1004c384     LIBCMT:winapinls.obj
 0002:0000a390       ??_C@_1M@MLKIBJOJ@?$AAe?$AAn?$AA?9?$AAP?$AAH?$AA?$AA@ 1004c390     LIBCMT:winapinls.obj
 0002:0000a39c       ??_C@_1M@BDNIPEND@?$AAe?$AAs?$AA?9?$AAC?$AAL?$AA?$AA@ 1004c39c     LIBCMT:winapinls.obj
 0002:0000a3a8       ??_C@_1M@MPNMEKBD@?$AAa?$AAr?$AA?9?$AAA?$AAE?$AA?$AA@ 1004c3a8     LIBCMT:winapinls.obj
 0002:0000a3b4       ??_C@_1M@KBJALCPI@?$AAe?$AAs?$AA?9?$AAU?$AAY?$AA?$AA@ 1004c3b4     LIBCMT:winapinls.obj
 0002:0000a3c0       ??_C@_1M@LLCCOAGA@?$AAa?$AAr?$AA?9?$AAB?$AAH?$AA?$AA@ 1004c3c0     LIBCMT:winapinls.obj
 0002:0000a3cc       ??_C@_1M@PBFNCDEL@?$AAe?$AAs?$AA?9?$AAP?$AAY?$AA?$AA@ 1004c3cc     LIBCMT:winapinls.obj
 0002:0000a3d8       ??_C@_1M@EDGINPNP@?$AAa?$AAr?$AA?9?$AAQ?$AAA?$AA?$AA@ 1004c3d8     LIBCMT:winapinls.obj
 0002:0000a3e4       ??_C@_1M@MKDBIIJI@?$AAe?$AAs?$AA?9?$AAB?$AAO?$AA?$AA@ 1004c3e4     LIBCMT:winapinls.obj
 0002:0000a3f0       ??_C@_1M@CPKKEBLD@?$AAe?$AAs?$AA?9?$AAS?$AAV?$AA?$AA@ 1004c3f0     LIBCMT:winapinls.obj
 0002:0000a3fc       ??_C@_1M@NDBGMMJL@?$AAe?$AAs?$AA?9?$AAH?$AAN?$AA?$AA@ 1004c3fc     LIBCMT:winapinls.obj
 0002:0000a408       ??_C@_1M@JIJIBHDP@?$AAe?$AAs?$AA?9?$AAN?$AAI?$AA?$AA@ 1004c408     LIBCMT:winapinls.obj
 0002:0000a414       ??_C@_1M@CGFMKEEK@?$AAe?$AAs?$AA?9?$AAP?$AAR?$AA?$AA@ 1004c414     LIBCMT:winapinls.obj
 0002:0000a420       ??_C@_1O@ICJHKIIK@?$AAz?$AAh?$AA?9?$AAC?$AAH?$AAT?$AA?$AA@ 1004c420     LIBCMT:winapinls.obj
 0002:0000a430       ??_C@_15CLNEJCE@?$AAs?$AAr?$AA?$AA@ 1004c430     LIBCMT:winapinls.obj
 0002:0000a438       ??_C@_1M@KAHEKEIG@?$AAa?$AAf?$AA?9?$AAz?$AAa?$AA?$AA@ 1004c438     LIBCMT:winapinls.obj
 0002:0000a444       ??_C@_1M@GIECOABL@?$AAa?$AAr?$AA?9?$AAa?$AAe?$AA?$AA@ 1004c444     LIBCMT:winapinls.obj
 0002:0000a450       ??_C@_1M@BMLMEKGI@?$AAa?$AAr?$AA?9?$AAb?$AAh?$AA?$AA@ 1004c450     LIBCMT:winapinls.obj
 0002:0000a45c       ??_C@_1M@DAPFDGGB@?$AAa?$AAr?$AA?9?$AAd?$AAz?$AA?$AA@ 1004c45c     LIBCMT:winapinls.obj
 0002:0000a468       ??_C@_1M@FJNKGKIG@?$AAa?$AAr?$AA?9?$AAe?$AAg?$AA?$AA@ 1004c468     LIBCMT:winapinls.obj
 0002:0000a474       ??_C@_1M@FLGKKCLO@?$AAa?$AAr?$AA?9?$AAi?$AAq?$AA?$AA@ 1004c474     LIBCMT:winapinls.obj
 0002:0000a480       ??_C@_1M@GNDIPALM@?$AAa?$AAr?$AA?9?$AAj?$AAo?$AA?$AA@ 1004c480     LIBCMT:winapinls.obj
 0002:0000a48c       ??_C@_1M@DDMJFMGJ@?$AAa?$AAr?$AA?9?$AAk?$AAw?$AA?$AA@ 1004c48c     LIBCMT:winapinls.obj
 0002:0000a498       ??_C@_1M@EJALMLHM@?$AAa?$AAr?$AA?9?$AAl?$AAb?$AA?$AA@ 1004c498     LIBCMT:winapinls.obj
 0002:0000a4a4       ??_C@_1M@MOBDBLOC@?$AAa?$AAr?$AA?9?$AAl?$AAy?$AA?$AA@ 1004c4a4     LIBCMT:winapinls.obj
 0002:0000a4b0       ??_C@_1M@JAOCLHDH@?$AAa?$AAr?$AA?9?$AAm?$AAa?$AA?$AA@ 1004c4b0     LIBCMT:winapinls.obj
 0002:0000a4bc       ??_C@_1M@JHPMKJIE@?$AAa?$AAr?$AA?9?$AAo?$AAm?$AA?$AA@ 1004c4bc     LIBCMT:winapinls.obj
 0002:0000a4c8       ??_C@_1M@OEPGHFNH@?$AAa?$AAr?$AA?9?$AAq?$AAa?$AA?$AA@ 1004c4c8     LIBCMT:winapinls.obj
 0002:0000a4d4       ??_C@_1M@KJDONENM@?$AAa?$AAr?$AA?9?$AAs?$AAa?$AA?$AA@ 1004c4d4     LIBCMT:winapinls.obj
 0002:0000a4e0       ??_C@_1M@DMJDKLKM@?$AAa?$AAr?$AA?9?$AAs?$AAy?$AA?$AA@ 1004c4e0     LIBCMT:winapinls.obj
 0002:0000a4ec       ??_C@_1M@OMFIPEDC@?$AAa?$AAr?$AA?9?$AAt?$AAn?$AA?$AA@ 1004c4ec     LIBCMT:winapinls.obj
 0002:0000a4f8       ??_C@_1M@IHMHGAON@?$AAa?$AAr?$AA?9?$AAy?$AAe?$AA?$AA@ 1004c4f8     LIBCMT:winapinls.obj
 0002:0000a504       ??_C@_1BG@KDCPGJGB@?$AAa?$AAz?$AA?9?$AAa?$AAz?$AA?9?$AAc?$AAy?$AAr?$AAl?$AA?$AA@ 1004c504     LIBCMT:winapinls.obj
 0002:0000a51c       ??_C@_1BG@IBCKDDOE@?$AAa?$AAz?$AA?9?$AAa?$AAz?$AA?9?$AAl?$AAa?$AAt?$AAn?$AA?$AA@ 1004c51c     LIBCMT:winapinls.obj
 0002:0000a534       ??_C@_1M@EGPFDCPD@?$AAb?$AAe?$AA?9?$AAb?$AAy?$AA?$AA@ 1004c534     LIBCMT:winapinls.obj
 0002:0000a540       ??_C@_1M@PCMGMCGC@?$AAb?$AAg?$AA?9?$AAb?$AAg?$AA?$AA@ 1004c540     LIBCMT:winapinls.obj
 0002:0000a54c       ??_C@_1M@BJBMFGOB@?$AAb?$AAn?$AA?9?$AAi?$AAn?$AA?$AA@ 1004c54c     LIBCMT:winapinls.obj
 0002:0000a558       ??_C@_1BG@EAKMMACD@?$AAb?$AAs?$AA?9?$AAb?$AAa?$AA?9?$AAl?$AAa?$AAt?$AAn?$AA?$AA@ 1004c558     LIBCMT:winapinls.obj
 0002:0000a570       ??_C@_1M@KGADAODK@?$AAc?$AAa?$AA?9?$AAe?$AAs?$AA?$AA@ 1004c570     LIBCMT:winapinls.obj
 0002:0000a57c       ??_C@_1M@COAJPDHI@?$AAc?$AAs?$AA?9?$AAc?$AAz?$AA?$AA@ 1004c57c     LIBCMT:winapinls.obj
 0002:0000a588       ??_C@_1M@DHBHFONH@?$AAc?$AAy?$AA?9?$AAg?$AAb?$AA?$AA@ 1004c588     LIBCMT:winapinls.obj
 0002:0000a594       ??_C@_1M@IMGKELGA@?$AAd?$AAa?$AA?9?$AAd?$AAk?$AA?$AA@ 1004c594     LIBCMT:winapinls.obj
 0002:0000a5a0       ??_C@_1M@NNDGDNGA@?$AAd?$AAe?$AA?9?$AAa?$AAt?$AA?$AA@ 1004c5a0     LIBCMT:winapinls.obj
 0002:0000a5ac       ??_C@_1M@IKDBHEEM@?$AAd?$AAe?$AA?9?$AAc?$AAh?$AA?$AA@ 1004c5ac     LIBCMT:winapinls.obj
 0002:0000a5b8       ??_C@_1M@GFFOJMCJ@?$AAd?$AAe?$AA?9?$AAd?$AAe?$AA?$AA@ 1004c5b8     LIBCMT:winapinls.obj
 0002:0000a5c4       ??_C@_1M@MDNLKBPM@?$AAd?$AAe?$AA?9?$AAl?$AAi?$AA?$AA@ 1004c5c4     LIBCMT:winapinls.obj
 0002:0000a5d0       ??_C@_1M@NJBEEJNL@?$AAd?$AAe?$AA?9?$AAl?$AAu?$AA?$AA@ 1004c5d0     LIBCMT:winapinls.obj
 0002:0000a5dc       ??_C@_1O@GNNELBAP@?$AAd?$AAi?$AAv?$AA?9?$AAm?$AAv?$AA?$AA@ 1004c5dc     LIBCMT:winapinls.obj
 0002:0000a5ec       ??_C@_1M@EJLEOGAE@?$AAe?$AAl?$AA?9?$AAg?$AAr?$AA?$AA@ 1004c5ec     LIBCMT:winapinls.obj
 0002:0000a5f8       ??_C@_1M@GMPONJN@?$AAe?$AAn?$AA?9?$AAa?$AAu?$AA?$AA@ 1004c5f8     LIBCMT:winapinls.obj
 0002:0000a604       ??_C@_1M@NIDIIPGF@?$AAe?$AAn?$AA?9?$AAb?$AAz?$AA?$AA@ 1004c604     LIBCMT:winapinls.obj
 0002:0000a610       ??_C@_1M@JEHMIMFO@?$AAe?$AAn?$AA?9?$AAc?$AAa?$AA?$AA@ 1004c610     LIBCMT:winapinls.obj
 0002:0000a61c       ??_C@_1M@IGMJCDLA@?$AAe?$AAn?$AA?9?$AAc?$AAb?$AA?$AA@ 1004c61c     LIBCMT:winapinls.obj
 0002:0000a628       ??_C@_1M@BNFIGBKG@?$AAe?$AAn?$AA?9?$AAg?$AAb?$AA?$AA@ 1004c628     LIBCMT:winapinls.obj
 0002:0000a634       ??_C@_1M@LKIFDIGP@?$AAe?$AAn?$AA?9?$AAi?$AAe?$AA?$AA@ 1004c634     LIBCMT:winapinls.obj
 0002:0000a640       ??_C@_1M@PJKFGCCO@?$AAe?$AAn?$AA?9?$AAj?$AAm?$AA?$AA@ 1004c640     LIBCMT:winapinls.obj
 0002:0000a64c       ??_C@_1M@KPPKEPBO@?$AAe?$AAn?$AA?9?$AAn?$AAz?$AA?$AA@ 1004c64c     LIBCMT:winapinls.obj
 0002:0000a658       ??_C@_1M@GMDGLDOB@?$AAe?$AAn?$AA?9?$AAp?$AAh?$AA?$AA@ 1004c658     LIBCMT:winapinls.obj
 0002:0000a664       ??_C@_1M@ONGIBJNA@?$AAe?$AAn?$AA?9?$AAt?$AAt?$AA?$AA@ 1004c664     LIBCMT:winapinls.obj
 0002:0000a670       ??_C@_1M@LLODPCMM@?$AAe?$AAn?$AA?9?$AAu?$AAs?$AA?$AA@ 1004c670     LIBCMT:winapinls.obj
 0002:0000a67c       ??_C@_1M@LAKFNPAN@?$AAe?$AAn?$AA?9?$AAz?$AAa?$AA?$AA@ 1004c67c     LIBCMT:winapinls.obj
 0002:0000a688       ??_C@_1M@MFNHNHEO@?$AAe?$AAn?$AA?9?$AAz?$AAw?$AA?$AA@ 1004c688     LIBCMT:winapinls.obj
 0002:0000a694       ??_C@_1M@EJEINPHM@?$AAe?$AAs?$AA?9?$AAa?$AAr?$AA?$AA@ 1004c694     LIBCMT:winapinls.obj
 0002:0000a6a0       ??_C@_1M@GNKPCCJA@?$AAe?$AAs?$AA?9?$AAb?$AAo?$AA?$AA@ 1004c6a0     LIBCMT:winapinls.obj
 0002:0000a6ac       ??_C@_1M@LEEGFONL@?$AAe?$AAs?$AA?9?$AAc?$AAl?$AA?$AA@ 1004c6ac     LIBCMT:winapinls.obj
 0002:0000a6b8       ??_C@_1M@KGPDPBDF@?$AAe?$AAs?$AA?9?$AAc?$AAo?$AA?$AA@ 1004c6b8     LIBCMT:winapinls.obj
 0002:0000a6c4       ??_C@_1M@EIAHOHH@?$AAe?$AAs?$AA?9?$AAc?$AAr?$AA?$AA@ 1004c6c4     LIBCMT:winapinls.obj
 0002:0000a6d0       ??_C@_1M@LLPGMBIN@?$AAe?$AAs?$AA?9?$AAd?$AAo?$AA?$AA@ 1004c6d0     LIBCMT:winapinls.obj
 0002:0000a6dc       ??_C@_1M@DKHMKNJA@?$AAe?$AAs?$AA?9?$AAe?$AAc?$AA?$AA@ 1004c6dc     LIBCMT:winapinls.obj
 0002:0000a6e8       ??_C@_1M@GKGFPKAP@?$AAe?$AAs?$AA?9?$AAe?$AAs?$AA?$AA@ 1004c6e8     LIBCMT:winapinls.obj
 0002:0000a6f4       ??_C@_1M@LKHKGDLN@?$AAe?$AAs?$AA?9?$AAg?$AAt?$AA?$AA@ 1004c6f4     LIBCMT:winapinls.obj
 0002:0000a700       ??_C@_1M@HEIIGGJD@?$AAe?$AAs?$AA?9?$AAh?$AAn?$AA?$AA@ 1004c700     LIBCMT:winapinls.obj
 0002:0000a70c       ??_C@_1M@FBDHPPGD@?$AAe?$AAs?$AA?9?$AAm?$AAx?$AA?$AA@ 1004c70c     LIBCMT:winapinls.obj
 0002:0000a718       ??_C@_1M@DPAGLNDH@?$AAe?$AAs?$AA?9?$AAn?$AAi?$AA?$AA@ 1004c718     LIBCMT:winapinls.obj
 0002:0000a724       ??_C@_1M@MDGOPGDD@?$AAe?$AAs?$AA?9?$AAp?$AAa?$AA?$AA@ 1004c724     LIBCMT:winapinls.obj
 0002:0000a730       ??_C@_1M@EMAMGBGE@?$AAe?$AAs?$AA?9?$AAp?$AAe?$AA?$AA@ 1004c730     LIBCMT:winapinls.obj
 0002:0000a73c       ??_C@_1M@IBMCAOEC@?$AAe?$AAs?$AA?9?$AAp?$AAr?$AA?$AA@ 1004c73c     LIBCMT:winapinls.obj
 0002:0000a748       ??_C@_1M@FGMDIJED@?$AAe?$AAs?$AA?9?$AAp?$AAy?$AA?$AA@ 1004c748     LIBCMT:winapinls.obj
 0002:0000a754       ??_C@_1M@IIDEOLLL@?$AAe?$AAs?$AA?9?$AAs?$AAv?$AA?$AA@ 1004c754     LIBCMT:winapinls.obj
 0002:0000a760       ??_C@_1M@GAOBIPA@?$AAe?$AAs?$AA?9?$AAu?$AAy?$AA?$AA@ 1004c760     LIBCMT:winapinls.obj
 0002:0000a76c       ??_C@_1M@JKFFICHJ@?$AAe?$AAs?$AA?9?$AAv?$AAe?$AA?$AA@ 1004c76c     LIBCMT:winapinls.obj
 0002:0000a778       ??_C@_1M@PNMLOJDF@?$AAe?$AAt?$AA?9?$AAe?$AAe?$AA?$AA@ 1004c778     LIBCMT:winapinls.obj
 0002:0000a784       ??_C@_1M@GHHLIKEI@?$AAe?$AAu?$AA?9?$AAe?$AAs?$AA?$AA@ 1004c784     LIBCMT:winapinls.obj
 0002:0000a790       ??_C@_1M@PBNONODE@?$AAf?$AAa?$AA?9?$AAi?$AAr?$AA?$AA@ 1004c790     LIBCMT:winapinls.obj
 0002:0000a79c       ??_C@_1M@JEEHPMIL@?$AAf?$AAi?$AA?9?$AAf?$AAi?$AA?$AA@ 1004c79c     LIBCMT:winapinls.obj
 0002:0000a7a8       ??_C@_1M@LMDCNDBA@?$AAf?$AAo?$AA?9?$AAf?$AAo?$AA?$AA@ 1004c7a8     LIBCMT:winapinls.obj
 0002:0000a7b4       ??_C@_1M@JKEOHLDK@?$AAf?$AAr?$AA?9?$AAb?$AAe?$AA?$AA@ 1004c7b4     LIBCMT:winapinls.obj
 0002:0000a7c0       ??_C@_1M@NOHADPMI@?$AAf?$AAr?$AA?9?$AAc?$AAa?$AA?$AA@ 1004c7c0     LIBCMT:winapinls.obj
 0002:0000a7cc       ??_C@_1M@KDHIHAEC@?$AAf?$AAr?$AA?9?$AAc?$AAh?$AA?$AA@ 1004c7cc     LIBCMT:winapinls.obj
 0002:0000a7d8       ??_C@_1M@MMBBFGAK@?$AAf?$AAr?$AA?9?$AAf?$AAr?$AA?$AA@ 1004c7d8     LIBCMT:winapinls.obj
 0002:0000a7e4       ??_C@_1M@PAFNENNF@?$AAf?$AAr?$AA?9?$AAl?$AAu?$AA?$AA@ 1004c7e4     LIBCMT:winapinls.obj
 0002:0000a7f0       ??_C@_1M@EOHDJGDD@?$AAf?$AAr?$AA?9?$AAm?$AAc?$AA?$AA@ 1004c7f0     LIBCMT:winapinls.obj
 0002:0000a7fc       ??_C@_1M@FAPLLOPF@?$AAg?$AAl?$AA?9?$AAe?$AAs?$AA?$AA@ 1004c7fc     LIBCMT:winapinls.obj
 0002:0000a808       ??_C@_1M@FOPBFLOO@?$AAg?$AAu?$AA?9?$AAi?$AAn?$AA?$AA@ 1004c808     LIBCMT:winapinls.obj
 0002:0000a814       ??_C@_1M@KBMCINPM@?$AAh?$AAe?$AA?9?$AAi?$AAl?$AA?$AA@ 1004c814     LIBCMT:winapinls.obj
 0002:0000a820       ??_C@_1M@BBPHKFPJ@?$AAh?$AAi?$AA?9?$AAi?$AAn?$AA?$AA@ 1004c820     LIBCMT:winapinls.obj
 0002:0000a82c       ??_C@_1M@PMBNDPHD@?$AAh?$AAr?$AA?9?$AAb?$AAa?$AA?$AA@ 1004c82c     LIBCMT:winapinls.obj
 0002:0000a838       ??_C@_1M@BPCKOEGE@?$AAh?$AAr?$AA?9?$AAh?$AAr?$AA?$AA@ 1004c838     LIBCMT:winapinls.obj
 0002:0000a844       ??_C@_1M@GACBMHKE@?$AAh?$AAu?$AA?9?$AAh?$AAu?$AA?$AA@ 1004c844     LIBCMT:winapinls.obj
 0002:0000a850       ??_C@_1M@MILPAJJC@?$AAh?$AAy?$AA?9?$AAa?$AAm?$AA?$AA@ 1004c850     LIBCMT:winapinls.obj
 0002:0000a85c       ??_C@_1M@BABBICEC@?$AAi?$AAd?$AA?9?$AAi?$AAd?$AA?$AA@ 1004c85c     LIBCMT:winapinls.obj
 0002:0000a868       ??_C@_1M@BIKNHHPF@?$AAi?$AAs?$AA?9?$AAi?$AAs?$AA?$AA@ 1004c868     LIBCMT:winapinls.obj
 0002:0000a874       ??_C@_1M@NMPCJPHE@?$AAi?$AAt?$AA?9?$AAc?$AAh?$AA?$AA@ 1004c874     LIBCMT:winapinls.obj
 0002:0000a880       ??_C@_1M@GHKGFEDF@?$AAi?$AAt?$AA?9?$AAi?$AAt?$AA?$AA@ 1004c880     LIBCMT:winapinls.obj
 0002:0000a88c       ??_C@_1M@NIEJCJJA@?$AAj?$AAa?$AA?9?$AAj?$AAp?$AA?$AA@ 1004c88c     LIBCMT:winapinls.obj
 0002:0000a898       ??_C@_1M@JILFNBIM@?$AAk?$AAa?$AA?9?$AAg?$AAe?$AA?$AA@ 1004c898     LIBCMT:winapinls.obj
 0002:0000a8a4       ??_C@_1M@PACPMGPH@?$AAk?$AAk?$AA?9?$AAk?$AAz?$AA?$AA@ 1004c8a4     LIBCMT:winapinls.obj
 0002:0000a8b0       ??_C@_1M@IELFGMHA@?$AAk?$AAn?$AA?9?$AAi?$AAn?$AA?$AA@ 1004c8b0     LIBCMT:winapinls.obj
 0002:0000a8bc       ??_C@_1O@IBBJHCH@?$AAk?$AAo?$AAk?$AA?9?$AAi?$AAn?$AA?$AA@ 1004c8bc     LIBCMT:winapinls.obj
 0002:0000a8cc       ??_C@_1M@DMHAEOGC@?$AAk?$AAo?$AA?9?$AAk?$AAr?$AA?$AA@ 1004c8cc     LIBCMT:winapinls.obj
 0002:0000a8d8       ??_C@_1M@HBAHBIGA@?$AAk?$AAy?$AA?9?$AAk?$AAg?$AA?$AA@ 1004c8d8     LIBCMT:winapinls.obj
 0002:0000a8e4       ??_C@_1M@KPMILCJG@?$AAl?$AAt?$AA?9?$AAl?$AAt?$AA?$AA@ 1004c8e4     LIBCMT:winapinls.obj
 0002:0000a8f0       ??_C@_1M@BDEKKCA@?$AAl?$AAv?$AA?9?$AAl?$AAv?$AA?$AA@ 1004c8f0     LIBCMT:winapinls.obj
 0002:0000a8fc       ??_C@_1M@ELCKCCJJ@?$AAm?$AAi?$AA?9?$AAn?$AAz?$AA?$AA@ 1004c8fc     LIBCMT:winapinls.obj
 0002:0000a908       ??_C@_1M@CBOOLAPA@?$AAm?$AAk?$AA?9?$AAm?$AAk?$AA?$AA@ 1004c908     LIBCMT:winapinls.obj
 0002:0000a914       ??_C@_1M@GPHNBJKN@?$AAm?$AAl?$AA?9?$AAi?$AAn?$AA?$AA@ 1004c914     LIBCMT:winapinls.obj
 0002:0000a920       ??_C@_1M@PABJILIG@?$AAm?$AAn?$AA?9?$AAm?$AAn?$AA?$AA@ 1004c920     LIBCMT:winapinls.obj
 0002:0000a92c       ??_C@_1M@FGBKKIPG@?$AAm?$AAr?$AA?9?$AAi?$AAn?$AA?$AA@ 1004c92c     LIBCMT:winapinls.obj
 0002:0000a938       ??_C@_1M@NDBPDDAL@?$AAm?$AAs?$AA?9?$AAb?$AAn?$AA?$AA@ 1004c938     LIBCMT:winapinls.obj
 0002:0000a944       ??_C@_1M@OPIHOOPI@?$AAm?$AAs?$AA?9?$AAm?$AAy?$AA?$AA@ 1004c944     LIBCMT:winapinls.obj
 0002:0000a950       ??_C@_1M@PPDBCNFM@?$AAm?$AAt?$AA?9?$AAm?$AAt?$AA?$AA@ 1004c950     LIBCMT:winapinls.obj
 0002:0000a95c       ??_C@_1M@KDJDKMDD@?$AAn?$AAb?$AA?9?$AAn?$AAo?$AA?$AA@ 1004c95c     LIBCMT:winapinls.obj
 0002:0000a968       ??_C@_1M@KFCFLMJP@?$AAn?$AAl?$AA?9?$AAb?$AAe?$AA?$AA@ 1004c968     LIBCMT:winapinls.obj
 0002:0000a974       ??_C@_1M@KPOPDDGO@?$AAn?$AAl?$AA?9?$AAn?$AAl?$AA?$AA@ 1004c974     LIBCMT:winapinls.obj
 0002:0000a980       ??_C@_1M@LJKPEMLN@?$AAn?$AAn?$AA?9?$AAn?$AAo?$AA?$AA@ 1004c980     LIBCMT:winapinls.obj
 0002:0000a98c       ??_C@_1M@BDGHHBFL@?$AAn?$AAs?$AA?9?$AAz?$AAa?$AA?$AA@ 1004c98c     LIBCMT:winapinls.obj
 0002:0000a998       ??_C@_1M@IDEHOAP@?$AAp?$AAa?$AA?9?$AAi?$AAn?$AA?$AA@ 1004c998     LIBCMT:winapinls.obj
 0002:0000a9a4       ??_C@_1M@HDBKGOGH@?$AAp?$AAl?$AA?9?$AAp?$AAl?$AA?$AA@ 1004c9a4     LIBCMT:winapinls.obj
 0002:0000a9b0       ??_C@_1M@LJLLCMEH@?$AAp?$AAt?$AA?9?$AAb?$AAr?$AA?$AA@ 1004c9b0     LIBCMT:winapinls.obj
 0002:0000a9bc       ??_C@_1M@NCMONAAL@?$AAp?$AAt?$AA?9?$AAp?$AAt?$AA?$AA@ 1004c9bc     LIBCMT:winapinls.obj
 0002:0000a9c8       ??_C@_1O@EAKMAJDN@?$AAq?$AAu?$AAz?$AA?9?$AAb?$AAo?$AA?$AA@ 1004c9c8     LIBCMT:winapinls.obj
 0002:0000a9d8       ??_C@_1O@BHHPIGDN@?$AAq?$AAu?$AAz?$AA?9?$AAe?$AAc?$AA?$AA@ 1004c9d8     LIBCMT:winapinls.obj
 0002:0000a9e8       ??_C@_1O@GBAPEKMJ@?$AAq?$AAu?$AAz?$AA?9?$AAp?$AAe?$AA?$AA@ 1004c9e8     LIBCMT:winapinls.obj
 0002:0000a9f8       ??_C@_1M@CLGLEFBO@?$AAr?$AAo?$AA?9?$AAr?$AAo?$AA?$AA@ 1004c9f8     LIBCMT:winapinls.obj
 0002:0000aa04       ??_C@_1M@CEEDODME@?$AAr?$AAu?$AA?9?$AAr?$AAu?$AA?$AA@ 1004ca04     LIBCMT:winapinls.obj
 0002:0000aa10       ??_C@_1M@HPKKKMPP@?$AAs?$AAa?$AA?9?$AAi?$AAn?$AA?$AA@ 1004ca10     LIBCMT:winapinls.obj
 0002:0000aa1c       ??_C@_1M@BKMAIGOJ@?$AAs?$AAe?$AA?9?$AAf?$AAi?$AA?$AA@ 1004ca1c     LIBCMT:winapinls.obj
 0002:0000aa28       ??_C@_1M@NDPIFLFI@?$AAs?$AAe?$AA?9?$AAn?$AAo?$AA?$AA@ 1004ca28     LIBCMT:winapinls.obj
 0002:0000aa34       ??_C@_1M@DANKKHJ@?$AAs?$AAe?$AA?9?$AAs?$AAe?$AA?$AA@ 1004ca34     LIBCMT:winapinls.obj
 0002:0000aa40       ??_C@_1M@PNBLONPJ@?$AAs?$AAk?$AA?9?$AAs?$AAk?$AA?$AA@ 1004ca40     LIBCMT:winapinls.obj
 0002:0000aa4c       ??_C@_1M@LFMODOAL@?$AAs?$AAl?$AA?9?$AAs?$AAi?$AA?$AA@ 1004ca4c     LIBCMT:winapinls.obj
 0002:0000aa58       ??_C@_1O@DFKOMPG@?$AAs?$AAm?$AAa?$AA?9?$AAn?$AAo?$AA?$AA@ 1004ca58     LIBCMT:winapinls.obj
 0002:0000aa68       ??_C@_1O@NDKPBNNH@?$AAs?$AAm?$AAa?$AA?9?$AAs?$AAe?$AA?$AA@ 1004ca68     LIBCMT:winapinls.obj
 0002:0000aa78       ??_C@_1O@PLLKBHAB@?$AAs?$AAm?$AAj?$AA?9?$AAn?$AAo?$AA?$AA@ 1004ca78     LIBCMT:winapinls.obj
 0002:0000aa88       ??_C@_1O@CLEPOGCA@?$AAs?$AAm?$AAj?$AA?9?$AAs?$AAe?$AA?$AA@ 1004ca88     LIBCMT:winapinls.obj
 0002:0000aa98       ??_C@_1O@DLGJGKMK@?$AAs?$AAm?$AAn?$AA?9?$AAf?$AAi?$AA?$AA@ 1004ca98     LIBCMT:winapinls.obj
 0002:0000aaa8       ??_C@_1O@OJDJGAJC@?$AAs?$AAm?$AAs?$AA?9?$AAf?$AAi?$AA?$AA@ 1004caa8     LIBCMT:winapinls.obj
 0002:0000aab8       ??_C@_1M@BOFOGHPB@?$AAs?$AAq?$AA?9?$AAa?$AAl?$AA?$AA@ 1004cab8     LIBCMT:winapinls.obj
 0002:0000aac4       ??_C@_1BG@LJBBIPGB@?$AAs?$AAr?$AA?9?$AAb?$AAa?$AA?9?$AAc?$AAy?$AAr?$AAl?$AA?$AA@ 1004cac4     LIBCMT:winapinls.obj
 0002:0000aadc       ??_C@_1BG@JLBENFOE@?$AAs?$AAr?$AA?9?$AAb?$AAa?$AA?9?$AAl?$AAa?$AAt?$AAn?$AA?$AA@ 1004cadc     LIBCMT:winapinls.obj
 0002:0000aaf4       ??_C@_1BG@KODPNHE@?$AAs?$AAr?$AA?9?$AAs?$AAp?$AA?9?$AAc?$AAy?$AAr?$AAl?$AA?$AA@ 1004caf4     LIBCMT:winapinls.obj
 0002:0000ab0c       ??_C@_1BG@CIOGKHPB@?$AAs?$AAr?$AA?9?$AAs?$AAp?$AA?9?$AAl?$AAa?$AAt?$AAn?$AA?$AA@ 1004cb0c     LIBCMT:winapinls.obj
 0002:0000ab24       ??_C@_1M@NGFJLMAC@?$AAs?$AAv?$AA?9?$AAf?$AAi?$AA?$AA@ 1004cb24     LIBCMT:winapinls.obj
 0002:0000ab30       ??_C@_1M@MPJEJAJC@?$AAs?$AAv?$AA?9?$AAs?$AAe?$AA?$AA@ 1004cb30     LIBCMT:winapinls.obj
 0002:0000ab3c       ??_C@_1M@MPNDHLFK@?$AAs?$AAw?$AA?9?$AAk?$AAe?$AA?$AA@ 1004cb3c     LIBCMT:winapinls.obj
 0002:0000ab48       ??_C@_1O@KOHBJJI@?$AAs?$AAy?$AAr?$AA?9?$AAs?$AAy?$AA?$AA@ 1004cb48     LIBCMT:winapinls.obj
 0002:0000ab58       ??_C@_1M@LDCEFHA@?$AAt?$AAa?$AA?9?$AAi?$AAn?$AA?$AA@ 1004cb58     LIBCMT:winapinls.obj
 0002:0000ab64       ??_C@_1M@CNJOFAK@?$AAt?$AAe?$AA?9?$AAi?$AAn?$AA?$AA@ 1004cb64     LIBCMT:winapinls.obj
 0002:0000ab70       ??_C@_1M@GNAECACD@?$AAt?$AAh?$AA?9?$AAt?$AAh?$AA?$AA@ 1004cb70     LIBCMT:winapinls.obj
 0002:0000ab7c       ??_C@_1M@CHBIHOJO@?$AAt?$AAn?$AA?9?$AAz?$AAa?$AA?$AA@ 1004cb7c     LIBCMT:winapinls.obj
 0002:0000ab88       ??_C@_1M@GCCMIGPJ@?$AAt?$AAr?$AA?9?$AAt?$AAr?$AA?$AA@ 1004cb88     LIBCMT:winapinls.obj
 0002:0000ab94       ??_C@_1M@CELMCNBK@?$AAt?$AAt?$AA?9?$AAr?$AAu?$AA?$AA@ 1004cb94     LIBCMT:winapinls.obj
 0002:0000aba0       ??_C@_1M@KLMCELGA@?$AAu?$AAk?$AA?9?$AAu?$AAa?$AA?$AA@ 1004cba0     LIBCMT:winapinls.obj
 0002:0000abac       ??_C@_1M@EPAJJAJF@?$AAu?$AAr?$AA?9?$AAp?$AAk?$AA?$AA@ 1004cbac     LIBCMT:winapinls.obj
 0002:0000abb8       ??_C@_1BG@GEGPMCDJ@?$AAu?$AAz?$AA?9?$AAu?$AAz?$AA?9?$AAc?$AAy?$AAr?$AAl?$AA?$AA@ 1004cbb8     LIBCMT:winapinls.obj
 0002:0000abd0       ??_C@_1BG@EGGKJILM@?$AAu?$AAz?$AA?9?$AAu?$AAz?$AA?9?$AAl?$AAa?$AAt?$AAn?$AA?$AA@ 1004cbd0     LIBCMT:winapinls.obj
 0002:0000abe8       ??_C@_1M@GFOCLFF@?$AAv?$AAi?$AA?9?$AAv?$AAn?$AA?$AA@ 1004cbe8     LIBCMT:winapinls.obj
 0002:0000abf4       ??_C@_1M@CPAMEDFI@?$AAx?$AAh?$AA?9?$AAz?$AAa?$AA?$AA@ 1004cbf4     LIBCMT:winapinls.obj
 0002:0000ac00       ??_C@_1O@EBKIFIGN@?$AAz?$AAh?$AA?9?$AAc?$AAh?$AAs?$AA?$AA@ 1004cc00     LIBCMT:winapinls.obj
 0002:0000ac10       ??_C@_1O@NMHPGANE@?$AAz?$AAh?$AA?9?$AAc?$AAh?$AAt?$AA?$AA@ 1004cc10     LIBCMT:winapinls.obj
 0002:0000ac20       ??_C@_1M@LPINJOMC@?$AAz?$AAh?$AA?9?$AAc?$AAn?$AA?$AA@ 1004cc20     LIBCMT:winapinls.obj
 0002:0000ac2c       ??_C@_1M@OCJEJODD@?$AAz?$AAh?$AA?9?$AAh?$AAk?$AA?$AA@ 1004cc2c     LIBCMT:winapinls.obj
 0002:0000ac38       ??_C@_1M@DNDLJINH@?$AAz?$AAh?$AA?9?$AAm?$AAo?$AA?$AA@ 1004cc38     LIBCMT:winapinls.obj
 0002:0000ac44       ??_C@_1M@MBFDNDND@?$AAz?$AAh?$AA?9?$AAs?$AAg?$AA?$AA@ 1004cc44     LIBCMT:winapinls.obj
 0002:0000ac50       ??_C@_1M@IMEPLEPE@?$AAz?$AAh?$AA?9?$AAt?$AAw?$AA?$AA@ 1004cc50     LIBCMT:winapinls.obj
 0002:0000ac5c       ??_C@_1M@BBGHNHJP@?$AAz?$AAu?$AA?9?$AAz?$AAa?$AA?$AA@ 1004cc5c     LIBCMT:winapinls.obj
 0002:0000ac68       ___newctype                1004cc68     LIBCMT:ctype.obj
 0002:0000af68       __wctype                   1004cf68     LIBCMT:ctype.obj
 0002:0000b170       ___newclmap                1004d170     LIBCMT:ctype.obj
 0002:0000b2f0       ___newcumap                1004d2f0     LIBCMT:ctype.obj
 0002:0000b470       ___lc_category             1004d470     LIBCMT:wsetloca.obj
 0002:0000b4b8       ??_C@_1O@GIFLHMA@?$AAL?$AAC?$AA_?$AAA?$AAL?$AAL?$AA?$AA@ 1004d4b8     LIBCMT:wsetloca.obj
 0002:0000b4c8       ??_C@_1BG@PPOMIBNJ@?$AAL?$AAC?$AA_?$AAC?$AAO?$AAL?$AAL?$AAA?$AAT?$AAE?$AA?$AA@ 1004d4c8     LIBCMT:wsetloca.obj
 0002:0000b4e0       ??_C@_1BC@FFJGAPJM@?$AAL?$AAC?$AA_?$AAC?$AAT?$AAY?$AAP?$AAE?$AA?$AA@ 1004d4e0     LIBCMT:wsetloca.obj
 0002:0000b4f4       ??_C@_1BI@PCKFNJFB@?$AAL?$AAC?$AA_?$AAM?$AAO?$AAN?$AAE?$AAT?$AAA?$AAR?$AAY?$AA?$AA@ 1004d4f4     LIBCMT:wsetloca.obj
 0002:0000b50c       ??_C@_1BG@ENIEDKID@?$AAL?$AAC?$AA_?$AAN?$AAU?$AAM?$AAE?$AAR?$AAI?$AAC?$AA?$AA@ 1004d50c     LIBCMT:wsetloca.obj
 0002:0000b524       ??_C@_1BA@HAAOMIIG@?$AAL?$AAC?$AA_?$AAT?$AAI?$AAM?$AAE?$AA?$AA@ 1004d524     LIBCMT:wsetloca.obj
 0002:0000b5b8       ??_C@_15NBPDDFIP@?$AA?$DN?$AA?$DL?$AA?$AA@ 1004d5b8     LIBCMT:wsetloca.obj
 0002:0000b5c0       ??_C@_13PJJBFPED@?$AA?$DL?$AA?$AA@ 1004d5c0     LIBCMT:wsetloca.obj
 0002:0000b5c4       ??_C@_13NMPKAAJP@?$AA?$DN?$AA?$AA@ 1004d5c4     LIBCMT:wsetloca.obj
 0002:0000b5c8       ??_C@_13FHBKNHDA@?$AAC?$AA?$AA@ 1004d5c8     LIBCMT:wsetloca.obj
 0002:0000b5cc       ??_C@_17MBJJLFDM@?$AA_?$AA?4?$AA?0?$AA?$AA@ 1004d5cc     LIBCMT:wsetloca.obj
 0002:0000b5d4       ??_C@_13ENNFDPBH@?$AA_?$AA?$AA@ 1004d5d4     LIBCMT:wsetloca.obj
 0002:0000b5d8       ??_C@_13JOFGPIOO@?$AA?4?$AA?$AA@ 1004d5d8     LIBCMT:wsetloca.obj
 0002:0000b5dc       ??_C@_06PGGFOGJG@1?$CDSNAN?$AA@ 1004d5dc     LIBCMT:x10fout.obj
 0002:0000b5e4       ??_C@_05PHHOCPM@1?$CDIND?$AA@ 1004d5e4     LIBCMT:x10fout.obj
 0002:0000b5ec       ??_C@_05DNEBIAHO@1?$CDINF?$AA@ 1004d5ec     LIBCMT:x10fout.obj
 0002:0000b5f4       ??_C@_06IMKFLFPG@1?$CDQNAN?$AA@ 1004d5f4     LIBCMT:x10fout.obj
 0002:0000b5fc       ??_C@_0M@HHGEPIBF@CreateFile2?$AA@ 1004d5fc     LIBCMT:wopen.obj
 0002:0000b608       ??_C@_1BA@BALFACEM@?$AAC?$AAO?$AAN?$AAO?$AAU?$AAT?$AA$?$AA?$AA@ 1004d608     LIBCMT:initcon.obj
 0002:0000b618       ___rg_language             1004d618     LIBCMT:getqloc.obj
 0002:0000b924       ??_C@_1BC@LLOKLNP@?$AAa?$AAm?$AAe?$AAr?$AAi?$AAc?$AAa?$AAn?$AA?$AA@ 1004d924     LIBCMT:getqloc.obj
 0002:0000b938       ??_C@_1CC@HEIGCDGG@?$AAa?$AAm?$AAe?$AAr?$AAi?$AAc?$AAa?$AAn?$AA?5?$AAe?$AAn?$AAg?$AAl?$AAi?$AAs?$AAh?$AA?$AA@ 1004d938     LIBCMT:getqloc.obj
 0002:0000b95c       ??_C@_1CC@IHCNOMIN@?$AAa?$AAm?$AAe?$AAr?$AAi?$AAc?$AAa?$AAn?$AA?9?$AAe?$AAn?$AAg?$AAl?$AAi?$AAs?$AAh?$AA?$AA@ 1004d95c     LIBCMT:getqloc.obj
 0002:0000b980       ??_C@_1BG@GKAGPCGG@?$AAa?$AAu?$AAs?$AAt?$AAr?$AAa?$AAl?$AAi?$AAa?$AAn?$AA?$AA@ 1004d980     LIBCMT:getqloc.obj
 0002:0000b998       ??_C@_1BA@GMENCENF@?$AAb?$AAe?$AAl?$AAg?$AAi?$AAa?$AAn?$AA?$AA@ 1004d998     LIBCMT:getqloc.obj
 0002:0000b9a8       ??_C@_1BC@PJMIIAAN@?$AAc?$AAa?$AAn?$AAa?$AAd?$AAi?$AAa?$AAn?$AA?$AA@ 1004d9a8     LIBCMT:getqloc.obj
 0002:0000b9bc       ??_C@_17NOIMNFBF@?$AAc?$AAh?$AAh?$AA?$AA@ 1004d9bc     LIBCMT:getqloc.obj
 0002:0000b9c4       ??_C@_17GGDALCHA@?$AAc?$AAh?$AAi?$AA?$AA@ 1004d9c4     LIBCMT:getqloc.obj
 0002:0000b9cc       ??_C@_1BA@NPNJKIBL@?$AAc?$AAh?$AAi?$AAn?$AAe?$AAs?$AAe?$AA?$AA@ 1004d9cc     LIBCMT:getqloc.obj
 0002:0000b9dc       ??_C@_1CC@DINBAMMJ@?$AAc?$AAh?$AAi?$AAn?$AAe?$AAs?$AAe?$AA?9?$AAh?$AAo?$AAn?$AAg?$AAk?$AAo?$AAn?$AAg?$AA?$AA@ 1004d9dc     LIBCMT:getqloc.obj
 0002:0000ba00       ??_C@_1CG@IOBJPACO@?$AAc?$AAh?$AAi?$AAn?$AAe?$AAs?$AAe?$AA?9?$AAs?$AAi?$AAm?$AAp?$AAl?$AAi?$AAf?$AAi?$AAe?$AAd?$AA?$AA@ 1004da00     LIBCMT:getqloc.obj
 0002:0000ba28       ??_C@_1CE@GAJNDCKG@?$AAc?$AAh?$AAi?$AAn?$AAe?$AAs?$AAe?$AA?9?$AAs?$AAi?$AAn?$AAg?$AAa?$AAp?$AAo?$AAr?$AAe?$AA?$AA@ 1004da28     LIBCMT:getqloc.obj
 0002:0000ba4c       ??_C@_1CI@PAJPIOOD@?$AAc?$AAh?$AAi?$AAn?$AAe?$AAs?$AAe?$AA?9?$AAt?$AAr?$AAa?$AAd?$AAi?$AAt?$AAi?$AAo?$AAn?$AAa?$AAl?$AA?$AA@ 1004da4c     LIBCMT:getqloc.obj
 0002:0000ba74       ??_C@_1BM@NILJBMMD@?$AAd?$AAu?$AAt?$AAc?$AAh?$AA?9?$AAb?$AAe?$AAl?$AAg?$AAi?$AAa?$AAn?$AA?$AA@ 1004da74     LIBCMT:getqloc.obj
 0002:0000ba90       ??_C@_1CC@OOJPJNEJ@?$AAe?$AAn?$AAg?$AAl?$AAi?$AAs?$AAh?$AA?9?$AAa?$AAm?$AAe?$AAr?$AAi?$AAc?$AAa?$AAn?$AA?$AA@ 1004da90     LIBCMT:getqloc.obj
 0002:0000bab4       ??_C@_1BI@IOLFEEM@?$AAe?$AAn?$AAg?$AAl?$AAi?$AAs?$AAh?$AA?9?$AAa?$AAu?$AAs?$AA?$AA@ 1004dab4     LIBCMT:getqloc.obj
 0002:0000bacc       ??_C@_1BO@HFFNLENJ@?$AAe?$AAn?$AAg?$AAl?$AAi?$AAs?$AAh?$AA?9?$AAb?$AAe?$AAl?$AAi?$AAz?$AAe?$AA?$AA@ 1004dacc     LIBCMT:getqloc.obj
 0002:0000baec       ??_C@_1BI@HAPKJMPO@?$AAe?$AAn?$AAg?$AAl?$AAi?$AAs?$AAh?$AA?9?$AAc?$AAa?$AAn?$AA?$AA@ 1004daec     LIBCMT:getqloc.obj
 0002:0000bb04       ??_C@_1CE@HLNDMIOJ@?$AAe?$AAn?$AAg?$AAl?$AAi?$AAs?$AAh?$AA?9?$AAc?$AAa?$AAr?$AAi?$AAb?$AAb?$AAe?$AAa?$AAn?$AA?$AA@ 1004db04     LIBCMT:getqloc.obj
 0002:0000bb28       ??_C@_1BI@LDHJHHAC@?$AAe?$AAn?$AAg?$AAl?$AAi?$AAs?$AAh?$AA?9?$AAi?$AAr?$AAe?$AA?$AA@ 1004db28     LIBCMT:getqloc.obj
 0002:0000bb40       ??_C@_1CA@NJMMCFOC@?$AAe?$AAn?$AAg?$AAl?$AAi?$AAs?$AAh?$AA?9?$AAj?$AAa?$AAm?$AAa?$AAi?$AAc?$AAa?$AA?$AA@ 1004db40     LIBCMT:getqloc.obj
 0002:0000bb60       ??_C@_1BG@BHJEBBGG@?$AAe?$AAn?$AAg?$AAl?$AAi?$AAs?$AAh?$AA?9?$AAn?$AAz?$AA?$AA@ 1004db60     LIBCMT:getqloc.obj
 0002:0000bb78       ??_C@_1CK@FGOEJJCO@?$AAe?$AAn?$AAg?$AAl?$AAi?$AAs?$AAh?$AA?9?$AAs?$AAo?$AAu?$AAt?$AAh?$AA?5?$AAa?$AAf?$AAr?$AAi?$AAc?$AAa?$AA?$AA@ 1004db78     LIBCMT:getqloc.obj
 0002:0000bba4       ??_C@_1DE@PDBJPCJ@?$AAe?$AAn?$AAg?$AAl?$AAi?$AAs?$AAh?$AA?9?$AAt?$AAr?$AAi?$AAn?$AAi?$AAd?$AAa?$AAd?$AA?5?$AAy?$AA?5?$AAt?$AAo?$AAb?$AAa?$AAg?$AAo?$AA?$AA@ 1004dba4     LIBCMT:getqloc.obj
 0002:0000bbd8       ??_C@_1BG@JGCANDME@?$AAe?$AAn?$AAg?$AAl?$AAi?$AAs?$AAh?$AA?9?$AAu?$AAk?$AA?$AA@ 1004dbd8     LIBCMT:getqloc.obj
 0002:0000bbf0       ??_C@_1BG@DINKMLE@?$AAe?$AAn?$AAg?$AAl?$AAi?$AAs?$AAh?$AA?9?$AAu?$AAs?$AA?$AA@ 1004dbf0     LIBCMT:getqloc.obj
 0002:0000bc08       ??_C@_1BI@NMFDBHJE@?$AAe?$AAn?$AAg?$AAl?$AAi?$AAs?$AAh?$AA?9?$AAu?$AAs?$AAa?$AA?$AA@ 1004dc08     LIBCMT:getqloc.obj
 0002:0000bc20       ??_C@_1BO@OIHKJKII@?$AAf?$AAr?$AAe?$AAn?$AAc?$AAh?$AA?9?$AAb?$AAe?$AAl?$AAg?$AAi?$AAa?$AAn?$AA?$AA@ 1004dc20     LIBCMT:getqloc.obj
 0002:0000bc40       ??_C@_1CA@NKAELJKI@?$AAf?$AAr?$AAe?$AAn?$AAc?$AAh?$AA?9?$AAc?$AAa?$AAn?$AAa?$AAd?$AAi?$AAa?$AAn?$AA?$AA@ 1004dc40     LIBCMT:getqloc.obj
 0002:0000bc60       ??_C@_1CE@MGKCNLGN@?$AAf?$AAr?$AAe?$AAn?$AAc?$AAh?$AA?9?$AAl?$AAu?$AAx?$AAe?$AAm?$AAb?$AAo?$AAu?$AAr?$AAg?$AA?$AA@ 1004dc60     LIBCMT:getqloc.obj
 0002:0000bc84       ??_C@_1BK@CEGEAILM@?$AAf?$AAr?$AAe?$AAn?$AAc?$AAh?$AA?9?$AAs?$AAw?$AAi?$AAs?$AAs?$AA?$AA@ 1004dc84     LIBCMT:getqloc.obj
 0002:0000bca0       ??_C@_1CA@PAFKEOCC@?$AAg?$AAe?$AAr?$AAm?$AAa?$AAn?$AA?9?$AAa?$AAu?$AAs?$AAt?$AAr?$AAi?$AAa?$AAn?$AA?$AA@ 1004dca0     LIBCMT:getqloc.obj
 0002:0000bcc0       ??_C@_1CI@HCFHGOFD@?$AAg?$AAe?$AAr?$AAm?$AAa?$AAn?$AA?9?$AAl?$AAi?$AAc?$AAh?$AAt?$AAe?$AAn?$AAs?$AAt?$AAe?$AAi?$AAn?$AA?$AA@ 1004dcc0     LIBCMT:getqloc.obj
 0002:0000bce8       ??_C@_1CE@FEDDNPDG@?$AAg?$AAe?$AAr?$AAm?$AAa?$AAn?$AA?9?$AAl?$AAu?$AAx?$AAe?$AAm?$AAb?$AAo?$AAu?$AAr?$AAg?$AA?$AA@ 1004dce8     LIBCMT:getqloc.obj
 0002:0000bd0c       ??_C@_1BK@LIMINNMN@?$AAg?$AAe?$AAr?$AAm?$AAa?$AAn?$AA?9?$AAs?$AAw?$AAi?$AAs?$AAs?$AA?$AA@ 1004dd0c     LIBCMT:getqloc.obj
 0002:0000bd28       ??_C@_1BM@LGMDBEPD@?$AAi?$AAr?$AAi?$AAs?$AAh?$AA?9?$AAe?$AAn?$AAg?$AAl?$AAi?$AAs?$AAh?$AA?$AA@ 1004dd28     LIBCMT:getqloc.obj
 0002:0000bd44       ??_C@_1BM@NNCFBAEE@?$AAi?$AAt?$AAa?$AAl?$AAi?$AAa?$AAn?$AA?9?$AAs?$AAw?$AAi?$AAs?$AAs?$AA?$AA@ 1004dd44     LIBCMT:getqloc.obj
 0002:0000bd60       ??_C@_1BE@FEDJNPIB@?$AAn?$AAo?$AAr?$AAw?$AAe?$AAg?$AAi?$AAa?$AAn?$AA?$AA@ 1004dd60     LIBCMT:getqloc.obj
 0002:0000bd74       ??_C@_1CC@CILKDEIE@?$AAn?$AAo?$AAr?$AAw?$AAe?$AAg?$AAi?$AAa?$AAn?$AA?9?$AAb?$AAo?$AAk?$AAm?$AAa?$AAl?$AA?$AA@ 1004dd74     LIBCMT:getqloc.obj
 0002:0000bd98       ??_C@_1CE@DHMMHEPL@?$AAn?$AAo?$AAr?$AAw?$AAe?$AAg?$AAi?$AAa?$AAn?$AA?9?$AAn?$AAy?$AAn?$AAo?$AAr?$AAs?$AAk?$AA?$AA@ 1004dd98     LIBCMT:getqloc.obj
 0002:0000bdbc       ??_C@_1CK@OPNMHECD@?$AAp?$AAo?$AAr?$AAt?$AAu?$AAg?$AAu?$AAe?$AAs?$AAe?$AA?9?$AAb?$AAr?$AAa?$AAz?$AAi?$AAl?$AAi?$AAa?$AAn?$AA?$AA@ 1004ddbc     LIBCMT:getqloc.obj
 0002:0000bde8       ??_C@_1CE@KEEHCDB@?$AAs?$AAp?$AAa?$AAn?$AAi?$AAs?$AAh?$AA?9?$AAa?$AAr?$AAg?$AAe?$AAn?$AAt?$AAi?$AAn?$AAa?$AA?$AA@ 1004dde8     LIBCMT:getqloc.obj
 0002:0000be0c       ??_C@_1CA@GIAOLHJD@?$AAs?$AAp?$AAa?$AAn?$AAi?$AAs?$AAh?$AA?9?$AAb?$AAo?$AAl?$AAi?$AAv?$AAi?$AAa?$AA?$AA@ 1004de0c     LIBCMT:getqloc.obj
 0002:0000be2c       ??_C@_1BM@OJNDFNPD@?$AAs?$AAp?$AAa?$AAn?$AAi?$AAs?$AAh?$AA?9?$AAc?$AAh?$AAi?$AAl?$AAe?$AA?$AA@ 1004de2c     LIBCMT:getqloc.obj
 0002:0000be48       ??_C@_1CC@OCOLPALL@?$AAs?$AAp?$AAa?$AAn?$AAi?$AAs?$AAh?$AA?9?$AAc?$AAo?$AAl?$AAo?$AAm?$AAb?$AAi?$AAa?$AA?$AA@ 1004de48     LIBCMT:getqloc.obj
 0002:0000be6c       ??_C@_1CG@BPOFMKBB@?$AAs?$AAp?$AAa?$AAn?$AAi?$AAs?$AAh?$AA?9?$AAc?$AAo?$AAs?$AAt?$AAa?$AA?5?$AAr?$AAi?$AAc?$AAa?$AA?$AA@ 1004de6c     LIBCMT:getqloc.obj
 0002:0000be94       ??_C@_1DG@IGOBAPBB@?$AAs?$AAp?$AAa?$AAn?$AAi?$AAs?$AAh?$AA?9?$AAd?$AAo?$AAm?$AAi?$AAn?$AAi?$AAc?$AAa?$AAn?$AA?5?$AAr?$AAe?$AAp?$AAu?$AAb?$AAl?$AAi?$AAc?$AA?$AA@ 1004de94     LIBCMT:getqloc.obj
 0002:0000becc       ??_C@_1CA@JHAPGEGI@?$AAs?$AAp?$AAa?$AAn?$AAi?$AAs?$AAh?$AA?9?$AAe?$AAc?$AAu?$AAa?$AAd?$AAo?$AAr?$AA?$AA@ 1004decc     LIBCMT:getqloc.obj
 0002:0000beec       ??_C@_1CI@LAPALJPP@?$AAs?$AAp?$AAa?$AAn?$AAi?$AAs?$AAh?$AA?9?$AAe?$AAl?$AA?5?$AAs?$AAa?$AAl?$AAv?$AAa?$AAd?$AAo?$AAr?$AA?$AA@ 1004deec     LIBCMT:getqloc.obj
 0002:0000bf14       ??_C@_1CE@PDGBOFOM@?$AAs?$AAp?$AAa?$AAn?$AAi?$AAs?$AAh?$AA?9?$AAg?$AAu?$AAa?$AAt?$AAe?$AAm?$AAa?$AAl?$AAa?$AA?$AA@ 1004df14     LIBCMT:getqloc.obj
 0002:0000bf38       ??_C@_1CC@NBEBAODI@?$AAs?$AAp?$AAa?$AAn?$AAi?$AAs?$AAh?$AA?9?$AAh?$AAo?$AAn?$AAd?$AAu?$AAr?$AAa?$AAs?$AA?$AA@ 1004df38     LIBCMT:getqloc.obj
 0002:0000bf5c       ??_C@_1CA@LLKGHBMF@?$AAs?$AAp?$AAa?$AAn?$AAi?$AAs?$AAh?$AA?9?$AAm?$AAe?$AAx?$AAi?$AAc?$AAa?$AAn?$AA?$AA@ 1004df5c     LIBCMT:getqloc.obj
 0002:0000bf7c       ??_C@_1BO@LKNDOIGD@?$AAs?$AAp?$AAa?$AAn?$AAi?$AAs?$AAh?$AA?9?$AAm?$AAo?$AAd?$AAe?$AAr?$AAn?$AA?$AA@ 1004df7c     LIBCMT:getqloc.obj
 0002:0000bf9c       ??_C@_1CE@NMDMOEEB@?$AAs?$AAp?$AAa?$AAn?$AAi?$AAs?$AAh?$AA?9?$AAn?$AAi?$AAc?$AAa?$AAr?$AAa?$AAg?$AAu?$AAa?$AA?$AA@ 1004df9c     LIBCMT:getqloc.obj
 0002:0000bfc0       ??_C@_1BO@LLCBEJGB@?$AAs?$AAp?$AAa?$AAn?$AAi?$AAs?$AAh?$AA?9?$AAp?$AAa?$AAn?$AAa?$AAm?$AAa?$AA?$AA@ 1004dfc0     LIBCMT:getqloc.obj
 0002:0000bfe0       ??_C@_1CC@FKPGGIHO@?$AAs?$AAp?$AAa?$AAn?$AAi?$AAs?$AAh?$AA?9?$AAp?$AAa?$AAr?$AAa?$AAg?$AAu?$AAa?$AAy?$AA?$AA@ 1004dfe0     LIBCMT:getqloc.obj
 0002:0000c004       ??_C@_1BK@CDEIHOOP@?$AAs?$AAp?$AAa?$AAn?$AAi?$AAs?$AAh?$AA?9?$AAp?$AAe?$AAr?$AAu?$AA?$AA@ 1004e004     LIBCMT:getqloc.obj
 0002:0000c020       ??_C@_1CI@GAHAKKGP@?$AAs?$AAp?$AAa?$AAn?$AAi?$AAs?$AAh?$AA?9?$AAp?$AAu?$AAe?$AAr?$AAt?$AAo?$AA?5?$AAr?$AAi?$AAc?$AAo?$AA?$AA@ 1004e020     LIBCMT:getqloc.obj
 0002:0000c048       ??_C@_1CA@NKJBCAGP@?$AAs?$AAp?$AAa?$AAn?$AAi?$AAs?$AAh?$AA?9?$AAu?$AAr?$AAu?$AAg?$AAu?$AAa?$AAy?$AA?$AA@ 1004e048     LIBCMT:getqloc.obj
 0002:0000c068       ??_C@_1CE@ODILCONM@?$AAs?$AAp?$AAa?$AAn?$AAi?$AAs?$AAh?$AA?9?$AAv?$AAe?$AAn?$AAe?$AAz?$AAu?$AAe?$AAl?$AAa?$AA?$AA@ 1004e068     LIBCMT:getqloc.obj
 0002:0000c08c       ??_C@_1CA@OBNMCGFO@?$AAs?$AAw?$AAe?$AAd?$AAi?$AAs?$AAh?$AA?9?$AAf?$AAi?$AAn?$AAl?$AAa?$AAn?$AAd?$AA?$AA@ 1004e08c     LIBCMT:getqloc.obj
 0002:0000c0ac       ??_C@_1M@PIPDDPPI@?$AAs?$AAw?$AAi?$AAs?$AAs?$AA?$AA@ 1004e0ac     LIBCMT:getqloc.obj
 0002:0000c0b8       ??_C@_15GMFIMNFM@?$AAu?$AAs?$AA?$AA@ 1004e0b8     LIBCMT:getqloc.obj
 0002:0000c0c0       ??_C@_17HAEBFAGL@?$AAu?$AAs?$AAa?$AA?$AA@ 1004e0c0     LIBCMT:getqloc.obj
 0002:0000c0c8       ___rg_country              1004e0c8     LIBCMT:getqloc.obj
 0002:0000c1dc       ??_C@_1BA@DPFJEPHB@?$AAa?$AAm?$AAe?$AAr?$AAi?$AAc?$AAa?$AA?$AA@ 1004e1dc     LIBCMT:getqloc.obj
 0002:0000c1ec       ??_C@_1BA@ELOGGFK@?$AAb?$AAr?$AAi?$AAt?$AAa?$AAi?$AAn?$AA?$AA@ 1004e1ec     LIBCMT:getqloc.obj
 0002:0000c1fc       ??_C@_1M@GHBGIGDA@?$AAc?$AAh?$AAi?$AAn?$AAa?$AA?$AA@ 1004e1fc     LIBCMT:getqloc.obj
 0002:0000c208       ??_C@_1M@NCHEJOPO@?$AAc?$AAz?$AAe?$AAc?$AAh?$AA?$AA@ 1004e208     LIBCMT:getqloc.obj
 0002:0000c214       ??_C@_1BA@BKPAPBLA@?$AAe?$AAn?$AAg?$AAl?$AAa?$AAn?$AAd?$AA?$AA@ 1004e214     LIBCMT:getqloc.obj
 0002:0000c224       ??_C@_1BM@HKBCKIPC@?$AAg?$AAr?$AAe?$AAa?$AAt?$AA?5?$AAb?$AAr?$AAi?$AAt?$AAa?$AAi?$AAn?$AA?$AA@ 1004e224     LIBCMT:getqloc.obj
 0002:0000c240       ??_C@_1BA@PPCHPGJB@?$AAh?$AAo?$AAl?$AAl?$AAa?$AAn?$AAd?$AA?$AA@ 1004e240     LIBCMT:getqloc.obj
 0002:0000c250       ??_C@_1BE@JBMPEGDG@?$AAh?$AAo?$AAn?$AAg?$AA?9?$AAk?$AAo?$AAn?$AAg?$AA?$AA@ 1004e250     LIBCMT:getqloc.obj
 0002:0000c264       ??_C@_1BI@KOELBBPJ@?$AAn?$AAe?$AAw?$AA?9?$AAz?$AAe?$AAa?$AAl?$AAa?$AAn?$AAd?$AA?$AA@ 1004e264     LIBCMT:getqloc.obj
 0002:0000c27c       ??_C@_15HIEBHAIO@?$AAn?$AAz?$AA?$AA@ 1004e27c     LIBCMT:getqloc.obj
 0002:0000c284       ??_C@_1BC@CHBCPFPI@?$AAp?$AAr?$AA?5?$AAc?$AAh?$AAi?$AAn?$AAa?$AA?$AA@ 1004e284     LIBCMT:getqloc.obj
 0002:0000c298       ??_C@_1BC@JAOIIFKD@?$AAp?$AAr?$AA?9?$AAc?$AAh?$AAi?$AAn?$AAa?$AA?$AA@ 1004e298     LIBCMT:getqloc.obj
 0002:0000c2ac       ??_C@_1BI@BEHPPHKC@?$AAp?$AAu?$AAe?$AAr?$AAt?$AAo?$AA?9?$AAr?$AAi?$AAc?$AAo?$AA?$AA@ 1004e2ac     LIBCMT:getqloc.obj
 0002:0000c2c4       ??_C@_1O@PAEOFKDI@?$AAs?$AAl?$AAo?$AAv?$AAa?$AAk?$AA?$AA@ 1004e2c4     LIBCMT:getqloc.obj
 0002:0000c2d4       ??_C@_1BK@FIHMCKAM@?$AAs?$AAo?$AAu?$AAt?$AAh?$AA?5?$AAa?$AAf?$AAr?$AAi?$AAc?$AAa?$AA?$AA@ 1004e2d4     LIBCMT:getqloc.obj
 0002:0000c2f0       ??_C@_1BI@NAEOODKB@?$AAs?$AAo?$AAu?$AAt?$AAh?$AA?5?$AAk?$AAo?$AAr?$AAe?$AAa?$AA?$AA@ 1004e2f0     LIBCMT:getqloc.obj
 0002:0000c308       ??_C@_1BK@FBDGGIFF@?$AAs?$AAo?$AAu?$AAt?$AAh?$AA?9?$AAa?$AAf?$AAr?$AAi?$AAc?$AAa?$AA?$AA@ 1004e308     LIBCMT:getqloc.obj
 0002:0000c324       ??_C@_1BI@GHLEJDPK@?$AAs?$AAo?$AAu?$AAt?$AAh?$AA?9?$AAk?$AAo?$AAr?$AAe?$AAa?$AA?$AA@ 1004e324     LIBCMT:getqloc.obj
 0002:0000c33c       ??_C@_1CE@PLHLOMJF@?$AAt?$AAr?$AAi?$AAn?$AAi?$AAd?$AAa?$AAd?$AA?5?$AA?$CG?$AA?5?$AAt?$AAo?$AAb?$AAa?$AAg?$AAo?$AA?$AA@ 1004e33c     LIBCMT:getqloc.obj
 0002:0000c360       ??_C@_1BO@MODIMHHI@?$AAu?$AAn?$AAi?$AAt?$AAe?$AAd?$AA?9?$AAk?$AAi?$AAn?$AAg?$AAd?$AAo?$AAm?$AA?$AA@ 1004e360     LIBCMT:getqloc.obj
 0002:0000c380       ??_C@_1BM@FFHJONBJ@?$AAu?$AAn?$AAi?$AAt?$AAe?$AAd?$AA?9?$AAs?$AAt?$AAa?$AAt?$AAe?$AAs?$AA?$AA@ 1004e380     LIBCMT:getqloc.obj
 0002:0000c39c       ___rg_language_count       1004e39c     LIBCMT:getqloc.obj
 0002:0000c3a0       ___rg_country_count        1004e3a0     LIBCMT:getqloc.obj
 0002:0000c3a4       ??_C@_17DNCLJFIF@?$AAA?$AAC?$AAP?$AA?$AA@ 1004e3a4     LIBCMT:getqloc.obj
 0002:0000c3ac       ??_C@_17CIKBIHLH@?$AAO?$AAC?$AAP?$AA?$AA@ 1004e3ac     LIBCMT:getqloc.obj
 0002:0000c3b4       ___rglangidNotDefault      1004e3b4     LIBCMT:getqloc_downlevel.obj
 0002:0000c3c8       __real@00000000            1004e3c8     LIBCMT:wcstoq.obj
 0002:0000c3d0       __load_config_used         1004e3d0     LIBCMT:loadcfg.obj
 0002:0000db20       ___safe_se_handler_table   1004fb20     <linker-defined>
 0002:0000dc30       ___rtc_iaa                 1004fc30     LIBCMT:initsect.obj
 0002:0000dd34       ___rtc_izz                 1004fd34     LIBCMT:initsect.obj
 0002:0000de38       ___rtc_taa                 1004fe38     LIBCMT:initsect.obj
 0002:0000df3c       ___rtc_tzz                 1004ff3c     LIBCMT:initsect.obj
 0003:00000430       _Registration_Estimation_P 10051430     Registration_Estimation_data.obj
 0003:00001648       _pci20041digout            10052648     xpctarget.obj
 0003:0000164c       _nipcdio24cnfg             1005264c     xpctarget.obj
 0003:00001650       _rtddm6604cnfg             10052650     xpctarget.obj
 0003:00001774       _DefaultCOMIOBase          10052774     xpcruntime:xpcimports.obj
 0003:00001784       _DefaultCOMIRQ             10052784     xpcruntime:xpcimports.obj
 0003:000017a0       __fltused                  100527a0     LIBCMT:fpinit.obj
 0003:000017a4       __ldused                   100527a4     LIBCMT:fpinit.obj
 0003:000017b0       __iob                      100527b0     LIBCMT:_file.obj
 0003:00001a30       ___isa_enabled             10052a30     LIBCMT:cpu_disp.obj
 0003:00001a34       ___security_cookie         10052a34     LIBCMT:gs_cookie.obj
 0003:00001a38       ___security_cookie_complement 10052a38     LIBCMT:gs_cookie.obj
 0003:00001c10       ___nullstring              10052c10     LIBCMT:output.obj
 0003:00001c14       ___wnullstring             10052c14     LIBCMT:output.obj
 0003:00001c24       __cfltcvt_tab              10052c24     LIBCMT:cmiscdat.obj
 0003:00001d70       __mbctype                  10052d70     LIBCMT:mbctype.obj
 0003:00001e78       __mbcasemap                10052e78     LIBCMT:mbctype.obj
 0003:00001f78       ___initialmbcinfo          10052f78     LIBCMT:mbctype.obj
 0003:0000219c       ___ptmbcinfo               1005319c     LIBCMT:mbctype.obj
 0003:00002290       ___badioinfo               10053290     LIBCMT:ioinit.obj
 0003:000022d0       __lookuptrailbytes         100532d0     LIBCMT:read.obj
 0003:000023d0       __d_inf                    100533d0     LIBCMT:util.obj
 0003:000023d8       __d_ind                    100533d8     LIBCMT:util.obj
 0003:000023e0       __d_max                    100533e0     LIBCMT:util.obj
 0003:000023e8       __d_min                    100533e8     LIBCMT:util.obj
 0003:000023f0       __d_mzero                  100533f0     LIBCMT:util.obj
 0003:000024fc       ___abort_behavior          100534fc     LIBCMT:abort.obj
 0003:00002500       ___flsindex                10053500     LIBCMT:tidtable.obj
 0003:00002510       ___mb_cur_max              10053510     LIBCMT:nlsdata.obj
 0003:00002514       ___wclocalestr             10053514     LIBCMT:nlsdata.obj
 0003:00002518       ___lc_time_c               10053518     LIBCMT:nlsdata.obj
 0003:0000267c       ___ptlocinfo               1005367c     LIBCMT:nlsdata.obj
 0003:00002680       ___initiallocinfo          10053680     LIBCMT:nlsdata.obj
 0003:00002738       ___initiallocalestructinfo 10053738     LIBCMT:nlsdata.obj
 0003:00002740       ___globallocalestatus      10053740     LIBCMT:glstatus.obj
 0003:00002744       __matherr_flag             10053744     LIBCMT:matherr.obj
 0003:00002750       __NLG_Destination          10053750     LIBCMT:exsup.obj
 0003:00002760       ___lconv                   10053760     LIBCMT:lconv.obj
 0003:00002764       ___lconv_static_decimal    10053764     LIBCMT:lconv.obj
 0003:00002768       ___lconv_c                 10053768     LIBCMT:lconv.obj
 0003:000027b8       ___lconv_static_W_decimal  100537b8     LIBCMT:lconv.obj
 0003:000027bc       __pctype                   100537bc     LIBCMT:ctype.obj
 0003:000027c0       __pwctype                  100537c0     LIBCMT:ctype.obj
 0003:00002800       __confh                    10053800     LIBCMT:initcon.obj
 0003:00002808       __pow10pos                 10053808     LIBCMT:constpow.obj
 0003:00002968       __pow10neg                 10053968     LIBCMT:constpow.obj
 0003:00002ad0       __HUGE                     10053ad0     LIBCMT:huge.obj
 0003:0000301c       ___isa_available_default   1005401c     rt_logging.obj
 0003:0000302c       _pci20098PortA             1005402c     xpctarget.obj
 0003:00003030       _pci20098PortB             10054030     xpctarget.obj
 0003:00003034       _siepowercan_firmware_initialized 10054034     xpctarget.obj
 0003:00003038       _siepowercan_port1_configured 10054038     xpctarget.obj
 0003:0000303c       _siepowercan_port2_configured 1005403c     xpctarget.obj
 0003:00003040       _CANAC2_FIRMWARE_LOADED    10054040     xpctarget.obj
 0003:00003044       _rs232ports                10054044     xpctarget.obj
 0003:00003054       _NI_AT_MIO_16F_5_commreg2  10054054     xpctarget.obj
 0003:00003058       _RTD_DM6430_init           10054058     xpctarget.obj
 0003:0000305c       _RTD_DM6420_init           1005405c     xpctarget.obj
 0003:00003060       _CANAC2_FIRMWARE_LOADED_mb1 10054060     xpctarget.obj
 0003:00003064       _CANAC2_FIRMWARE_LOADED_mb2 10054064     xpctarget.obj
 0003:00003068       _CANAC2_FIRMWARE_LOADED_mb3 10054068     xpctarget.obj
 0003:0000306c       _xmlsize                   1005406c     xpctarget.obj
 0003:00003578       ___fastflag                10054578     LIBCMT:fpinit.obj
 0003:000038a0       __C_Exit_Done              100548a0     LIBCMT:crt0dat.obj
 0003:000038a4       ___argc                    100548a4     LIBCMT:crt0dat.obj
 0003:000038a8       ___argv                    100548a8     LIBCMT:crt0dat.obj
 0003:000038ac       ___wargv                   100548ac     LIBCMT:crt0dat.obj
 0003:000038b0       __environ                  100548b0     LIBCMT:crt0dat.obj
 0003:000038b4       __wenviron                 100548b4     LIBCMT:crt0dat.obj
 0003:000038b8       __pgmptr                   100548b8     LIBCMT:crt0dat.obj
 0003:000038bc       __wpgmptr                  100548bc     LIBCMT:crt0dat.obj
 0003:000038c0       __umaskval                 100548c0     LIBCMT:crt0dat.obj
 0003:000038c4       __exitflag                 100548c4     LIBCMT:crt0dat.obj
 0003:000038c8       __C_Termination_Done       100548c8     LIBCMT:crt0dat.obj
 0003:000038cc       ___winitenv                100548cc     LIBCMT:crt0dat.obj
 0003:000038d0       ___initenv                 100548d0     LIBCMT:crt0dat.obj
 0003:000038d4       __cflush                   100548d4     LIBCMT:_file.obj
 0003:000038d8       ___isa_available           100548d8     LIBCMT:cpu_disp.obj
 0003:000038dc       ___favor                   100548dc     LIBCMT:cpu_disp.obj
 0003:000038e4       __aenvptr                  100548e4     LIBCMT:dllcrt0.obj
 0003:000038e8       __wenvptr                  100548e8     LIBCMT:dllcrt0.obj
 0003:000038ec       ?_pnhHeap@@3P6AHI@ZA       100548ec     LIBCMT:handler.obj
 0003:000038f0       ___app_type                100548f0     LIBCMT:crt0msg.obj
 0003:00003f20       __newmode                  10054f20     LIBCMT:_newmode.obj
 0003:00003f24       __crtheap                  10054f24     LIBCMT:heapinit.obj
 0003:00003f28       ___pInvalidArgHandler      10054f28     LIBCMT:invarg.obj
 0003:00003f2c       __stdbuf                   10054f2c     LIBCMT:_sftbuf.obj
 0003:00004088       __maxwait                  10055088     LIBCMT:crtheap.obj
 0003:0000408c       ?__pInconsistency@@3P6AXXZA 1005508c     LIBCMT:hooks.obj
 0003:00004090       ___pPurecall               10055090     LIBCMT:inithelp.obj
 0003:000040ac       ___mbcodepage              100550ac     LIBCMT:mbctype.obj
 0003:000040b0       ___ismbcodepage            100550b0     LIBCMT:mbctype.obj
 0003:000040b4       ___mbulinfo                100550b4     LIBCMT:mbctype.obj
 0003:000040c0       ___mblocalename            100550c0     LIBCMT:mbctype.obj
 0003:000040c8       ___pioinfo                 100550c8     LIBCMT:ioinit.obj
 0003:000041c8       ___error_mode              100551c8     LIBCMT:errmode.obj
 0003:000042e8       __outputformat             100552e8     LIBCMT:outputformat.obj
 0003:000042f0       __commode                  100552f0     LIBCMT:ncommode.obj
 0003:000042f4       ___lconv_static_null       100552f4     LIBCMT:lconv.obj
 0003:000042f8       ___lconv_static_W_null     100552f8     LIBCMT:lconv.obj
 0003:000042fc       ___locale_changed          100552fc     LIBCMT:wsetloca.obj
 0003:00004300       __fmode                    10055300     LIBCMT:txtmode.obj
 0003:00004320       _CANAC2_2_receiveindex_mb3 10055320     <common>
 0003:000073f4       _CANAC2_2_receivemaxindex_mb3 100583f4     <common>
 0003:00007400       _CANAC2_2_sendindex_mb3    10058400     <common>
 0003:00007720       _CANAC2_2_sendmaxindex_mb3 10058720     <common>
 0003:00007740       _CANAC2_1_receiveindex_mb3 10058740     <common>
 0003:00007a60       _CANAC2_1_receivemaxindex_mb3 10058a60     <common>
 0003:00007a80       _CANAC2_1_sendindex_mb3    10058a80     <common>
 0003:00007da0       _CANAC2_1_sendmaxindex_mb3 10058da0     <common>
 0003:00007dc0       _CANAC2_2_receive_mb3      10058dc0     <common>
 0003:000080e0       _CANAC2_2_send_mb3         100590e0     <common>
 0003:00008400       _CANAC2_1_receive_mb3      10059400     <common>
 0003:00008720       _CANAC2_1_send_mb3         10059720     <common>
 0003:00008a40       _CANAC2_2_receiveindex_mb2 10059a40     <common>
 0003:00008d60       _CANAC2_2_receivemaxindex_mb2 10059d60     <common>
 0003:00008d80       _CANAC2_2_sendindex_mb2    10059d80     <common>
 0003:000090a0       _CANAC2_2_sendmaxindex_mb2 1005a0a0     <common>
 0003:000090c0       _CANAC2_1_receiveindex_mb2 1005a0c0     <common>
 0003:000093e0       _CANAC2_1_receivemaxindex_mb2 1005a3e0     <common>
 0003:00009400       _CANAC2_1_sendindex_mb2    1005a400     <common>
 0003:00009720       _CANAC2_1_sendmaxindex_mb2 1005a720     <common>
 0003:00009740       _CANAC2_2_receive_mb2      1005a740     <common>
 0003:00009a60       _CANAC2_2_send_mb2         1005aa60     <common>
 0003:00009d80       _CANAC2_1_receive_mb2      1005ad80     <common>
 0003:0000a0a0       _CANAC2_1_send_mb2         1005b0a0     <common>
 0003:0000a3c0       _CANAC2_2_receiveindex_mb1 1005b3c0     <common>
 0003:0000a6e0       _CANAC2_2_receivemaxindex_mb1 1005b6e0     <common>
 0003:0000a700       _CANAC2_2_sendindex_mb1    1005b700     <common>
 0003:0000aa20       _CANAC2_2_sendmaxindex_mb1 1005ba20     <common>
 0003:0000aa40       _CANAC2_1_receiveindex_mb1 1005ba40     <common>
 0003:0000ad60       _CANAC2_1_receivemaxindex_mb1 1005bd60     <common>
 0003:0000ad80       _CANAC2_1_sendindex_mb1    1005bd80     <common>
 0003:0000b0a0       _CANAC2_1_sendmaxindex_mb1 1005c0a0     <common>
 0003:0000b0c0       _CANAC2_2_receive_mb1      1005c0c0     <common>
 0003:0000b3e0       _CANAC2_2_send_mb1         1005c3e0     <common>
 0003:0000b700       _CANAC2_1_receive_mb1      1005c700     <common>
 0003:0000ba20       _CANAC2_1_send_mb1         1005ca20     <common>
 0003:0000bd40       _CANAC2_2_receiveindex     1005cd40     <common>
 0003:0000c060       _CANAC2_2_receivemaxindex  1005d060     <common>
 0003:0000c080       _CANAC2_2_sendindex        1005d080     <common>
 0003:0000c3a0       _CANAC2_2_sendmaxindex     1005d3a0     <common>
 0003:0000c3c0       _CANAC2_1_receiveindex     1005d3c0     <common>
 0003:0000c6e0       _CANAC2_1_receivemaxindex  1005d6e0     <common>
 0003:0000c700       _CANAC2_1_sendindex        1005d700     <common>
 0003:0000ca20       _CANAC2_1_sendmaxindex     1005da20     <common>
 0003:0000ca40       _CANAC2_2_receive          1005da40     <common>
 0003:0000cd60       _CANAC2_2_send             1005dd60     <common>
 0003:0000d080       _CANAC2_1_receive          1005e080     <common>
 0003:0000d3a0       _CANAC2_1_send             1005e3a0     <common>
 0003:0000d6c0       _siepowercan_can_object_buffer_port2 1005e6c0     <common>
 0003:000116e0       _siepowercan_can_object_buffer_port1 100626e0     <common>
 0003:000156e0       _rtNaNF                    100666e0     <common>
 0003:000156f4       _rtMinusInfF               100666f4     <common>
 0003:000156f8       _rtInfF                    100666f8     <common>
 0003:00015700       _rtNaN                     10066700     <common>
 0003:00015708       _rtMinusInf                10066708     <common>
 0003:00015710       _rtInf                     10066710     <common>
 0003:00015720       _Registration_Estimation_M_ 10066720     <common>
 0003:000189bd       _Registration_Estimation_PrevZCX 100699bd     <common>
 0003:000189c0       _Registration_Estimation_DW 100699c0     <common>
 0003:00019520       _Registration_Estimation_B 1006a520     <common>
 0003:00019680       _xpceaddEvent              1006a680     <common>
 0003:000196d0       _xpceDeRegisterISR         1006a6d0     <common>
 0003:000196d4       _xpceRegisterISR           1006a6d4     <common>
 0003:000196d8       _xpcIsModelInit            1006a6d8     <common>
 0003:000196dc       _xpcGetElapsedTime         1006a6dc     <common>
 0003:000196e0       _xpcBusyWait               1006a6e0     <common>
 0003:000196e4       _xpcFreePhysicalMemory     1006a6e4     <common>
 0003:000196e8       _xpcAllocPhysicalMemory    1006a6e8     <common>
 0003:000196ec       _xpcReserveMemoryRegion    1006a6ec     <common>
 0003:000196f0       _xpcOutpB                  1006a6f0     <common>
 0003:000196f4       _xpcOutpW                  1006a6f4     <common>
 0003:000196f8       _xpcOutpDW                 1006a6f8     <common>
 0003:000196fc       _xpcInpB                   1006a6fc     <common>
 0003:00019700       _xpcInpW                   1006a700     <common>
 0003:00019704       _xpcInpDW                  1006a704     <common>
 0003:00019708       _slTestRegAssessment       1006a708     <common>
 0003:0001970c       _slTestTerminate           1006a70c     <common>
 0003:00019710       _slTestEvalOnFail          1006a710     <common>
 0003:00019714       _slTestLogAssessments      1006a714     <common>
 0003:00019718       _slTestInitialize          1006a718     <common>
 0003:0001971c       _unRegisterPTPTimeRead     1006a71c     <common>
 0003:00019720       _registerPTPTimeRead       1006a720     <common>
 0003:00019724       _slrteGetCurrentStepSize   1006a724     <common>
 0003:00019728       _slrteSetStepSizeDelta     1006a728     <common>
 0003:0001972c       _xpceGetIntTimerGranularityNS 1006a72c     <common>
 0003:00019730       _sendToAsyncQueueTgtAppSvc 1006a730     <common>
 0003:00019734       _terminateToAsyncQueueTgtAppSvc 1006a734     <common>
 0003:00019738       _startToAsyncQueueTgtAppSvc 1006a738     <common>
 0003:0001973c       _getStatusFlags            1006a73c     <common>
 0003:00019740       _getCommService            1006a740     <common>
 0003:00019744       _getMemoryService          1006a744     <common>
 0003:00019748       _StreamVideo               1006a748     <common>
 0003:0001974c       _StopVideoDisplay          1006a74c     <common>
 0003:00019750       _StartVideoDisplay         1006a750     <common>
 0003:00019754       _DestroyVideoDisplay       1006a754     <common>
 0003:00019758       _CreateVideoDisplay        1006a758     <common>
 0003:0001975c       _ConvertUImage             1006a75c     <common>
 0003:00019760       _StopVideo                 1006a760     <common>
 0003:00019764       _ReadFrameBuffer           1006a764     <common>
 0003:00019768       _StartVideo                1006a768     <common>
 0003:0001976c       _GetVideoConfigs           1006a76c     <common>
 0003:00019770       _FindUsbVideoDevice        1006a770     <common>
 0003:00019774       _xpceDeleteSemaphore       1006a774     <common>
 0003:00019778       _xpceSignalSemaphore       1006a778     <common>
 0003:0001977c       _xpceWaitSemaphore         1006a77c     <common>
 0003:00019780       _xpceCreateSemaphore       1006a780     <common>
 0003:00019784       _TBGiveSpinFast            1006a784     <common>
 0003:00019788       _TBTakeSpinFast            1006a788     <common>
 0003:0001978c       _TBDeleteSpin              1006a78c     <common>
 0003:00019790       _TBCreateSpin              1006a790     <common>
 0003:00019794       _xpceScopeAcqOK            1006a794     <common>
 0003:00019798       _rl32eRestartAcquisition   1006a798     <common>
 0003:0001979c       _rl32eSetTargetScopeSigFt  1006a79c     <common>
 0003:000197a0       _rl32eSetTargetScope       1006a7a0     <common>
 0003:000197a4       _xpceFSScopeSet            1006a7a4     <common>
 0003:000197a8       _rl32eSetScope             1006a7a8     <common>
 0003:000197ac       _rl32eAddSignal            1006a7ac     <common>
 0003:000197b0       _rl32eGetSignalNo          1006a7b0     <common>
 0003:000197b4       _rl32eDefScope             1006a7b4     <common>
 0003:000197b8       _rl32eScopeExists          1006a7b8     <common>
 0003:000197bc       _xpceUDPClose              1006a7bc     <common>
 0003:000197c0       _xpceUDPReceive            1006a7c0     <common>
 0003:000197c4       _xpceUDPSend               1006a7c4     <common>
 0003:000197c8       _xpceUDPOpenReceive        1006a7c8     <common>
 0003:000197cc       _xpceUDPOpenSend           1006a7cc     <common>
 0003:000197d0       _rl32eSendBlock            1006a7d0     <common>
 0003:000197d4       _rl32eLineStatus           1006a7d4     <common>
 0003:000197d8       _rl32eReceiveBufferCount   1006a7d8     <common>
 0003:000197dc       _rl32eReceiveChar          1006a7dc     <common>
 0003:000197e0       _rl32eSendChar             1006a7e0     <common>
 0003:000197e4       _rl32eCloseCOMPort         1006a7e4     <common>
 0003:000197e8       _rl32eInitCOMPort          1006a7e8     <common>
 0003:000197ec       _xpceGetParamDims          1006a7ec     <common>
 0003:000197f0       _xpceGetParameter          1006a7f0     <common>
 0003:000197f4       _xpceSetParameter          1006a7f4     <common>
 0003:000197f8       _xpceGetSignalValue        1006a7f8     <common>
 0003:000197fc       _xpceAssignPCIInterrupt    1006a7fc     <common>
 0003:00019800       _rl32eGetPCIInfoAtSlot     1006a800     <common>
 0003:00019804       _rl32eGetPCIInfo           1006a804     <common>
 0003:00019808       _rl32eShowPCIInfo          1006a808     <common>
 0003:0001980c       _rl32eShowPCIDev           1006a80c     <common>
 0003:00019810       _xpceGetTET                1006a810     <common>
 0003:00019814       _xpceFTSubtract            1006a814     <common>
 0003:00019818       _xpceFTAdd                 1006a818     <common>
 0003:0001981c       _xpceFTReadTime            1006a81c     <common>
 0003:00019820       ___unguarded_readlc_active 1006a820     <common>
 0003:00019830       ___setlc_active            1006a830     <common>
 0003:00019834       __nhandle                  1006a834     <common>
 0003:00019840       _encodedKERNEL32Functions  1006a840     <common>
 0003:000198e8       __debugger_hook_dummy      1006a8e8     <common>
 0003:000198f4       ___use_sse2_mathfcns       1006a8f4     <common>
 0003:00019900       __pmatherr                 1006a900     <common>
 0003:0001990c       __pDestructExceptionObject 1006a90c     <common>
 0003:00019918       __acmdln                   1006a918     <common>
 0003:00019940       __bufin                    1006a940     <common>
 0003:0001ac7c       ___piob                    1006bc7c     <common>
 0003:0001ac80       __nstream                  1006bc80     <common>
 0003:0001ac84       ___dyn_tls_init_callback   1006bc84     <common>
 0003:0001ac94       ___onexitend               1006bc94     <common>
 0003:0001ac98       ___onexitbegin             1006bc98     <common>
 0003:0001ac9c       ___mbctype_initialized     1006bc9c     <common>
 0003:0001aca0       ___env_initialized         1006bca0     <common>
 0004:00000000       __imp__GetModuleHandleA@4  1006c000     kernel32:KERNEL32.dll
 0004:00000004       __imp__GetProcAddress@8    1006c004     kernel32:KERNEL32.dll
 0004:00000008       __imp__HeapAlloc@12        1006c008     kernel32:KERNEL32.dll
 0004:0000000c       __imp__IsDebuggerPresent@0 1006c00c     kernel32:KERNEL32.dll
 0004:00000010       __imp__IsProcessorFeaturePresent@4 1006c010     kernel32:KERNEL32.dll
 0004:00000014       __imp__EncodePointer@4     1006c014     kernel32:KERNEL32.dll
 0004:00000018       __imp__DecodePointer@4     1006c018     kernel32:KERNEL32.dll
 0004:0000001c       __imp__GetLastError@0      1006c01c     kernel32:KERNEL32.dll
 0004:00000020       __imp__ExitProcess@4       1006c020     kernel32:KERNEL32.dll
 0004:00000024       __imp__GetModuleHandleExW@12 1006c024     kernel32:KERNEL32.dll
 0004:00000028       __imp__AreFileApisANSI@0   1006c028     kernel32:KERNEL32.dll
 0004:0000002c       __imp__MultiByteToWideChar@24 1006c02c     kernel32:KERNEL32.dll
 0004:00000030       __imp__WideCharToMultiByte@32 1006c030     kernel32:KERNEL32.dll
 0004:00000034       __imp__HeapFree@12         1006c034     kernel32:KERNEL32.dll
 0004:00000038       __imp__HeapReAlloc@16      1006c038     kernel32:KERNEL32.dll
 0004:0000003c       __imp__EnterCriticalSection@4 1006c03c     kernel32:KERNEL32.dll
 0004:00000040       __imp__LeaveCriticalSection@4 1006c040     kernel32:KERNEL32.dll
 0004:00000044       __imp__GetStdHandle@4      1006c044     kernel32:KERNEL32.dll
 0004:00000048       __imp__GetFileType@4       1006c048     kernel32:KERNEL32.dll
 0004:0000004c       __imp__GetModuleFileNameW@12 1006c04c     kernel32:KERNEL32.dll
 0004:00000050       __imp__WriteConsoleW@20    1006c050     kernel32:KERNEL32.dll
 0004:00000054       __imp__GetCommandLineA@0   1006c054     kernel32:KERNEL32.dll
 0004:00000058       __imp__GetCurrentThreadId@0 1006c058     kernel32:KERNEL32.dll
 0004:0000005c       __imp__WriteFile@20        1006c05c     kernel32:KERNEL32.dll
 0004:00000060       __imp__GetProcessHeap@0    1006c060     kernel32:KERNEL32.dll
 0004:00000064       __imp__UnhandledExceptionFilter@4 1006c064     kernel32:KERNEL32.dll
 0004:00000068       __imp__SetUnhandledExceptionFilter@4 1006c068     kernel32:KERNEL32.dll
 0004:0000006c       __imp__SetLastError@4      1006c06c     kernel32:KERNEL32.dll
 0004:00000070       __imp__InitializeCriticalSectionAndSpinCount@8 1006c070     kernel32:KERNEL32.dll
 0004:00000074       __imp__CreateEventW@16     1006c074     kernel32:KERNEL32.dll
 0004:00000078       __imp__Sleep@4             1006c078     kernel32:KERNEL32.dll
 0004:0000007c       __imp__GetCurrentProcess@0 1006c07c     kernel32:KERNEL32.dll
 0004:00000080       __imp__TerminateProcess@8  1006c080     kernel32:KERNEL32.dll
 0004:00000084       __imp__TlsAlloc@0          1006c084     kernel32:KERNEL32.dll
 0004:00000088       __imp__TlsGetValue@4       1006c088     kernel32:KERNEL32.dll
 0004:0000008c       __imp__TlsSetValue@8       1006c08c     kernel32:KERNEL32.dll
 0004:00000090       __imp__TlsFree@4           1006c090     kernel32:KERNEL32.dll
 0004:00000094       __imp__GetStartupInfoW@4   1006c094     kernel32:KERNEL32.dll
 0004:00000098       __imp__GetTickCount@0      1006c098     kernel32:KERNEL32.dll
 0004:0000009c       __imp__GetModuleHandleW@4  1006c09c     kernel32:KERNEL32.dll
 0004:000000a0       __imp__CreateSemaphoreW@16 1006c0a0     kernel32:KERNEL32.dll
 0004:000000a4       __imp__DeleteCriticalSection@4 1006c0a4     kernel32:KERNEL32.dll
 0004:000000a8       __imp__FatalAppExitA@8     1006c0a8     kernel32:KERNEL32.dll
 0004:000000ac       __imp__SetConsoleCtrlHandler@8 1006c0ac     kernel32:KERNEL32.dll
 0004:000000b0       __imp__FreeLibrary@4       1006c0b0     kernel32:KERNEL32.dll
 0004:000000b4       __imp__LoadLibraryExW@12   1006c0b4     kernel32:KERNEL32.dll
 0004:000000b8       __imp__IsValidCodePage@4   1006c0b8     kernel32:KERNEL32.dll
 0004:000000bc       __imp__GetACP@0            1006c0bc     kernel32:KERNEL32.dll
 0004:000000c0       __imp__GetOEMCP@0          1006c0c0     kernel32:KERNEL32.dll
 0004:000000c4       __imp__GetCPInfo@8         1006c0c4     kernel32:KERNEL32.dll
 0004:000000c8       __imp__CloseHandle@4       1006c0c8     kernel32:KERNEL32.dll
 0004:000000cc       __imp__RtlUnwind@16        1006c0cc     kernel32:KERNEL32.dll
 0004:000000d0       __imp__ReadFile@20         1006c0d0     kernel32:KERNEL32.dll
 0004:000000d4       __imp__GetConsoleMode@8    1006c0d4     kernel32:KERNEL32.dll
 0004:000000d8       __imp__ReadConsoleW@20     1006c0d8     kernel32:KERNEL32.dll
 0004:000000dc       __imp__GetConsoleCP@0      1006c0dc     kernel32:KERNEL32.dll
 0004:000000e0       __imp__DeleteFileW@4       1006c0e0     kernel32:KERNEL32.dll
 0004:000000e4       __imp__SetFilePointerEx@20 1006c0e4     kernel32:KERNEL32.dll
 0004:000000e8       __imp__RaiseException@16   1006c0e8     kernel32:KERNEL32.dll
 0004:000000ec       __imp__OutputDebugStringW@4 1006c0ec     kernel32:KERNEL32.dll
 0004:000000f0       __imp__GetCurrentThread@0  1006c0f0     kernel32:KERNEL32.dll
 0004:000000f4       __imp__GetModuleFileNameA@12 1006c0f4     kernel32:KERNEL32.dll
 0004:000000f8       __imp__QueryPerformanceCounter@4 1006c0f8     kernel32:KERNEL32.dll
 0004:000000fc       __imp__GetCurrentProcessId@0 1006c0fc     kernel32:KERNEL32.dll
 0004:00000100       __imp__GetSystemTimeAsFileTime@4 1006c100     kernel32:KERNEL32.dll
 0004:00000104       __imp__GetEnvironmentStringsW@0 1006c104     kernel32:KERNEL32.dll
 0004:00000108       __imp__FreeEnvironmentStringsW@4 1006c108     kernel32:KERNEL32.dll
 0004:0000010c       __imp__HeapSize@12         1006c10c     kernel32:KERNEL32.dll
 0004:00000110       __imp__GetDateFormatW@24   1006c110     kernel32:KERNEL32.dll
 0004:00000114       __imp__GetTimeFormatW@24   1006c114     kernel32:KERNEL32.dll
 0004:00000118       __imp__CompareStringW@24   1006c118     kernel32:KERNEL32.dll
 0004:0000011c       __imp__LCMapStringW@24     1006c11c     kernel32:KERNEL32.dll
 0004:00000120       __imp__GetLocaleInfoW@16   1006c120     kernel32:KERNEL32.dll
 0004:00000124       __imp__IsValidLocale@8     1006c124     kernel32:KERNEL32.dll
 0004:00000128       __imp__GetUserDefaultLCID@0 1006c128     kernel32:KERNEL32.dll
 0004:0000012c       __imp__EnumSystemLocalesW@8 1006c12c     kernel32:KERNEL32.dll
 0004:00000130       __imp__GetStringTypeW@16   1006c130     kernel32:KERNEL32.dll
 0004:00000134       __imp__FlushFileBuffers@4  1006c134     kernel32:KERNEL32.dll
 0004:00000138       __imp__SetStdHandle@8      1006c138     kernel32:KERNEL32.dll
 0004:0000013c       __imp__CreateFileW@28      1006c13c     kernel32:KERNEL32.dll
 0004:00000140       __imp__SetEndOfFile@4      1006c140     kernel32:KERNEL32.dll
 0004:00000144       \177KERNEL32_NULL_THUNK_DATA 1006c144     kernel32:KERNEL32.dll
 0004:000001b0       __IMPORT_DESCRIPTOR_KERNEL32 1006c1b0     kernel32:KERNEL32.dll
 0004:000001c4       __NULL_IMPORT_DESCRIPTOR   1006c1c4     kernel32:KERNEL32.dll

 entry point at        0001:00016683

