 Pos_PID_xpc

 Timestamp is 587ae713 (Sat Jan 14 22:05:55 2017)

 Preferred load address is 10000000

 Start         Length     Name                   Class
 0001:00000000 000415f6H .text$mn                CODE
 0002:00000000 00000104H .CRT$XCA                DATA
 0002:00000104 00000104H .CRT$XCZ                DATA
 0002:00000208 00000104H .CRT$XIA                DATA
 0002:0000030c 00000113H .CRT$XIC                DATA
 0002:00000420 00000104H .CRT$XIZ                DATA
 0002:00000524 00000104H .CRT$XPA                DATA
 0002:00000628 00000109H .CRT$XPX                DATA
 0002:00000734 00000104H .CRT$XPXA               DATA
 0002:00000838 00000104H .CRT$XPZ                DATA
 0002:0000093c 00000104H .CRT$XTA                DATA
 0002:00000a40 00000104H .CRT$XTZ                DATA
 0002:00000b50 0000edd3H .rdata                  DATA
 0002:0000f924 0000019eH .rdata$debug            DATA
 0002:0000fad0 0000010eH .rdata$sxdata           DATA
 0002:0000fbe0 00000104H .rtc$IAA                DATA
 0002:0000fce4 00000104H .rtc$IZZ                DATA
 0002:0000fde8 00000104H .rtc$TAA                DATA
 0002:0000feec 00000104H .rtc$TZZ                DATA
 0002:0000fff0 00000991H .xdata$x                DATA
 0002:00010990 00000214H .edata                  DATA
 0003:00000000 000d621aH .data                   DATA
 0003:000d6220 00017a44H .bss                    DATA
 0004:00000000 000001b0H .idata$5                DATA
 0004:000001b0 00000014H .idata$2                DATA
 0004:000001c4 00000014H .idata$3                DATA
 0004:000001d8 000001b0H .idata$4                DATA
 0004:00000388 0000076bH .idata$6                DATA

  Address         Publics by Value              Rva+Base       Lib:Object

 0000:00000000       ___guard_flags             00000000     <absolute>
 0000:00000000       ___guard_fids_count        00000000     <absolute>
 0000:00000000       ___guard_fids_table        00000000     <absolute>
 0000:00000000       __except_list              00000000     <absolute>
 0000:00000003       ___safe_se_handler_count   00000003     <absolute>
 0000:00000000       ___ImageBase               10000000     <linker-defined>
 0001:000003b0       _MWDSP_EPH_R_B             100013b0 f   Pos_PID.obj
 0001:00000470       _MWDSP_EPH_R_D             10001470 f   Pos_PID.obj
 0001:00000540       _MdlInitialize             10001540 f   Pos_PID.obj
 0001:00000550       _MdlInitializeSampleTimes  10001550 f   Pos_PID.obj
 0001:00000560       _MdlInitializeSizes        10001560 f   Pos_PID.obj
 0001:00000570       _MdlOutputs                10001570 f   Pos_PID.obj
 0001:00000580       _MdlStart                  10001580 f   Pos_PID.obj
 0001:00000590       _MdlTerminate              10001590 f   Pos_PID.obj
 0001:000005a0       _MdlUpdate                 100015a0 f   Pos_PID.obj
 0001:000005b0       _Pos_PID                   100015b0 f   Pos_PID.obj
 0001:00002860       _Pos_PID_Deadbandpulsecounter 10003860 f   Pos_PID.obj
 0001:000028c0       _Pos_PID_derivatives       100038c0 f   Pos_PID.obj
 0001:00002930       _Pos_PID_initialize        10003930 f   Pos_PID.obj
 0001:00003ab0       _Pos_PID_output            10004ab0 f   Pos_PID.obj
 0001:00004900       _Pos_PID_terminate         10005900 f   Pos_PID.obj
 0001:000049d0       _Pos_PID_update            100059d0 f   Pos_PID.obj
 0001:00004ab0       _plook_u32d_evencka        10005ab0 f   Pos_PID.obj
 0001:00004b20       _rt_ODECreateIntegrationData 10005b20 f   Pos_PID.obj
 0001:00004b30       _rt_ODEDestroyIntegrationData 10005b30 f   Pos_PID.obj
 0001:00004b40       _rt_ODEUpdateContinuousStates 10005b40 f   Pos_PID.obj
 0001:00005140       _Pos_PID_GetCAPIStaticMap  10006140 f   Pos_PID_capi.obj
 0001:00005150       _Pos_PID_InitializeDataMapInfo 10006150 f   Pos_PID_capi.obj
 0001:000051e0       _TgtConnBackgroundTask     100061e0 f   Pos_PID_tgtconn.obj
 0001:000051f0       _TgtConnInit               100061f0 f   Pos_PID_tgtconn.obj
 0001:00005210       _TgtConnPostStep           10006210 f   Pos_PID_tgtconn.obj
 0001:00005220       _TgtConnPreStep            10006220 f   Pos_PID_tgtconn.obj
 0001:00005230       _TgtConnTerm               10006230 f   Pos_PID_tgtconn.obj
 0001:00005240       _rtGetInf                  10006240 f   rtGetInf.obj
 0001:00005270       _rtGetInfF                 10006270 f   rtGetInf.obj
 0001:00005290       _rtGetMinusInf             10006290 f   rtGetInf.obj
 0001:000052c0       _rtGetMinusInfF            100062c0 f   rtGetInf.obj
 0001:000052e0       _rtGetNaN                  100062e0 f   rtGetNaN.obj
 0001:00005310       _rtGetNaNF                 10006310 f   rtGetNaN.obj
 0001:00005c40       _rt_CreateLogVar           10006c40 f   rt_logging.obj
 0001:00005cd0       _rt_CreateLogVarWithConvert 10006cd0 f   rt_logging.obj
 0001:00006650       _rt_CreateStructLogVar     10007650 f   rt_logging.obj
 0001:000073c0       _rt_GetMxIdFromDTypeId     100083c0 f   rt_logging.obj
 0001:000073f0       _rt_GetMxIdFromDTypeIdForRSim 100083f0 f   rt_logging.obj
 0001:00009d30       _rt_StartDataLogging       1000ad30 f   rt_logging.obj
 0001:0000a1f0       _rt_StartDataLoggingWithStartTime 1000b1f0 f   rt_logging.obj
 0001:0000ab50       _rt_StopDataLogging        1000bb50 f   rt_logging.obj
 0001:0000ab70       _rt_StopDataLoggingImpl    1000bb70 f   rt_logging.obj
 0001:0000ae90       _rt_UpdateLogVar           1000be90 f   rt_logging.obj
 0001:0000c250       _rt_UpdateStructLogVar     1000d250 f   rt_logging.obj
 0001:0000c2e0       _rt_UpdateTXXFYLogVars     1000d2e0 f   rt_logging.obj
 0001:0000c620       _rt_UpdateTXYLogVars       1000d620 f   rt_logging.obj
 0001:0000c870       _rt_CleanUpForStateLogWithMMI 1000d870 f   rt_logging_mmi.obj
 0001:0000c980       _rt_FillStateSigInfoFromMMI 1000d980 f   rt_logging_mmi.obj
 0001:0000cd30       _rt_mxCreateCharMatrixFromStrings 1000dd30 f   rt_matrx.obj
 0001:0000ce80       _rt_mxCreateDoubleMatrix   1000de80 f   rt_matrx.obj
 0001:0000cee0       _rt_mxCreateNumericArray   1000dee0 f   rt_matrx.obj
 0001:0000cf60       _rt_mxCreateString         1000df60 f   rt_matrx.obj
 0001:0000cff0       _rt_mxDuplicateArray       1000dff0 f   rt_matrx.obj
 0001:0000d050       _rt_mxGetDimensions        1000e050 f   rt_matrx.obj
 0001:0000d090       _rt_mxGetEps               1000e090 f   rt_matrx.obj
 0001:0000d0a0       _rt_mxGetString            1000e0a0 f   rt_matrx.obj
 0001:0000d120       _rtIsInf                   1000e120 f   rt_nonfinite.obj
 0001:0000d160       _rtIsInfF                  1000e160 f   rt_nonfinite.obj
 0001:0000d1a0       _rtIsNaN                   1000e1a0 f   rt_nonfinite.obj
 0001:0000d1c0       _rtIsNaNF                  1000e1c0 f   rt_nonfinite.obj
 0001:0000d1e0       _rt_InitInfAndNaN          1000e1e0 f   rt_nonfinite.obj
 0001:0000d240       _rtPrintfNoOp              1000e240 f   rt_printf.obj
 0001:0000d250       _rtwCAPI_CountSysRan       1000e250 f   rtw_modelmap_utils.obj
 0001:0000d2f0       _rtwCAPI_EncodePath        1000e2f0 f   rtw_modelmap_utils.obj
 0001:0000d3e0       _rtwCAPI_FillSysRan        1000e3e0 f   rtw_modelmap_utils.obj
 0001:0000d4d0       _rtwCAPI_FreeFullPaths     1000e4d0 f   rtw_modelmap_utils.obj
 0001:0000d560       _rtwCAPI_GetFullStateBlockPath 1000e560 f   rtw_modelmap_utils.obj
 0001:0000d710       _rtwCAPI_GetNumContStateRecords 1000e710 f   rtw_modelmap_utils.obj
 0001:0000d7d0       _rtwCAPI_GetNumSigLogRecords 1000e7d0 f   rtw_modelmap_utils.obj
 0001:0000d820       _rtwCAPI_GetNumSigLogRecordsForRTWLogging 1000e820 f   rtw_modelmap_utils.obj
 0001:0000d8b0       _rtwCAPI_GetNumStateRecords 1000e8b0 f   rtw_modelmap_utils.obj
 0001:0000d900       _rtwCAPI_GetNumStateRecordsForRTWLogging 1000e900 f   rtw_modelmap_utils.obj
 0001:0000d990       _rtwCAPI_GetSigAddrFromMap 1000e990 f   rtw_modelmap_utils.obj
 0001:0000da50       _rtwCAPI_GetSigLogRecordInfo 1000ea50 f   rtw_modelmap_utils.obj
 0001:0000de80       _rtwCAPI_GetStateRecordInfo 1000ee80 f   rtw_modelmap_utils.obj
 0001:0000e330       _rtwCAPI_GetStateWidth     1000f330 f   rtw_modelmap_utils.obj
 0001:0000e390       _rtwCAPI_HasStates         1000f390 f   rtw_modelmap_utils.obj
 0001:0000e400       _rtwCAPI_UpdateFullPaths   1000f400 f   rtw_modelmap_utils.obj
 0001:0000e5e0       _DllMain@12                1000f5e0 f   xpctarget.obj
 0001:0000e5f0       _Pos_PID_ChangeStepSize    1000f5f0 f   xpctarget.obj
 0001:0000e660       _SLRTSetErrorStatus        1000f660 f   xpctarget.obj
 0001:0000e680       _changeStepSize            1000f680 f   xpctarget.obj
 0001:0000e6f0       _getDLMVersion             1000f6f0 f   xpctarget.obj
 0001:0000e700       _getRefMdlPath             1000f700 f   xpctarget.obj
 0001:0000e780       _getRefMdlSignalNumber     1000f780 f   xpctarget.obj
 0001:0000e830       _getrlmdlinfo              1000f830 f   xpctarget.obj
 0001:0000ea10       _updateDiscreteEvents      1000fa10 f   xpctarget.obj
 0001:0000ea20       _getNumRef                 1000fa20 f   appmappingData.obj
 0001:0000ea30       _encconteccnt328mpci       1000fa30 f   encconteccnt328mpci.obj
 0001:000104c0       _dacbpcidda0x12            100114c0 f   dacbpcidda0x12.obj
 0001:00011060       _dopci8255                 10012060 f   dopci8255.obj
 0001:00011f70       _dipci8255                 10012f70 f   dipci8255.obj
 0001:00012f40       _xpcudpbytereceive         10013f40 f   xpcudpbytereceive.obj
 0001:00012f90       _GetPCIDeviceFull          10013f90 f   xpcruntime:xpcimports.obj
 0001:00012fc0       _ShowPCIDevice             10013fc0 f   xpcruntime:xpcimports.obj
 0001:00013630       _xpcGetPciConfigAtSlot     10014630 f   xpcruntime:xpcimports.obj
 0001:000138b0       _xpcInitProcs              100148b0 f   xpcruntime:xpcimports.obj
 0001:00014410       _xpceuploadevent           10015410 f   xpcruntime:xpcimports.obj
 0001:00014411       __heap_alloc               10015411 f i LIBCMT:malloc.obj
 0001:0001444e       _malloc                    1001544e f   LIBCMT:malloc.obj
 0001:000144e0       __get_printf_count_output  100154e0 f   LIBCMT:printf.obj
 0001:000144f5       __printf_l                 100154f5 f   LIBCMT:printf.obj
 0001:0001450c       __printf_p                 1001550c f   LIBCMT:printf.obj
 0001:00014522       __printf_p_l               10015522 f   LIBCMT:printf.obj
 0001:00014539       __printf_s_l               10015539 f   LIBCMT:printf.obj
 0001:00014550       __set_printf_count_output  10015550 f   LIBCMT:printf.obj
 0001:00014578       _printf                    10015578 f   LIBCMT:printf.obj
 0001:00014627       _printf_s                  10015627 f   LIBCMT:printf.obj
 0001:00014640       __ftoui3                   10015640 f   LIBCMT:ftol3.obj
 0001:0001464f       __ftoul3                   1001564f f   LIBCMT:ftol3.obj
 0001:0001465e       __ftol3                    1001565e f   LIBCMT:ftol3.obj
 0001:0001466b       __ftol3_NaN                1001566b f   LIBCMT:ftol3.obj
 0001:00014683       __ftol3_work               10015683 f   LIBCMT:ftol3.obj
 0001:00014709       __ftol3_common             10015709 f   LIBCMT:ftol3.obj
 0001:000147cb       __ftol3_arg_error          100157cb f   LIBCMT:ftol3.obj
 0001:000147dd       __ftol3_except             100157dd f   LIBCMT:ftol3.obj
 0001:0001481f       __dtoui3                   1001581f f   LIBCMT:ftol3.obj
 0001:0001482e       __dtoul3                   1001582e f   LIBCMT:ftol3.obj
 0001:0001483d       __dtol3                    1001583d f   LIBCMT:ftol3.obj
 0001:0001484a       __dtol3_NaN                1001584a f   LIBCMT:ftol3.obj
 0001:00014867       __dtol3_work               10015867 f   LIBCMT:ftol3.obj
 0001:0001494c       __ultod3                   1001594c f   LIBCMT:ftol3.obj
 0001:000149dd       __ltod3                    100159dd f   LIBCMT:ftol3.obj
 0001:00014a10       _memcpy                    10015a10 f   LIBCMT:memcpy.obj
 0001:00015060       _memset                    10016060 f   LIBCMT:memset.obj
 0001:000150f0       __fpmath                   100160f0 f   LIBCMT:fpinit.obj
 0001:00015107       ___setfflag                10016107 f   LIBCMT:fpinit.obj
 0001:0001511a       __cfltcvt_init             1001611a f   LIBCMT:fpinit.obj
 0001:0001517a       ___raise_securityfailure   1001617a f   LIBCMT:gs_report.obj
 0001:000151b7       ___report_gsfailure        100161b7 f   LIBCMT:gs_report.obj
 0001:000152b2       ___report_rangecheckfailure 100162b2 f   LIBCMT:gs_report.obj
 0001:000152be       ___report_securityfailure  100162be f   LIBCMT:gs_report.obj
 0001:0001538e       ___report_securityfailureEx 1001638e f   LIBCMT:gs_report.obj
 0001:000154a4       ___copy_path_to_wide_string 100164a4 f   LIBCMT:crt0dat.obj
 0001:00015556       ___copy_to_char            10016556 f   LIBCMT:crt0dat.obj
 0001:0001560b       ___crtCorExitProcess       1001660b f   LIBCMT:crt0dat.obj
 0001:0001563f       ___crtExitProcess          1001663f f   LIBCMT:crt0dat.obj
 0001:00015655       ___freeCrtMemory           10016655 f   LIBCMT:crt0dat.obj
 0001:00015762       __amsg_exit                10016762 f   LIBCMT:crt0dat.obj
 0001:0001577e       __c_exit                   1001677e f   LIBCMT:crt0dat.obj
 0001:0001578d       __cexit                    1001678d f   LIBCMT:crt0dat.obj
 0001:0001579c       __cinit                    1001679c f   LIBCMT:crt0dat.obj
 0001:00015820       __exit                     10016820 f   LIBCMT:crt0dat.obj
 0001:00015834       __exit_app                 10016834 f   LIBCMT:crt0dat.obj
 0001:00015842       __get_pgmptr               10016842 f   LIBCMT:crt0dat.obj
 0001:00015871       __get_wpgmptr              10016871 f   LIBCMT:crt0dat.obj
 0001:000158a0       __init_pointers            100168a0 f   LIBCMT:crt0dat.obj
 0001:0001590e       __initterm_e               1001690e f   LIBCMT:crt0dat.obj
 0001:00015930       __lockexit                 10016930 f   LIBCMT:crt0dat.obj
 0001:00015939       __unlockexit               10016939 f   LIBCMT:crt0dat.obj
 0001:00015a71       _exit                      10016a71 f   LIBCMT:crt0dat.obj
 0001:00015a85       _calloc                    10016a85 f   LIBCMT:calloc.obj
 0001:00015ac5       _free                      10016ac5 f   LIBCMT:free.obj
 0001:00015afd       _realloc                   10016afd f   LIBCMT:realloc.obj
 0001:00015bb0       _memmove                   10016bb0 f   LIBCMT:memmove.obj
 0001:00016200       _strchr                    10017200 f   LIBCMT:strchr.obj
 0001:0001626e       ___from_strstr_to_strchr   1001726e     LIBCMT:strchr.obj
 0001:00016330       _strncat                   10017330 f   LIBCMT:strncat.obj
 0001:00016470       _strncpy                   10017470 f   LIBCMT:strncpy.obj
 0001:00016594       ___initstdio               10017594 f   LIBCMT:_file.obj
 0001:00016607       ___endstdio                10017607 f   LIBCMT:_file.obj
 0001:0001662e       ___iob_func                1001762e f   LIBCMT:_file.obj
 0001:00016634       __lock_file                10017634 f   LIBCMT:_file.obj
 0001:00016673       __lock_file2               10017673 f   LIBCMT:_file.obj
 0001:000166a3       __unlock_file              100176a3 f   LIBCMT:_file.obj
 0001:000166dd       __unlock_file2             100176dd f   LIBCMT:_file.obj
 0001:0001670a       __fclose_nolock            1001770a f   LIBCMT:fclose.obj
 0001:00016776       _fclose                    10017776 f   LIBCMT:fclose.obj
 0001:000167ed       __fsopen                   100177ed f   LIBCMT:fopen.obj
 0001:000168b1       _fopen                     100178b1 f   LIBCMT:fopen.obj
 0001:000168c6       _fopen_s                   100178c6 f   LIBCMT:fopen.obj
 0001:0001690b       __fprintf_l                1001790b f   LIBCMT:fprintf.obj
 0001:00016925       __fprintf_p                10017925 f   LIBCMT:fprintf.obj
 0001:0001693e       __fprintf_p_l              1001793e f   LIBCMT:fprintf.obj
 0001:00016958       __fprintf_s_l              10017958 f   LIBCMT:fprintf.obj
 0001:00016972       _fprintf                   10017972 f   LIBCMT:fprintf.obj
 0001:00016a84       _fprintf_s                 10017a84 f   LIBCMT:fprintf.obj
 0001:00016a9d       __fread_nolock             10017a9d f   LIBCMT:fread.obj
 0001:00016ab8       __fread_nolock_s           10017ab8 f   LIBCMT:fread.obj
 0001:00016c7d       _fread                     10017c7d f   LIBCMT:fread.obj
 0001:00016c98       _fread_s                   10017c98 f   LIBCMT:fread.obj
 0001:00016d29       __fwrite_nolock            10017d29 f   LIBCMT:fwrite.obj
 0001:00016e82       _fwrite                    10017e82 f   LIBCMT:fwrite.obj
 0001:00016f04       __unlink                   10017f04 f   LIBCMT:unlink.obj
 0001:00016f0d       _remove                    10017f0d f   LIBCMT:unlink.obj
 0001:00016f4f       _rewind                    10017f4f f   LIBCMT:rewind.obj
 0001:0001700e       __scprintf                 1001800e f   LIBCMT:sprintf.obj
 0001:00017021       __scprintf_l               10018021 f   LIBCMT:sprintf.obj
 0001:00017038       __scprintf_p               10018038 f   LIBCMT:sprintf.obj
 0001:0001704b       __scprintf_p_l             1001804b f   LIBCMT:sprintf.obj
 0001:00017062       __snprintf_s               10018062 f   LIBCMT:sprintf.obj
 0001:00017081       __snprintf_s_l             10018081 f   LIBCMT:sprintf.obj
 0001:000170a1       __sprintf_l                100180a1 f   LIBCMT:sprintf.obj
 0001:000170bb       __sprintf_p                100180bb f   LIBCMT:sprintf.obj
 0001:000170d7       __sprintf_p_l              100180d7 f   LIBCMT:sprintf.obj
 0001:000170f4       __sprintf_s_l              100180f4 f   LIBCMT:sprintf.obj
 0001:00017111       _sprintf                   10018111 f   LIBCMT:sprintf.obj
 0001:00017195       _sprintf_s                 10018195 f   LIBCMT:sprintf.obj
 0001:000171b1       _ldexp                     100181b1 f   LIBCMT:ldexp.obj
 0001:0001739d       @__security_check_cookie@4 1001839d f   LIBCMT:secchk.obj
 0001:000173ac       ___isa_available_init      100183ac f   LIBCMT:cpu_disp.obj
 0001:00017525       __invoke_watson_if_error   10018525 f i LIBCMT:wassert.obj
 0001:00017545       __wassert                  10018545 f   LIBCMT:wassert.obj
 0001:00017be9       __CRT_INIT@12              10018be9 f   LIBCMT:dllcrt0.obj
 0001:00017d5b       __DllMainCRTStartup@12     10018d5b f   LIBCMT:dllcrt0.obj
 0001:00017e8c       ___DllXcptFilter           10018e8c f   LIBCMT:dllcrt0.obj
 0001:00017eb1       ?_query_new_handler@@YAP6AHI@ZXZ 10018eb1 f   LIBCMT:handler.obj
 0001:00017ebe       ?_set_new_handler@@YAP6AHI@ZH@Z 10018ebe f   LIBCMT:handler.obj
 0001:00017ec7       ?_set_new_handler@@YAP6AHI@ZP6AHI@Z@Z 10018ec7 f   LIBCMT:handler.obj
 0001:00017efc       __callnewh                 10018efc f   LIBCMT:handler.obj
 0001:00017f22       __initp_heap_handler       10018f22 f   LIBCMT:handler.obj
 0001:00017f2f       __FF_MSGBANNER             10018f2f f   LIBCMT:crt0msg.obj
 0001:00017f68       __GET_RTERRMSG             10018f68 f   LIBCMT:crt0msg.obj
 0001:00017f8c       __NMSG_WRITE               10018f8c f   LIBCMT:crt0msg.obj
 0001:00018149       ___doserrno                10019149 f   LIBCMT:dosmap.obj
 0001:0001815c       __dosmaperr                1001915c f   LIBCMT:dosmap.obj
 0001:0001817d       __errno                    1001917d f   LIBCMT:dosmap.obj
 0001:00018190       __get_doserrno             10019190 f   LIBCMT:dosmap.obj
 0001:000181b3       __get_errno                100191b3 f   LIBCMT:dosmap.obj
 0001:000181d6       __get_errno_from_oserr     100191d6 f   LIBCMT:dosmap.obj
 0001:00018217       __set_doserrno             10019217 f   LIBCMT:dosmap.obj
 0001:00018236       __set_errno                10019236 f   LIBCMT:dosmap.obj
 0001:00018255       __get_heap_handle          10019255 f   LIBCMT:heapinit.obj
 0001:0001825b       __heap_init                1001925b f   LIBCMT:heapinit.obj
 0001:00018270       __heap_term                10019270 f   LIBCMT:heapinit.obj
 0001:00018278       ?_invalid_parameter@@YAXPBG00II@Z 10019278 f   LIBCMT:invarg.obj
 0001:0001827d       ?_invoke_watson@@YAXPBG00II@Z 1001927d f   LIBCMT:invarg.obj
 0001:00018295       __call_reportfault         10019295 f   LIBCMT:invarg.obj
 0001:000183ba       __get_invalid_parameter_handler 100193ba f   LIBCMT:invarg.obj
 0001:000183c7       __initp_misc_invarg        100193c7 f   LIBCMT:invarg.obj
 0001:000183d4       __invalid_parameter        100193d4 f   LIBCMT:invarg.obj
 0001:000183ff       __invalid_parameter_noinfo 100193ff f   LIBCMT:invarg.obj
 0001:0001840f       __invalid_parameter_noinfo_noreturn 1001940f f   LIBCMT:invarg.obj
 0001:0001842a       __invoke_watson            1001942a f   LIBCMT:invarg.obj
 0001:00018455       __set_invalid_parameter_handler 10019455 f   LIBCMT:invarg.obj
 0001:0001847a       __vprintf_l                1001947a f   LIBCMT:vprintf.obj
 0001:00018495       __vprintf_p                10019495 f   LIBCMT:vprintf.obj
 0001:000184af       __vprintf_p_l              100194af f   LIBCMT:vprintf.obj
 0001:000184ca       __vprintf_s_l              100194ca f   LIBCMT:vprintf.obj
 0001:000184e5       _vprintf                   100194e5 f   LIBCMT:vprintf.obj
 0001:000184ff       _vprintf_helper            100194ff f   LIBCMT:vprintf.obj
 0001:0001858c       _vprintf_s                 1001958c f   LIBCMT:vprintf.obj
 0001:000185a6       __ftbuf                    100195a6 f   LIBCMT:_sftbuf.obj
 0001:000185d7       __stbuf                    100195d7 f   LIBCMT:_sftbuf.obj
 0001:0001867d       ??0_LocaleUpdate@@QAE@PAUlocaleinfo_struct@@@Z 1001967d f i LIBCMT:output.obj
 0001:00018705       ??1_LocaleUpdate@@QAE@XZ   10019705 f i LIBCMT:output.obj
 0001:00018713       ?GetLocaleT@_LocaleUpdate@@QAEPAUlocaleinfo_struct@@XZ 10019713 f i LIBCMT:output.obj
 0001:00018716       __output_l                 10019716 f   LIBCMT:output.obj
 0001:00019296       _get_int64_arg             1001a296 f i LIBCMT:output.obj
 0001:000192a9       _get_int_arg               1001a2a9 f i LIBCMT:output.obj
 0001:000192b9       _get_short_arg             1001a2b9 f i LIBCMT:output.obj
 0001:000193c0       __SEH_prolog4              1001a3c0 f   LIBCMT:sehprolg4.obj
 0001:00019405       __SEH_epilog4              1001a405 f   LIBCMT:sehprolg4.obj
 0001:00019460       __except_handler4          1001a460 f   LIBCMT:chandler4.obj
 0001:000195f4       __errcode                  1001a5f4 f   LIBCMT:fpexcept.obj
 0001:00019626       __except1                  1001a626 f   LIBCMT:fpexcept.obj
 0001:000196ee       __except2                  1001a6ee f   LIBCMT:fpexcept.obj
 0001:000197ee       __handle_exc               1001a7ee f   LIBCMT:fpexcept.obj
 0001:000199cc       __handle_qnan1             1001a9cc f   LIBCMT:fpexcept.obj
 0001:00019a1c       __handle_qnan2             1001aa1c f   LIBCMT:fpexcept.obj
 0001:00019a7c       __raise_exc                1001aa7c f   LIBCMT:fpexcept.obj
 0001:00019a9d       __raise_exc_ex             1001aa9d f   LIBCMT:fpexcept.obj
 0001:00019d82       __raise_excf               1001ad82 f   LIBCMT:fpexcept.obj
 0001:00019da3       __set_errno_from_matherr   1001ada3 f   LIBCMT:fpexcept.obj
 0001:00019dd0       __umatherr                 1001add0 f   LIBCMT:fpexcept.obj
 0001:00019e70       __VEC_memset               1001ae70 f   LIBCMT:p4_memset.obj
 0001:00019f38       ?strrchr@@YAPADPADH@Z      1001af38 f i LIBCMT:cvt.obj
 0001:00019f41       __cfltcvt                  1001af41 f   LIBCMT:cvt.obj
 0001:00019f62       __cfltcvt_l                1001af62 f   LIBCMT:cvt.obj
 0001:00019fe8       __cftoa                    1001afe8 f   LIBCMT:cvt.obj
 0001:0001a006       __cftoa_l                  1001b006 f   LIBCMT:cvt.obj
 0001:0001a362       __cftoe                    1001b362 f   LIBCMT:cvt.obj
 0001:0001a4d1       __cftoe_l                  1001b4d1 f   LIBCMT:cvt.obj
 0001:0001a59f       __cftof                    1001b59f f   LIBCMT:cvt.obj
 0001:0001a6a6       __cftof_l                  1001b6a6 f   LIBCMT:cvt.obj
 0001:0001a767       __cftog                    1001b767 f   LIBCMT:cvt.obj
 0001:0001a785       __cftog_l                  1001b785 f   LIBCMT:cvt.obj
 0001:0001a884       __cropzeros                1001b884 f   LIBCMT:cvt.obj
 0001:0001a895       __cropzeros_l              1001b895 f   LIBCMT:cvt.obj
 0001:0001a915       __fassign                  1001b915 f   LIBCMT:cvt.obj
 0001:0001a92d       __fassign_l                1001b92d f   LIBCMT:cvt.obj
 0001:0001a96f       __forcdecpt                1001b96f f   LIBCMT:cvt.obj
 0001:0001a980       __forcdecpt_l              1001b980 f   LIBCMT:cvt.obj
 0001:0001a9f4       __positive                 1001b9f4 f   LIBCMT:cvt.obj
 0001:0001aa36       __setdefaultprecision      1001ba36 f   LIBCMT:fp8.obj
 0001:0001aa5d       __initp_misc_cfltcvt_tab   1001ba5d f   LIBCMT:cmiscdat.obj
 0001:0001aa7c       __crt_debugger_hook        1001ba7c f   LIBCMT:dbghook.obj
 0001:0001aab1       ___crtCloseThreadpoolTimer 1001bab1 f   LIBCMT:winapisupp.obj
 0001:0001aac8       ___crtCloseThreadpoolWait  1001bac8 f   LIBCMT:winapisupp.obj
 0001:0001aadf       ___crtCreateEventExW       1001badf f   LIBCMT:winapisupp.obj
 0001:0001ab1a       ___crtCreateSemaphoreExW   1001bb1a f   LIBCMT:winapisupp.obj
 0001:0001ab54       ___crtCreateSymbolicLinkW  1001bb54 f   LIBCMT:winapisupp.obj
 0001:0001ab7d       ___crtCreateThreadpoolTimer 1001bb7d f   LIBCMT:winapisupp.obj
 0001:0001ab9e       ___crtCreateThreadpoolWait 1001bb9e f   LIBCMT:winapisupp.obj
 0001:0001abbf       ___crtFlsAlloc             1001bbbf f   LIBCMT:winapisupp.obj
 0001:0001abdd       ___crtFlsFree              1001bbdd f   LIBCMT:winapisupp.obj
 0001:0001abfc       ___crtFlsGetValue          1001bbfc f   LIBCMT:winapisupp.obj
 0001:0001ac1b       ___crtFlsSetValue          1001bc1b f   LIBCMT:winapisupp.obj
 0001:0001ac3d       ___crtFlushProcessWriteBuffers 1001bc3d f   LIBCMT:winapisupp.obj
 0001:0001ac4d       ___crtFreeLibraryWhenCallbackReturns 1001bc4d f   LIBCMT:winapisupp.obj
 0001:0001ac67       ___crtGetCurrentProcessorNumber 1001bc67 f   LIBCMT:winapisupp.obj
 0001:0001ac79       ___crtGetFileInformationByHandleEx 1001bc79 f   LIBCMT:winapisupp.obj
 0001:0001aca5       ___crtGetLogicalProcessorInformation 1001bca5 f   LIBCMT:winapisupp.obj
 0001:0001accb       ___crtGetShowWindowMode    1001bccb f   LIBCMT:winapisupp.obj
 0001:0001acee       ___crtGetTickCount64       1001bcee f   LIBCMT:winapisupp.obj
 0001:0001ad06       ___crtInitializeCriticalSectionEx 1001bd06 f   LIBCMT:winapisupp.obj
 0001:0001ad34       ___crtIsPackagedApp        1001bd34 f   LIBCMT:winapisupp.obj
 0001:0001ad74       ___crtLoadWinApiPointers   1001bd74 f   LIBCMT:winapisupp.obj
 0001:0001afff       ___crtSetFileInformationByHandle 1001bfff f   LIBCMT:winapisupp.obj
 0001:0001b02b       ___crtSetThreadStackGuarantee 1001c02b f   LIBCMT:winapisupp.obj
 0001:0001b046       ___crtSetThreadpoolTimer   1001c046 f   LIBCMT:winapisupp.obj
 0001:0001b066       ___crtSetThreadpoolWait    1001c066 f   LIBCMT:winapisupp.obj
 0001:0001b083       ___crtSetUnhandledExceptionFilter 1001c083 f   LIBCMT:winapisupp.obj
 0001:0001b091       ___crtSleep                1001c091 f   LIBCMT:winapisupp.obj
 0001:0001b09f       ___crtTerminateProcess     1001c09f f   LIBCMT:winapisupp.obj
 0001:0001b0b4       ___crtUnhandledException   1001c0b4 f   LIBCMT:winapisupp.obj
 0001:0001b0ca       ___crtWaitForThreadpoolTimerCallbacks 1001c0ca f   LIBCMT:winapisupp.obj
 0001:0001b0e4       __RTC_Initialize           1001c0e4 f   LIBCMT:initsect.obj
 0001:0001b104       __RTC_Terminate            1001c104 f   LIBCMT:initsect.obj
 0001:0001b124       __lock                     1001c124 f   LIBCMT:mlock.obj
 0001:0001b158       __lockerr_exit             1001c158 f   LIBCMT:mlock.obj
 0001:0001b178       __mtdeletelocks            1001c178 f   LIBCMT:mlock.obj
 0001:0001b1cc       __mtinitlocknum            1001c1cc f   LIBCMT:mlock.obj
 0001:0001b275       __mtinitlocks              1001c275 f   LIBCMT:mlock.obj
 0001:0001b2ae       __unlock                   1001c2ae f   LIBCMT:mlock.obj
 0001:0001b2d0       __FindPESection            1001c2d0 f   LIBCMT:pesect.obj
 0001:0001b320       __IsNonwritableInCurrentImage 1001c320 f   LIBCMT:pesect.obj
 0001:0001b3e0       __ValidateImageBase        1001c3e0 f   LIBCMT:pesect.obj
 0001:0001b411       ___onexitinit              1001c411 f   LIBCMT:onexit.obj
 0001:0001b440       __onexit                   1001c440 f   LIBCMT:onexit.obj
 0001:0001b53c       _atexit                    1001c53c f   LIBCMT:onexit.obj
 0001:0001b551       __calloc_crt               1001c551 f   LIBCMT:crtheap.obj
 0001:0001b599       __malloc_crt               1001c599 f   LIBCMT:crtheap.obj
 0001:0001b5e0       __realloc_crt              1001c5e0 f   LIBCMT:crtheap.obj
 0001:0001b62a       __recalloc_crt             1001c62a f   LIBCMT:crtheap.obj
 0001:0001b678       __set_malloc_crt_max_wait  1001c678 f   LIBCMT:crtheap.obj
 0001:0001b68b       _wait_a_bit                1001c68b f i LIBCMT:crtheap.obj
 0001:0001b6af       ?_inconsistency@@YAXXZ     1001c6af f   LIBCMT:hooks.obj
 0001:0001b6e7       ?terminate@@YAXXZ          1001c6e7 f   LIBCMT:hooks.obj
 0001:0001b71b       ?unexpected@@YAXXZ         1001c71b f   LIBCMT:hooks.obj
 0001:0001b72e       __initp_eh_hooks           1001c72e f   LIBCMT:hooks.obj
 0001:0001b73f       ___getlocaleinfo           1001c73f f   LIBCMT:inithelp.obj
 0001:0001b918       __initp_misc_purevirt      1001c918 f   LIBCMT:inithelp.obj
 0001:0001b925       ___fpecode                 1001c925 f   LIBCMT:winsig.obj
 0001:0001b92e       ___get_sigabrt             1001c92e f   LIBCMT:winsig.obj
 0001:0001b93b       ___pxcptinfoptrs           1001c93b f   LIBCMT:winsig.obj
 0001:0001b944       __initp_misc_winsig        1001c944 f   LIBCMT:winsig.obj
 0001:0001ba05       _raise                     1001ca05 f   LIBCMT:winsig.obj
 0001:0001bbfa       _signal                    1001cbfa f   LIBCMT:winsig.obj
 0001:0001be51       __initp_misc_rand_s        1001ce51 f   LIBCMT:rand_s.obj
 0001:0001be5e       _rand_s                    1001ce5e f   LIBCMT:rand_s.obj
 0001:0001bf64       ___initmbctable            1001cf64 f   LIBCMT:mbctype.obj
 0001:0001c21b       ___updatetmbcinfo          1001d21b f   LIBCMT:mbctype.obj
 0001:0001c2c1       __getmbcp                  1001d2c1 f   LIBCMT:mbctype.obj
 0001:0001c2f2       __setmbcp                  1001d2f2 f   LIBCMT:mbctype.obj
 0001:0001c49a       __setmbcp_nolock           1001d49a f   LIBCMT:mbctype.obj
 0001:0001c685       __calloc_impl              1001d685 f   LIBCMT:calloc_impl.obj
 0001:0001c6ff       __fcloseall                1001d6ff f   LIBCMT:closeall.obj
 0001:0001c79c       __fflush_nolock            1001d79c f   LIBCMT:fflush.obj
 0001:0001c7e2       __flush                    1001d7e2 f   LIBCMT:fflush.obj
 0001:0001c846       __flushall                 1001d846 f   LIBCMT:fflush.obj
 0001:0001c84f       _fflush                    1001d84f f   LIBCMT:fflush.obj
 0001:0001c98c       __fileno                   1001d98c f   LIBCMT:fileno.obj
 0001:0001c9b0       __close                    1001d9b0 f   LIBCMT:close.obj
 0001:0001ca8b       __close_nolock             1001da8b f   LIBCMT:close.obj
 0001:0001cb25       __freebuf                  1001db25 f   LIBCMT:_freebuf.obj
 0001:0001cb55       __getstream                1001db55 f   LIBCMT:stream.obj
 0001:0001cc74       __openfile                 1001dc74 f   LIBCMT:_open.obj
 0001:0001cef0       __local_unwind4            1001def0 f   LIBCMT:exsup4.obj
 0001:0001cfc6       __seh_longjmp_unwind4@4    1001dfc6 f   LIBCMT:exsup4.obj
 0001:0001cfe2       @_EH4_CallFilterFunc@8     1001dfe2 f   LIBCMT:exsup4.obj
 0001:0001cff9       @_EH4_TransferToHandler@8  1001dff9 f   LIBCMT:exsup4.obj
 0001:0001d012       @_EH4_GlobalUnwind2@8      1001e012 f   LIBCMT:exsup4.obj
 0001:0001d02b       @_EH4_LocalUnwind@16       1001e02b f   LIBCMT:exsup4.obj
 0001:0001d042       __vfprintf_l               1001e042 f   LIBCMT:vfprintf.obj
 0001:0001d060       __vfprintf_p               1001e060 f   LIBCMT:vfprintf.obj
 0001:0001d07d       __vfprintf_p_l             1001e07d f   LIBCMT:vfprintf.obj
 0001:0001d09b       __vfprintf_s_l             1001e09b f   LIBCMT:vfprintf.obj
 0001:0001d0b9       _vfprintf                  1001e0b9 f   LIBCMT:vfprintf.obj
 0001:0001d0d6       _vfprintf_helper           1001e0d6 f   LIBCMT:vfprintf.obj
 0001:0001d1e7       _vfprintf_s                1001e1e7 f   LIBCMT:vfprintf.obj
 0001:0001d204       __ioinit                   1001e204 f   LIBCMT:ioinit.obj
 0001:0001d4b8       __ioterm                   1001e4b8 f   LIBCMT:ioinit.obj
 0001:0001d50a       __filbuf                   1001e50a f   LIBCMT:_filbuf.obj
 0001:0001d62b       _memcpy_s                  1001e62b f   LIBCMT:memcpy_s.obj
 0001:0001d6aa       __read                     1001e6aa f   LIBCMT:read.obj
 0001:0001d7be       __read_nolock              1001e7be f   LIBCMT:read.obj
 0001:0001df4f       __flsbuf                   1001ef4f f   LIBCMT:_flsbuf.obj
 0001:0001e09e       __write                    1001f09e f   LIBCMT:write.obj
 0001:0001e18d       __write_nolock             1001f18d f   LIBCMT:write.obj
 0001:0001e9f2       __wremove                  1001f9f2 f   LIBCMT:wunlink.obj
 0001:0001ea20       __wunlink                  1001fa20 f   LIBCMT:wunlink.obj
 0001:0001ea29       __lseek                    1001fa29 f   LIBCMT:lseek.obj
 0001:0001eb18       __lseek_nolock             1001fb18 f   LIBCMT:lseek.obj
 0001:0001ebbf       __vscprintf                1001fbbf f   LIBCMT:vsprintf.obj
 0001:0001ebd9       __vscprintf_helper         1001fbd9 f   LIBCMT:vsprintf.obj
 0001:0001ec35       __vscprintf_l              1001fc35 f   LIBCMT:vsprintf.obj
 0001:0001ec50       __vscprintf_p              1001fc50 f   LIBCMT:vsprintf.obj
 0001:0001ec6a       __vscprintf_p_l            1001fc6a f   LIBCMT:vsprintf.obj
 0001:0001ec85       __vsprintf_l               1001fc85 f   LIBCMT:vsprintf.obj
 0001:0001ed09       _vsprintf                  1001fd09 f   LIBCMT:vsprintf.obj
 0001:0001ed21       __vsnprintf_c              1001fd21 f   LIBCMT:vsnprnc.obj
 0001:0001ed48       __vsnprintf_c_l            1001fd48 f   LIBCMT:vsnprnc.obj
 0001:0001ed70       __vsnprintf_helper         1001fd70 f   LIBCMT:vsnprnc.obj
 0001:0001ee3a       __vsnprintf_s              1001fe3a f   LIBCMT:vsnprnc.obj
 0001:0001ee58       __vsnprintf_s_l            1001fe58 f   LIBCMT:vsnprnc.obj
 0001:0001ef58       __vsprintf_p               1001ff58 f   LIBCMT:vsnprnc.obj
 0001:0001ef7f       __vsprintf_p_l             1001ff7f f   LIBCMT:vsnprnc.obj
 0001:0001efa7       __vsprintf_s_l             1001ffa7 f   LIBCMT:vsnprnc.obj
 0001:0001f01c       _vsprintf_s                1002001c f   LIBCMT:vsnprnc.obj
 0001:0001f037       __chgsign                  10020037 f   LIBCMT:ieeemisc.obj
 0001:0001f064       __chgsignf                 10020064 f   LIBCMT:ieeemisc.obj
 0001:0001f085       __copysign                 10020085 f   LIBCMT:ieeemisc.obj
 0001:0001f0ad       __copysignf                100200ad f   LIBCMT:ieeemisc.obj
 0001:0001f0c9       __finite                   100200c9 f   LIBCMT:ieeemisc.obj
 0001:0001f0e1       __fpclass                  100200e1 f   LIBCMT:ieeemisc.obj
 0001:0001f17d       __isnan                    1002017d f   LIBCMT:ieeemisc.obj
 0001:0001f1b0       __logb                     100201b0 f   LIBCMT:ieeemisc.obj
 0001:0001f291       __nextafter                10020291 f   LIBCMT:ieeemisc.obj
 0001:0001f531       __scalb                    10020531 f   LIBCMT:ieeemisc.obj
 0001:0001f549       __add_exp                  10020549 f   LIBCMT:util.obj
 0001:0001f578       __decomp                   10020578 f   LIBCMT:util.obj
 0001:0001f64a       __get_exp                  1002064a f   LIBCMT:util.obj
 0001:0001f663       __set_bexp                 10020663 f   LIBCMT:util.obj
 0001:0001f68c       __set_exp                  1002068c f   LIBCMT:util.obj
 0001:0001f6bb       __sptype                   100206bb f   LIBCMT:util.obj
 0001:0001f716       ___clrfp_sse2              10020716 f   LIBCMT:fpctrl.obj
 0001:0001f737       ___ctrlfp_sse2             10020737 f   LIBCMT:fpctrl.obj
 0001:0001f770       ___fclrf_sse2              10020770 f   LIBCMT:fpctrl.obj
 0001:0001f78d       ___get_fpsr_sse2           1002078d f   LIBCMT:fpctrl.obj
 0001:0001f7a9       ___set_fpsr_sse2           100207a9 f   LIBCMT:fpctrl.obj
 0001:0001f81f       ___set_statfp_sse2         1002081f f   LIBCMT:fpctrl.obj
 0001:0001f838       ___statfp_sse2             10020838 f   LIBCMT:fpctrl.obj
 0001:0001f84d       __clrfp                    1002084d f   LIBCMT:fpctrl.obj
 0001:0001f85e       __ctrlfp                   1002085e f   LIBCMT:fpctrl.obj
 0001:0001f889       __set_statfp               10020889 f   LIBCMT:fpctrl.obj
 0001:0001f8e1       __statfp                   100208e1 f   LIBCMT:fpctrl.obj
 0001:0001f8f1       _wcscat_s                  100208f1 f   LIBCMT:wcscat_s.obj
 0001:0001f95d       _wcscpy_s                  1002095d f   LIBCMT:wcscpy_s.obj
 0001:0001f9b9       _wcslen                    100209b9 f   LIBCMT:wcslen.obj
 0001:0001f9d2       _wcsncat_s                 100209d2 f   LIBCMT:wcsncat_s.obj
 0001:0001faa0       __set_abort_behavior       10020aa0 f   LIBCMT:abort.obj
 0001:0001fabf       _abort                     10020abf f   LIBCMT:abort.obj
 0001:0001fb02       ___set_app_type            10020b02 f   LIBCMT:errmode.obj
 0001:0001fb0f       __set_error_mode           10020b0f f   LIBCMT:errmode.obj
 0001:0001fc6b       __i64tow_s                 10020c6b f   LIBCMT:xtows.obj
 0001:0001fc9c       __itow_s                   10020c9c f   LIBCMT:xtows.obj
 0001:0001fcc5       __ltow_s                   10020cc5 f   LIBCMT:xtows.obj
 0001:0001fcef       __ui64tow_s                10020cef f   LIBCMT:xtows.obj
 0001:0001fd0a       __ultow_s                  10020d0a f   LIBCMT:xtows.obj
 0001:0001fe15       _setvbuf                   10020e15 f   LIBCMT:setvbuf.obj
 0001:0001ff1b       __fwprintf_l               10020f1b f   LIBCMT:fwprintf.obj
 0001:0001ff35       __fwprintf_p               10020f35 f   LIBCMT:fwprintf.obj
 0001:0001ff4e       __fwprintf_p_l             10020f4e f   LIBCMT:fwprintf.obj
 0001:0001ff68       __fwprintf_s_l             10020f68 f   LIBCMT:fwprintf.obj
 0001:0001ff82       _fwprintf                  10020f82 f   LIBCMT:fwprintf.obj
 0001:00020016       _fwprintf_s                10021016 f   LIBCMT:fwprintf.obj
 0001:0002002f       __vsnwprintf_s             1002102f f   LIBCMT:vswprnc.obj
 0001:0002004d       __vsnwprintf_s_l           1002104d f   LIBCMT:vswprnc.obj
 0001:00020151       __vswprintf_c              10021151 f   LIBCMT:vswprnc.obj
 0001:00020178       __vswprintf_c_l            10021178 f   LIBCMT:vswprnc.obj
 0001:000201a0       __vswprintf_helper         100211a0 f   LIBCMT:vswprnc.obj
 0001:0002029b       __vswprintf_p              1002129b f   LIBCMT:vswprnc.obj
 0001:000202c2       __vswprintf_p_l            100212c2 f   LIBCMT:vswprnc.obj
 0001:000202ea       __vswprintf_s_l            100212ea f   LIBCMT:vswprnc.obj
 0001:00020361       _vswprintf_s               10021361 f   LIBCMT:vswprnc.obj
 0001:0002037c       ___crtMessageBoxW          1002137c f   LIBCMT:crtmboxw.obj
 0001:00020562       ___crtMessageBoxWaitThreadW@4 10021562 f   LIBCMT:crtmboxw.obj
 0001:00020580       __XcptFilter               10021580 f   LIBCMT:winxfltr.obj
 0001:000206db       ___CppXcptFilter           100216db f   LIBCMT:winxfltr.obj
 0001:0002072d       ___get_flsindex            1002172d f   LIBCMT:tidtable.obj
 0001:00020733       ___threadhandle            10021733 f   LIBCMT:tidtable.obj
 0001:00020739       ___threadid                10021739 f   LIBCMT:tidtable.obj
 0001:0002073f       __freefls@4                1002173f f   LIBCMT:tidtable.obj
 0001:00020874       __freeptd                  10021874 f   LIBCMT:tidtable.obj
 0001:000208aa       __getptd                   100218aa f   LIBCMT:tidtable.obj
 0001:000208c2       __getptd_noexit            100218c2 f   LIBCMT:tidtable.obj
 0001:00020931       __initptd                  10021931 f   LIBCMT:tidtable.obj
 0001:000209e4       __mtinit                   100219e4 f   LIBCMT:tidtable.obj
 0001:00020a5a       __mtterm                   10021a5a f   LIBCMT:tidtable.obj
 0001:00020a77       __set_pgmptr               10021a77 f i LIBCMT:stdargv.obj
 0001:00020a84       __setargv                  10021a84 f   LIBCMT:stdargv.obj
 0001:00020cb3       __setenvp                  10021cb3 f   LIBCMT:stdenvp.obj
 0001:00020d94       ___security_init_cookie    10021d94 f   LIBCMT:gs_support.obj
 0001:00020e30       ___crtGetEnvironmentStringsA 10021e30 f   LIBCMT:a_env.obj
 0001:00020ec0       _strlen                    10021ec0 f   LIBCMT:strlen.obj
 0001:00020f4b       _wcsncpy_s                 10021f4b f   LIBCMT:wcsncpy_s.obj
 0001:00021009       __output_s_l               10022009 f   LIBCMT:outputs.obj
 0001:00021c91       __output_p_l               10022c91 f   LIBCMT:outputp.obj
 0001:00022fc9       __validate_param_reuseA    10023fc9 f   LIBCMT:outputp.obj
 0001:000230ff       _get_crtdouble_arg         100240ff f i LIBCMT:outputp.obj
 0001:000231fe       __isatty                   100241fe f   LIBCMT:isatty.obj
 0001:00023252       ___addlocaleref            10024252 f   LIBCMT:localref.obj
 0001:000232e7       ___freetlocinfo            100242e7 f   LIBCMT:localref.obj
 0001:00023441       ___removelocaleref         10024441 f   LIBCMT:localref.obj
 0001:000234e1       ___updatetlocinfo          100244e1 f   LIBCMT:localref.obj
 0001:00023561       __updatetlocinfoEx_nolock  10024561 f   LIBCMT:localref.obj
 0001:000235ac       ___iswcsym                 100245ac f i LIBCMT:_wctype.obj
 0001:000235d0       ___iswcsymf                100245d0 f i LIBCMT:_wctype.obj
 0001:000235f4       __isleadbyte_l             100245f4 f i LIBCMT:_wctype.obj
 0001:0002362e       __iswalnum_l               1002462e f i LIBCMT:_wctype.obj
 0001:00023642       __iswalpha_l               10024642 f i LIBCMT:_wctype.obj
 0001:00023656       __iswblank_l               10024656 f i LIBCMT:_wctype.obj
 0001:00023671       __iswcntrl_l               10024671 f i LIBCMT:_wctype.obj
 0001:00023682       __iswcsym_l                10024682 f i LIBCMT:_wctype.obj
 0001:000236a6       __iswcsymf_l               100246a6 f i LIBCMT:_wctype.obj
 0001:000236ca       __iswdigit_l               100246ca f i LIBCMT:_wctype.obj
 0001:000236db       __iswgraph_l               100246db f i LIBCMT:_wctype.obj
 0001:000236ef       __iswlower_l               100246ef f i LIBCMT:_wctype.obj
 0001:00023700       __iswprint_l               10024700 f i LIBCMT:_wctype.obj
 0001:00023714       __iswpunct_l               10024714 f i LIBCMT:_wctype.obj
 0001:00023725       __iswspace_l               10024725 f i LIBCMT:_wctype.obj
 0001:00023736       __iswupper_l               10024736 f i LIBCMT:_wctype.obj
 0001:00023747       __iswxdigit_l              10024747 f i LIBCMT:_wctype.obj
 0001:0002375b       _isleadbyte                1002475b f i LIBCMT:_wctype.obj
 0001:0002376c       _iswalnum                  1002476c f i LIBCMT:_wctype.obj
 0001:00023780       _iswalpha                  10024780 f i LIBCMT:_wctype.obj
 0001:00023794       _iswascii                  10024794 f i LIBCMT:_wctype.obj
 0001:000237a6       _iswblank                  100247a6 f i LIBCMT:_wctype.obj
 0001:000237c1       _iswcntrl                  100247c1 f i LIBCMT:_wctype.obj
 0001:000237d2       _iswdigit                  100247d2 f i LIBCMT:_wctype.obj
 0001:000237e3       _iswgraph                  100247e3 f i LIBCMT:_wctype.obj
 0001:000237f7       _iswlower                  100247f7 f i LIBCMT:_wctype.obj
 0001:00023808       _iswprint                  10024808 f i LIBCMT:_wctype.obj
 0001:0002381c       _iswpunct                  1002481c f i LIBCMT:_wctype.obj
 0001:0002382d       _iswspace                  1002482d f i LIBCMT:_wctype.obj
 0001:0002383e       _iswupper                  1002483e f i LIBCMT:_wctype.obj
 0001:0002384f       _iswxdigit                 1002484f f i LIBCMT:_wctype.obj
 0001:00023863       __wctomb_l                 10024863 f   LIBCMT:wctomb.obj
 0001:000238b2       __wctomb_s_l               100248b2 f   LIBCMT:wctomb.obj
 0001:000239d6       _wctomb                    100249d6 f   LIBCMT:wctomb.obj
 0001:00023a09       _wctomb_s                  10024a09 f   LIBCMT:wctomb.obj
 0001:00023a30       __aulldvrm                 10024a30 f   LIBCMT:ulldvrm.obj
 0001:00023ac5       __matherr                  10024ac5 f   LIBCMT:matherr.obj
 0001:00023ac8       ___isascii                 10024ac8 f i LIBCMT:_ctype.obj
 0001:00023ad8       ___iscsym                  10024ad8 f i LIBCMT:_ctype.obj
 0001:00023af8       ___iscsymf                 10024af8 f i LIBCMT:_ctype.obj
 0001:00023b15       ___toascii                 10024b15 f i LIBCMT:_ctype.obj
 0001:00023b20       __isalnum_l                10024b20 f i LIBCMT:_ctype.obj
 0001:00023b78       __isalpha_l                10024b78 f i LIBCMT:_ctype.obj
 0001:00023bd0       __isblank_l                10024bd0 f i LIBCMT:_ctype.obj
 0001:00023c2a       __iscntrl_l                10024c2a f i LIBCMT:_ctype.obj
 0001:00023c7c       __iscsym_l                 10024c7c f i LIBCMT:_ctype.obj
 0001:00023c9d       __iscsymf_l                10024c9d f i LIBCMT:_ctype.obj
 0001:00023cbe       __isdigit_l                10024cbe f i LIBCMT:_ctype.obj
 0001:00023d10       __isgraph_l                10024d10 f i LIBCMT:_ctype.obj
 0001:00023d68       __islower_l                10024d68 f i LIBCMT:_ctype.obj
 0001:00023dba       __isprint_l                10024dba f i LIBCMT:_ctype.obj
 0001:00023e12       __ispunct_l                10024e12 f i LIBCMT:_ctype.obj
 0001:00023e64       __isspace_l                10024e64 f i LIBCMT:_ctype.obj
 0001:00023eb6       __isupper_l                10024eb6 f i LIBCMT:_ctype.obj
 0001:00023f08       __isxdigit_l               10024f08 f i LIBCMT:_ctype.obj
 0001:00023f60       _isalnum                   10024f60 f i LIBCMT:_ctype.obj
 0001:00023f8d       _isalpha                   10024f8d f i LIBCMT:_ctype.obj
 0001:00023fba       _isblank                   10024fba f i LIBCMT:_ctype.obj
 0001:00023fef       _iscntrl                   10024fef f i LIBCMT:_ctype.obj
 0001:0002401a       _isdigit                   1002501a f i LIBCMT:_ctype.obj
 0001:00024045       _isgraph                   10025045 f i LIBCMT:_ctype.obj
 0001:00024072       _islower                   10025072 f i LIBCMT:_ctype.obj
 0001:0002409d       _isprint                   1002509d f i LIBCMT:_ctype.obj
 0001:000240ca       _ispunct                   100250ca f i LIBCMT:_ctype.obj
 0001:000240f5       _isspace                   100250f5 f i LIBCMT:_ctype.obj
 0001:00024120       _isupper                   10025120 f i LIBCMT:_ctype.obj
 0001:0002414b       _isxdigit                  1002514b f i LIBCMT:_ctype.obj
 0001:00024178       __tolower                  10025178 f   LIBCMT:tolower.obj
 0001:00024183       __tolower_l                10025183 f   LIBCMT:tolower.obj
 0001:000242c6       _tolower                   100252c6 f   LIBCMT:tolower.obj
 0001:000242f2       _strcpy_s                  100252f2 f   LIBCMT:strcpy_s.obj
 0001:00024350       _strrchr                   10025350 f   LIBCMT:strrchr.obj
 0001:00024487       __fptostr                  10025487 f   LIBCMT:_fptostr.obj
 0001:00024537       ___crt_atoflt_l            10025537 f   LIBCMT:atodbl.obj
 0001:000245db       __atodbl                   100255db f   LIBCMT:atodbl.obj
 0001:000245f0       __atodbl_l                 100255f0 f   LIBCMT:atodbl.obj
 0001:0002467e       __atoflt                   1002567e f   LIBCMT:atodbl.obj
 0001:00024693       __atoflt_l                 10025693 f   LIBCMT:atodbl.obj
 0001:000246ab       __atoldbl                  100256ab f   LIBCMT:atodbl.obj
 0001:000246c0       __atoldbl_l                100256c0 f   LIBCMT:atodbl.obj
 0001:0002474f       ___dtold                   1002574f f   LIBCMT:cfout.obj
 0001:00024817       __fltout2                  10025817 f   LIBCMT:cfout.obj
 0001:000248b0       __alldvrm                  100258b0 f   LIBCMT:lldvrm.obj
 0001:00024990       __aullshr                  10025990 f   LIBCMT:ullshr.obj
 0001:000249af       __get_output_format        100259af f   LIBCMT:outputformat.obj
 0001:000249b5       __set_output_format        100259b5 f   LIBCMT:outputformat.obj
 0001:000249e7       __controlfp_s              100259e7 f   LIBCMT:contrlfp.obj
 0001:00024a44       __fptrap                   10025a44 f   LIBCMT:crt0fp.obj
 0001:00024a4d       __msize                    10025a4d f   LIBCMT:msize.obj
 0001:00024a7e       __recalloc                 10025a7e f   LIBCMT:recalloc.obj
 0001:00024ae7       _strncpy_s                 10025ae7 f   LIBCMT:strncpy_s.obj
 0001:00024c6f       __MallocaIsSizeInRange     10025c6f f i LIBCMT:a_loc.obj
 0001:00024c80       __MarkAllocaS              10025c80 f i LIBCMT:a_loc.obj
 0001:00024c94       ___crtGetLocaleInfoA       10025c94 f   LIBCMT:a_loc.obj
 0001:00024cce       __freea                    10025cce f i LIBCMT:a_loc.obj
 0001:00024cec       _GetTableIndexFromLcid     10025cec f   LIBCMT:winapinls.obj
 0001:00024d21       _GetTableIndexFromLocaleName 10025d21 f   LIBCMT:winapinls.obj
 0001:00024d6f       ___crtCompareStringEx      10025d6f f   LIBCMT:winapinls.obj
 0001:00024dbb       ___crtDownlevelLCIDToLocaleName 10025dbb f   LIBCMT:winapinls.obj
 0001:00024e37       ___crtDownlevelLocaleNameToLCID 10025e37 f   LIBCMT:winapinls.obj
 0001:00024e75       ___crtEnumSystemLocalesEx  10025e75 f   LIBCMT:winapinls.obj
 0001:00024eb2       ___crtGetDateFormatEx      10025eb2 f   LIBCMT:winapinls.obj
 0001:00024efb       ___crtGetLocaleInfoEx      10025efb f   LIBCMT:winapinls.obj
 0001:00024f2a       ___crtGetTimeFormatEx      10025f2a f   LIBCMT:winapinls.obj
 0001:00024f5f       ___crtGetUserDefaultLocaleName 10025f5f f   LIBCMT:winapinls.obj
 0001:00024f8a       ___crtIsValidLocaleName    10025f8a f   LIBCMT:winapinls.obj
 0001:00024fb5       ___crtLCMapStringEx        10025fb5 f   LIBCMT:winapinls.obj
 0001:00025001       ___wcsnicmp_ascii          10026001 f   LIBCMT:winapinls.obj
 0001:00025293       ___crtLCMapStringA         10026293 f   LIBCMT:a_map.obj
 0001:000253d1       ___crtGetStringTypeA       100263d1 f   LIBCMT:a_str.obj
 0001:00025411       __commit                   10026411 f   LIBCMT:commit.obj
 0001:000254fa       ___lock_fhandle            100264fa f   LIBCMT:osfinfo.obj
 0001:00025588       __alloc_osfhnd             10026588 f   LIBCMT:osfinfo.obj
 0001:00025731       __free_osfhnd              10026731 f   LIBCMT:osfinfo.obj
 0001:000257b7       __get_osfhandle            100267b7 f   LIBCMT:osfinfo.obj
 0001:0002581e       __open_osfhandle           1002681e f   LIBCMT:osfinfo.obj
 0001:00025934       __set_osfhnd               10026934 f   LIBCMT:osfinfo.obj
 0001:000259b6       __unlock_fhandle           100269b6 f   LIBCMT:osfinfo.obj
 0001:000259dc       __open                     100269dc f   LIBCMT:open.obj
 0001:00025a8c       __sopen                    10026a8c f   LIBCMT:open.obj
 0001:00025abf       __sopen_helper             10026abf f   LIBCMT:open.obj
 0001:00025b88       __sopen_nolock             10026b88 f   LIBCMT:open.obj
 0001:00025bd6       __sopen_s                  10026bd6 f   LIBCMT:open.obj
 0001:00025bf4       __mbsnbcmp                 10026bf4 f   LIBCMT:mbsnbcmp.obj
 0001:00025c0c       __mbsnbcmp_l               10026c0c f   LIBCMT:mbsnbcmp.obj
 0001:00025d23       __mbsnbicmp                10026d23 f   LIBCMT:mbsnbicm.obj
 0001:00025d3b       __mbsnbicmp_l              10026d3b f   LIBCMT:mbsnbicm.obj
 0001:00025f00       __global_unwind2           10026f00 f   LIBCMT:exsup.obj
 0001:00025f65       __local_unwind2            10026f65 f   LIBCMT:exsup.obj
 0001:00025fe9       __abnormal_termination     10026fe9 f   LIBCMT:exsup.obj
 0001:0002600c       __NLG_Notify1              1002700c f   LIBCMT:exsup.obj
 0001:00026015       __NLG_Notify               10027015 f   LIBCMT:exsup.obj
 0001:0002602c       __NLG_Dispatch2            1002702c     LIBCMT:exsup.obj
 0001:0002602c       __NLG_Dispatch             1002702c     LIBCMT:exsup.obj
 0001:00026034       __NLG_Call                 10027034 f   LIBCMT:exsup.obj
 0001:00026036       __NLG_Return2              10027036     LIBCMT:exsup.obj
 0001:00026037       __getbuf                   10027037 f   LIBCMT:_getbuf.obj
 0001:0002607d       __lseeki64                 1002707d f   LIBCMT:lseeki64.obj
 0001:00026179       __lseeki64_nolock          10027179 f   LIBCMT:lseeki64.obj
 0001:000261ec       __mbtowc_l                 100271ec f   LIBCMT:mbtowc.obj
 0001:000262e1       _mbtowc                    100272e1 f   LIBCMT:mbtowc.obj
 0001:000262f9       __putwch                   100272f9 f   LIBCMT:putwch.obj
 0001:00026345       __putwch_nolock            10027345 f   LIBCMT:putwch.obj
 0001:00026390       __chkstk                   10027390 f   LIBCMT:chkstk.obj
 0001:00026390       __alloca_probe             10027390 f   LIBCMT:chkstk.obj
 0001:000263bb       __vfwprintf_l              100273bb f   LIBCMT:vfwprint.obj
 0001:000263d9       __vfwprintf_p              100273d9 f   LIBCMT:vfwprint.obj
 0001:000263f6       __vfwprintf_p_l            100273f6 f   LIBCMT:vfwprint.obj
 0001:00026414       __vfwprintf_s_l            10027414 f   LIBCMT:vfwprint.obj
 0001:00026432       _vfwprintf                 10027432 f   LIBCMT:vfwprint.obj
 0001:0002644f       _vfwprintf_helper          1002744f f   LIBCMT:vfwprint.obj
 0001:000264e2       _vfwprintf_s               100274e2 f   LIBCMT:vfwprint.obj
 0001:000264ff       __woutput_l                100274ff f   LIBCMT:woutput.obj
 0001:000271de       __woutput_s_l              100281de f   LIBCMT:woutputs.obj
 0001:00027ef5       __validate_param_reuseW    10028ef5 f   LIBCMT:woutputp.obj
 0001:0002806d       __woutput_p_l              1002906d f   LIBCMT:woutputp.obj
 0001:00029496       __ismbbalnum               1002a496 f   LIBCMT:ismbbyte.obj
 0001:000294af       __ismbbalnum_l             1002a4af f   LIBCMT:ismbbyte.obj
 0001:000294c9       __ismbbalpha               1002a4c9 f   LIBCMT:ismbbyte.obj
 0001:000294e2       __ismbbalpha_l             1002a4e2 f   LIBCMT:ismbbyte.obj
 0001:000294fc       __ismbbblank               1002a4fc f   LIBCMT:ismbbyte.obj
 0001:0002951d       __ismbbblank_l             1002a51d f   LIBCMT:ismbbyte.obj
 0001:0002953f       __ismbbgraph               1002a53f f   LIBCMT:ismbbyte.obj
 0001:00029558       __ismbbgraph_l             1002a558 f   LIBCMT:ismbbyte.obj
 0001:00029572       __ismbbkalnum              1002a572 f   LIBCMT:ismbbyte.obj
 0001:00029588       __ismbbkalnum_l            1002a588 f   LIBCMT:ismbbyte.obj
 0001:0002959f       __ismbbkana                1002a59f f   LIBCMT:ismbbyte.obj
 0001:000295b0       __ismbbkana_l              1002a5b0 f   LIBCMT:ismbbyte.obj
 0001:000295fc       __ismbbkprint              1002a5fc f   LIBCMT:ismbbyte.obj
 0001:00029612       __ismbbkprint_l            1002a612 f   LIBCMT:ismbbyte.obj
 0001:00029629       __ismbbkpunct              1002a629 f   LIBCMT:ismbbyte.obj
 0001:0002963f       __ismbbkpunct_l            1002a63f f   LIBCMT:ismbbyte.obj
 0001:00029656       __ismbblead                1002a656 f   LIBCMT:ismbbyte.obj
 0001:0002966c       __ismbblead_l              1002a66c f   LIBCMT:ismbbyte.obj
 0001:00029683       __ismbbprint               1002a683 f   LIBCMT:ismbbyte.obj
 0001:0002969c       __ismbbprint_l             1002a69c f   LIBCMT:ismbbyte.obj
 0001:000296b6       __ismbbpunct               1002a6b6 f   LIBCMT:ismbbyte.obj
 0001:000296cc       __ismbbpunct_l             1002a6cc f   LIBCMT:ismbbyte.obj
 0001:000296e3       __ismbbtrail               1002a6e3 f   LIBCMT:ismbbyte.obj
 0001:000296f9       __ismbbtrail_l             1002a6f9 f   LIBCMT:ismbbyte.obj
 0001:00029936       __strtol_l                 1002a936 f   LIBCMT:strtol.obj
 0001:00029951       __strtoul_l                1002a951 f   LIBCMT:strtol.obj
 0001:0002996c       _strtol                    1002a96c f   LIBCMT:strtol.obj
 0001:00029996       _strtoul                   1002a996 f   LIBCMT:strtol.obj
 0001:000299c0       ___free_lconv_mon          1002a9c0 f   LIBCMT:initmon.obj
 0001:00029abc       ___init_monetary           1002aabc f   LIBCMT:initmon.obj
 0001:00029e95       ___free_lconv_num          1002ae95 f   LIBCMT:initnum.obj
 0001:00029efc       ___init_numeric            1002aefc f   LIBCMT:initnum.obj
 0001:0002a13a       ___free_lc_time            1002b13a f   LIBCMT:inittime.obj
 0001:0002a4ba       ___init_time               1002b4ba f   LIBCMT:inittime.obj
 0001:0002ad29       _localeconv                1002bd29 f   LIBCMT:lconv.obj
 0001:0002ad4f       __iswctype_l               1002bd4f f   LIBCMT:iswctype.obj
 0001:0002ad61       _is_wctype                 1002bd61 f   LIBCMT:iswctype.obj
 0001:0002ad6a       _iswctype                  1002bd6a f   LIBCMT:iswctype.obj
 0001:0002adc0       ____lc_codepage_func       1002bdc0 f   LIBCMT:initctyp.obj
 0001:0002ade6       ____lc_collate_cp_func     1002bde6 f   LIBCMT:initctyp.obj
 0001:0002ae0c       ____lc_locale_name_func    1002be0c f   LIBCMT:initctyp.obj
 0001:0002ae34       ____mb_cur_max_func        1002be34 f   LIBCMT:initctyp.obj
 0001:0002ae5a       ____mb_cur_max_l_func      1002be5a f   LIBCMT:initctyp.obj
 0001:0002ae71       ___init_ctype              1002be71 f   LIBCMT:initctyp.obj
 0001:0002b209       ___pctype_func             1002c209 f   LIBCMT:ctype.obj
 0001:0002b232       ___pwctype_func            1002c232 f   LIBCMT:ctype.obj
 0001:0002b238       __isctype                  1002c238 f   LIBCMT:isctype.obj
 0001:0002b267       __isctype_l                1002c267 f   LIBCMT:isctype.obj
 0001:0002b318       ___init_dummy              1002c318 f   LIBCMT:wsetloca.obj
 0001:0002b31b       __locterm                  1002c31b f   LIBCMT:wsetloca.obj
 0001:0002b36d       ____setlc_active_func      1002c36d f   LIBCMT:wsetloca.obj
 0001:0002b373       ____unguarded_readlc_active_add_func 1002c373 f   LIBCMT:wsetloca.obj
 0001:0002b379       ___copy_locale_name        1002c379 f   LIBCMT:wsetloca.obj
 0001:0002b3dd       ___create_locale           1002c3dd f   LIBCMT:wsetloca.obj
 0001:0002b3e6       ___free_locale             1002c3e6 f   LIBCMT:wsetloca.obj
 0001:0002b3eb       ___get_current_locale      1002c3eb f   LIBCMT:wsetloca.obj
 0001:0002b3f0       ___lc_lctowcs              1002c3f0 f   LIBCMT:wsetloca.obj
 0001:0002b45e       ___lc_wcstolc              1002c45e f   LIBCMT:wsetloca.obj
 0001:0002b58a       __configthreadlocale       1002c58a f   LIBCMT:wsetloca.obj
 0001:0002b610       __create_locale            1002c610 f   LIBCMT:wsetloca.obj
 0001:0002b672       __expandlocale             1002c672 f   LIBCMT:wsetloca.obj
 0001:0002b969       __free_locale              1002c969 f   LIBCMT:wsetloca.obj
 0001:0002ba20       __get_current_locale       1002ca20 f   LIBCMT:wsetloca.obj
 0001:0002bacf       __wcreate_locale           1002cacf f   LIBCMT:wsetloca.obj
 0001:0002bba6       __wcscats                  1002cba6 f   LIBCMT:wsetloca.obj
 0001:0002bbe5       __wsetlocale               1002cbe5 f   LIBCMT:wsetloca.obj
 0001:0002c527       __CopyMan                  1002d527 f i LIBCMT:intrncvt.obj
 0001:0002c544       __FillZeroMan              1002d544 f i LIBCMT:intrncvt.obj
 0001:0002c553       __IncMan                   1002d553 f i LIBCMT:intrncvt.obj
 0001:0002c5b5       __IsZeroMan                1002d5b5 f i LIBCMT:intrncvt.obj
 0001:0002c5d2       __RoundMan                 1002d5d2 f i LIBCMT:intrncvt.obj
 0001:0002c6d3       __ShrMan                   1002d6d3 f i LIBCMT:intrncvt.obj
 0001:0002c761       __ZeroTail                 1002d761 f i LIBCMT:intrncvt.obj
 0001:0002c7a9       ___addl                    1002d7a9 f i LIBCMT:intrncvt.obj
 0001:0002c7cd       __ld12cvt                  1002d7cd f i LIBCMT:intrncvt.obj
 0001:0002cd38       __ld12tod                  1002dd38 f   LIBCMT:intrncvt.obj
 0001:0002d2aa       __ld12tof                  1002e2aa f   LIBCMT:intrncvt.obj
 0001:0002d81c       __ld12told                 1002e81c f   LIBCMT:intrncvt.obj
 0001:0002d8eb       ___STRINGTOLD_L            1002e8eb f   LIBCMT:strgtold.obj
 0001:0002d946       ___ld12mul                 1002e946 f i LIBCMT:strgtold.obj
 0001:0002dc12       ___multtenpow12            1002ec12 f i LIBCMT:strgtold.obj
 0001:0002df65       ___shl_12                  1002ef65 f i LIBCMT:strgtold.obj
 0001:0002df96       ___shr_12                  1002ef96 f i LIBCMT:strgtold.obj
 0001:0002dfc6       ___strgtold12_l            1002efc6 f   LIBCMT:strgtold.obj
 0001:0002e76e       _$I10_OUTPUT               1002f76e f   LIBCMT:x10fout.obj
 0001:0002f142       ___add_12                  10030142 f i LIBCMT:x10fout.obj
 0001:0002f2ee       ___control87_2             100302ee f   LIBCMT:ieee87.obj
 0001:0002f962       __clearfp                  10030962 f   LIBCMT:ieee87.obj
 0001:0002fa42       __control87                10030a42 f i LIBCMT:ieee87.obj
 0001:0002fd44       __controlfp                10030d44 f   LIBCMT:ieee87.obj
 0001:0003004f       __fpreset                  1003104f f   LIBCMT:ieee87.obj
 0001:0003011c       __set_controlfp            1003111c f   LIBCMT:ieee87.obj
 0001:0003018f       __statusfp                 1003118f f   LIBCMT:ieee87.obj
 0001:00030229       __statusfp2                10031229 f   LIBCMT:ieee87.obj
 0001:00030290       __alloca_probe_16          10031290 f   LIBCMT:alloca16.obj
 0001:000302a6       __alloca_probe_8           100312a6     LIBCMT:alloca16.obj
 0001:000302bc       _wcsnlen                   100312bc f   LIBCMT:wcslen_s.obj
 0001:00030363       __wopen                    10031363 f   LIBCMT:wopen.obj
 0001:00030413       __wsopen                   10031413 f   LIBCMT:wopen.obj
 0001:00030446       __wsopen_helper            10031446 f   LIBCMT:wopen.obj
 0001:0003050f       __wsopen_nolock            1003150f f   LIBCMT:wopen.obj
 0001:00030c62       __wsopen_s                 10031c62 f   LIBCMT:wopen.obj
 0001:00030c80       _strncmp                   10031c80 f   LIBCMT:strncmp.obj
 0001:00030cf8       __strnicmp                 10031cf8 f   LIBCMT:strnicmp.obj
 0001:00030d63       __strnicmp_l               10031d63 f   LIBCMT:strnicmp.obj
 0001:00030e14       ___termconout              10031e14 f   LIBCMT:initcon.obj
 0001:00030e2b       ___initconout              10031e2b f   LIBCMT:initcon.obj
 0001:00030e4a       __fputwc_nolock            10031e4a f   LIBCMT:fputwc.obj
 0001:00030fd0       _fputwc                    10031fd0 f   LIBCMT:fputwc.obj
 0001:00031047       _putwc                     10032047 f   LIBCMT:fputwc.obj
 0001:00031231       __wcstol_l                 10032231 f   LIBCMT:wcstol.obj
 0001:00031249       __wcstoul_l                10032249 f   LIBCMT:wcstol.obj
 0001:00031261       _wcstol                    10032261 f   LIBCMT:wcstol.obj
 0001:00031279       _wcstoul                   10032279 f   LIBCMT:wcstol.obj
 0001:00031291       ___init_collate            10032291 f   LIBCMT:initcoll.obj
 0001:000313b1       _memcmp                    100323b1 f   LIBCMT:memcmp.obj
 0001:000342c5       _wcscmp                    100352c5 f   LIBCMT:wcscmp.obj
 0001:00034303       _wcscspn                   10035303 f   LIBCMT:wcscspn.obj
 0001:0003434e       _wcsncmp                   1003534e f   LIBCMT:wcsncmp.obj
 0001:00034384       _wcspbrk                   10035384 f   LIBCMT:wcspbrk.obj
 0001:00034988       ___get_qualified_locale    10035988 f   LIBCMT:getqloc.obj
 0001:000351f8       ___get_qualified_locale_downlevel 100361f8 f   LIBCMT:getqloc_downlevel.obj
 0001:00035414       ___mtold12                 10036414 f   LIBCMT:mantold.obj
 0001:000355f4       __chsize                   100365f4 f   LIBCMT:chsize.obj
 0001:0003560e       __chsize_nolock            1003660e f   LIBCMT:chsize.obj
 0001:000357c4       __chsize_s                 100367c4 f   LIBCMT:chsize.obj
 0001:000358b2       __get_fmode                100368b2 f   LIBCMT:setmode.obj
 0001:000358dc       __set_fmode                100368dc f   LIBCMT:setmode.obj
 0001:00035917       __setmode                  10036917 f   LIBCMT:setmode.obj
 0001:00035a1c       __setmode_nolock           10036a1c f   LIBCMT:setmode.obj
 0001:00035af0       ___ascii_strnicmp          10036af0 f   LIBCMT:_strnicm.obj
 0001:00035b51       __flswbuf                  10036b51 f   LIBCMT:_flswbuf.obj
 0001:00035cb3       __wchartodigit             10036cb3 f   LIBCMT:wchtodig.obj
 0001:00035e52       __wtoi                     10036e52 f   LIBCMT:wtox.obj
 0001:00035e5b       __wtoi64                   10036e5b f   LIBCMT:wtox.obj
 0001:00035e6f       __wtoi64_l                 10036e6f f   LIBCMT:wtox.obj
 0001:00035e86       __wtoi_l                   10036e86 f   LIBCMT:wtox.obj
 0001:00035e8f       __wtol                     10036e8f f   LIBCMT:wtox.obj
 0001:00035ea3       __wtol_l                   10036ea3 f   LIBCMT:wtox.obj
 0001:00035eba       __wtoll                    10036eba f   LIBCMT:wtox.obj
 0001:00035ece       __wtoll_l                  10036ece f   LIBCMT:wtox.obj
 0001:00035ee5       _wcschr                    10036ee5 f   LIBCMT:wcschr.obj
 0001:00035f93       __wcsicmp                  10036f93 f   LIBCMT:wcsicmp.obj
 0001:00036026       __wcsicmp_l                10037026 f   LIBCMT:wcsicmp.obj
 0001:00036101       __wcsnicmp                 10037101 f   LIBCMT:wcsnicmp.obj
 0001:000361b7       __wcsnicmp_l               100371b7 f   LIBCMT:wcsnicmp.obj
 0001:00036580       __wcstof_l                 10037580 f   LIBCMT:wcstoq.obj
 0001:00036633       __wcstoi64                 10037633 f   LIBCMT:wcstoq.obj
 0001:0003665d       __wcstoi64_l               1003765d f   LIBCMT:wcstoq.obj
 0001:00036678       __wcstoimax_l              10037678 f   LIBCMT:wcstoq.obj
 0001:00036681       __wcstold_l                10037681 f   LIBCMT:wcstoq.obj
 0001:0003668a       __wcstoll_l                1003768a f   LIBCMT:wcstoq.obj
 0001:00036693       __wcstoui64                10037693 f   LIBCMT:wcstoq.obj
 0001:000366bd       __wcstoui64_l              100376bd f   LIBCMT:wcstoq.obj
 0001:000366d8       __wcstoull_l               100376d8 f   LIBCMT:wcstoq.obj
 0001:000366e1       __wcstoumax_l              100376e1 f   LIBCMT:wcstoq.obj
 0001:000366ea       _wcstof                    100376ea f   LIBCMT:wcstoq.obj
 0001:000366ff       _wcstoimax                 100376ff f   LIBCMT:wcstoq.obj
 0001:00036708       _wcstold                   10037708 f   LIBCMT:wcstoq.obj
 0001:00036711       _wcstoll                   10037711 f   LIBCMT:wcstoq.obj
 0001:0003671a       _wcstoull                  1003771a f   LIBCMT:wcstoq.obj
 0001:00036723       _wcstoumax                 10037723 f   LIBCMT:wcstoq.obj
 0001:0003672c       __towlower_l               1003772c f   LIBCMT:towlower.obj
 0001:000367dd       _towlower                  100377dd f   LIBCMT:towlower.obj
 0001:000367ee       __wcstod_l                 100377ee f   LIBCMT:wcstod.obj
 0001:000368e9       _wcstod                    100378e9 f   LIBCMT:wcstod.obj
 0001:00036900       __allmul                   10037900 f   LIBCMT:llmul.obj
 0001:00036934       ___crtLCMapStringW         10037934 f   LIBCMT:w_map.obj
 0001:00036963       __wfltin2                  10037963 f   LIBCMT:wcfin.obj
 0001:00036a10       ___WSTRINGTOLD_L           10037a10 f   LIBCMT:wstrgtold.obj
 0001:00036a6b       ___wstrgtold12_l           10037a6b f   LIBCMT:wstrgtold.obj
 0001:000372bc       _GetModuleHandleA@4        100382bc f   kernel32:KERNEL32.dll
 0001:000372c2       _GetProcAddress@8          100382c2 f   kernel32:KERNEL32.dll
 0001:000372c8       _HeapAlloc@12              100382c8 f   kernel32:KERNEL32.dll
 0001:000372ce       _IsDebuggerPresent@0       100382ce f   kernel32:KERNEL32.dll
 0001:000372d4       _IsProcessorFeaturePresent@4 100382d4 f   kernel32:KERNEL32.dll
 0001:000372da       _EncodePointer@4           100382da f   kernel32:KERNEL32.dll
 0001:000372e0       _DecodePointer@4           100382e0 f   kernel32:KERNEL32.dll
 0001:000372e6       _GetLastError@0            100382e6 f   kernel32:KERNEL32.dll
 0001:000372ec       _ExitProcess@4             100382ec f   kernel32:KERNEL32.dll
 0001:000372f2       _GetModuleHandleExW@12     100382f2 f   kernel32:KERNEL32.dll
 0001:000372f8       _AreFileApisANSI@0         100382f8 f   kernel32:KERNEL32.dll
 0001:000372fe       _MultiByteToWideChar@24    100382fe f   kernel32:KERNEL32.dll
 0001:00037304       _WideCharToMultiByte@32    10038304 f   kernel32:KERNEL32.dll
 0001:0003730a       _HeapFree@12               1003830a f   kernel32:KERNEL32.dll
 0001:00037310       _HeapReAlloc@16            10038310 f   kernel32:KERNEL32.dll
 0001:00037316       _EnterCriticalSection@4    10038316 f   kernel32:KERNEL32.dll
 0001:0003731c       _LeaveCriticalSection@4    1003831c f   kernel32:KERNEL32.dll
 0001:00037322       _GetStdHandle@4            10038322 f   kernel32:KERNEL32.dll
 0001:00037328       _GetFileType@4             10038328 f   kernel32:KERNEL32.dll
 0001:0003732e       _GetModuleFileNameW@12     1003832e f   kernel32:KERNEL32.dll
 0001:00037334       _WriteConsoleW@20          10038334 f   kernel32:KERNEL32.dll
 0001:0003733a       _GetCommandLineA@0         1003833a f   kernel32:KERNEL32.dll
 0001:00037340       _GetCurrentThreadId@0      10038340 f   kernel32:KERNEL32.dll
 0001:00037346       _WriteFile@20              10038346 f   kernel32:KERNEL32.dll
 0001:0003734c       _GetProcessHeap@0          1003834c f   kernel32:KERNEL32.dll
 0001:00037352       _RaiseException@16         10038352 f   kernel32:KERNEL32.dll
 0001:00037358       _UnhandledExceptionFilter@4 10038358 f   kernel32:KERNEL32.dll
 0001:0003735e       _SetUnhandledExceptionFilter@4 1003835e f   kernel32:KERNEL32.dll
 0001:00037364       _SetLastError@4            10038364 f   kernel32:KERNEL32.dll
 0001:0003736a       _InitializeCriticalSectionAndSpinCount@8 1003836a f   kernel32:KERNEL32.dll
 0001:00037370       _CreateEventW@16           10038370 f   kernel32:KERNEL32.dll
 0001:00037376       _Sleep@4                   10038376 f   kernel32:KERNEL32.dll
 0001:0003737c       _GetCurrentProcess@0       1003837c f   kernel32:KERNEL32.dll
 0001:00037382       _TerminateProcess@8        10038382 f   kernel32:KERNEL32.dll
 0001:00037388       _TlsAlloc@0                10038388 f   kernel32:KERNEL32.dll
 0001:0003738e       _TlsGetValue@4             1003838e f   kernel32:KERNEL32.dll
 0001:00037394       _TlsSetValue@8             10038394 f   kernel32:KERNEL32.dll
 0001:0003739a       _TlsFree@4                 1003839a f   kernel32:KERNEL32.dll
 0001:000373a0       _GetStartupInfoW@4         100383a0 f   kernel32:KERNEL32.dll
 0001:000373a6       _GetTickCount@0            100383a6 f   kernel32:KERNEL32.dll
 0001:000373ac       _GetModuleHandleW@4        100383ac f   kernel32:KERNEL32.dll
 0001:000373b2       _CreateSemaphoreW@16       100383b2 f   kernel32:KERNEL32.dll
 0001:000373b8       _DeleteCriticalSection@4   100383b8 f   kernel32:KERNEL32.dll
 0001:000373be       _FatalAppExitA@8           100383be f   kernel32:KERNEL32.dll
 0001:000373c4       _SetConsoleCtrlHandler@8   100383c4 f   kernel32:KERNEL32.dll
 0001:000373ca       _FreeLibrary@4             100383ca f   kernel32:KERNEL32.dll
 0001:000373d0       _LoadLibraryExW@12         100383d0 f   kernel32:KERNEL32.dll
 0001:000373d6       _IsValidCodePage@4         100383d6 f   kernel32:KERNEL32.dll
 0001:000373dc       _GetACP@0                  100383dc f   kernel32:KERNEL32.dll
 0001:000373e2       _GetOEMCP@0                100383e2 f   kernel32:KERNEL32.dll
 0001:000373e8       _GetCPInfo@8               100383e8 f   kernel32:KERNEL32.dll
 0001:000373ee       _CloseHandle@4             100383ee f   kernel32:KERNEL32.dll
 0001:000373f4       _RtlUnwind@16              100383f4 f   kernel32:KERNEL32.dll
 0001:000373fa       _ReadFile@20               100383fa f   kernel32:KERNEL32.dll
 0001:00037400       _GetConsoleMode@8          10038400 f   kernel32:KERNEL32.dll
 0001:00037406       _ReadConsoleW@20           10038406 f   kernel32:KERNEL32.dll
 0001:0003740c       _GetConsoleCP@0            1003840c f   kernel32:KERNEL32.dll
 0001:00037412       _DeleteFileW@4             10038412 f   kernel32:KERNEL32.dll
 0001:00037418       _SetFilePointerEx@20       10038418 f   kernel32:KERNEL32.dll
 0001:0003741e       _OutputDebugStringW@4      1003841e f   kernel32:KERNEL32.dll
 0001:00037424       _GetCurrentThread@0        10038424 f   kernel32:KERNEL32.dll
 0001:0003742a       _GetModuleFileNameA@12     1003842a f   kernel32:KERNEL32.dll
 0001:00037430       _QueryPerformanceCounter@4 10038430 f   kernel32:KERNEL32.dll
 0001:00037436       _GetCurrentProcessId@0     10038436 f   kernel32:KERNEL32.dll
 0001:0003743c       _GetSystemTimeAsFileTime@4 1003843c f   kernel32:KERNEL32.dll
 0001:00037442       _GetEnvironmentStringsW@0  10038442 f   kernel32:KERNEL32.dll
 0001:00037448       _FreeEnvironmentStringsW@4 10038448 f   kernel32:KERNEL32.dll
 0001:0003744e       _HeapSize@12               1003844e f   kernel32:KERNEL32.dll
 0001:00037454       _GetDateFormatW@24         10038454 f   kernel32:KERNEL32.dll
 0001:0003745a       _GetTimeFormatW@24         1003845a f   kernel32:KERNEL32.dll
 0001:00037460       _CompareStringW@24         10038460 f   kernel32:KERNEL32.dll
 0001:00037466       _LCMapStringW@24           10038466 f   kernel32:KERNEL32.dll
 0001:0003746c       _GetLocaleInfoW@16         1003846c f   kernel32:KERNEL32.dll
 0001:00037472       _IsValidLocale@8           10038472 f   kernel32:KERNEL32.dll
 0001:00037478       _GetUserDefaultLCID@0      10038478 f   kernel32:KERNEL32.dll
 0001:0003747e       _EnumSystemLocalesW@8      1003847e f   kernel32:KERNEL32.dll
 0001:00037484       _GetStringTypeW@16         10038484 f   kernel32:KERNEL32.dll
 0001:0003748a       _FlushFileBuffers@4        1003848a f   kernel32:KERNEL32.dll
 0001:00037490       _SetStdHandle@8            10038490 f   kernel32:KERNEL32.dll
 0001:00037496       _CreateFileW@28            10038496 f   kernel32:KERNEL32.dll
 0001:0003749c       _SetEndOfFile@4            1003849c f   kernel32:KERNEL32.dll
 0002:00000000       ___xc_a                    10043000     LIBCMT:crt0init.obj
 0002:00000104       ___xc_z                    10043104     LIBCMT:crt0init.obj
 0002:00000208       ___xi_a                    10043208     LIBCMT:crt0init.obj
 0002:00000420       ___xi_z                    10043420     LIBCMT:crt0init.obj
 0002:00000524       ___xp_a                    10043524     LIBCMT:crt0init.obj
 0002:00000838       ___xp_z                    10043838     LIBCMT:crt0init.obj
 0002:0000093c       ___xt_a                    1004393c     LIBCMT:crt0init.obj
 0002:00000a40       ___xt_z                    10043a40     LIBCMT:crt0init.obj
 0002:00000b88       _Pos_PID_M                 10043b88     Pos_PID.obj
 0002:00000b8c       ??_C@_0BI@PEBACBDB@Error?5creating?5scope?53?6?$AA@ 10043b8c     Pos_PID.obj
 0002:00000ba8       ??_C@_0BH@EKMHGNPN@X_Encoder?1count_to_mm1?$AA@ 10043ba8     Pos_PID.obj
 0002:00000bc4       ??_C@_0BI@PHJEPFFP@Error?5creating?5scope?51?6?$AA@ 10043bc4     Pos_PID.obj
 0002:00000be0       ??_C@_09LIAEOFKL@Xdata?4dat?$AA@ 10043be0     Pos_PID.obj
 0002:00000bec       ??_C@_0BI@PCNLODNK@Error?5creating?5scope?56?6?$AA@ 10043bec     Pos_PID.obj
 0002:00000c08       ??_C@_0BH@HFJGCGKD@Y_encoder?5?1count_to_mm?$AA@ 10043c08     Pos_PID.obj
 0002:00000c24       ??_C@_0BI@PBFPDHLE@Error?5creating?5scope?54?6?$AA@ 10043c24     Pos_PID.obj
 0002:00000c40       ??_C@_09FHMGIOJF@Ydata?4dat?$AA@ 10043c40     Pos_PID.obj
 0002:00000c4c       ??_C@_0BI@PDBJIJON@Error?5creating?5scope?57?6?$AA@ 10043c4c     Pos_PID.obj
 0002:00000c68       ??_C@_0BG@HNLKCFNF@Z_encoder?1count_to_mm?$AA@ 10043c68     Pos_PID.obj
 0002:00000c84       ??_C@_0BI@PJIHKEOH@Error?5creating?5scope?59?6?$AA@ 10043c84     Pos_PID.obj
 0002:00000ca0       ??_C@_09LMPBDFJG@Zdata?4dat?$AA@ 10043ca0     Pos_PID.obj
 0002:00000cac       ??_C@_0BI@PFNCELAG@Error?5creating?5scope?52?6?$AA@ 10043cac     Pos_PID.obj
 0002:00000cc8       ??_C@_0CB@DEJHGMOB@X?5Position?5Input?1X?5Matrix?5output@ 10043cc8     Pos_PID.obj
 0002:00000cf0       ??_C@_0BH@HHCKIBF@Deadband?5pulse?5counter?$AA@ 10043cf0     Pos_PID.obj
 0002:00000d0c       ??_C@_0CJ@CNFALNBF@Z?5Position?5signal?1Deadband?5pulse@ 10043d0c     Pos_PID.obj
 0002:00000d40       ??_C@_0CJ@MOBJAKLH@Y?5Position?5signal?1Deadband?5pulse@ 10043d40     Pos_PID.obj
 0002:00000d74       ??_C@_0BF@GGMNNFDC@Data?5Type?5Conversion?$AA@ 10043d74     Pos_PID.obj
 0002:00000d90       ??_C@_0BI@PAJNFNID@Error?5creating?5scope?55?6?$AA@ 10043d90     Pos_PID.obj
 0002:00000dac       ??_C@_07FDDKLPMO@var?4dat?$AA@ 10043dac     Pos_PID.obj
 0002:00000db8       ??_C@_04GDMNHCBG@ode4?$AA@ 10043db8     Pos_PID.obj
 0002:00000dc0       ??_C@_04EPKDLPPB@tout?$AA@ 10043dc0     Pos_PID.obj
 0002:00000dc6       ??_C@_00CNPNBAHC@?$AA@     10043dc6     Pos_PID.obj
 0002:00000dc8       ??_C@_03HBFGMJOD@rt_?$AA@  10043dc8     Pos_PID.obj
 0002:00000dcc       ??_C@_0BA@ILODDMJB@CNT32?98M?$CIPCI?$CJ?52?$AA@ 10043dcc     Pos_PID.obj
 0002:00000de0       ??_C@_0CC@KLPMAOFI@Pos_PID?1X_Encoder?1CNT32?98M?$CIPCI?$CJ?5@ 10043de0     Pos_PID.obj
 0002:00000e08       ??_C@_0BA@KAMOGPFC@CNT32?98M?$CIPCI?$CJ?51?$AA@ 10043e08     Pos_PID.obj
 0002:00000e1c       ??_C@_0CD@KHPOEAEG@Pos_PID?1Y_encoder?5?1CNT32?98M?$CIPCI?$CJ@ 10043e1c     Pos_PID.obj
 0002:00000e48       ??_C@_0CC@GLENOIIO@Pos_PID?1Z_encoder?1CNT32?98M?$CIPCI?$CJ?5@ 10043e48     Pos_PID.obj
 0002:00000e70       ??_C@_0O@GDKFENNN@PCI?9DDA08?512?5?$AA@ 10043e70     Pos_PID.obj
 0002:00000e80       ??_C@_0BG@KFNANGEK@Pos_PID?1PCI?9DDA08?512?5?$AA@ 10043e80     Pos_PID.obj
 0002:00000e9c       ??_C@_0BA@OBLCOPFK@PCI?9DDA?508?512?54?$AA@ 10043e9c     Pos_PID.obj
 0002:00000eb0       ??_C@_0CM@MAOPNPGA@Pos_PID?1X?5output?5processing?1PCI?9@ 10043eb0     Pos_PID.obj
 0002:00000ee4       ??_C@_0BA@KOPDHJJN@PCI?9DDA?508?512?53?$AA@ 10043ee4     Pos_PID.obj
 0002:00000ef8       ??_C@_0CM@BKNOJNDC@Pos_PID?1Y?5output?5processing?1PCI?9@ 10043ef8     Pos_PID.obj
 0002:00000f2c       ??_C@_0P@MGKGOBE@PCI?9DDA08?512?53?$AA@ 10043f2c     Pos_PID.obj
 0002:00000f40       ??_C@_0CL@KBODMIPB@Pos_PID?1Z?5output?5processing?1PCI?9@ 10043f40     Pos_PID.obj
 0002:00000f74       ??_C@_0BA@JMMFBLBP@PCI?9DDA?508?512?51?$AA@ 10043f74     Pos_PID.obj
 0002:00000f88       ??_C@_0CM@EMAIIEEO@Pos_PID?1Z?5output?5processing?1PCI?9@ 10043f88     Pos_PID.obj
 0002:00000fbc       ??_C@_09JLALMMJD@Receive?51?$AA@ 10043fbc     Pos_PID.obj
 0002:00000fc8       ??_C@_0CC@NCKFNJDB@Pos_PID?1Force?5Subsystem?1Receive?5@ 10043fc8     Pos_PID.obj
 0002:00000ff0       __real@3f50624dd2f1a9fc    10043ff0     Pos_PID.obj
 0002:00001000       __real@3fc5555555555555    10044000     Pos_PID.obj
 0002:00001010       __real@3fe0000000000000    10044010     Pos_PID.obj
 0002:00001020       __real@3ff0000000000000    10044020     Pos_PID.obj
 0002:00001030       __real@4000000000000000    10044030     Pos_PID.obj
 0002:00001040       __real@4008000000000000    10044040     Pos_PID.obj
 0002:00001050       __real@40d86a0000000000    10044050     Pos_PID.obj
 0002:00001060       __real@40dd4bc000000000    10044060     Pos_PID.obj
 0002:00001070       __real@410e848000000000    10044070     Pos_PID.obj
 0002:00001080       __real@41f0000000000000    10044080     Pos_PID.obj
 0002:00001090       __real@bff0000000000000    10044090     Pos_PID.obj
 0002:000010a0       __xmm@000161a90000004c0000006900000002 100440a0     Pos_PID.obj
 0002:000010c0       __xmm@3f50624dd2f1a9fc0000000000000000 100440c0     Pos_PID.obj
 0002:000010e0       __xmm@41f00000000000000000000000000000 100440e0     Pos_PID.obj
 0002:00001100       __xmm@7fffffffffffffff7fffffffffffffff 10044100     Pos_PID.obj
 0002:00001120       __xmm@80000000000000008000000000000000 10044120     Pos_PID.obj
 0002:00002f90       ??_C@_05ELOADNHC@pulse?$AA@ 10045f90     Pos_PID_capi.obj
 0002:00002f98       ??_C@_0BA@IBIFMAKE@Data?5Store?5Read?$AA@ 10045f98     Pos_PID_capi.obj
 0002:00002fac       ??_C@_0BB@BHGHOFID@Data?5Store?5Read1?$AA@ 10045fac     Pos_PID_capi.obj
 0002:00002fc0       ??_C@_0BB@DMEKLGEA@Data?5Store?5Read2?$AA@ 10045fc0     Pos_PID_capi.obj
 0002:00002fd4       ??_C@_03IFGKDPPO@Sum?$AA@  10045fd4     Pos_PID_capi.obj
 0002:00002fd8       ??_C@_04JMNNLCJG@Sum1?$AA@ 10045fd8     Pos_PID_capi.obj
 0002:00002fe0       ??_C@_04LHPAOBFF@Sum2?$AA@ 10045fe0     Pos_PID_capi.obj
 0002:00002fe8       ??_C@_04KOOLNABE@Sum3?$AA@ 10045fe8     Pos_PID_capi.obj
 0002:00002ff0       ??_C@_04DLLHKNK@motY?$AA@  10045ff0     Pos_PID_capi.obj
 0002:00002ff8       ??_C@_04OBKKEGND@Sum4?$AA@ 10045ff8     Pos_PID_capi.obj
 0002:00003000       ??_C@_04PILBHHJC@Sum5?$AA@ 10046000     Pos_PID_capi.obj
 0002:00003008       ??_C@_08IALGIDFE@Z?5enable?$AA@ 10046008     Pos_PID_capi.obj
 0002:00003014       ??_C@_0CB@LCOPODFI@Force?5Subsystem?1Byte?5Unpacking?51@ 10046014     Pos_PID_capi.obj
 0002:0000303c       ??_C@_09GDHNBGIO@orce?5Data?$AA@ 1004603c     Pos_PID_capi.obj
 0002:00003048       ??_C@_0BN@JKENEMCE@Force?5Subsystem?1Receive?51?1p1?$AA@ 10046048     Pos_PID_capi.obj
 0002:0000306c       ??_C@_0BN@LBGABPOH@Force?5Subsystem?1Receive?51?1p2?$AA@ 1004606c     Pos_PID_capi.obj
 0002:00003090       ??_C@_0BP@LILILHGF@PID?5Controller?1Derivative?5Gain?$AA@ 10046090     Pos_PID_capi.obj
 0002:000030b8       ??_C@_0CC@ONNHOEGJ@PID?5Controller?1Filter?5Coefficien@ 100460b8     Pos_PID_capi.obj
 0002:000030e0       ??_C@_0BN@FPDAFOPD@PID?5Controller?1Integral?5Gain?$AA@ 100460e0     Pos_PID_capi.obj
 0002:00003104       ??_C@_0CB@GMJOOHBE@PID?5Controller?1Proportional?5Gain@ 10046104     Pos_PID_capi.obj
 0002:0000312c       ??_C@_0BG@CIMLHIGA@PID?5Controller?1Filter?$AA@ 1004612c     Pos_PID_capi.obj
 0002:00003148       ??_C@_0BK@CDEALJIB@PID?5Controller?1Integrator?$AA@ 10046148     Pos_PID_capi.obj
 0002:00003168       ??_C@_0BD@OOEBONAM@PID?5Controller?1Sum?$AA@ 10046168     Pos_PID_capi.obj
 0002:00003180       ??_C@_0BE@JNENIHMH@PID?5Controller?1SumD?$AA@ 10046180     Pos_PID_capi.obj
 0002:00003198       ??_C@_0CA@JCLCDECD@PID?5Controller1?1Derivative?5Gain?$AA@ 10046198     Pos_PID_capi.obj
 0002:000031c0       ??_C@_0CD@GJLLDHKH@PID?5Controller1?1Filter?5Coefficie@ 100461c0     Pos_PID_capi.obj
 0002:000031ec       ??_C@_0BO@EHDLGDKL@PID?5Controller1?1Integral?5Gain?$AA@ 100461ec     Pos_PID_capi.obj
 0002:00003210       ??_C@_0CC@LOAMPHAH@PID?5Controller1?1Proportional?5Gai@ 10046210     Pos_PID_capi.obj
 0002:00003238       ??_C@_0BH@DDFBBCKN@PID?5Controller1?1Filter?$AA@ 10046238     Pos_PID_capi.obj
 0002:00003254       ??_C@_0BL@ODOMGKNA@PID?5Controller1?1Integrator?$AA@ 10046254     Pos_PID_capi.obj
 0002:00003274       ??_C@_0BE@ELJJHECD@PID?5Controller1?1Sum?$AA@ 10046274     Pos_PID_capi.obj
 0002:0000328c       ??_C@_0BF@DGDJGCAH@PID?5Controller1?1SumD?$AA@ 1004628c     Pos_PID_capi.obj
 0002:000032a8       ??_C@_0CA@HIDEOJEB@PID?5Controller2?1Derivative?5Gain?$AA@ 100462a8     Pos_PID_capi.obj
 0002:000032d0       ??_C@_0CD@BCKFLFEE@PID?5Controller2?1Filter?5Coefficie@ 100462d0     Pos_PID_capi.obj
 0002:000032fc       ??_C@_0BO@GOPDNHFJ@PID?5Controller2?1Integral?5Gain?$AA@ 100462fc     Pos_PID_capi.obj
 0002:00003320       ??_C@_0CC@BBKFLKMN@PID?5Controller2?1Proportional?5Gai@ 10046320     Pos_PID_capi.obj
 0002:00003348       ??_C@_0BH@KNMCOGI@PID?5Controller2?1Filter?$AA@ 10046348     Pos_PID_capi.obj
 0002:00003364       ??_C@_0BL@FOCGAGBO@PID?5Controller2?1Integrator?$AA@ 10046364     Pos_PID_capi.obj
 0002:00003384       ??_C@_0BE@MNANAGIN@PID?5Controller2?1Sum?$AA@ 10046384     Pos_PID_capi.obj
 0002:0000339c       ??_C@_0BF@HNBHIJK@PID?5Controller2?1SumD?$AA@ 1004639c     Pos_PID_capi.obj
 0002:000033b8       ??_C@_0CE@NFIDGPCE@System?5Moving?5Flag?1Logical?5Opera@ 100463b8     Pos_PID_capi.obj
 0002:000033e4       ??_C@_0BL@EGNHNIEG@System?5Moving?5Flag?1Counter?$AA@ 100463e4     Pos_PID_capi.obj
 0002:00003404       ??_C@_0BO@CEPNHLNC@System?5Moving?5Flag?1Unit?5Delay?$AA@ 10046404     Pos_PID_capi.obj
 0002:00003428       ??_C@_0CC@CBBEFAKJ@X?5Position?5Input?1Data?5Store?5Read@ 10046428     Pos_PID_capi.obj
 0002:00003450       ??_C@_0CH@LGODBDAH@X?5Position?5Input?1Data?5Type?5Conve@ 10046450     Pos_PID_capi.obj
 0002:00003480       ??_C@_0CC@BGJDLOAL@X?5Position?5Input?1X?5Matrix?5Counte@ 10046480     Pos_PID_capi.obj
 0002:000034a8       ??_C@_0P@FMGIAIK@X?5Matrix?5index?$AA@ 100464a8     Pos_PID_capi.obj
 0002:000034bc       ??_C@_0BJ@JCBJABNP@X?5output?5processing?1Abs1?$AA@ 100464bc     Pos_PID_capi.obj
 0002:000034dc       ??_C@_08GBPNJCEO@X?5Enable?$AA@ 100464dc     Pos_PID_capi.obj
 0002:000034e8       ??_C@_0BN@ONLBEKCH@X?5output?5processing?1Voltage1?$AA@ 100464e8     Pos_PID_capi.obj
 0002:0000350c       ??_C@_09DAEBENAE@x?5Voltage?$AA@ 1004650c     Pos_PID_capi.obj
 0002:00003518       ??_C@_0BK@HKNLLJPB@X?5output?5processing?1Sign2?$AA@ 10046518     Pos_PID_capi.obj
 0002:00003538       ??_C@_04BKKAELJL@motX?$AA@ 10046538     Pos_PID_capi.obj
 0002:00003540       ??_C@_06HEPCHGOC@X?5Data?$AA@ 10046540     Pos_PID_capi.obj
 0002:00003548       ??_C@_0BK@JCDACHMF@X_Encoder?1CNT32?98M?$CIPCI?$CJ?52?$AA@ 10046548     Pos_PID_capi.obj
 0002:00003568       ??_C@_06JMEOMOEA@counts?$AA@ 10046568     Pos_PID_capi.obj
 0002:00003570       ??_C@_0P@BDAHEJMM@X_Encoder?1Sum3?$AA@ 10046570     Pos_PID_capi.obj
 0002:00003584       ??_C@_0CC@BMINDANO@Y?5Position?5Input?1Data?5Store?5Read@ 10046584     Pos_PID_capi.obj
 0002:000035ac       ??_C@_0CH@OBHBCJOP@Y?5Position?5Input?1Data?5Type?5Conve@ 100465ac     Pos_PID_capi.obj
 0002:000035dc       ??_C@_0CB@KMANGNID@Y?5Position?5Input?1Y?5Matrix?5output@ 100465dc     Pos_PID_capi.obj
 0002:00003604       ??_C@_0CC@LFLHCEHO@Y?5Position?5Input?1Y?5Matrix?5Counte@ 10046604     Pos_PID_capi.obj
 0002:0000362c       ??_C@_0P@LMDNFLGC@Y?5Matrix?5index?$AA@ 1004662c     Pos_PID_capi.obj
 0002:00003640       ??_C@_0BI@BLHECBNB@Y?5output?5processing?1Abs?$AA@ 10046640     Pos_PID_capi.obj
 0002:0000365c       ??_C@_08LJDLLPJB@Y?5enable?$AA@ 1004665c     Pos_PID_capi.obj
 0002:00003668       ??_C@_0BM@FJKCPKKH@Y?5output?5processing?1Voltage?$AA@ 10046668     Pos_PID_capi.obj
 0002:0000368c       ??_C@_09KGGNCPDB@VoltageY?5?$AA@ 1004668c     Pos_PID_capi.obj
 0002:00003698       ??_C@_0BJ@NMLPJIAF@Y?5output?5processing?1Sign?$AA@ 10046698     Pos_PID_capi.obj
 0002:000036b8       ??_C@_06NCIFHNFG@Y?5Data?$AA@ 100466b8     Pos_PID_capi.obj
 0002:000036c0       ??_C@_0BL@CJHJGDJG@Y_encoder?5?1CNT32?98M?$CIPCI?$CJ?51?$AA@ 100466c0     Pos_PID_capi.obj
 0002:000036e0       ??_C@_0BA@CLBLCPNH@Y_encoder?5?1Sum2?$AA@ 100466e0     Pos_PID_capi.obj
 0002:000036f4       ??_C@_0CC@DOEKFFED@Z?5Position?5Input?1Data?5Store?5Read@ 100466f4     Pos_PID_capi.obj
 0002:0000371c       ??_C@_0CH@BJMHGGNH@Z?5Position?5Input?1Data?5Type?5Conve@ 1004671c     Pos_PID_capi.obj
 0002:0000374c       ??_C@_0CB@NONCGIGE@Z?5Position?5Input?1Z?5Matrix?5output@ 1004674c     Pos_PID_capi.obj
 0002:00003774       ??_C@_0BA@MEKFFBDB@Z?5Matrix?5output?$AA@ 10046774     Pos_PID_capi.obj
 0002:00003788       ??_C@_0CC@ILKLIMKA@Z?5Position?5Input?1Z?5Matrix?5Counte@ 10046788     Pos_PID_capi.obj
 0002:000037b0       ??_C@_0P@KNEADBBL@Z?5Matrix?5index?$AA@ 100467b0     Pos_PID_capi.obj
 0002:000037c4       ??_C@_0BJ@CJFCHEEB@Z?5output?5processing?1Abs2?$AA@ 100467c4     Pos_PID_capi.obj
 0002:000037e4       ??_C@_0CJ@FNGJJAF@Z?5output?5processing?1Data?5Type?5Co@ 100467e4     Pos_PID_capi.obj
 0002:00003818       ??_C@_0BN@JDKLKM@Z?5output?5processing?1Voltage2?$AA@ 10046818     Pos_PID_capi.obj
 0002:0000383c       ??_C@_0L@ILKNELCH@Voltage?5Z?5?$AA@ 1004683c     Pos_PID_capi.obj
 0002:0000384c       ??_C@_0CF@PCJIKODN@Z?5output?5processing?1Logical?5Oper@ 1004684c     Pos_PID_capi.obj
 0002:00003878       ??_C@_0CD@FEMILHHP@Z?5output?5processing?1PCI?9DDA08?512@ 10046878     Pos_PID_capi.obj
 0002:000038a4       ??_C@_0BK@EELMKBFN@Z?5output?5processing?1Sign1?$AA@ 100468a4     Pos_PID_capi.obj
 0002:000038c4       ??_C@_06ODGNGHML@Z?5Data?$AA@ 100468c4     Pos_PID_capi.obj
 0002:000038cc       ??_C@_0BK@FCIBMBBD@Z_encoder?1CNT32?98M?$CIPCI?$CJ?51?$AA@ 100468cc     Pos_PID_capi.obj
 0002:000038ec       ??_C@_0P@BBOEICOJ@Z_encoder?1Sum2?$AA@ 100468ec     Pos_PID_capi.obj
 0002:00003900       ??_C@_0BC@HLOAMCHO@Data?5Store?5Memory?$AA@ 10046900     Pos_PID_capi.obj
 0002:00003918       ??_C@_0N@DKJJGJMJ@InitialValue?$AA@ 10046918     Pos_PID_capi.obj
 0002:00003928       ??_C@_0BD@HBJLLLEL@Data?5Store?5Memory1?$AA@ 10046928     Pos_PID_capi.obj
 0002:00003940       ??_C@_0BD@FKLGOIII@Data?5Store?5Memory2?$AA@ 10046940     Pos_PID_capi.obj
 0002:00003958       ??_C@_0BD@EDKNNJMJ@Data?5Store?5Memory3?$AA@ 10046958     Pos_PID_capi.obj
 0002:00003970       ??_C@_0P@DNAGJNE@PID?5Controller?$AA@ 10046970     Pos_PID_capi.obj
 0002:00003984       ??_C@_01NANMIPIL@N?$AA@    10046984     Pos_PID_capi.obj
 0002:00003988       ??_C@_0BA@EHOAMBBG@PID?5Controller1?$AA@ 10046988     Pos_PID_capi.obj
 0002:0000399c       ??_C@_0BA@GMMNJCNF@PID?5Controller2?$AA@ 1004699c     Pos_PID_capi.obj
 0002:000039b0       ??_C@_02KKFPAPOP@P1?$AA@   100469b0     Pos_PID_capi.obj
 0002:000039b4       ??_C@_02IBHCFMCM@P2?$AA@   100469b4     Pos_PID_capi.obj
 0002:000039b8       ??_C@_02JIGJGNGN@P3?$AA@   100469b8     Pos_PID_capi.obj
 0002:000039bc       ??_C@_02NHCIPLKK@P4?$AA@   100469bc     Pos_PID_capi.obj
 0002:000039c0       ??_C@_02MODDMKOL@P5?$AA@   100469c0     Pos_PID_capi.obj
 0002:000039c4       ??_C@_02OFBOJJCI@P6?$AA@   100469c4     Pos_PID_capi.obj
 0002:000039c8       ??_C@_02PMAFKIGJ@P7?$AA@   100469c8     Pos_PID_capi.obj
 0002:000039cc       ??_C@_0BK@OLGJPAKM@Force?5Subsystem?1Receive?51?$AA@ 100469cc     Pos_PID_capi.obj
 0002:000039ec       ??_C@_0BB@CFEOEMDC@InitialCondition?$AA@ 100469ec     Pos_PID_capi.obj
 0002:00003a00       ??_C@_0N@LIAJDDBE@InitialCount?$AA@ 10046a00     Pos_PID_capi.obj
 0002:00003a10       ??_C@_08OOPKMNBD@HitValue?$AA@ 10046a10     Pos_PID_capi.obj
 0002:00003a1c       ??_C@_0CD@DMCJKECE@BreakpointsForDimension1FirstPoi@ 10046a1c     Pos_PID_capi.obj
 0002:00003a48       ??_C@_04OMOMKKFL@Gain?$AA@ 10046a48     Pos_PID_capi.obj
 0002:00003a50       ??_C@_0CE@MKBKFKDI@X?5output?5processing?1PCI?9DDA?508?51@ 10046a50     Pos_PID_capi.obj
 0002:00003a7c       ??_C@_02HLJNLEKG@P8?$AA@   10046a7c     Pos_PID_capi.obj
 0002:00003a80       ??_C@_02GCIGIFOH@P9?$AA@   10046a80     Pos_PID_capi.obj
 0002:00003a84       ??_C@_03OPFJJGBF@P10?$AA@  10046a84     Pos_PID_capi.obj
 0002:00003a88       ??_C@_0BL@CEODHDBK@X_Encoder?1encoder?5offsets2?$AA@ 10046a88     Pos_PID_capi.obj
 0002:00003aa8       ??_C@_05LPIJGKJ@Value?$AA@ 10046aa8     Pos_PID_capi.obj
 0002:00003ab0       ??_C@_03PGECKHFE@P11?$AA@  10046ab0     Pos_PID_capi.obj
 0002:00003ab4       ??_C@_03NNGPPEJH@P12?$AA@  10046ab4     Pos_PID_capi.obj
 0002:00003ab8       ??_C@_03MEHEMFNG@P13?$AA@  10046ab8     Pos_PID_capi.obj
 0002:00003abc       ??_C@_03ILDFFDBB@P14?$AA@  10046abc     Pos_PID_capi.obj
 0002:00003ac0       ??_C@_03JCCOGCFA@P15?$AA@  10046ac0     Pos_PID_capi.obj
 0002:00003ac4       ??_C@_03LJADDBJD@P16?$AA@  10046ac4     Pos_PID_capi.obj
 0002:00003ac8       ??_C@_03KABIAANC@P17?$AA@  10046ac8     Pos_PID_capi.obj
 0002:00003acc       ??_C@_03CHIABMBN@P18?$AA@  10046acc     Pos_PID_capi.obj
 0002:00003ad0       ??_C@_03DOJLCNFM@P19?$AA@  10046ad0     Pos_PID_capi.obj
 0002:00003ad4       ??_C@_03ONBPCIEM@P20?$AA@  10046ad4     Pos_PID_capi.obj
 0002:00003ad8       ??_C@_03PEAEBJAN@P21?$AA@  10046ad8     Pos_PID_capi.obj
 0002:00003adc       ??_C@_03NPCJEKMO@P22?$AA@  10046adc     Pos_PID_capi.obj
 0002:00003ae0       ??_C@_03MGDCHLIP@P23?$AA@  10046ae0     Pos_PID_capi.obj
 0002:00003ae4       ??_C@_03IJHDONEI@P24?$AA@  10046ae4     Pos_PID_capi.obj
 0002:00003ae8       ??_C@_03JAGINMAJ@P25?$AA@  10046ae8     Pos_PID_capi.obj
 0002:00003aec       ??_C@_03LLEFIPMK@P26?$AA@  10046aec     Pos_PID_capi.obj
 0002:00003af0       ??_C@_03KCFOLOIL@P27?$AA@  10046af0     Pos_PID_capi.obj
 0002:00003af4       ??_C@_03CFMGKCEE@P28?$AA@  10046af4     Pos_PID_capi.obj
 0002:00003af8       ??_C@_03DMNNJDAF@P29?$AA@  10046af8     Pos_PID_capi.obj
 0002:00003afc       ??_C@_03OMNNECHL@P30?$AA@  10046afc     Pos_PID_capi.obj
 0002:00003b00       ??_C@_03PFMGHDDK@P31?$AA@  10046b00     Pos_PID_capi.obj
 0002:00003b04       ??_C@_03NOOLCAPJ@P32?$AA@  10046b04     Pos_PID_capi.obj
 0002:00003b08       ??_C@_03MHPABBLI@P33?$AA@  10046b08     Pos_PID_capi.obj
 0002:00003b0c       ??_C@_03IILBIHHP@P34?$AA@  10046b0c     Pos_PID_capi.obj
 0002:00003b10       ??_C@_03JBKKLGDO@P35?$AA@  10046b10     Pos_PID_capi.obj
 0002:00003b14       ??_C@_0CE@BACLBIGK@Y?5output?5processing?1PCI?9DDA?508?51@ 10046b14     Pos_PID_capi.obj
 0002:00003b40       ??_C@_0BM@PPFBNHIK@Y_encoder?5?1encoder?5offsets1?$AA@ 10046b40     Pos_PID_capi.obj
 0002:00003b64       ??_C@_0CE@EGPNABBG@Z?5output?5processing?1PCI?9DDA?508?51@ 10046b64     Pos_PID_capi.obj
 0002:00003b90       ??_C@_0BL@GCPIFIIH@Z_encoder?1encoder?5offsets1?$AA@ 10046b90     Pos_PID_capi.obj
 0002:00003bb0       ??_C@_04EEEGHMJE@db_x?$AA@ 10046bb0     Pos_PID_capi.obj
 0002:00003bb8       ??_C@_04FNFNENNF@db_y?$AA@ 10046bb8     Pos_PID_capi.obj
 0002:00003bc0       ??_C@_04HGHABOBG@db_z?$AA@ 10046bc0     Pos_PID_capi.obj
 0002:00003bc8       ??_C@_03JKKEMAOD@kdx?$AA@  10046bc8     Pos_PID_capi.obj
 0002:00003bcc       ??_C@_03IDLPPBKC@kdy?$AA@  10046bcc     Pos_PID_capi.obj
 0002:00003bd0       ??_C@_03KIJCKCGB@kdz?$AA@  10046bd0     Pos_PID_capi.obj
 0002:00003bd4       ??_C@_03JCHMFDLA@kix?$AA@  10046bd4     Pos_PID_capi.obj
 0002:00003bd8       ??_C@_03ILGHGCPB@kiy?$AA@  10046bd8     Pos_PID_capi.obj
 0002:00003bdc       ??_C@_03KAEKDBDC@kiz?$AA@  10046bdc     Pos_PID_capi.obj
 0002:00003be0       ??_C@_03IBILMLEP@kpx?$AA@  10046be0     Pos_PID_capi.obj
 0002:00003be4       ??_C@_03JIJAPKAO@kpy?$AA@  10046be4     Pos_PID_capi.obj
 0002:00003be8       ??_C@_03LDLNKJMN@kpz?$AA@  10046be8     Pos_PID_capi.obj
 0002:00003bec       ??_C@_04NMNJKFFI@xpos?$AA@ 10046bec     Pos_PID_capi.obj
 0002:00003bf4       ??_C@_04OBLJIMOI@ypos?$AA@ 10046bf4     Pos_PID_capi.obj
 0002:00003bfc       ??_C@_04KGBJPGDI@zpos?$AA@ 10046bfc     Pos_PID_capi.obj
 0002:00003c04       ??_C@_06BNJCAIGJ@double?$AA@ 10046c04     Pos_PID_capi.obj
 0002:00003c0c       ??_C@_06CNMIJIPB@real_T?$AA@ 10046c0c     Pos_PID_capi.obj
 0002:00003c14       ??_C@_0O@PPAIJIHF@unsigned?5char?$AA@ 10046c14     Pos_PID_capi.obj
 0002:00003c24       ??_C@_07NCEHLPOC@uint8_T?$AA@ 10046c24     Pos_PID_capi.obj
 0002:00003c30       ??_C@_09JBMFCIMO@boolean_T?$AA@ 10046c30     Pos_PID_capi.obj
 0002:00003c3c       ??_C@_0P@IIMKEEHB@unsigned?5short?$AA@ 10046c3c     Pos_PID_capi.obj
 0002:00003c50       ??_C@_08NHGKGJKC@uint16_T?$AA@ 10046c50     Pos_PID_capi.obj
 0002:00003c5c       ??_C@_05KNFBNCOH@float?$AA@ 10046c5c     Pos_PID_capi.obj
 0002:00003c64       ??_C@_0CJ@GGPBKPNK@Could?5not?5start?5ToAsyncQueue?5app@ 10046c64     Pos_PID_tgtconn.obj
 0002:000044f8       ??_C@_0DJ@FHKINPLE@Unexpected?5itemKind?5?$DN?5DATA_ITEM?5@ 100474f8     rt_logging.obj
 0002:0000453c       ??_C@_0DA@IEHFPFCJ@Unexpected?5itemKind?$DN?$CFd?5in?5rt_Pro@ 1004753c     rt_logging.obj
 0002:00004578       ??_C@_0DA@IFLHJPBO@Unexpected?5itemKind?$DN?$CFd?5in?5rt_Pro@ 10047578     rt_logging.obj
 0002:000045b4       ??_C@_0DA@IAPIIJJL@Unexpected?5itemKind?$DN?$CFd?5in?5rt_Pro@ 100475b4     rt_logging.obj
 0002:000045f0       ??_C@_0BE@LCIGPJIG@MATLAB?55?40?5MAT?9file?$AA@ 100475f0     rt_logging.obj
 0002:00004608       ??_C@_0FB@PCJEAJIB@?$CK?$CK?$CK?5Log?5variable?5?$CFs?5has?5wrapped?5@ 10047608     rt_logging.obj
 0002:00004670       ??_C@_0MG@NKMLMOGF@?$CK?$CK?$CK?5To?5avoid?5wrapping?0?5explicitl@ 10047670     rt_logging.obj
 0002:00004760       ??_C@_0N@IPAEOLLP@_rtw_tmw?4tmw?$AA@ 10047760     rt_logging.obj
 0002:00004770       ??_C@_04HDOCAJNK@?$CFs?$CFs?$AA@ 10047770     rt_logging.obj
 0002:00004778       ??_C@_03ELIABIOC@w?$CLb?$AA@ 10047778     rt_logging.obj
 0002:0000477c       ??_C@_0BF@JPILDDFA@?$CK?$CK?$CK?5Error?5opening?5?$CFs?$AA@ 1004777c     rt_logging.obj
 0002:00004798       ??_C@_0BK@EEMDELA@unable?5to?5open?5data?5file?6?$AA@ 10047798     rt_logging.obj
 0002:000047b8       ??_C@_04CGFJFPFD@none?$AA@ 100477b8     rt_logging.obj
 0002:000047c0       ??_C@_0EE@LCGFPNON@?$CK?$CK?$CK?5Error?5creating?5signals?5struc@ 100477c0     rt_logging.obj
 0002:00004814       ??_C@_0CE@NHECEDMK@?$CK?$CK?$CK?5Error?5creating?5log?5variable?5@ 10047814     rt_logging.obj
 0002:00004840       ??_C@_0DB@IOCGKAGH@?$CK?$CK?$CK?5Errors?5occurred?5when?5startin@ 10047840     rt_logging.obj
 0002:0000487c       ??_C@_0BO@BBLOGEBK@?$CK?$CK?$CK?5Memory?5allocation?5error?4?6?$AA@ 1004787c     rt_logging.obj
 0002:000048a0       ??_C@_0N@LGFBAGEL@?5?$CIreal?5part?$CJ?$AA@ 100478a0     rt_logging.obj
 0002:000048b0       ??_C@_0KH@CGNMHNFE@?5?5?5?5varName?5?5?5?5?5?5?5?5?5?5?$DN?5?$CFs?$CFs?6?5?5?5?5@ 100478b0     rt_logging.obj
 0002:00004978       ??_C@_0LE@OALKKEFM@?5?5?5?5varName?5?5?5?5?5?5?5?5?5?5?$DN?5?$CFs?5?$CIcompl@ 10047978     rt_logging.obj
 0002:00004a50       ??_C@_0KF@JDDLEOKO@?5?5?5?5varName?5?5?5?5?5?5?5?5?5?5?$DN?5?$CFs?6?5?5?5?5nR@ 10047a50     rt_logging.obj
 0002:00004b18       ??_C@_0DP@HPDMIOFM@?$CK?$CK?$CK?5Using?5a?5default?5buffer?5of?5si@ 10047b18     rt_logging.obj
 0002:00004b68       ??_C@_0KE@JEFOLKNF@?6?$CK?$CK?$CK?5Memory?5required?5to?5log?5vari@ 10047b68     rt_logging.obj
 0002:00004c30       ??_C@_0JP@DKLMHCBI@?$CK?$CK?$CK?5Details?3?6?5?5?5?5?5?5?5varName?5?5?5?5?5@ 10047c30     rt_logging.obj
 0002:00004cf0       ??_C@_0CM@CAMILBED@?$CK?$CK?$CK?5Error?5allocating?5memory?5for?5@ 10047cf0     rt_logging.obj
 0002:00004d24       ??_C@_0DF@BBCNMOPM@?$CK?$CK?$CK?5Error?5allocating?5memory?5for?5@ 10047d24     rt_logging.obj
 0002:00004d68       ??_C@_0JP@DBCLPCCI@?$CK?$CK?$CK?5Details?3?6?5?5?5?5?5?5?5varName?5?5?5?5?5@ 10047d68     rt_logging.obj
 0002:00004e28       ??_C@_0FK@DPGAOBGA@?$CK?$CK?$CK?5Error?5allocating?5memory?5for?5@ 10047e28     rt_logging.obj
 0002:00004e94       ??_C@_0BI@GGDNPHLJ@?$CK?$CK?$CK?5Error?5writing?5to?5?$CFs?$AA@ 10047e94     rt_logging.obj
 0002:00004eb0       ??_C@_0CB@IBGJGELG@?$CK?$CK?$CK?5Error?5writing?5?$CFs?5due?5to?3?5?$CFs?6@ 10047eb0     rt_logging.obj
 0002:00004ed8       ??_C@_0CN@FLMCHCPB@?$CK?$CK?$CK?5Error?5writing?5log?5variable?5?$CF@ 10047ed8     rt_logging.obj
 0002:00004f10       ??_C@_0DH@GAJCNOJP@?$CK?$CK?$CK?5Error?5writing?5structure?5log?5@ 10047f10     rt_logging.obj
 0002:00004f54       ??_C@_0BD@POEALECL@?$CK?$CK?5created?5?$CFs?5?$CK?$CK?6?6?$AA@ 10047f54     rt_logging.obj
 0002:00004f70       __real@0000000000000000    10047f70     rt_logging.obj
 0002:00004f80       __real@4020000000000000    10047f80     rt_logging.obj
 0002:00004f90       __real@41dfffffffc00000    10047f90     rt_logging.obj
 0002:00004fa0       __real@41efffffffe00000    10047fa0     rt_logging.obj
 0002:00004fb0       __real@4330000000000000    10047fb0     rt_logging.obj
 0002:00004fc0       __real@8000000000000000    10047fc0     rt_logging.obj
 0002:00004fd0       __real@bfbf9add3afd2773    10047fd0     rt_logging.obj
 0002:00004fe0       __real@c000000000000000    10047fe0     rt_logging.obj
 0002:00004ff0       __xmm@20202020202020202020202020202020 10047ff0     rt_logging.obj
 0002:00005020       __real@3cb0000000000000    10048020     rt_matrx.obj
 0002:0000502c       ??_C@_0BI@INNPNFJN@Memory?5Allocation?5Error?$AA@ 1004802c     rtw_modelmap_utils.obj
 0002:00005048       ??_C@_1HC@OAPLBLFC@?$AAC?$AA?3?$AA?2?$AAP?$AAR?$AAO?$AAG?$AAR?$AAA?$AA?$HO?$AA1?$AA?2?$AAM?$AAA?$AAT?$AAL?$AAA?$AAB?$AA?2?$AAR?$AA2?$AA0?$AA1?$AA6?$AAa?$AA?2?$AAr?$AAt?$AAw?$AA?2?$AAc?$AA?2@ 10048048     rtw_modelmap_utils.obj
 0002:000050d0       ??_C@_1CI@OEAJCJND@?$AAj?$AA?5?$AA?$DN?$AA?$DN?$AA?5?$AAe?$AAn?$AAc?$AAo?$AAd?$AAe?$AAd?$AAP?$AAa?$AAt?$AAh?$AAL?$AAe?$AAn?$AA?$AA@ 100480d0     rtw_modelmap_utils.obj
 0002:00005100       ??_C@_1DC@NFAOIFKB@?$AAe?$AAn?$AAc?$AAo?$AAd?$AAe?$AAd?$AAP?$AAa?$AAt?$AAh?$AA?$FL?$AAj?$AA?9?$AA1?$AA?$FN?$AA?5?$AA?$DN?$AA?$DN?$AA?5?$AA?8?$AA?2?$AA0?$AA?8?$AA?$AA@ 10048100     rtw_modelmap_utils.obj
 0002:0000513c       ??_C@_1DI@FLNJGPEE@?$AAs?$AAi?$AAg?$AAC?$AAo?$AAm?$AAp?$AAl?$AAe?$AAx?$AAi?$AAt?$AAy?$AA?$FL?$AA?$CK?$AAs?$AAi?$AAg?$AAI?$AAd?$AAx?$AA?$FN?$AA?5?$AA?$CB?$AA?$DN?$AA?5?$AA1?$AA?$AA@ 1004813c     rtw_modelmap_utils.obj
 0002:00005180       ??_C@_1KI@OFELMGBG@?$AA?$CI?$AA?$CI?$AA?$CI?$AAd?$AAa?$AAt?$AAa?$AAT?$AAy?$AAp?$AAe?$AAM?$AAa?$AAp?$AA?$CJ?$AA?$FL?$AA?$CI?$AA?$CI?$AA?$CI?$AAs?$AAt?$AAa?$AAt?$AAe?$AAs?$AA?$CJ?$AA?$FL?$AA?$CI?$AAi?$AA?$CJ?$AA?$FN?$AA?4@ 10048180     rtw_modelmap_utils.obj
 0002:0000524c       ??_C@_1DA@ILCMPHNE@?$AAf?$AAu?$AAl?$AAl?$AAP?$AAa?$AAt?$AAh?$AA?5?$AA?$CB?$AA?$DN?$AA?5?$AA?$CI?$AA?$CI?$AAv?$AAo?$AAi?$AAd?$AA?5?$AA?$CK?$AA?$CJ?$AA0?$AA?$CJ?$AA?$AA@ 1004824c     rtw_modelmap_utils.obj
 0002:00005288       ??_C@_1CI@OEPPFCCA@?$AAp?$AAa?$AAt?$AAh?$AA?5?$AA?$CB?$AA?$DN?$AA?5?$AA?$CI?$AA?$CI?$AAv?$AAo?$AAi?$AAd?$AA?5?$AA?$CK?$AA?$CJ?$AA0?$AA?$CJ?$AA?$AA@ 10048288     rtw_modelmap_utils.obj
 0002:000052b8       ??_C@_1FK@GLJIMFHB@?$AA?$CI?$AA?$CI?$AAm?$AAm?$AAi?$AA?$CJ?$AA?9?$AA?$DO?$AAI?$AAn?$AAs?$AAt?$AAa?$AAn?$AAc?$AAe?$AAM?$AAa?$AAp?$AA?4?$AAf?$AAu?$AAl?$AAl?$AAP?$AAa?$AAt?$AAh?$AA?$CJ?$AA?5?$AA?$DN?$AA?$DN@ 100482b8     rtw_modelmap_utils.obj
 0002:00005324       ??_C@_1DG@HPCJGNCE@?$AAm?$AAm?$AAi?$AAP?$AAa?$AAt?$AAh?$AA?$FL?$AAp?$AAa?$AAt?$AAh?$AAL?$AAe?$AAn?$AA?9?$AA1?$AA?$FN?$AA?5?$AA?$DN?$AA?$DN?$AA?5?$AA?8?$AA?2?$AA0?$AA?8?$AA?$AA@ 10048324     rtw_modelmap_utils.obj
 0002:00005364       ??_C@_1DM@DBAOGGOO@?$AAm?$AAm?$AAi?$AAP?$AAa?$AAt?$AAh?$AA?$FL?$AAm?$AAm?$AAi?$AAP?$AAa?$AAt?$AAh?$AAL?$AAe?$AAn?$AA?9?$AA1?$AA?$FN?$AA?5?$AA?$DN?$AA?$DN?$AA?5?$AA?8?$AA?2?$AA0?$AA?8?$AA?$AA@ 10048364     rtw_modelmap_utils.obj
 0002:000053ac       ??_C@_1DC@LHIAKAFE@?$AAb?$AAl?$AAo?$AAc?$AAk?$AAP?$AAa?$AAt?$AAh?$AA?5?$AA?$CB?$AA?$DN?$AA?5?$AA?$CI?$AA?$CI?$AAv?$AAo?$AAi?$AAd?$AA?5?$AA?$CK?$AA?$CJ?$AA0?$AA?$CJ?$AA?$AA@ 100483ac     rtw_modelmap_utils.obj
 0002:000053e8       ??_C@_1GI@KIEJKPGC@?$AAf?$AAu?$AAl?$AAl?$AAS?$AAt?$AAa?$AAt?$AAe?$AAB?$AAl?$AAo?$AAc?$AAk?$AAP?$AAa?$AAt?$AAh?$AA?$FL?$AAf?$AAu?$AAl?$AAl?$AAS?$AAt?$AAa?$AAt?$AAe?$AAB?$AAl?$AAo?$AAc@ 100483e8     rtw_modelmap_utils.obj
 0002:00005468       ??_C@_1EE@DNPIBJHC@?$AA?$CI?$AA?$CI?$AAd?$AAi?$AAm?$AAM?$AAa?$AAp?$AA?$CJ?$AA?$FL?$AA?$CI?$AAm?$AAa?$AAp?$AAI?$AAd?$AAx?$AA?$CJ?$AA?$FN?$AA?4?$AAn?$AAu?$AAm?$AAD?$AAi?$AAm?$AAs?$AA?$CJ?$AA?5?$AA?$DN?$AA?$DN?$AA?5@ 10048468     rtw_modelmap_utils.obj
 0002:000054bc       ??_C@_06JFOKFOED@CSTATE?$AA@ 100484bc     rtw_modelmap_utils.obj
 0002:000054c4       ??_C@_06FAENGAMN@DSTATE?$AA@ 100484c4     rtw_modelmap_utils.obj
 0002:000054cc       ??_C@_1BI@LEBJNOGG@?$AAc?$AAs?$AAv?$AAI?$AAd?$AAx?$AA?5?$AA?$DO?$AA?$DN?$AA?5?$AA0?$AA?$AA@ 100484cc     rtw_modelmap_utils.obj
 0002:000054e8       ??_C@_1BA@KDMGHCHP@?$AAT?$AAI?$AAD?$AA?$DN?$AA?$DN?$AA?9?$AA1?$AA?$AA@ 100484e8     rtw_modelmap_utils.obj
 0002:000054fc       ??_C@_1DM@DHGKBPCE@?$AAs?$AAi?$AAg?$AAP?$AAa?$AAt?$AAh?$AA?$FL?$AAs?$AAi?$AAg?$AAP?$AAa?$AAt?$AAh?$AAL?$AAe?$AAn?$AA?9?$AA1?$AA?$FN?$AA?5?$AA?$DN?$AA?$DN?$AA?5?$AA?8?$AA?2?$AA0?$AA?8?$AA?$AA@ 100484fc     rtw_modelmap_utils.obj
 0002:00005544       _serialfifoground          10048544     xpc_datatype_ground.obj
 0002:00005550       _bcmsg1553ground           10048550     xpc_datatype_ground.obj
 0002:00005560       _bcstatground              10048560     xpc_datatype_ground.obj
 0002:00005578       _bmmsg1553ground           10048578     xpc_datatype_ground.obj
 0002:00005598       _ptsetfilename             10048598     xpctarget.obj
 0002:0000559c       _xmlfile                   1004859c     xpctarget.obj
 0002:000055a4       ??_C@_07KFKDPLMF@Pos_PID?$AA@ 100485a4     xpctarget.obj
 0002:000055b0       ??_C@_0L@CHBJKKFC@xpceSetVar?$AA@ 100485b0     xpctarget.obj
 0002:000055c0       ??_C@_03ICACBPID@6?44?$AA@ 100485c0     xpctarget.obj
 0002:000055c8       __real@3fb999999999999a    100485c8     xpctarget.obj
 0002:000055d8       __real@408f400000000000    100485d8     xpctarget.obj
 0002:000055e8       _Pos_PID_BIOMAP            100485e8     appmappingData.obj
 0002:00005988       _Pos_PID_LBLMAP            10048988     appmappingData.obj
 0002:00005d28       _Pos_PID_SIDMAP            10048d28     appmappingData.obj
 0002:000060c8       _Pos_PID_SBIO              100490c8     appmappingData.obj
 0002:00006200       _Pos_PID_SLBL              10049200     appmappingData.obj
 0002:00006338       _Pos_PID_PTIDSMAP          10049338     appmappingData.obj
 0002:00006988       _Pos_PID_PTNAMESMAP        10049988     appmappingData.obj
 0002:00006fd8       _Pos_PID_SPTMAP            10049fd8     appmappingData.obj
 0002:00007300       _Pos_PID_dtmap             1004a300     appmappingData.obj
 0002:00007330       _appInfo                   1004a330     appmappingData.obj
 0002:00007968       ??_C@_0BE@CKBAIFD@encconteccnt328mpci?$AA@ 1004a968     encconteccnt328mpci.obj
 0002:00007980       ??_C@_0CG@PDPCNMMO@?$CFs?3?5?$CFd?5input?5args?5expected?0?5?$CFd?5p@ 1004a980     encconteccnt328mpci.obj
 0002:000079b0       ??_C@_07GNCCFEIM@?$CFs?$CI?$CFd?$CJ?6?$AA@ 1004a9b0     encconteccnt328mpci.obj
 0002:000079bc       ??_C@_0CE@CLLJOMGM@?$CFs?$CI?$CFd?$CJ?5Sample?5Time?5?$CFf?5?$CIChannel?5?$CF@ 1004a9bc     encconteccnt328mpci.obj
 0002:000079e8       ??_C@_0CK@NDIIACOD@?$CFs?$CI?$CFd?$CJ?5PCI?5Bus?5?$CFd?5?5?5Slot?5?$CFd?5?5?5Ch@ 1004a9e8     encconteccnt328mpci.obj
 0002:00007a1c       ??_C@_0CO@OADOCJBA@?$CFs?3?5CNT32?98M?$CIPCI?$CJ?5not?5found?5at?5b@ 1004aa1c     encconteccnt328mpci.obj
 0002:00007a54       ??_C@_0CB@GGINOLOG@?5?5?5Initial?5Value?3?50x?$CFx?5Load?3?5?$CFd?6@ 1004aa54     encconteccnt328mpci.obj
 0002:00007a7c       ??_C@_0BL@JCCHIDDO@?5?5?5Start?5Method?3?5?$CFd?5?$CI0x?$CFx?$CJ?$AA@ 1004aa7c     encconteccnt328mpci.obj
 0002:00007a9c       ??_C@_0BL@ONAHILHM@?5?5?5Stop?5Method?3?5?$CFd?5?$CI0x?$CFx?$CJ?6?$AA@ 1004aa9c     encconteccnt328mpci.obj
 0002:00007abc       ??_C@_0BO@DJDJGILF@?5?5?5Input?5Signal?3?50x?$CFx?5?$CI0x?$CFx?$CJ?6?$AA@ 1004aabc     encconteccnt328mpci.obj
 0002:00007ae0       ??_C@_0GI@GFJKDDOK@?5?5?5Input?5Signal?5Overloaded?5?$CIStar@ 1004aae0     encconteccnt328mpci.obj
 0002:00007b5c       ??_C@_0DK@GPOKCJIM@?5?5?5Rise?1Fall?1Match?50?1Match?51?5?5?5P@ 1004ab5c     encconteccnt328mpci.obj
 0002:00007ba4       ??_C@_0CD@KKOOHPOD@?5?5?5Zero?9Clear?3?5?$CFd?1?$CFd?1?$CFd?1?$CFd?5?$CI0x?$CFx@ 1004aba4     encconteccnt328mpci.obj
 0002:00007bd0       ??_C@_0DC@FPLMBIJB@?5?5?5Match?50?5Overloaded?5?$CIPreset?1Ze@ 1004abd0     encconteccnt328mpci.obj
 0002:00007c0c       ??_C@_0DC@LHKLIIDA@?5?5?5Match?51?5Overloaded?5?$CIPreset?1Ze@ 1004ac0c     encconteccnt328mpci.obj
 0002:00007c48       ??_C@_0BO@EIIFPMDO@?5?5?5Digital?5Filter?3?5?$CFd?5?$CI0x?$CFx?$CJ?6?$AA@ 1004ac48     encconteccnt328mpci.obj
 0002:00007c6c       ??_C@_0BL@OJPKOPMK@?5?5?5Index?5Logic?3?5?$CFd?5?$CI0x?$CFx?$CJ?6?$AA@ 1004ac6c     encconteccnt328mpci.obj
 0002:00007c8c       ??_C@_0BL@JKPAGFND@?5?5?5Pulse?5Input?3?5?$CFd?5?$CI0x?$CFx?$CJ?6?$AA@ 1004ac8c     encconteccnt328mpci.obj
 0002:00007cac       ??_C@_0BJ@GNILLNEI@?5?5?5Direction?3?5?$CFd?5?$CI0x?$CFx?$CJ?6?$AA@ 1004acac     encconteccnt328mpci.obj
 0002:00007ccc       ??_C@_0BO@DKFKJOII@?5?5?5Operation?5Mode?3?5?$CFd?5?$CI0x?$CFx?$CJ?6?$AA@ 1004accc     encconteccnt328mpci.obj
 0002:00007cf0       ??_C@_0BH@DBDDMMGO@?5?5?5COUNTER?5MODE?3?50x?$CFx?6?$AA@ 1004acf0     encconteccnt328mpci.obj
 0002:00007d0c       ??_C@_0BG@PGOHHDMJ@?5?5?5Preset?5Value?3?50x?$CFx?$AA@ 1004ad0c     encconteccnt328mpci.obj
 0002:00007d28       ??_C@_0BH@OBCHHCLB@?5?5?5Match?50?5Value?3?50x?$CFx?$AA@ 1004ad28     encconteccnt328mpci.obj
 0002:00007d44       ??_C@_0BI@PPJDJHAK@?5?5?5Match?51?5Value?3?50x?$CFx?6?$AA@ 1004ad44     encconteccnt328mpci.obj
 0002:00007d60       ??_C@_0CB@BHICGGII@?5?5?5One?5Shot?5Duration?3?5?$CFd?5?$CI0x?$CFx?$CJ?6@ 1004ad60     encconteccnt328mpci.obj
 0002:00007d88       ??_C@_0FK@MHKNLCPD@?5?5?5Output?5Signal?5?$CIMatch?50?11?5Abno@ 1004ad88     encconteccnt328mpci.obj
 0002:00007df4       ??_C@_0BB@JCAIALPL@?5?5?5OUTPUT?3?50x?$CFx?6?$AA@ 1004adf4     encconteccnt328mpci.obj
 0002:00007e08       ??_C@_0BM@KEHJNHBI@?5?5?5Index?5Enable?3?5?$CFd?5?$CI0x?$CFx?$CJ?6?$AA@ 1004ae08     encconteccnt328mpci.obj
 0002:00007e2c       ??_C@_0BC@PJJJOOAA@?5?5?5Z?9PULSE?3?50x?$CFx?6?$AA@ 1004ae2c     encconteccnt328mpci.obj
 0002:00007e44       ??_C@_0CH@LIFPIGPB@?5?5?5Enable?5Digital?5Input?3?5?$CFd?5Outp@ 1004ae44     encconteccnt328mpci.obj
 0002:00007e74       ??_C@_0DF@HCJHNGFD@?5?5?5Digital?5Output?5Initial?5Value?3@ 1004ae74     encconteccnt328mpci.obj
 0002:00007eb4       ??_C@_0CP@CNANCOON@?5?5?5External?5Output?5Signal?5Overlo@ 1004aeb4     encconteccnt328mpci.obj
 0002:00007ef0       ??_C@_0ED@LKHIFFLC@Wrong?5number?5of?5input?5arguments?5@ 1004aef0     dacbpcidda0x12.obj
 0002:00007f40       ??_C@_0BA@MBPMNBMJ@CB?5PCI?9DDA02?112?$AA@ 1004af40     dacbpcidda0x12.obj
 0002:00007f54       ??_C@_0BA@EOLMCEGJ@CB?5PCI?9DDA04?112?$AA@ 1004af54     dacbpcidda0x12.obj
 0002:00007f68       ??_C@_0BA@ILEMMJGI@CB?5PCI?9DDA08?112?$AA@ 1004af68     dacbpcidda0x12.obj
 0002:00007f7c       ??_C@_0BA@KFJABEMN@CB?5PCI?9DDA02?116?$AA@ 1004af7c     dacbpcidda0x12.obj
 0002:00007f90       ??_C@_0BA@CKNAOBGN@CB?5PCI?9DDA04?116?$AA@ 1004af90     dacbpcidda0x12.obj
 0002:00007fa4       ??_C@_0BA@OPCAAMGM@CB?5PCI?9DDA08?116?$AA@ 1004afa4     dacbpcidda0x12.obj
 0002:00007fb8       ??_C@_0BB@IGAELBME@CB?5PCIM?9DDA06?116?$AA@ 1004afb8     dacbpcidda0x12.obj
 0002:00007fcc       ??_C@_0BD@IPMBHKCA@CB?5PCIM?9DAS1602?116?$AA@ 1004afcc     dacbpcidda0x12.obj
 0002:00007fe4       ??_C@_0BG@EPCOHGPO@?$CFs?3?5board?5not?5present?$AA@ 1004afe4     dacbpcidda0x12.obj
 0002:00008000       ??_C@_0CI@NFFNBHJA@?$CFs?5?$CIbus?5?$CFd?0?5slot?5?$CFd?$CJ?3?5board?5not?5@ 1004b000     dacbpcidda0x12.obj
 0002:00008030       __real@3ee4f8b588e368f1    1004b030     dacbpcidda0x12.obj
 0002:00008040       __real@4004000000000000    1004b040     dacbpcidda0x12.obj
 0002:00008050       __real@4014000000000000    1004b050     dacbpcidda0x12.obj
 0002:00008060       __real@4024000000000000    1004b060     dacbpcidda0x12.obj
 0002:00008070       __real@4034000000000000    1004b070     dacbpcidda0x12.obj
 0002:00008080       __real@40b0000000000000    1004b080     dacbpcidda0x12.obj
 0002:00008090       __real@40f0000000000000    1004b090     dacbpcidda0x12.obj
 0002:0000809c       ??_C@_0BC@MPAJBIJ@CB?5PCI?9DAS1602?116?$AA@ 1004b09c     dopci8255.obj
 0002:000080b4       ??_C@_0P@HKDMEDDF@CB?5PCI?9DAS1200?$AA@ 1004b0b4     dopci8255.obj
 0002:000080c8       ??_C@_0BC@NLEKMPOI@CB?5PCI?9DAS1200?1JR?$AA@ 1004b0c8     dopci8255.obj
 0002:000080e0       ??_C@_0O@OECMNDND@CB?5PCI?9DIO48H?$AA@ 1004b0e0     dopci8255.obj
 0002:000080f0       ??_C@_0O@MIFNHFGL@CB?5PCI?9DIO24H?$AA@ 1004b0f0     dopci8255.obj
 0002:00008100       ??_C@_0O@BMNICGAE@CB?5PCI?9DIO96H?$AA@ 1004b100     dopci8255.obj
 0002:00008110       ??_C@_0N@PCCDCCJA@CB?5PCI?9DIO24?$AA@ 1004b110     dopci8255.obj
 0002:00008120       ??_C@_0BC@GIJMFEIN@CB?5PCI?9DAS1602?112?$AA@ 1004b120     dopci8255.obj
 0002:00008138       ??_C@_0M@DJFFBOOL@NI?5PCI?96503?$AA@ 1004b138     dopci8255.obj
 0002:00008148       ??_C@_0O@CJHADKHB@NI?5PCI?9DIO?996?$AA@ 1004b148     dopci8255.obj
 0002:00008158       ??_C@_0M@PLHAOKFN@NI?5PXI?96508?$AA@ 1004b158     dopci8255.obj
 0002:00008168       ??_C@_0N@NMILOOOH@NI?5PCI?96025E?$AA@ 1004b168     dopci8255.obj
 0002:00008178       ??_C@_0BA@CMHAIHFM@CB?5PCI?9DUAL?9AC5?$AA@ 1004b178     dopci8255.obj
 0002:0000818c       ??_C@_0N@MMEAKPPD@CB?5PCI?9DIO96?$AA@ 1004b18c     dopci8255.obj
 0002:0000819c       ??_C@_0BE@MDOBOAKD@CB?5?$CIMC?$CJ?5PCI?9DAS1001?$AA@ 1004b19c     dopci8255.obj
 0002:000081b4       ??_C@_0BE@OIMMLDGA@CB?5?$CIMC?$CJ?5PCI?9DAS1002?$AA@ 1004b1b4     dopci8255.obj
 0002:000081cc       ??_C@_0BI@IHCNPKCM@No?5?$CFs?5at?5bus?5?$CFd?5slot?5?$CFd?$AA@ 1004b1cc     dopci8255.obj
 0002:000081e8       ??_C@_0CJ@MHHCOHM@Board?5base?5address?5came?5up?50?0?5ca@ 1004b1e8     dopci8255.obj
 0002:0000821c       ??_C@_0BC@JCHLEIED@MC?5PCI?9DAS1602?116?$AA@ 1004b21c     dipci8255.obj
 0002:00008234       ??_C@_0P@KEALKDG@MC?5PCI?9DAS1200?$AA@ 1004b234     dipci8255.obj
 0002:00008248       ??_C@_0BC@EFMBBGCC@MC?5PCI?9DAS1200?1JR?$AA@ 1004b248     dipci8255.obj
 0002:00008260       ??_C@_0O@PCCBFPNG@MC?5PCI?9DIO48H?$AA@ 1004b260     dipci8255.obj
 0002:00008270       ??_C@_0BA@FIIFPMIK@MC?5PCI?9DDA02?112?$AA@ 1004b270     dipci8255.obj
 0002:00008284       ??_C@_0BA@NHMFAJCK@MC?5PCI?9DDA04?112?$AA@ 1004b284     dipci8255.obj
 0002:00008298       ??_C@_0BA@BCDFOECL@MC?5PCI?9DDA08?112?$AA@ 1004b298     dipci8255.obj
 0002:000082ac       ??_C@_0O@NOFAPJGO@MC?5PCI?9DIO24H?$AA@ 1004b2ac     dipci8255.obj
 0002:000082bc       ??_C@_0O@KNFKKAB@MC?5PCI?9DIO96H?$AA@ 1004b2bc     dipci8255.obj
 0002:000082cc       ??_C@_0N@JDGAGCEP@MC?5PCI?9DIO24?$AA@ 1004b2cc     dipci8255.obj
 0002:000082dc       ??_C@_0BC@PGBHINEH@MC?5PCI?9DAS1602?112?$AA@ 1004b2dc     dipci8255.obj
 0002:000082f4       ??_C@_0BA@LFAJKKBP@MC?5PCI?9DUAL?9AC5?$AA@ 1004b2f4     dipci8255.obj
 0002:00008308       ??_C@_0BA@DMOJDJIO@MC?5PCI?9DDA02?116?$AA@ 1004b308     dipci8255.obj
 0002:0000831c       ??_C@_0BA@LDKJMMCO@MC?5PCI?9DDA04?116?$AA@ 1004b31c     dipci8255.obj
 0002:00008330       ??_C@_0BA@HGFJCBCP@MC?5PCI?9DDA08?116?$AA@ 1004b330     dipci8255.obj
 0002:00008344       ??_C@_0BB@GJEINIMD@MC?5PCIM?9DDA06?116?$AA@ 1004b344     dipci8255.obj
 0002:00008358       ??_C@_0BD@PEOONKFH@MC?5PCIM?9DAS1602?116?$AA@ 1004b358     dipci8255.obj
 0002:00008370       ??_C@_0N@KNADOPCM@MC?5PCI?9DIO96?$AA@ 1004b370     dipci8255.obj
 0002:00008380       ??_C@_0P@LJFCEDPM@MC?5PCI?9DAS1001?$AA@ 1004b380     dipci8255.obj
 0002:00008394       ??_C@_0P@JCHPBADP@MC?5PCI?9DAS1002?$AA@ 1004b394     dipci8255.obj
 0002:000083a8       ??_C@_0CN@MHEKKFIE@Output?5port?5width?5argument?5must?5@ 1004b3a8     xpcudpbytereceive.obj
 0002:000083e0       ??_C@_0DC@KNMLNALJ@Error?5in?5udpbytereceive?3?5memory?5@ 1004b3e0     xpcudpbytereceive.obj
 0002:0000841c       ??_C@_0CI@CAMPNCMJ@Error?3?5No?5UDP?5channel?5free?5or?5UD@ 1004b41c     xpcudpbytereceive.obj
 0002:0000844c       ??_C@_0CC@DMFKNLL@VendorId?5?$DN?50x?$CFx?0?5DeviceId?5?$DN?50x?$CFx@ 1004b44c     xpcruntime:xpcimports.obj
 0002:00008470       ??_C@_0DH@OHCBLNMG@Subsystem?5Device?5ID?5?$DN?50x?$CFx?6Subsy@ 1004b470     xpcruntime:xpcimports.obj
 0002:000084a8       ??_C@_0BD@MMMMEFCM@Class?5Code?5?$DN?50x?$CFx?6?$AA@ 1004b4a8     xpcruntime:xpcimports.obj
 0002:000084bc       ??_C@_0BE@OLDDDNHM@InterruptLine?5?$DN?5?$CFd?6?$AA@ 1004b4bc     xpcruntime:xpcimports.obj
 0002:000084d0       ??_C@_0BF@OLKLEKBD@bus?5?$DN?5?$CFd?0?5slot?5?$DN?5?$CFd?6?$AA@ 1004b4d0     xpcruntime:xpcimports.obj
 0002:000084e8       ??_C@_0CE@DGLLGDFH@?5?5?5?5Phys?5?5?5Virtual?5?5?5Length?5IO?1M@ 1004b4e8     xpcruntime:xpcimports.obj
 0002:0000850c       ??_C@_0BI@FEOPLEMG@?$CF08x?5?$CF08x?5?$CF08x?5?5?5?5?5?5?$CFc?6?$AA@ 1004b50c     xpcruntime:xpcimports.obj
 0002:00008524       ??_C@_0BB@BNNCEDPC@rl32eScopeExists?$AA@ 1004b524     xpcruntime:xpcimports.obj
 0002:00008538       ??_C@_0BM@FJBFEGFG@rl32eScopeExists?5not?5found?6?$AA@ 1004b538     xpcruntime:xpcimports.obj
 0002:00008554       ??_C@_0O@BNNGKJEA@rl32eDefScope?$AA@ 1004b554     xpcruntime:xpcimports.obj
 0002:00008564       ??_C@_0BJ@CDNOENKA@rl32eDefScope?5not?5found?6?$AA@ 1004b564     xpcruntime:xpcimports.obj
 0002:00008580       ??_C@_0P@CKNKILDP@rl32eAddSignal?$AA@ 1004b580     xpcruntime:xpcimports.obj
 0002:00008590       ??_C@_0BK@GMJAJBAI@rl32eAddSignal?5not?5found?6?$AA@ 1004b590     xpcruntime:xpcimports.obj
 0002:000085ac       ??_C@_0BB@LDMIHGCE@rl32eGetSignalNo?$AA@ 1004b5ac     xpcruntime:xpcimports.obj
 0002:000085c0       ??_C@_0BM@LGAMBAID@rl32eGetSignalNo?5not?5found?6?$AA@ 1004b5c0     xpcruntime:xpcimports.obj
 0002:000085dc       ??_C@_0O@CFDGALBP@rl32eSetScope?$AA@ 1004b5dc     xpcruntime:xpcimports.obj
 0002:000085ec       ??_C@_0BJ@JCLHHIN@rl32eSetScope?5not?5found?6?$AA@ 1004b5ec     xpcruntime:xpcimports.obj
 0002:00008608       ??_C@_0P@IKMCBMHH@xpceFSScopeSet?$AA@ 1004b608     xpcruntime:xpcimports.obj
 0002:00008618       ??_C@_0BK@JODJPNNH@xpceFSScopeSet?5not?5found?6?$AA@ 1004b618     xpcruntime:xpcimports.obj
 0002:00008634       ??_C@_0BE@DLACEEJM@rl32eSetTargetScope?$AA@ 1004b634     xpcruntime:xpcimports.obj
 0002:00008648       ??_C@_0BP@JCHFMKPJ@rl32eSetTargetScope?5not?5found?6?$AA@ 1004b648     xpcruntime:xpcimports.obj
 0002:00008668       ??_C@_0BJ@LIDLNDHC@rl32eSetTargetScopeSigFt?$AA@ 1004b668     xpcruntime:xpcimports.obj
 0002:00008684       ??_C@_0CE@JLGHCFHI@rl32eSetTargetScopeSigFt?5not?5fou@ 1004b684     xpcruntime:xpcimports.obj
 0002:000086a8       ??_C@_0BI@JAPOIDNG@rl32eRestartAcquisition?$AA@ 1004b6a8     xpcruntime:xpcimports.obj
 0002:000086c0       ??_C@_0CD@LLBEFFBO@rl32eRestartAcquisition?5not?5foun@ 1004b6c0     xpcruntime:xpcimports.obj
 0002:000086e4       ??_C@_0P@IEIIADJB@xpceScopeAcqOK?$AA@ 1004b6e4     xpcruntime:xpcimports.obj
 0002:000086f4       ??_C@_0BK@NJCKNFPN@xpceScopeAcqOK?5not?5found?6?$AA@ 1004b6f4     xpcruntime:xpcimports.obj
 0002:00008710       ??_C@_0BA@IJINKAHF@xpceRegisterISR?$AA@ 1004b710     xpcruntime:xpcimports.obj
 0002:00008720       ??_C@_0BL@NNDLOEJE@xpceRegisterISR?5not?5found?6?$AA@ 1004b720     xpcruntime:xpcimports.obj
 0002:0000873c       ??_C@_0BC@NLBADGKF@xpceDeRegisterISR?$AA@ 1004b73c     xpcruntime:xpcimports.obj
 0002:00008750       ??_C@_0BN@DCAIKFFD@xpceDeRegisterISR?5not?5found?6?$AA@ 1004b750     xpcruntime:xpcimports.obj
 0002:00008770       ??_C@_0P@CPGPNKEB@xpceFTReadTime?$AA@ 1004b770     xpcruntime:xpcimports.obj
 0002:00008780       ??_C@_0BK@NMABIODN@xpceFTReadTime?5not?5found?6?$AA@ 1004b780     xpcruntime:xpcimports.obj
 0002:0000879c       ??_C@_09PHNHCHFH@xpceFTAdd?$AA@ 1004b79c     xpcruntime:xpcimports.obj
 0002:000087a8       ??_C@_0BF@FJLEIILA@xpceFTAdd?5not?5found?6?$AA@ 1004b7a8     xpcruntime:xpcimports.obj
 0002:000087c0       ??_C@_0P@KEODBLHO@xpceFTSubtract?$AA@ 1004b7c0     xpcruntime:xpcimports.obj
 0002:000087d0       ??_C@_0BK@HONODOKP@xpceFTSubtract?5not?5found?6?$AA@ 1004b7d0     xpcruntime:xpcimports.obj
 0002:000087ec       ??_C@_07JPMEPILD@xpcInpB?$AA@ 1004b7ec     xpcruntime:xpcimports.obj
 0002:000087f4       ??_C@_0BD@PGABEJOL@xpcInpB?5not?5found?6?$AA@ 1004b7f4     xpcruntime:xpcimports.obj
 0002:00008808       ??_C@_07KIHBBOKH@xpcInpW?$AA@ 1004b808     xpcruntime:xpcimports.obj
 0002:00008810       ??_C@_0BD@FPCJFMCC@xpcInpW?5not?5found?6?$AA@ 1004b810     xpcruntime:xpcimports.obj
 0002:00008824       ??_C@_08KDIAJBOP@xpcInpDW?$AA@ 1004b824     xpcruntime:xpcimports.obj
 0002:00008830       ??_C@_0BE@PIELDNIL@xpcInpDW?5not?5found?6?$AA@ 1004b830     xpcruntime:xpcimports.obj
 0002:00008844       ??_C@_08PJFMOIGO@xpcOutpB?$AA@ 1004b844     xpcruntime:xpcimports.obj
 0002:00008850       ??_C@_0BE@HCKNCEKF@xpcOutpB?5not?5found?6?$AA@ 1004b850     xpcruntime:xpcimports.obj
 0002:00008864       ??_C@_08MOOJAOHK@xpcOutpW?$AA@ 1004b864     xpcruntime:xpcimports.obj
 0002:00008870       ??_C@_0BE@NLIFDBGM@xpcOutpW?5not?5found?6?$AA@ 1004b870     xpcruntime:xpcimports.obj
 0002:00008884       ??_C@_09FLIEKHJG@xpcOutpDW?$AA@ 1004b884     xpcruntime:xpcimports.obj
 0002:00008890       ??_C@_0BF@GJKLPNHB@xpcOutpDW?5not?5found?6?$AA@ 1004b890     xpcruntime:xpcimports.obj
 0002:000088a8       ??_C@_0BH@EHOLELHH@xpcReserveMemoryRegion?$AA@ 1004b8a8     xpcruntime:xpcimports.obj
 0002:000088c0       ??_C@_0CC@KAAAGPI@xpcReserveMemoryRegion?5not?5found@ 1004b8c0     xpcruntime:xpcimports.obj
 0002:000088e4       ??_C@_0BA@JGPMHGAF@rl32eShowPCIDev?$AA@ 1004b8e4     xpcruntime:xpcimports.obj
 0002:000088f4       ??_C@_0BL@DDFFLNHI@rl32eShowPCIDev?5not?5found?6?$AA@ 1004b8f4     xpcruntime:xpcimports.obj
 0002:00008910       ??_C@_0BB@KBCOJPFB@rl32eShowPCIInfo?$AA@ 1004b910     xpcruntime:xpcimports.obj
 0002:00008924       ??_C@_0BM@IFDMAGLO@rl32eShowPCIInfo?5not?5found?6?$AA@ 1004b924     xpcruntime:xpcimports.obj
 0002:00008940       ??_C@_0BA@BGPAADB@rl32eGetPCIInfo?$AA@ 1004b940     xpcruntime:xpcimports.obj
 0002:00008950       ??_C@_0BL@IGOMLDCK@rl32eGetPCIInfo?5not?5found?6?$AA@ 1004b950     xpcruntime:xpcimports.obj
 0002:0000896c       ??_C@_0BG@NJPFKFDP@rl32eGetPCIInfoAtSlot?$AA@ 1004b96c     xpcruntime:xpcimports.obj
 0002:00008984       ??_C@_0CB@BBKIPMLA@rl32eGetPCIInfoAtSlot?5not?5found?6@ 1004b984     xpcruntime:xpcimports.obj
 0002:000089a8       ??_C@_0BH@OKBOPNFG@xpceAssignPCIInterrupt?$AA@ 1004b9a8     xpcruntime:xpcimports.obj
 0002:000089c0       ??_C@_0CC@CDNDNJBJ@xpceAssignPCIInterrupt?5not?5found@ 1004b9c0     xpcruntime:xpcimports.obj
 0002:000089e4       ??_C@_0BB@FCHHFAAH@rl32eInitCOMPort?$AA@ 1004b9e4     xpcruntime:xpcimports.obj
 0002:000089f8       ??_C@_0BM@DDJGKAHB@rl32eInitCOMPort?5not?5found?6?$AA@ 1004b9f8     xpcruntime:xpcimports.obj
 0002:00008a14       ??_C@_0BC@CHEEFCP@rl32eCloseCOMPort?$AA@ 1004ba14     xpcruntime:xpcimports.obj
 0002:00008a28       ??_C@_0BN@KCOFELEM@rl32eCloseCOMPort?5not?5found?6?$AA@ 1004ba28     xpcruntime:xpcimports.obj
 0002:00008a48       ??_C@_0O@LLJGKFOG@rl32eSendChar?$AA@ 1004ba48     xpcruntime:xpcimports.obj
 0002:00008a58       ??_C@_0BJ@JCJKDACJ@rl32eSendChar?5not?5found?6?$AA@ 1004ba58     xpcruntime:xpcimports.obj
 0002:00008a74       ??_C@_0BB@OMFKCOEK@rl32eReceiveChar?$AA@ 1004ba74     xpcruntime:xpcimports.obj
 0002:00008a88       ??_C@_0BM@HGAIOAND@rl32eReceiveChar?5not?5found?6?$AA@ 1004ba88     xpcruntime:xpcimports.obj
 0002:00008aa4       ??_C@_0BI@PKEJFHMJ@rl32eReceiveBufferCount?$AA@ 1004baa4     xpcruntime:xpcimports.obj
 0002:00008abc       ??_C@_0CD@LNMOFLAH@rl32eReceiveBufferCount?5not?5foun@ 1004babc     xpcruntime:xpcimports.obj
 0002:00008ae0       ??_C@_0BA@CFIJOJPK@rl32eLineStatus?$AA@ 1004bae0     xpcruntime:xpcimports.obj
 0002:00008af0       ??_C@_0BL@PLIDKKGI@rl32eLineStatus?5not?5found?6?$AA@ 1004baf0     xpcruntime:xpcimports.obj
 0002:00008b0c       ??_C@_0P@MDMKIJF@rl32eSendBlock?$AA@ 1004bb0c     xpcruntime:xpcimports.obj
 0002:00008b1c       ??_C@_0BK@KNBNFIKH@rl32eSendBlock?5not?5found?6?$AA@ 1004bb1c     xpcruntime:xpcimports.obj
 0002:00008b38       ??_C@_0BD@PCKOKHO@xpceGetSignalValue?$AA@ 1004bb38     xpcruntime:xpcimports.obj
 0002:00008b4c       ??_C@_0BO@GCBDJHMB@xpceGetSignalValue?5not?5found?6?$AA@ 1004bb4c     xpcruntime:xpcimports.obj
 0002:00008b6c       ??_C@_0BB@BJONJAGA@xpceSetParameter?$AA@ 1004bb6c     xpcruntime:xpcimports.obj
 0002:00008b80       ??_C@_0BM@BJIKDLHA@xpceSetParameter?5not?5found?6?$AA@ 1004bb80     xpcruntime:xpcimports.obj
 0002:00008b9c       ??_C@_0BB@GNFDFMCM@xpceGetParameter?$AA@ 1004bb9c     xpcruntime:xpcimports.obj
 0002:00008bb0       ??_C@_0BM@POHNKBC@xpceGetParameter?5not?5found?6?$AA@ 1004bbb0     xpcruntime:xpcimports.obj
 0002:00008bcc       ??_C@_0BB@CEIJLFCD@xpceGetParamDims?$AA@ 1004bbcc     xpcruntime:xpcimports.obj
 0002:00008be0       ??_C@_0BM@OABDBKAO@xpceGetParamDims?5not?5found?6?$AA@ 1004bbe0     xpcruntime:xpcimports.obj
 0002:00008bfc       ??_C@_0L@OCBLLHBM@xpceGetTET?$AA@ 1004bbfc     xpcruntime:xpcimports.obj
 0002:00008c08       ??_C@_0BG@HNOFBOB@xpceGetTET?5not?5found?6?$AA@ 1004bc08     xpcruntime:xpcimports.obj
 0002:00008c20       ??_C@_0BA@FHMIOKFL@xpceUDPOpenSend?$AA@ 1004bc20     xpcruntime:xpcimports.obj
 0002:00008c30       ??_C@_0BL@HNLPFEK@xpceUDPOpenSend?5not?5found?6?$AA@ 1004bc30     xpcruntime:xpcimports.obj
 0002:00008c4c       ??_C@_0BD@BCELJJJL@xpceUDPOpenReceive?$AA@ 1004bc4c     xpcruntime:xpcimports.obj
 0002:00008c60       ??_C@_0BO@IFKJBHKC@xpceUDPOpenReceive?5not?5found?6?$AA@ 1004bc60     xpcruntime:xpcimports.obj
 0002:00008c80       ??_C@_0M@OFPFLJGN@xpceUDPSend?$AA@ 1004bc80     xpcruntime:xpcimports.obj
 0002:00008c8c       ??_C@_0BH@NOIKLPAB@xpceUDPSend?5not?5found?6?$AA@ 1004bc8c     xpcruntime:xpcimports.obj
 0002:00008ca4       ??_C@_0P@PLFDECIN@xpceUDPReceive?$AA@ 1004bca4     xpcruntime:xpcimports.obj
 0002:00008cb4       ??_C@_0BK@OPJMLDLH@xpceUDPReceive?5not?5found?6?$AA@ 1004bcb4     xpcruntime:xpcimports.obj
 0002:00008cd0       ??_C@_0N@IEHPMFME@xpceUDPClose?$AA@ 1004bcd0     xpcruntime:xpcimports.obj
 0002:00008ce0       ??_C@_0BI@FHPFHECO@xpceUDPClose?5not?5found?6?$AA@ 1004bce0     xpcruntime:xpcimports.obj
 0002:00008cf8       ??_C@_0P@OKGNGAGH@xpcIsModelInit?$AA@ 1004bcf8     xpcruntime:xpcimports.obj
 0002:00008d08       ??_C@_0BK@DHEMLBIM@xpcIsModelInit?5not?5found?6?$AA@ 1004bd08     xpcruntime:xpcimports.obj
 0002:00008d24       ??_C@_0BH@KJJLCAOJ@xpcAllocPhysicalMemory?$AA@ 1004bd24     xpcruntime:xpcimports.obj
 0002:00008d3c       ??_C@_0CC@MOJPNHKL@xpcAllocPhysicalMemory?5not?5found@ 1004bd3c     xpcruntime:xpcimports.obj
 0002:00008d60       ??_C@_0BG@CBNPGAEL@xpcFreePhysicalMemory?$AA@ 1004bd60     xpcruntime:xpcimports.obj
 0002:00008d78       ??_C@_0CB@PKJEBPOG@xpcFreePhysicalMemory?5not?5found?6@ 1004bd78     xpcruntime:xpcimports.obj
 0002:00008d9c       ??_C@_0BC@JGKNLICL@xpcGetElapsedTime?$AA@ 1004bd9c     xpcruntime:xpcimports.obj
 0002:00008db0       ??_C@_0BN@OEOAHCIO@xpcGetElapsedTime?5not?5found?6?$AA@ 1004bdb0     xpcruntime:xpcimports.obj
 0002:00008dd0       ??_C@_0M@ICBLMODA@xpcBusyWait?$AA@ 1004bdd0     xpcruntime:xpcimports.obj
 0002:00008ddc       ??_C@_0BH@FBOPECBI@xpcBusyWait?5not?5found?6?$AA@ 1004bddc     xpcruntime:xpcimports.obj
 0002:00008df4       ??_C@_0N@LKKJEKKA@TBCreateSpin?$AA@ 1004bdf4     xpcruntime:xpcimports.obj
 0002:00008e04       ??_C@_0BI@FHKMLKOE@TBCreateSpin?5not?5found?6?$AA@ 1004be04     xpcruntime:xpcimports.obj
 0002:00008e1c       ??_C@_0N@HOAJHNBD@TBDeleteSpin?$AA@ 1004be1c     xpcruntime:xpcimports.obj
 0002:00008e2c       ??_C@_0BI@BKCPAAG@TBDeleteSpin?5not?5found?6?$AA@ 1004be2c     xpcruntime:xpcimports.obj
 0002:00008e44       ??_C@_0P@DAHDDBJG@TBTakeSpinFast?$AA@ 1004be44     xpcruntime:xpcimports.obj
 0002:00008e54       ??_C@_0BK@NKAIBHGB@TBTakeSpinFast?5not?5found?6?$AA@ 1004be54     xpcruntime:xpcimports.obj
 0002:00008e70       ??_C@_0P@FKNAAELA@TBGiveSpinFast?$AA@ 1004be70     xpcruntime:xpcimports.obj
 0002:00008e80       ??_C@_0BK@KGPJBJND@TBGiveSpinFast?5not?5found?6?$AA@ 1004be80     xpcruntime:xpcimports.obj
 0002:00008e9c       ??_C@_0BE@IIGBFDHK@xpceCreateSemaphore?$AA@ 1004be9c     xpcruntime:xpcimports.obj
 0002:00008eb0       ??_C@_0BP@KFBAFFKJ@xpceCreateSemaphore?5not?5found?6?$AA@ 1004beb0     xpcruntime:xpcimports.obj
 0002:00008ed0       ??_C@_0BC@IFNIONKJ@xpceWaitSemaphore?$AA@ 1004bed0     xpcruntime:xpcimports.obj
 0002:00008ee4       ??_C@_0BN@NMFAADIO@xpceWaitSemaphore?5not?5found?6?$AA@ 1004bee4     xpcruntime:xpcimports.obj
 0002:00008f04       ??_C@_0BE@NNDIOBKE@xpceSignalSemaphore?$AA@ 1004bf04     xpcruntime:xpcimports.obj
 0002:00008f18       ??_C@_0BP@LBANMHJP@xpceSignalSemaphore?5not?5found?6?$AA@ 1004bf18     xpcruntime:xpcimports.obj
 0002:00008f38       ??_C@_0BE@MEBEKOIM@xpceDeleteSemaphore?$AA@ 1004bf38     xpcruntime:xpcimports.obj
 0002:00008f4c       ??_C@_0BP@OFNCKOJH@xpceDeleteSemaphore?5not?5found?6?$AA@ 1004bf4c     xpcruntime:xpcimports.obj
 0002:00008f6c       ??_C@_0BD@MFNDMBOF@FindUsbVideoDevice?$AA@ 1004bf6c     xpcruntime:xpcimports.obj
 0002:00008f80       ??_C@_0BO@POKLDHMI@FindUsbVideoDevice?5not?5found?6?$AA@ 1004bf80     xpcruntime:xpcimports.obj
 0002:00008fa0       ??_C@_0BA@PLPAPNAB@GetVideoConfigs?$AA@ 1004bfa0     xpcruntime:xpcimports.obj
 0002:00008fb0       ??_C@_0BL@DALDHKHC@GetVideoConfigs?5not?5found?6?$AA@ 1004bfb0     xpcruntime:xpcimports.obj
 0002:00008fcc       ??_C@_0L@GBAEMHMH@StartVideo?$AA@ 1004bfcc     xpcruntime:xpcimports.obj
 0002:00008fd8       ??_C@_0BG@HDCELEBP@StartVideo?5not?5found?6?$AA@ 1004bfd8     xpcruntime:xpcimports.obj
 0002:00008ff0       ??_C@_0BA@FDNPOCLN@ReadFrameBuffer?$AA@ 1004bff0     xpcruntime:xpcimports.obj
 0002:00009000       ??_C@_0BL@JHGHPNBI@ReadFrameBuffer?5not?5found?6?$AA@ 1004c000     xpcruntime:xpcimports.obj
 0002:0000901c       ??_C@_09FAHCLKAG@StopVideo?$AA@ 1004c01c     xpcruntime:xpcimports.obj
 0002:00009028       ??_C@_0BF@NKGKKADL@StopVideo?5not?5found?6?$AA@ 1004c028     xpcruntime:xpcimports.obj
 0002:00009040       ??_C@_0O@MCPKDLLL@ConvertUImage?$AA@ 1004c040     xpcruntime:xpcimports.obj
 0002:00009050       ??_C@_0BJ@PHJKOAFL@ConvertUImage?5not?5found?6?$AA@ 1004c050     xpcruntime:xpcimports.obj
 0002:0000906c       ??_C@_0BD@NKCBPBJJ@CreateVideoDisplay?$AA@ 1004c06c     xpcruntime:xpcimports.obj
 0002:00009080       ??_C@_0BO@HPPLLNFP@CreateVideoDisplay?5not?5found?6?$AA@ 1004c080     xpcruntime:xpcimports.obj
 0002:000090a0       ??_C@_0BE@KJCKGPHA@DestroyVideoDisplay?$AA@ 1004c0a0     xpcruntime:xpcimports.obj
 0002:000090b4       ??_C@_0BP@FMGLJAIJ@DestroyVideoDisplay?5not?5found?6?$AA@ 1004c0b4     xpcruntime:xpcimports.obj
 0002:000090d4       ??_C@_0BC@HCMIMIDN@StartVideoDisplay?$AA@ 1004c0d4     xpcruntime:xpcimports.obj
 0002:000090e8       ??_C@_0BN@EFIEBGOO@StartVideoDisplay?5not?5found?6?$AA@ 1004c0e8     xpcruntime:xpcimports.obj
 0002:00009108       ??_C@_0BB@JBBLMILG@StopVideoDisplay?$AA@ 1004c108     xpcruntime:xpcimports.obj
 0002:0000911c       ??_C@_0BM@DBJBPLEL@StopVideoDisplay?5not?5found?6?$AA@ 1004c11c     xpcruntime:xpcimports.obj
 0002:00009138       ??_C@_0M@MFJEGMHC@StreamVideo?$AA@ 1004c138     xpcruntime:xpcimports.obj
 0002:00009144       ??_C@_0BH@OINCDMLA@StreamVideo?5not?5found?6?$AA@ 1004c144     xpcruntime:xpcimports.obj
 0002:0000915c       ??_C@_0N@IGGLCIGE@xpceaddEvent?$AA@ 1004c15c     xpcruntime:xpcimports.obj
 0002:0000916c       ??_C@_0BI@NHJNFMKH@xpceaddEvent?5not?5found?6?$AA@ 1004c16c     xpcruntime:xpcimports.obj
 0002:00009184       ??_C@_0BB@LCMHHHFN@getMemoryService?$AA@ 1004c184     xpcruntime:xpcimports.obj
 0002:00009198       ??_C@_0BM@MPLCNIIE@getMemoryService?5not?5found?6?$AA@ 1004c198     xpcruntime:xpcimports.obj
 0002:000091b4       ??_C@_0P@KIKONDKK@getCommService?$AA@ 1004c1b4     xpcruntime:xpcimports.obj
 0002:000091c4       ??_C@_0BK@NCECBKNM@getCommService?5not?5found?6?$AA@ 1004c1c4     xpcruntime:xpcimports.obj
 0002:000091e0       ??_C@_0P@GDLHFECE@getStatusFlags?$AA@ 1004c1e0     xpcruntime:xpcimports.obj
 0002:000091f0       ??_C@_0BK@NEKDLJHG@getStatusFlags?5not?5found?6?$AA@ 1004c1f0     xpcruntime:xpcimports.obj
 0002:0000920c       ??_C@_0BL@CDFCLKOL@startToAsyncQueueTgtAppSvc?$AA@ 1004c20c     xpcruntime:xpcimports.obj
 0002:00009228       ??_C@_0CG@JGOFFKEL@startToAsyncQueueTgtAppSvc?5not?5f@ 1004c228     xpcruntime:xpcimports.obj
 0002:00009250       ??_C@_0BP@IJNGPPPE@terminateToAsyncQueueTgtAppSvc?$AA@ 1004c250     xpcruntime:xpcimports.obj
 0002:00009270       ??_C@_0CK@NDEMAMKF@terminateToAsyncQueueTgtAppSvc?5n@ 1004c270     xpcruntime:xpcimports.obj
 0002:0000929c       ??_C@_0BK@IDACEHAO@sendToAsyncQueueTgtAppSvc?$AA@ 1004c29c     xpcruntime:xpcimports.obj
 0002:000092b8       ??_C@_0CF@PNCKPEHN@sendToAsyncQueueTgtAppSvc?5not?5fo@ 1004c2b8     xpcruntime:xpcimports.obj
 0002:000092e0       ??_C@_0BN@HJOHIFOM@xpceGetIntTimerGranularityNS?$AA@ 1004c2e0     xpcruntime:xpcimports.obj
 0002:00009300       ??_C@_0CI@OADDPMKB@xpceGetIntTimerGranularityNS?5not@ 1004c300     xpcruntime:xpcimports.obj
 0002:00009328       ??_C@_0BG@CCHICKPN@slrteSetStepSizeDelta?$AA@ 1004c328     xpcruntime:xpcimports.obj
 0002:00009340       ??_C@_0CB@MKHINEIJ@slrteSetStepSizeDelta?5not?5found?6@ 1004c340     xpcruntime:xpcimports.obj
 0002:00009364       ??_C@_0BI@CLNBLDKJ@slrteGetCurrentStepSize?$AA@ 1004c364     xpcruntime:xpcimports.obj
 0002:0000937c       ??_C@_0CD@GIOJPGJA@slrteGetCurrentStepSize?5not?5foun@ 1004c37c     xpcruntime:xpcimports.obj
 0002:000093a0       ??_C@_0BE@FCLCBOC@registerPTPTimeRead?$AA@ 1004c3a0     xpcruntime:xpcimports.obj
 0002:000093b4       ??_C@_0BP@LHPKAJIP@registerPTPTimeRead?5not?5found?6?$AA@ 1004c3b4     xpcruntime:xpcimports.obj
 0002:000093d4       ??_C@_0BG@KIGCDDJI@unRegisterPTPTimeRead?$AA@ 1004c3d4     xpcruntime:xpcimports.obj
 0002:000093ec       ??_C@_0CB@MLFFBFCM@unRegisterPTPTimeRead?5not?5found?6@ 1004c3ec     xpcruntime:xpcimports.obj
 0002:00009410       ??_C@_0BB@IPMDDBHK@slTestInitialize?$AA@ 1004c410     xpcruntime:xpcimports.obj
 0002:00009424       ??_C@_0BM@LAJFCCJH@slTestInitialize?5not?5found?6?$AA@ 1004c424     xpcruntime:xpcimports.obj
 0002:00009440       ??_C@_0BF@OOMPMEBC@slTestLogAssessments?$AA@ 1004c440     xpcruntime:xpcimports.obj
 0002:00009458       ??_C@_0CA@FGJCEBAG@slTestLogAssessments?5not?5found?6?$AA@ 1004c458     xpcruntime:xpcimports.obj
 0002:00009478       ??_C@_0BB@HJHKONHO@slTestEvalOnFail?$AA@ 1004c478     xpcruntime:xpcimports.obj
 0002:0000948c       ??_C@_0BM@JIKCFFNJ@slTestEvalOnFail?5not?5found?6?$AA@ 1004c48c     xpcruntime:xpcimports.obj
 0002:000094a8       ??_C@_0BA@LBHLABFP@slTestTerminate?$AA@ 1004c4a8     xpcruntime:xpcimports.obj
 0002:000094b8       ??_C@_0BL@EMFGKAPA@slTestTerminate?5not?5found?6?$AA@ 1004c4b8     xpcruntime:xpcimports.obj
 0002:000094d4       ??_C@_0BE@JPNPBBEO@slTestRegAssessment?$AA@ 1004c4d4     xpcruntime:xpcimports.obj
 0002:000094e8       ??_C@_0BP@FBDEJJJH@slTestRegAssessment?5not?5found?6?$AA@ 1004c4e8     xpcruntime:xpcimports.obj
 0002:00009594       __FPinit                   1004c594     LIBCMT:fpinit.obj
 0002:000095a0       ??_C@_1BI@BGOHAHKC@?$AAm?$AAs?$AAc?$AAo?$AAr?$AAe?$AAe?$AA?4?$AAd?$AAl?$AAl?$AA?$AA@ 1004c5a0     LIBCMT:crt0dat.obj
 0002:000095b8       ??_C@_0P@MIGLKIOC@CorExitProcess?$AA@ 1004c5b8     LIBCMT:crt0dat.obj
 0002:000095c8       ??_C@_17LGKOMLJ@?$AA?4?$AA?4?$AA?4?$AA?$AA@ 1004c5c8     LIBCMT:wassert.obj
 0002:000095d0       ??_C@_13LBAGMAIH@?$AA?6?$AA?$AA@ 1004c5d0     LIBCMT:wassert.obj
 0002:000095d4       ??_C@_15IABLJNFO@?$AA?6?$AA?6?$AA?$AA@ 1004c5d4     LIBCMT:wassert.obj
 0002:000095dc       ??_C@_1CE@OJBNHDMO@?$AAA?$AAs?$AAs?$AAe?$AAr?$AAt?$AAi?$AAo?$AAn?$AA?5?$AAf?$AAa?$AAi?$AAl?$AAe?$AAd?$AA?$CB?$AA?$AA@ 1004c5dc     LIBCMT:wassert.obj
 0002:00009600       ??_C@_1BE@PHKBBGE@?$AAP?$AAr?$AAo?$AAg?$AAr?$AAa?$AAm?$AA?3?$AA?5?$AA?$AA@ 1004c600     LIBCMT:wassert.obj
 0002:00009614       ??_C@_1CO@EAEJAADC@?$AA?$DM?$AAp?$AAr?$AAo?$AAg?$AAr?$AAa?$AAm?$AA?5?$AAn?$AAa?$AAm?$AAe?$AA?5?$AAu?$AAn?$AAk?$AAn?$AAo?$AAw?$AAn?$AA?$DO?$AA?$AA@ 1004c614     LIBCMT:wassert.obj
 0002:00009644       ??_C@_1O@HEMHKNDC@?$AAF?$AAi?$AAl?$AAe?$AA?3?$AA?5?$AA?$AA@ 1004c644     LIBCMT:wassert.obj
 0002:00009654       ??_C@_1O@KCAFKHJE@?$AAL?$AAi?$AAn?$AAe?$AA?3?$AA?5?$AA?$AA@ 1004c654     LIBCMT:wassert.obj
 0002:00009664       ??_C@_1BK@PEDCIPMA@?$AAE?$AAx?$AAp?$AAr?$AAe?$AAs?$AAs?$AAi?$AAo?$AAn?$AA?3?$AA?5?$AA?$AA@ 1004c664     LIBCMT:wassert.obj
 0002:00009680       ??_C@_1OA@EGMLFBHJ@?$AAF?$AAo?$AAr?$AA?5?$AAi?$AAn?$AAf?$AAo?$AAr?$AAm?$AAa?$AAt?$AAi?$AAo?$AAn?$AA?5?$AAo?$AAn?$AA?5?$AAh?$AAo?$AAw?$AA?5?$AAy?$AAo?$AAu?$AAr?$AA?5?$AAp?$AAr?$AAo?$AAg@ 1004c680     LIBCMT:wassert.obj
 0002:00009760       ??_C@_1HK@POCJMFGK@?$AA?$CI?$AAP?$AAr?$AAe?$AAs?$AAs?$AA?5?$AAR?$AAe?$AAt?$AAr?$AAy?$AA?5?$AAt?$AAo?$AA?5?$AAd?$AAe?$AAb?$AAu?$AAg?$AA?5?$AAt?$AAh?$AAe?$AA?5?$AAa?$AAp?$AAp?$AAl?$AAi?$AAc@ 1004c760     LIBCMT:wassert.obj
 0002:000097e0       ??_C@_1EK@MBDPDCGA@?$AAM?$AAi?$AAc?$AAr?$AAo?$AAs?$AAo?$AAf?$AAt?$AA?5?$AAV?$AAi?$AAs?$AAu?$AAa?$AAl?$AA?5?$AAC?$AA?$CL?$AA?$CL?$AA?5?$AAR?$AAu?$AAn?$AAt?$AAi?$AAm?$AAe?$AA?5?$AAL?$AAi?$AAb@ 1004c7e0     LIBCMT:wassert.obj
 0002:0000982c       __pRawDllMain              1004c82c     LIBCMT:dllcrt0.obj
 0002:0000982c       __pDefaultRawDllMain       1004c82c     LIBCMT:dllcrt0.obj
 0002:00009830       ?ProcessDetach@NativeDll@<CrtImplementationDetails>@@0IB 1004c830     LIBCMT:handler.obj
 0002:00009834       ?ProcessAttach@NativeDll@<CrtImplementationDetails>@@0IB 1004c834     LIBCMT:handler.obj
 0002:00009838       ?ThreadAttach@NativeDll@<CrtImplementationDetails>@@0IB 1004c838     LIBCMT:handler.obj
 0002:0000983c       ?ThreadDetach@NativeDll@<CrtImplementationDetails>@@0IB 1004c83c     LIBCMT:handler.obj
 0002:00009840       ?ProcessVerifier@NativeDll@<CrtImplementationDetails>@@0IB 1004c840     LIBCMT:handler.obj
 0002:00009900       ??_C@_1FK@PGACCAFB@?$AAR?$AA6?$AA0?$AA0?$AA2?$AA?$AN?$AA?6?$AA?9?$AA?5?$AAf?$AAl?$AAo?$AAa?$AAt?$AAi?$AAn?$AAg?$AA?5?$AAp?$AAo?$AAi?$AAn?$AAt?$AA?5?$AAs?$AAu?$AAp?$AAp?$AAo?$AAr?$AAt?$AA?5@ 1004c900     LIBCMT:crt0msg.obj
 0002:00009960       ??_C@_1FE@LLNEDJMD@?$AAR?$AA6?$AA0?$AA0?$AA8?$AA?$AN?$AA?6?$AA?9?$AA?5?$AAn?$AAo?$AAt?$AA?5?$AAe?$AAn?$AAo?$AAu?$AAg?$AAh?$AA?5?$AAs?$AAp?$AAa?$AAc?$AAe?$AA?5?$AAf?$AAo?$AAr?$AA?5?$AAa?$AAr@ 1004c960     LIBCMT:crt0msg.obj
 0002:000099b8       ??_C@_1FI@HONFMGBI@?$AAR?$AA6?$AA0?$AA0?$AA9?$AA?$AN?$AA?6?$AA?9?$AA?5?$AAn?$AAo?$AAt?$AA?5?$AAe?$AAn?$AAo?$AAu?$AAg?$AAh?$AA?5?$AAs?$AAp?$AAa?$AAc?$AAe?$AA?5?$AAf?$AAo?$AAr?$AA?5?$AAe?$AAn@ 1004c9b8     LIBCMT:crt0msg.obj
 0002:00009a10       ??_C@_1EG@BEHAGFJD@?$AAR?$AA6?$AA0?$AA1?$AA0?$AA?$AN?$AA?6?$AA?9?$AA?5?$AAa?$AAb?$AAo?$AAr?$AAt?$AA?$CI?$AA?$CJ?$AA?5?$AAh?$AAa?$AAs?$AA?5?$AAb?$AAe?$AAe?$AAn?$AA?5?$AAc?$AAa?$AAl?$AAl?$AAe?$AAd@ 1004ca10     LIBCMT:crt0msg.obj
 0002:00009a58       ??_C@_1FI@LOGNIKDM@?$AAR?$AA6?$AA0?$AA1?$AA6?$AA?$AN?$AA?6?$AA?9?$AA?5?$AAn?$AAo?$AAt?$AA?5?$AAe?$AAn?$AAo?$AAu?$AAg?$AAh?$AA?5?$AAs?$AAp?$AAa?$AAc?$AAe?$AA?5?$AAf?$AAo?$AAr?$AA?5?$AAt?$AAh@ 1004ca58     LIBCMT:crt0msg.obj
 0002:00009ab0       ??_C@_1FK@BEOGODMC@?$AAR?$AA6?$AA0?$AA1?$AA7?$AA?$AN?$AA?6?$AA?9?$AA?5?$AAu?$AAn?$AAe?$AAx?$AAp?$AAe?$AAc?$AAt?$AAe?$AAd?$AA?5?$AAm?$AAu?$AAl?$AAt?$AAi?$AAt?$AAh?$AAr?$AAe?$AAa?$AAd?$AA?5@ 1004cab0     LIBCMT:crt0msg.obj
 0002:00009b10       ??_C@_1EC@JIBHAOPH@?$AAR?$AA6?$AA0?$AA1?$AA8?$AA?$AN?$AA?6?$AA?9?$AA?5?$AAu?$AAn?$AAe?$AAx?$AAp?$AAe?$AAc?$AAt?$AAe?$AAd?$AA?5?$AAh?$AAe?$AAa?$AAp?$AA?5?$AAe?$AAr?$AAr?$AAo?$AAr?$AA?$AN?$AA?6@ 1004cb10     LIBCMT:crt0msg.obj
 0002:00009b58       ??_C@_1FC@ECHBIFBC@?$AAR?$AA6?$AA0?$AA1?$AA9?$AA?$AN?$AA?6?$AA?9?$AA?5?$AAu?$AAn?$AAa?$AAb?$AAl?$AAe?$AA?5?$AAt?$AAo?$AA?5?$AAo?$AAp?$AAe?$AAn?$AA?5?$AAc?$AAo?$AAn?$AAs?$AAo?$AAl?$AAe?$AA?5@ 1004cb58     LIBCMT:crt0msg.obj
 0002:00009bb0       ??_C@_1GK@FHCKBEFA@?$AAR?$AA6?$AA0?$AA2?$AA4?$AA?$AN?$AA?6?$AA?9?$AA?5?$AAn?$AAo?$AAt?$AA?5?$AAe?$AAn?$AAo?$AAu?$AAg?$AAh?$AA?5?$AAs?$AAp?$AAa?$AAc?$AAe?$AA?5?$AAf?$AAo?$AAr?$AA?5?$AA_?$AAo@ 1004cbb0     LIBCMT:crt0msg.obj
 0002:00009c20       ??_C@_1EM@MAADIHMB@?$AAR?$AA6?$AA0?$AA2?$AA5?$AA?$AN?$AA?6?$AA?9?$AA?5?$AAp?$AAu?$AAr?$AAe?$AA?5?$AAv?$AAi?$AAr?$AAt?$AAu?$AAa?$AAl?$AA?5?$AAf?$AAu?$AAn?$AAc?$AAt?$AAi?$AAo?$AAn?$AA?5?$AAc@ 1004cc20     LIBCMT:crt0msg.obj
 0002:00009c70       ??_C@_1GK@MCAAGJMO@?$AAR?$AA6?$AA0?$AA2?$AA6?$AA?$AN?$AA?6?$AA?9?$AA?5?$AAn?$AAo?$AAt?$AA?5?$AAe?$AAn?$AAo?$AAu?$AAg?$AAh?$AA?5?$AAs?$AAp?$AAa?$AAc?$AAe?$AA?5?$AAf?$AAo?$AAr?$AA?5?$AAs?$AAt@ 1004cc70     LIBCMT:crt0msg.obj
 0002:00009ce0       ??_C@_1GK@MFGOKLAG@?$AAR?$AA6?$AA0?$AA2?$AA7?$AA?$AN?$AA?6?$AA?9?$AA?5?$AAn?$AAo?$AAt?$AA?5?$AAe?$AAn?$AAo?$AAu?$AAg?$AAh?$AA?5?$AAs?$AAp?$AAa?$AAc?$AAe?$AA?5?$AAf?$AAo?$AAr?$AA?5?$AAl?$AAo@ 1004cce0     LIBCMT:crt0msg.obj
 0002:00009d50       ??_C@_1EK@HHFLMAOL@?$AAR?$AA6?$AA0?$AA2?$AA8?$AA?$AN?$AA?6?$AA?9?$AA?5?$AAu?$AAn?$AAa?$AAb?$AAl?$AAe?$AA?5?$AAt?$AAo?$AA?5?$AAi?$AAn?$AAi?$AAt?$AAi?$AAa?$AAl?$AAi?$AAz?$AAe?$AA?5?$AAh?$AAe@ 1004cd50     LIBCMT:crt0msg.obj
 0002:00009d9c       ??_C@_1DO@BMFCDCD@?$AAR?$AA6?$AA0?$AA3?$AA0?$AA?$AN?$AA?6?$AA?9?$AA?5?$AAC?$AAR?$AAT?$AA?5?$AAn?$AAo?$AAt?$AA?5?$AAi?$AAn?$AAi?$AAt?$AAi?$AAa?$AAl?$AAi?$AAz?$AAe?$AAd?$AA?$AN?$AA?6?$AA?$AA@ 1004cd9c     LIBCMT:crt0msg.obj
 0002:00009de0       ??_C@_1MG@ENCOOIDF@?$AAR?$AA6?$AA0?$AA3?$AA1?$AA?$AN?$AA?6?$AA?9?$AA?5?$AAA?$AAt?$AAt?$AAe?$AAm?$AAp?$AAt?$AA?5?$AAt?$AAo?$AA?5?$AAi?$AAn?$AAi?$AAt?$AAi?$AAa?$AAl?$AAi?$AAz?$AAe?$AA?5?$AAt@ 1004cde0     LIBCMT:crt0msg.obj
 0002:00009ea8       ??_C@_1GG@GOPILAJP@?$AAR?$AA6?$AA0?$AA3?$AA2?$AA?$AN?$AA?6?$AA?9?$AA?5?$AAn?$AAo?$AAt?$AA?5?$AAe?$AAn?$AAo?$AAu?$AAg?$AAh?$AA?5?$AAs?$AAp?$AAa?$AAc?$AAe?$AA?5?$AAf?$AAo?$AAr?$AA?5?$AAl?$AAo@ 1004cea8     LIBCMT:crt0msg.obj
 0002:00009f10       ??_C@_1BOO@KGEDBGAJ@?$AAR?$AA6?$AA0?$AA3?$AA3?$AA?$AN?$AA?6?$AA?9?$AA?5?$AAA?$AAt?$AAt?$AAe?$AAm?$AAp?$AAt?$AA?5?$AAt?$AAo?$AA?5?$AAu?$AAs?$AAe?$AA?5?$AAM?$AAS?$AAI?$AAL?$AA?5?$AAc?$AAo?$AAd@ 1004cf10     LIBCMT:crt0msg.obj
 0002:0000a100       ??_C@_1GG@MKFPEKFO@?$AAR?$AA6?$AA0?$AA3?$AA4?$AA?$AN?$AA?6?$AA?9?$AA?5?$AAi?$AAn?$AAc?$AAo?$AAn?$AAs?$AAi?$AAs?$AAt?$AAe?$AAn?$AAt?$AA?5?$AAo?$AAn?$AAe?$AAx?$AAi?$AAt?$AA?5?$AAb?$AAe?$AAg@ 1004d100     LIBCMT:crt0msg.obj
 0002:0000a168       ??_C@_1BO@BFCDCGC@?$AAD?$AAO?$AAM?$AAA?$AAI?$AAN?$AA?5?$AAe?$AAr?$AAr?$AAo?$AAr?$AA?$AN?$AA?6?$AA?$AA@ 1004d168     LIBCMT:crt0msg.obj
 0002:0000a188       ??_C@_1BK@KMOMNAAI@?$AAS?$AAI?$AAN?$AAG?$AA?5?$AAe?$AAr?$AAr?$AAo?$AAr?$AA?$AN?$AA?6?$AA?$AA@ 1004d188     LIBCMT:crt0msg.obj
 0002:0000a1a4       ??_C@_1BM@JBBEPPHI@?$AAT?$AAL?$AAO?$AAS?$AAS?$AA?5?$AAe?$AAr?$AAr?$AAo?$AAr?$AA?$AN?$AA?6?$AA?$AA@ 1004d1a4     LIBCMT:crt0msg.obj
 0002:0000a1c0       ??_C@_15JNBOKNOG@?$AA?$AN?$AA?6?$AA?$AA@ 1004d1c0     LIBCMT:crt0msg.obj
 0002:0000a1c8       ??_C@_1BO@BKOMIGKJ@?$AAr?$AAu?$AAn?$AAt?$AAi?$AAm?$AAe?$AA?5?$AAe?$AAr?$AAr?$AAo?$AAr?$AA?5?$AA?$AA@ 1004d1c8     LIBCMT:crt0msg.obj
 0002:0000a1e8       ??_C@_1DE@JNGNBFGO@?$AAR?$AAu?$AAn?$AAt?$AAi?$AAm?$AAe?$AA?5?$AAE?$AAr?$AAr?$AAo?$AAr?$AA?$CB?$AA?6?$AA?6?$AAP?$AAr?$AAo?$AAg?$AAr?$AAa?$AAm?$AA?3?$AA?5?$AA?$AA@ 1004d1e8     LIBCMT:crt0msg.obj
 0002:0000a21c       ??_C@_06OJHGLDPL@?$CInull?$CJ?$AA@ 1004d21c     LIBCMT:output.obj
 0002:0000a224       ??_C@_1O@CEDCILHN@?$AA?$CI?$AAn?$AAu?$AAl?$AAl?$AA?$CJ?$AA?$AA@ 1004d224     LIBCMT:output.obj
 0002:0000a238       ___lookuptable             1004d238     LIBCMT:output.obj
 0002:0000a294       ??_C@_04FJHINJAO@tanh?$AA@ 1004d294     LIBCMT:fpexcept.obj
 0002:0000a29c       ??_C@_04FIHNOPOL@asin?$AA@ 1004d29c     LIBCMT:fpexcept.obj
 0002:0000a2a4       ??_C@_04PDIFKINK@acos?$AA@ 1004d2a4     LIBCMT:fpexcept.obj
 0002:0000a2ac       ??_C@_04MLLJIGOK@atan?$AA@ 1004d2ac     LIBCMT:fpexcept.obj
 0002:0000a2b4       ??_C@_05KNGEOGJB@atan2?$AA@ 1004d2b4     LIBCMT:fpexcept.obj
 0002:0000a2bc       ??_C@_04EIAKFFMI@sqrt?$AA@ 1004d2bc     LIBCMT:fpexcept.obj
 0002:0000a2c4       ??_C@_03BLEJJJBH@sin?$AA@  1004d2c4     LIBCMT:fpexcept.obj
 0002:0000a2c8       ??_C@_03LALBNOCG@cos?$AA@  1004d2c8     LIBCMT:fpexcept.obj
 0002:0000a2cc       ??_C@_03IIINPABG@tan?$AA@  1004d2cc     LIBCMT:fpexcept.obj
 0002:0000a2d0       ??_C@_04GFPJNGEK@ceil?$AA@ 1004d2d0     LIBCMT:fpexcept.obj
 0002:0000a2d8       ??_C@_05PBJFFIGL@floor?$AA@ 1004d2d8     LIBCMT:fpexcept.obj
 0002:0000a2e0       ??_C@_04ODHECPBC@fabs?$AA@ 1004d2e0     LIBCMT:fpexcept.obj
 0002:0000a2e8       ??_C@_04EHEDPDJG@modf?$AA@ 1004d2e8     LIBCMT:fpexcept.obj
 0002:0000a2f0       ??_C@_05CEJMAHNP@ldexp?$AA@ 1004d2f0     LIBCMT:fpexcept.obj
 0002:0000a2f8       ??_C@_05KBKMEMPO@_cabs?$AA@ 1004d2f8     LIBCMT:fpexcept.obj
 0002:0000a300       ??_C@_06MEIMCGCF@_hypot?$AA@ 1004d300     LIBCMT:fpexcept.obj
 0002:0000a308       ??_C@_04KEPJIHGP@fmod?$AA@ 1004d308     LIBCMT:fpexcept.obj
 0002:0000a310       ??_C@_05GKKHEGJL@frexp?$AA@ 1004d310     LIBCMT:fpexcept.obj
 0002:0000a318       ??_C@_03MJLDFKDL@_y0?$AA@  1004d318     LIBCMT:fpexcept.obj
 0002:0000a31c       ??_C@_03NAKIGLHK@_y1?$AA@  1004d31c     LIBCMT:fpexcept.obj
 0002:0000a320       ??_C@_03ONILCKOB@_yn?$AA@  1004d320     LIBCMT:fpexcept.obj
 0002:0000a324       ??_C@_05JGDBENOH@_logb?$AA@ 1004d324     LIBCMT:fpexcept.obj
 0002:0000a32c       ??_C@_0L@KDOEJCKC@_nextafter?$AA@ 1004d32c     LIBCMT:fpexcept.obj
 0002:0000a338       ??_C@_03KHJOGHMM@exp?$AA@  1004d338     LIBCMT:fpexcept.obj
 0002:0000a33c       ??_C@_03JGHBODFD@pow?$AA@  1004d33c     LIBCMT:fpexcept.obj
 0002:0000a340       ??_C@_03MGHMBJCF@log?$AA@  1004d340     LIBCMT:fpexcept.obj
 0002:0000a344       ??_C@_05HGHHAHAP@log10?$AA@ 1004d344     LIBCMT:fpexcept.obj
 0002:0000a34c       ??_C@_04COOMCNPB@sinh?$AA@ 1004d34c     LIBCMT:fpexcept.obj
 0002:0000a354       ??_C@_04HPJJNFIM@cosh?$AA@ 1004d354     LIBCMT:fpexcept.obj
 0002:0000a35c       ??_C@_05KLBDPFGC@e?$CL000?$AA@ 1004d35c     LIBCMT:cvt.obj
 0002:0000a364       ??_C@_1BK@MGMFAEKH@?$AAk?$AAe?$AAr?$AAn?$AAe?$AAl?$AA3?$AA2?$AA?4?$AAd?$AAl?$AAl?$AA?$AA@ 1004d364     LIBCMT:winapisupp.obj
 0002:0000a380       ??_C@_08KNHFBNJ@FlsAlloc?$AA@ 1004d380     LIBCMT:winapisupp.obj
 0002:0000a38c       ??_C@_07PEJMOBNF@FlsFree?$AA@ 1004d38c     LIBCMT:winapisupp.obj
 0002:0000a394       ??_C@_0M@GDNOONDI@FlsGetValue?$AA@ 1004d394     LIBCMT:winapisupp.obj
 0002:0000a3a0       ??_C@_0M@JCPCPOEF@FlsSetValue?$AA@ 1004d3a0     LIBCMT:winapisupp.obj
 0002:0000a3ac       ??_C@_0BM@HCFOFFN@InitializeCriticalSectionEx?$AA@ 1004d3ac     LIBCMT:winapisupp.obj
 0002:0000a3c8       ??_C@_0P@DLHPPCNH@CreateEventExW?$AA@ 1004d3c8     LIBCMT:winapisupp.obj
 0002:0000a3d8       ??_C@_0BD@KIEEOEEH@CreateSemaphoreExW?$AA@ 1004d3d8     LIBCMT:winapisupp.obj
 0002:0000a3ec       ??_C@_0BI@BKLFFAPO@SetThreadStackGuarantee?$AA@ 1004d3ec     LIBCMT:winapisupp.obj
 0002:0000a404       ??_C@_0BG@OGFAJCKC@CreateThreadpoolTimer?$AA@ 1004d404     LIBCMT:winapisupp.obj
 0002:0000a41c       ??_C@_0BD@LPLEMMDI@SetThreadpoolTimer?$AA@ 1004d41c     LIBCMT:winapisupp.obj
 0002:0000a430       ??_C@_0CA@FMNJENH@WaitForThreadpoolTimerCallbacks?$AA@ 1004d430     LIBCMT:winapisupp.obj
 0002:0000a450       ??_C@_0BF@DCFCCNOC@CloseThreadpoolTimer?$AA@ 1004d450     LIBCMT:winapisupp.obj
 0002:0000a468       ??_C@_0BF@FLABGKKM@CreateThreadpoolWait?$AA@ 1004d468     LIBCMT:winapisupp.obj
 0002:0000a480       ??_C@_0BC@MGCOHNA@SetThreadpoolWait?$AA@ 1004d480     LIBCMT:winapisupp.obj
 0002:0000a494       ??_C@_0BE@OCIOMIMP@CloseThreadpoolWait?$AA@ 1004d494     LIBCMT:winapisupp.obj
 0002:0000a4a8       ??_C@_0BJ@LKGHFHBO@FlushProcessWriteBuffers?$AA@ 1004d4a8     LIBCMT:winapisupp.obj
 0002:0000a4c4       ??_C@_0BP@KALKKPMO@FreeLibraryWhenCallbackReturns?$AA@ 1004d4c4     LIBCMT:winapisupp.obj
 0002:0000a4e4       ??_C@_0BK@DFNBACLA@GetCurrentProcessorNumber?$AA@ 1004d4e4     LIBCMT:winapisupp.obj
 0002:0000a500       ??_C@_0BP@KHGALBC@GetLogicalProcessorInformation?$AA@ 1004d500     LIBCMT:winapisupp.obj
 0002:0000a520       ??_C@_0BE@FKKLLFLM@CreateSymbolicLinkW?$AA@ 1004d520     LIBCMT:winapisupp.obj
 0002:0000a534       ??_C@_0BJ@OHNKDLIJ@SetDefaultDllDirectories?$AA@ 1004d534     LIBCMT:winapisupp.obj
 0002:0000a550       ??_C@_0BE@LJANKFHF@EnumSystemLocalesEx?$AA@ 1004d550     LIBCMT:winapisupp.obj
 0002:0000a564       ??_C@_0BA@IHGNDAEB@CompareStringEx?$AA@ 1004d564     LIBCMT:winapisupp.obj
 0002:0000a574       ??_C@_0BA@EPCJIIPD@GetDateFormatEx?$AA@ 1004d574     LIBCMT:winapisupp.obj
 0002:0000a584       ??_C@_0BA@ONOKGCMP@GetLocaleInfoEx?$AA@ 1004d584     LIBCMT:winapisupp.obj
 0002:0000a594       ??_C@_0BA@CIJJKCJJ@GetTimeFormatEx?$AA@ 1004d594     LIBCMT:winapisupp.obj
 0002:0000a5a4       ??_C@_0BJ@PBCCBIPI@GetUserDefaultLocaleName?$AA@ 1004d5a4     LIBCMT:winapisupp.obj
 0002:0000a5c0       ??_C@_0BC@CELBKLLA@IsValidLocaleName?$AA@ 1004d5c0     LIBCMT:winapisupp.obj
 0002:0000a5d4       ??_C@_0O@KKBNKAPF@LCMapStringEx?$AA@ 1004d5d4     LIBCMT:winapisupp.obj
 0002:0000a5e4       ??_C@_0BE@JOGNEJCI@GetCurrentPackageId?$AA@ 1004d5e4     LIBCMT:winapisupp.obj
 0002:0000a5f8       ??_C@_0P@CDHHOHKP@GetTickCount64?$AA@ 1004d5f8     LIBCMT:winapisupp.obj
 0002:0000a608       ??_C@_0BO@KPCLFDJJ@GetFileInformationByHandleExW?$AA@ 1004d608     LIBCMT:winapisupp.obj
 0002:0000a628       ??_C@_0BM@MHIDLABK@SetFileInformationByHandleW?$AA@ 1004d628     LIBCMT:winapisupp.obj
 0002:0000a644       ??_C@_1BK@GAEMIDIL@?$AAA?$AAD?$AAV?$AAA?$AAP?$AAI?$AA3?$AA2?$AA?4?$AAD?$AAL?$AAL?$AA?$AA@ 1004d644     LIBCMT:rand_s.obj
 0002:0000a660       ??_C@_0BC@JEAENNKH@SystemFunction036?$AA@ 1004d660     LIBCMT:rand_s.obj
 0002:0000a684       ??_C@_1M@HPNHIDJI@?$AAj?$AAa?$AA?9?$AAJ?$AAP?$AA?$AA@ 1004d684     LIBCMT:mbctype.obj
 0002:0000a690       ??_C@_1M@BIBDDEMK@?$AAz?$AAh?$AA?9?$AAC?$AAN?$AA?$AA@ 1004d690     LIBCMT:mbctype.obj
 0002:0000a69c       ??_C@_1M@JLOOOEGK@?$AAk?$AAo?$AA?9?$AAK?$AAR?$AA?$AA@ 1004d69c     LIBCMT:mbctype.obj
 0002:0000a6a8       ??_C@_1M@CLNBBOPM@?$AAz?$AAh?$AA?9?$AAT?$AAW?$AA?$AA@ 1004d6a8     LIBCMT:mbctype.obj
 0002:0000a6d4       ??_C@_1BG@GOEBHBDC@?$AAU?$AAS?$AAE?$AAR?$AA3?$AA2?$AA?4?$AAD?$AAL?$AAL?$AA?$AA@ 1004d6d4     LIBCMT:crtmboxw.obj
 0002:0000a6ec       ??_C@_0M@DLDCCGNP@MessageBoxW?$AA@ 1004d6ec     LIBCMT:crtmboxw.obj
 0002:0000a6f8       ??_C@_0BA@HNOPNCHB@GetActiveWindow?$AA@ 1004d6f8     LIBCMT:crtmboxw.obj
 0002:0000a708       ??_C@_0BD@HHGDFDBJ@GetLastActivePopup?$AA@ 1004d708     LIBCMT:crtmboxw.obj
 0002:0000a71c       ??_C@_0BK@DEKFELLI@GetUserObjectInformationW?$AA@ 1004d71c     LIBCMT:crtmboxw.obj
 0002:0000a738       ??_C@_0BI@DFKBFLJE@GetProcessWindowStation?$AA@ 1004d738     LIBCMT:crtmboxw.obj
 0002:0000a750       __XcptActTab               1004d750     LIBCMT:winxfltr.obj
 0002:0000a7e0       __XcptActTabCount          1004d7e0     LIBCMT:winxfltr.obj
 0002:0000a7e4       __XcptActTabSize           1004d7e4     LIBCMT:winxfltr.obj
 0002:0000a7e8       __First_FPE_Indx           1004d7e8     LIBCMT:winxfltr.obj
 0002:0000a7ec       __Num_FPE                  1004d7ec     LIBCMT:winxfltr.obj
 0002:0000a7f0       ___lookuptable_s           1004d7f0     LIBCMT:outputs.obj
 0002:0000a84c       ??_C@_03KOEHGMDN@Sun?$AA@  1004d84c     LIBCMT:nlsdata.obj
 0002:0000a850       ??_C@_03PDAGKDH@Mon?$AA@   1004d850     LIBCMT:nlsdata.obj
 0002:0000a854       ??_C@_03NAGEINEP@Tue?$AA@  1004d854     LIBCMT:nlsdata.obj
 0002:0000a858       ??_C@_03MHOMLAJA@Wed?$AA@  1004d858     LIBCMT:nlsdata.obj
 0002:0000a85c       ??_C@_03IOFIKPDN@Thu?$AA@  1004d85c     LIBCMT:nlsdata.obj
 0002:0000a860       ??_C@_03IDIOELNC@Fri?$AA@  1004d860     LIBCMT:nlsdata.obj
 0002:0000a864       ??_C@_03FEFJNEK@Sat?$AA@   1004d864     LIBCMT:nlsdata.obj
 0002:0000a868       ??_C@_06OOPIFAJ@Sunday?$AA@ 1004d868     LIBCMT:nlsdata.obj
 0002:0000a870       ??_C@_06JLEDEDGH@Monday?$AA@ 1004d870     LIBCMT:nlsdata.obj
 0002:0000a878       ??_C@_07BAAGCFCM@Tuesday?$AA@ 1004d878     LIBCMT:nlsdata.obj
 0002:0000a880       ??_C@_09DLIGFAKA@Wednesday?$AA@ 1004d880     LIBCMT:nlsdata.obj
 0002:0000a88c       ??_C@_08HACCIKIA@Thursday?$AA@ 1004d88c     LIBCMT:nlsdata.obj
 0002:0000a898       ??_C@_06JECMNKMI@Friday?$AA@ 1004d898     LIBCMT:nlsdata.obj
 0002:0000a8a0       ??_C@_08INBOOONO@Saturday?$AA@ 1004d8a0     LIBCMT:nlsdata.obj
 0002:0000a8ac       ??_C@_03JIHJHPIE@Jan?$AA@  1004d8ac     LIBCMT:nlsdata.obj
 0002:0000a8b0       ??_C@_03HJBDCHOM@Feb?$AA@  1004d8b0     LIBCMT:nlsdata.obj
 0002:0000a8b4       ??_C@_03ODNJBKGA@Mar?$AA@  1004d8b4     LIBCMT:nlsdata.obj
 0002:0000a8b8       ??_C@_03LEOLGMJP@Apr?$AA@  1004d8b8     LIBCMT:nlsdata.obj
 0002:0000a8bc       ??_C@_03CNMDKL@May?$AA@    1004d8bc     LIBCMT:nlsdata.obj
 0002:0000a8c0       ??_C@_03IDFGHECI@Jun?$AA@  1004d8c0     LIBCMT:nlsdata.obj
 0002:0000a8c4       ??_C@_03LBGABGKK@Jul?$AA@  1004d8c4     LIBCMT:nlsdata.obj
 0002:0000a8c8       ??_C@_03IFJFEIGA@Aug?$AA@  1004d8c8     LIBCMT:nlsdata.obj
 0002:0000a8cc       ??_C@_03GGCAPAJC@Sep?$AA@  1004d8cc     LIBCMT:nlsdata.obj
 0002:0000a8d0       ??_C@_03BMAOKBAD@Oct?$AA@  1004d8d0     LIBCMT:nlsdata.obj
 0002:0000a8d4       ??_C@_03JPJOFNIA@Nov?$AA@  1004d8d4     LIBCMT:nlsdata.obj
 0002:0000a8d8       ??_C@_03MKABNOCG@Dec?$AA@  1004d8d8     LIBCMT:nlsdata.obj
 0002:0000a8dc       ??_C@_07CGJPFGJA@January?$AA@ 1004d8dc     LIBCMT:nlsdata.obj
 0002:0000a8e4       ??_C@_08GNJGEPFN@February?$AA@ 1004d8e4     LIBCMT:nlsdata.obj
 0002:0000a8f0       ??_C@_05HPCKOFNC@March?$AA@ 1004d8f0     LIBCMT:nlsdata.obj
 0002:0000a8f8       ??_C@_05DMJDNLEJ@April?$AA@ 1004d8f8     LIBCMT:nlsdata.obj
 0002:0000a900       ??_C@_04CNLMGBGM@June?$AA@ 1004d900     LIBCMT:nlsdata.obj
 0002:0000a908       ??_C@_04MIEPOIFP@July?$AA@ 1004d908     LIBCMT:nlsdata.obj
 0002:0000a910       ??_C@_06LBBHFDDG@August?$AA@ 1004d910     LIBCMT:nlsdata.obj
 0002:0000a918       ??_C@_09BHHEALKD@September?$AA@ 1004d918     LIBCMT:nlsdata.obj
 0002:0000a924       ??_C@_07JJNFCEND@October?$AA@ 1004d924     LIBCMT:nlsdata.obj
 0002:0000a92c       ??_C@_08HCHEGEOA@November?$AA@ 1004d92c     LIBCMT:nlsdata.obj
 0002:0000a938       ??_C@_08EDHMEBNP@December?$AA@ 1004d938     LIBCMT:nlsdata.obj
 0002:0000a944       ??_C@_02DEDBPAFC@AM?$AA@   1004d944     LIBCMT:nlsdata.obj
 0002:0000a948       ??_C@_02CJNFDJBF@PM?$AA@   1004d948     LIBCMT:nlsdata.obj
 0002:0000a94c       ??_C@_08BPBNCDIB@MM?1dd?1yy?$AA@ 1004d94c     LIBCMT:nlsdata.obj
 0002:0000a958       ??_C@_0BE@CKGJFCPC@dddd?0?5MMMM?5dd?0?5yyyy?$AA@ 1004d958     LIBCMT:nlsdata.obj
 0002:0000a96c       ??_C@_08JCCMCCIL@HH?3mm?3ss?$AA@ 1004d96c     LIBCMT:nlsdata.obj
 0002:0000a978       ??_C@_17MBGCMIPB@?$AAS?$AAu?$AAn?$AA?$AA@ 1004d978     LIBCMT:nlsdata.obj
 0002:0000a980       ??_C@_17KBOMKBF@?$AAM?$AAo?$AAn?$AA?$AA@ 1004d980     LIBCMT:nlsdata.obj
 0002:0000a988       ??_C@_17BMKGEGOJ@?$AAT?$AAu?$AAe?$AA?$AA@ 1004d988     LIBCMT:nlsdata.obj
 0002:0000a990       ??_C@_17CJEDCEPE@?$AAW?$AAe?$AAd?$AA?$AA@ 1004d990     LIBCMT:nlsdata.obj
 0002:0000a998       ??_C@_17PDPHAADD@?$AAT?$AAh?$AAu?$AA?$AA@ 1004d998     LIBCMT:nlsdata.obj
 0002:0000a9a0       ??_C@_17HFOLPPLP@?$AAF?$AAr?$AAi?$AA?$AA@ 1004d9a0     LIBCMT:nlsdata.obj
 0002:0000a9a8       ??_C@_17GGIBDPIH@?$AAS?$AAa?$AAt?$AA?$AA@ 1004d9a8     LIBCMT:nlsdata.obj
 0002:0000a9b0       ??_C@_1O@IHNHDHPB@?$AAS?$AAu?$AAn?$AAd?$AAa?$AAy?$AA?$AA@ 1004d9b0     LIBCMT:nlsdata.obj
 0002:0000a9c0       ??_C@_1O@MMNBFLIA@?$AAM?$AAo?$AAn?$AAd?$AAa?$AAy?$AA?$AA@ 1004d9c0     LIBCMT:nlsdata.obj
 0002:0000a9d0       ??_C@_1BA@ENFBFFEK@?$AAT?$AAu?$AAe?$AAs?$AAd?$AAa?$AAy?$AA?$AA@ 1004d9d0     LIBCMT:nlsdata.obj
 0002:0000a9e0       ??_C@_1BE@EBOGMDOH@?$AAW?$AAe?$AAd?$AAn?$AAe?$AAs?$AAd?$AAa?$AAy?$AA?$AA@ 1004d9e0     LIBCMT:nlsdata.obj
 0002:0000a9f4       ??_C@_1BC@HHMNLIHE@?$AAT?$AAh?$AAu?$AAr?$AAs?$AAd?$AAa?$AAy?$AA?$AA@ 1004d9f4     LIBCMT:nlsdata.obj
 0002:0000aa08       ??_C@_1O@PDICJHAG@?$AAF?$AAr?$AAi?$AAd?$AAa?$AAy?$AA?$AA@ 1004da08     LIBCMT:nlsdata.obj
 0002:0000aa18       ??_C@_1BC@ENMNNPAJ@?$AAS?$AAa?$AAt?$AAu?$AAr?$AAd?$AAa?$AAy?$AA?$AA@ 1004da18     LIBCMT:nlsdata.obj
 0002:0000aa2c       ??_C@_17DKNBKCHM@?$AAJ?$AAa?$AAn?$AA?$AA@ 1004da2c     LIBCMT:nlsdata.obj
 0002:0000aa34       ??_C@_17LMDJEKJN@?$AAF?$AAe?$AAb?$AA?$AA@ 1004da34     LIBCMT:nlsdata.obj
 0002:0000aa3c       ??_C@_17CKNLEDEC@?$AAM?$AAa?$AAr?$AA?$AA@ 1004da3c     LIBCMT:nlsdata.obj
 0002:0000aa44       ??_C@_17LFPOIHDD@?$AAA?$AAp?$AAr?$AA?$AA@ 1004da44     LIBCMT:nlsdata.obj
 0002:0000aa4c       ??_C@_17PNNKMEED@?$AAM?$AAa?$AAy?$AA?$AA@ 1004da4c     LIBCMT:nlsdata.obj
 0002:0000aa54       ??_C@_17KCJGOCPB@?$AAJ?$AAu?$AAn?$AA?$AA@ 1004da54     LIBCMT:nlsdata.obj
 0002:0000aa5c       ??_C@_17IJPCKHK@?$AAJ?$AAu?$AAl?$AA?$AA@ 1004da5c     LIBCMT:nlsdata.obj
 0002:0000aa64       ??_C@_17ICPELBCN@?$AAA?$AAu?$AAg?$AA?$AA@ 1004da64     LIBCMT:nlsdata.obj
 0002:0000aa6c       ??_C@_17HCHCOKMG@?$AAS?$AAe?$AAp?$AA?$AA@ 1004da6c     LIBCMT:nlsdata.obj
 0002:0000aa74       ??_C@_17FNLKOI@?$AAO?$AAc?$AAt?$AA?$AA@ 1004da74     LIBCMT:nlsdata.obj
 0002:0000aa7c       ??_C@_17BBDMLCIG@?$AAN?$AAo?$AAv?$AA?$AA@ 1004da7c     LIBCMT:nlsdata.obj
 0002:0000aa84       ??_C@_17EGKACKIF@?$AAD?$AAe?$AAc?$AA?$AA@ 1004da84     LIBCMT:nlsdata.obj
 0002:0000aa8c       ??_C@_1BA@EFMEIEBA@?$AAJ?$AAa?$AAn?$AAu?$AAa?$AAr?$AAy?$AA?$AA@ 1004da8c     LIBCMT:nlsdata.obj
 0002:0000aa9c       ??_C@_1BC@JGDDFFAM@?$AAF?$AAe?$AAb?$AAr?$AAu?$AAa?$AAr?$AAy?$AA?$AA@ 1004da9c     LIBCMT:nlsdata.obj
 0002:0000aab0       ??_C@_1M@IKEENEDF@?$AAM?$AAa?$AAr?$AAc?$AAh?$AA?$AA@ 1004dab0     LIBCMT:nlsdata.obj
 0002:0000aabc       ??_C@_1M@GJNLMHFD@?$AAA?$AAp?$AAr?$AAi?$AAl?$AA?$AA@ 1004dabc     LIBCMT:nlsdata.obj
 0002:0000aac8       ??_C@_19EPFLPGAP@?$AAJ?$AAu?$AAn?$AAe?$AA?$AA@ 1004dac8     LIBCMT:nlsdata.obj
 0002:0000aad4       ??_C@_19BIFMLPCD@?$AAJ?$AAu?$AAl?$AAy?$AA?$AA@ 1004dad4     LIBCMT:nlsdata.obj
 0002:0000aae0       ??_C@_1O@PAHLKOAC@?$AAA?$AAu?$AAg?$AAu?$AAs?$AAt?$AA?$AA@ 1004dae0     LIBCMT:nlsdata.obj
 0002:0000aaf0       ??_C@_1BE@DKAAMBJL@?$AAS?$AAe?$AAp?$AAt?$AAe?$AAm?$AAb?$AAe?$AAr?$AA?$AA@ 1004daf0     LIBCMT:nlsdata.obj
 0002:0000ab04       ??_C@_1BA@EPANDLNG@?$AAO?$AAc?$AAt?$AAo?$AAb?$AAe?$AAr?$AA?$AA@ 1004db04     LIBCMT:nlsdata.obj
 0002:0000ab14       ??_C@_1BC@BGLIFPF@?$AAN?$AAo?$AAv?$AAe?$AAm?$AAb?$AAe?$AAr?$AA?$AA@ 1004db14     LIBCMT:nlsdata.obj
 0002:0000ab28       ??_C@_1BC@FEMKIFH@?$AAD?$AAe?$AAc?$AAe?$AAm?$AAb?$AAe?$AAr?$AA?$AA@ 1004db28     LIBCMT:nlsdata.obj
 0002:0000ab3c       ??_C@_15ODEHAHHF@?$AAA?$AAM?$AA?$AA@ 1004db3c     LIBCMT:nlsdata.obj
 0002:0000ab44       ??_C@_15CLMNNGEL@?$AAP?$AAM?$AA?$AA@ 1004db44     LIBCMT:nlsdata.obj
 0002:0000ab4c       ??_C@_1BC@IEBCMHCM@?$AAM?$AAM?$AA?1?$AAd?$AAd?$AA?1?$AAy?$AAy?$AA?$AA@ 1004db4c     LIBCMT:nlsdata.obj
 0002:0000ab60       ??_C@_1CI@KNAKOEBC@?$AAd?$AAd?$AAd?$AAd?$AA?0?$AA?5?$AAM?$AAM?$AAM?$AAM?$AA?5?$AAd?$AAd?$AA?0?$AA?5?$AAy?$AAy?$AAy?$AAy?$AA?$AA@ 1004db60     LIBCMT:nlsdata.obj
 0002:0000ab88       ??_C@_1BC@GDGBMEMK@?$AAH?$AAH?$AA?3?$AAm?$AAm?$AA?3?$AAs?$AAs?$AA?$AA@ 1004db88     LIBCMT:nlsdata.obj
 0002:0000ab9c       ??_C@_1M@BMHNFIME@?$AAe?$AAn?$AA?9?$AAU?$AAS?$AA?$AA@ 1004db9c     LIBCMT:nlsdata.obj
 0002:0000aba8       _LcidToLocaleNameTable     1004dba8     LIBCMT:winapinls.obj
 0002:0000b2c8       _LocaleNameToIndexTable    1004e2c8     LIBCMT:winapinls.obj
 0002:0000b9e8       ??_C@_15EMKDOKLE@?$AAa?$AAr?$AA?$AA@ 1004e9e8     LIBCMT:winapinls.obj
 0002:0000b9f0       ??_C@_15KNPADPLH@?$AAb?$AAg?$AA?$AA@ 1004e9f0     LIBCMT:winapinls.obj
 0002:0000b9f8       ??_C@_15EDMHLDMO@?$AAc?$AAa?$AA?$AA@ 1004e9f8     LIBCMT:winapinls.obj
 0002:0000ba00       ??_C@_1O@BPEAJADD@?$AAz?$AAh?$AA?9?$AAC?$AAH?$AAS?$AA?$AA@ 1004ea00     LIBCMT:winapinls.obj
 0002:0000ba10       ??_C@_15LJNHCMNK@?$AAc?$AAs?$AA?$AA@ 1004ea10     LIBCMT:winapinls.obj
 0002:0000ba18       ??_C@_15FOMCIDHG@?$AAd?$AAa?$AA?$AA@ 1004ea18     LIBCMT:winapinls.obj
 0002:0000ba20       ??_C@_15NBKABECB@?$AAd?$AAe?$AA?$AA@ 1004ea20     LIBCMT:winapinls.obj
 0002:0000ba28       ??_C@_15GHPEIIAO@?$AAe?$AAl?$AA?$AA@ 1004ea28     LIBCMT:winapinls.obj
 0002:0000ba30       ??_C@_15MNPNEAIF@?$AAe?$AAn?$AA?$AA@ 1004ea30     LIBCMT:winapinls.obj
 0002:0000ba38       ??_C@_15GPIOMPMH@?$AAe?$AAs?$AA?$AA@ 1004ea38     LIBCMT:winapinls.obj
 0002:0000ba40       ??_C@_15NGLOAKJC@?$AAf?$AAi?$AA?$AA@ 1004ea40     LIBCMT:winapinls.obj
 0002:0000ba48       ??_C@_15FBKGNKAM@?$AAf?$AAr?$AA?$AA@ 1004ea48     LIBCMT:winapinls.obj
 0002:0000ba50       ??_C@_15KGGCNEFK@?$AAh?$AAe?$AA?$AA@ 1004ea50     LIBCMT:winapinls.obj
 0002:0000ba58       ??_C@_15PGHLIDMF@?$AAh?$AAu?$AA?$AA@ 1004ea58     LIBCMT:winapinls.obj
 0002:0000ba60       ??_C@_15BIEMAPLM@?$AAi?$AAs?$AA?$AA@ 1004ea60     LIBCMT:winapinls.obj
 0002:0000ba68       ??_C@_15IFJLDHAF@?$AAi?$AAt?$AA?$AA@ 1004ea68     LIBCMT:winapinls.obj
 0002:0000ba70       ??_C@_15GEMIOCAG@?$AAj?$AAa?$AA?$AA@ 1004ea70     LIBCMT:winapinls.obj
 0002:0000ba78       ??_C@_15EPELEGJA@?$AAk?$AAo?$AA?$AA@ 1004ea78     LIBCMT:winapinls.obj
 0002:0000ba80       ??_C@_15NDDHIMN@?$AAn?$AAl?$AA?$AA@ 1004ea80     LIBCMT:winapinls.obj
 0002:0000ba88       ??_C@_15BPIGNHCD@?$AAn?$AAo?$AA?$AA@ 1004ea88     LIBCMT:winapinls.obj
 0002:0000ba90       ??_C@_15DEOPBLCG@?$AAp?$AAl?$AA?$AA@ 1004ea90     LIBCMT:winapinls.obj
 0002:0000ba98       ??_C@_15KBECGEFG@?$AAp?$AAt?$AA?$AA@ 1004ea98     LIBCMT:winapinls.obj
 0002:0000baa0       ??_C@_15GLJCBFMD@?$AAr?$AAo?$AA?$AA@ 1004eaa0     LIBCMT:winapinls.obj
 0002:0000baa8       ??_C@_15FEDGKCDI@?$AAr?$AAu?$AA?$AA@ 1004eaa8     LIBCMT:winapinls.obj
 0002:0000bab0       ??_C@_15GLKMLLHM@?$AAh?$AAr?$AA?$AA@ 1004eab0     LIBCMT:winapinls.obj
 0002:0000bab8       ??_C@_15CPKMFBDB@?$AAs?$AAk?$AA?$AA@ 1004eab8     LIBCMT:winapinls.obj
 0002:0000bac0       ??_C@_15BAAIOGMK@?$AAs?$AAq?$AA?$AA@ 1004eac0     LIBCMT:winapinls.obj
 0002:0000bac8       ??_C@_15INNPNOHD@?$AAs?$AAv?$AA?$AA@ 1004eac8     LIBCMT:winapinls.obj
 0002:0000bad0       ??_C@_15CABMMOGH@?$AAt?$AAh?$AA?$AA@ 1004ead0     LIBCMT:winapinls.obj
 0002:0000bad8       ??_C@_15BPLIHJJM@?$AAt?$AAr?$AA?$AA@ 1004ead8     LIBCMT:winapinls.obj
 0002:0000bae0       ??_C@_15NEOEKKDJ@?$AAu?$AAr?$AA?$AA@ 1004eae0     LIBCMT:winapinls.obj
 0002:0000bae8       ??_C@_15NFICGAJK@?$AAi?$AAd?$AA?$AA@ 1004eae8     LIBCMT:winapinls.obj
 0002:0000baf0       ??_C@_15PJPFLCCM@?$AAu?$AAk?$AA?$AA@ 1004eaf0     LIBCMT:winapinls.obj
 0002:0000baf8       ??_C@_15HPJPHDM@?$AAb?$AAe?$AA?$AA@ 1004eaf8     LIBCMT:winapinls.obj
 0002:0000bb00       ??_C@_15LCHLGJII@?$AAs?$AAl?$AA?$AA@ 1004eb00     LIBCMT:winapinls.obj
 0002:0000bb08       ??_C@_15PCFJPHHO@?$AAe?$AAt?$AA?$AA@ 1004eb08     LIBCMT:winapinls.obj
 0002:0000bb10       ??_C@_15HPFPGODN@?$AAl?$AAv?$AA?$AA@ 1004eb10     LIBCMT:winapinls.obj
 0002:0000bb18       ??_C@_15NFFGKGLG@?$AAl?$AAt?$AA?$AA@ 1004eb18     LIBCMT:winapinls.obj
 0002:0000bb20       ??_C@_15BDAKCCHN@?$AAf?$AAa?$AA?$AA@ 1004eb20     LIBCMT:winapinls.obj
 0002:0000bb28       ??_C@_15NFGIAIAJ@?$AAv?$AAi?$AA?$AA@ 1004eb28     LIBCMT:winapinls.obj
 0002:0000bb30       ??_C@_15LMKNDMHN@?$AAh?$AAy?$AA?$AA@ 1004eb30     LIBCMT:winapinls.obj
 0002:0000bb38       ??_C@_15IJBHMCFL@?$AAa?$AAz?$AA?$AA@ 1004eb38     LIBCMT:winapinls.obj
 0002:0000bb40       ??_C@_15EKOFJABL@?$AAe?$AAu?$AA?$AA@ 1004eb40     LIBCMT:winapinls.obj
 0002:0000bb48       ??_C@_15BGHADCNK@?$AAm?$AAk?$AA?$AA@ 1004eb48     LIBCMT:winapinls.obj
 0002:0000bb50       ??_C@_15JDNICKHM@?$AAa?$AAf?$AA?$AA@ 1004eb50     LIBCMT:winapinls.obj
 0002:0000bb58       ??_C@_15KPJEDBKD@?$AAk?$AAa?$AA?$AA@ 1004eb58     LIBCMT:winapinls.obj
 0002:0000bb60       ??_C@_15PDNFFFEO@?$AAf?$AAo?$AA?$AA@ 1004eb60     LIBCMT:winapinls.obj
 0002:0000bb68       ??_C@_15OMLEGLOC@?$AAh?$AAi?$AA?$AA@ 1004eb68     LIBCMT:winapinls.obj
 0002:0000bb70       ??_C@_15IDNNENKK@?$AAm?$AAs?$AA?$AA@ 1004eb70     LIBCMT:winapinls.obj
 0002:0000bb78       ??_C@_15MACJNBMH@?$AAk?$AAk?$AA?$AA@ 1004eb78     LIBCMT:winapinls.obj
 0002:0000bb80       ??_C@_15DKDJEOND@?$AAk?$AAy?$AA?$AA@ 1004eb80     LIBCMT:winapinls.obj
 0002:0000bb88       ??_C@_15DFGDLJBG@?$AAs?$AAw?$AA?$AA@ 1004eb88     LIBCMT:winapinls.obj
 0002:0000bb90       ??_C@_15BBFAICNG@?$AAu?$AAz?$AA?$AA@ 1004eb90     LIBCMT:winapinls.obj
 0002:0000bb98       ??_C@_15DKNDCGEA@?$AAt?$AAt?$AA?$AA@ 1004eb98     LIBCMT:winapinls.obj
 0002:0000bba0       ??_C@_15MGIFMDPL@?$AAp?$AAa?$AA?$AA@ 1004eba0     LIBCMT:winapinls.obj
 0002:0000bba8       ??_C@_15HCNDBBA@?$AAg?$AAu?$AA?$AA@ 1004eba8     LIBCMT:winapinls.obj
 0002:0000bbb0       ??_C@_15FNBEIBON@?$AAt?$AAa?$AA?$AA@ 1004ebb0     LIBCMT:winapinls.obj
 0002:0000bbb8       ??_C@_15NCHGBGLK@?$AAt?$AAe?$AA?$AA@ 1004ebb8     LIBCMT:winapinls.obj
 0002:0000bbc0       ??_C@_15PHPHCBPF@?$AAk?$AAn?$AA?$AA@ 1004ebc0     LIBCMT:winapinls.obj
 0002:0000bbc8       ??_C@_15DLGBCKMP@?$AAm?$AAr?$AA?$AA@ 1004ebc8     LIBCMT:winapinls.obj
 0002:0000bbd0       ??_C@_15EABBLBFF@?$AAs?$AAa?$AA?$AA@ 1004ebd0     LIBCMT:winapinls.obj
 0002:0000bbd8       ??_C@_15CBKOMCOI@?$AAm?$AAn?$AA?$AA@ 1004ebd8     LIBCMT:winapinls.obj
 0002:0000bbe0       ??_C@_15CKDMCJAF@?$AAg?$AAl?$AA?$AA@ 1004ebe0     LIBCMT:winapinls.obj
 0002:0000bbe8       ??_C@_17CNJFBPG@?$AAk?$AAo?$AAk?$AA?$AA@ 1004ebe8     LIBCMT:winapinls.obj
 0002:0000bbf0       ??_C@_17FFBJICPL@?$AAs?$AAy?$AAr?$AA?$AA@ 1004ebf0     LIBCMT:winapinls.obj
 0002:0000bbf8       ??_C@_17KPNDCPAF@?$AAd?$AAi?$AAv?$AA?$AA@ 1004ebf8     LIBCMT:winapinls.obj
 0002:0000bc00       ??_C@_11LOCGONAA@?$AA?$AA@ 1004ec00     LIBCMT:winapinls.obj
 0002:0000bc04       ??_C@_1M@OKAHONE@?$AAa?$AAr?$AA?9?$AAS?$AAA?$AA?$AA@ 1004ec04     LIBCMT:winapinls.obj
 0002:0000bc10       ??_C@_1M@FFFIGIGK@?$AAb?$AAg?$AA?9?$AAB?$AAG?$AA?$AA@ 1004ec10     LIBCMT:winapinls.obj
 0002:0000bc1c       ??_C@_1M@BJNKEDC@?$AAc?$AAa?$AA?9?$AAE?$AAS?$AA?$AA@ 1004ec1c     LIBCMT:winapinls.obj
 0002:0000bc28       ??_C@_1M@IJJHFJHA@?$AAc?$AAs?$AA?9?$AAC?$AAZ?$AA?$AA@ 1004ec28     LIBCMT:winapinls.obj
 0002:0000bc34       ??_C@_1M@CLPEOBGI@?$AAd?$AAa?$AA?9?$AAD?$AAK?$AA?$AA@ 1004ec34     LIBCMT:winapinls.obj
 0002:0000bc40       ??_C@_1M@MCMADGCB@?$AAd?$AAe?$AA?9?$AAD?$AAE?$AA?$AA@ 1004ec40     LIBCMT:winapinls.obj
 0002:0000bc4c       ??_C@_1M@OOCKEMAM@?$AAe?$AAl?$AA?9?$AAG?$AAR?$AA?$AA@ 1004ec4c     LIBCMT:winapinls.obj
 0002:0000bc58       ??_C@_1M@DDNJFGID@?$AAf?$AAi?$AA?9?$AAF?$AAI?$AA?$AA@ 1004ec58     LIBCMT:winapinls.obj
 0002:0000bc64       ??_C@_1M@GLIPPMAC@?$AAf?$AAr?$AA?9?$AAF?$AAR?$AA?$AA@ 1004ec64     LIBCMT:winapinls.obj
 0002:0000bc70       ??_C@_1M@GFMCHPE@?$AAh?$AAe?$AA?9?$AAI?$AAL?$AA?$AA@ 1004ec70     LIBCMT:winapinls.obj
 0002:0000bc7c       ??_C@_1M@MHLPGNKM@?$AAh?$AAu?$AA?9?$AAH?$AAU?$AA?$AA@ 1004ec7c     LIBCMT:winapinls.obj
 0002:0000bc88       ??_C@_1M@LPDDNNPN@?$AAi?$AAs?$AA?9?$AAI?$AAS?$AA?$AA@ 1004ec88     LIBCMT:winapinls.obj
 0002:0000bc94       ??_C@_1M@MADIPODN@?$AAi?$AAt?$AA?9?$AAI?$AAT?$AA?$AA@ 1004ec94     LIBCMT:winapinls.obj
 0002:0000bca0       ??_C@_1M@IHBJJGG@?$AAn?$AAl?$AA?9?$AAN?$AAL?$AA?$AA@ 1004eca0     LIBCMT:winapinls.obj
 0002:0000bcac       ??_C@_1M@EANAGDL@?$AAn?$AAb?$AA?9?$AAN?$AAO?$AA?$AA@ 1004ecac     LIBCMT:winapinls.obj
 0002:0000bcb8       ??_C@_1M@NEIEMEGP@?$AAp?$AAl?$AA?9?$AAP?$AAL?$AA?$AA@ 1004ecb8     LIBCMT:winapinls.obj
 0002:0000bcc4       ??_C@_1M@BOCFIGEP@?$AAp?$AAt?$AA?9?$AAB?$AAR?$AA?$AA@ 1004ecc4     LIBCMT:winapinls.obj
 0002:0000bcd0       ??_C@_1M@IMPFOPBG@?$AAr?$AAo?$AA?9?$AAR?$AAO?$AA?$AA@ 1004ecd0     LIBCMT:winapinls.obj
 0002:0000bcdc       ??_C@_1M@IDNNEJMM@?$AAr?$AAu?$AA?9?$AAR?$AAU?$AA?$AA@ 1004ecdc     LIBCMT:winapinls.obj
 0002:0000bce8       ??_C@_1M@LILEEOGM@?$AAh?$AAr?$AA?9?$AAH?$AAR?$AA?$AA@ 1004ece8     LIBCMT:winapinls.obj
 0002:0000bcf4       ??_C@_1M@FKIFEHPB@?$AAs?$AAk?$AA?9?$AAS?$AAK?$AA?$AA@ 1004ecf4     LIBCMT:winapinls.obj
 0002:0000bd00       ??_C@_1M@LJMAMNPJ@?$AAs?$AAq?$AA?9?$AAA?$AAL?$AA?$AA@ 1004ed00     LIBCMT:winapinls.obj
 0002:0000bd0c       ??_C@_1M@GIAKDKJK@?$AAs?$AAv?$AA?9?$AAS?$AAE?$AA?$AA@ 1004ed0c     LIBCMT:winapinls.obj
 0002:0000bd18       ??_C@_1M@MKJKIKCL@?$AAt?$AAh?$AA?9?$AAT?$AAH?$AA?$AA@ 1004ed18     LIBCMT:winapinls.obj
 0002:0000bd24       ??_C@_1M@MFLCCMPB@?$AAt?$AAr?$AA?9?$AAT?$AAR?$AA?$AA@ 1004ed24     LIBCMT:winapinls.obj
 0002:0000bd30       ??_C@_1M@OIJHDKJN@?$AAu?$AAr?$AA?9?$AAP?$AAK?$AA?$AA@ 1004ed30     LIBCMT:winapinls.obj
 0002:0000bd3c       ??_C@_1M@LHIPCIEK@?$AAi?$AAd?$AA?9?$AAI?$AAD?$AA?$AA@ 1004ed3c     LIBCMT:winapinls.obj
 0002:0000bd48       ??_C@_1M@MFMOBGI@?$AAu?$AAk?$AA?9?$AAU?$AAA?$AA?$AA@ 1004ed48     LIBCMT:winapinls.obj
 0002:0000bd54       ??_C@_1M@OBGLJIPL@?$AAb?$AAe?$AA?9?$AAB?$AAY?$AA?$AA@ 1004ed54     LIBCMT:winapinls.obj
 0002:0000bd60       ??_C@_1M@BCFAJEAD@?$AAs?$AAl?$AA?9?$AAS?$AAI?$AA?$AA@ 1004ed60     LIBCMT:winapinls.obj
 0002:0000bd6c       ??_C@_1M@FKFFEDDN@?$AAe?$AAt?$AA?9?$AAE?$AAE?$AA?$AA@ 1004ed6c     LIBCMT:winapinls.obj
 0002:0000bd78       ??_C@_1M@KGKKAACI@?$AAl?$AAv?$AA?9?$AAL?$AAV?$AA?$AA@ 1004ed78     LIBCMT:winapinls.obj
 0002:0000bd84       ??_C@_1M@IFGBIJO@?$AAl?$AAt?$AA?9?$AAL?$AAT?$AA?$AA@ 1004ed84     LIBCMT:winapinls.obj
 0002:0000bd90       ??_C@_1M@FGEAHEDM@?$AAf?$AAa?$AA?9?$AAI?$AAR?$AA?$AA@ 1004ed90     LIBCMT:winapinls.obj
 0002:0000bd9c       ??_C@_1M@KBMAIBFN@?$AAv?$AAi?$AA?9?$AAV?$AAN?$AA?$AA@ 1004ed9c     LIBCMT:winapinls.obj
 0002:0000bda8       ??_C@_1M@GPCBKDJK@?$AAh?$AAy?$AA?9?$AAA?$AAM?$AA?$AA@ 1004eda8     LIBCMT:winapinls.obj
 0002:0000bdb4       ??_C@_1BG@BECMDDJB@?$AAa?$AAz?$AA?9?$AAA?$AAZ?$AA?9?$AAL?$AAa?$AAt?$AAn?$AA?$AA@ 1004edb4     LIBCMT:winapinls.obj
 0002:0000bdcc       ??_C@_1M@MAOFCAEA@?$AAe?$AAu?$AA?9?$AAE?$AAS?$AA?$AA@ 1004edcc     LIBCMT:winapinls.obj
 0002:0000bdd8       ??_C@_1M@IGHABKPI@?$AAm?$AAk?$AA?9?$AAM?$AAK?$AA?$AA@ 1004edd8     LIBCMT:winapinls.obj
 0002:0000bde4       ??_C@_1M@IAIGNEJG@?$AAt?$AAn?$AA?9?$AAZ?$AAA?$AA?$AA@ 1004ede4     LIBCMT:winapinls.obj
 0002:0000bdf0       ??_C@_1M@IIJCOJFA@?$AAx?$AAh?$AA?9?$AAZ?$AAA?$AA?$AA@ 1004edf0     LIBCMT:winapinls.obj
 0002:0000bdfc       ??_C@_1M@LGPJHNJH@?$AAz?$AAu?$AA?9?$AAZ?$AAA?$AA?$AA@ 1004edfc     LIBCMT:winapinls.obj
 0002:0000be08       ??_C@_1M@HOKAOIO@?$AAa?$AAf?$AA?9?$AAZ?$AAA?$AA?$AA@ 1004ee08     LIBCMT:winapinls.obj
 0002:0000be14       ??_C@_1M@DPCLHLIE@?$AAk?$AAa?$AA?9?$AAG?$AAE?$AA?$AA@ 1004ee14     LIBCMT:winapinls.obj
 0002:0000be20       ??_C@_1M@BLKMHJBI@?$AAf?$AAo?$AA?9?$AAF?$AAO?$AA?$AA@ 1004ee20     LIBCMT:winapinls.obj
 0002:0000be2c       ??_C@_1M@LGGJAPPB@?$AAh?$AAi?$AA?9?$AAI?$AAN?$AA?$AA@ 1004ee2c     LIBCMT:winapinls.obj
 0002:0000be38       ??_C@_1M@FIKPIHFE@?$AAm?$AAt?$AA?9?$AAM?$AAT?$AA?$AA@ 1004ee38     LIBCMT:winapinls.obj
 0002:0000be44       ??_C@_1M@HEGGPBFA@?$AAs?$AAe?$AA?9?$AAN?$AAO?$AA?$AA@ 1004ee44     LIBCMT:winapinls.obj
 0002:0000be50       ??_C@_1M@EIBJEEPA@?$AAm?$AAs?$AA?9?$AAM?$AAY?$AA?$AA@ 1004ee50     LIBCMT:winapinls.obj
 0002:0000be5c       ??_C@_1M@FHLBGMPP@?$AAk?$AAk?$AA?9?$AAK?$AAZ?$AA?$AA@ 1004ee5c     LIBCMT:winapinls.obj
 0002:0000be68       ??_C@_1M@NGJJLCGI@?$AAk?$AAy?$AA?9?$AAK?$AAG?$AA?$AA@ 1004ee68     LIBCMT:winapinls.obj
 0002:0000be74       ??_C@_1M@GIENNBFC@?$AAs?$AAw?$AA?9?$AAK?$AAE?$AA?$AA@ 1004ee74     LIBCMT:winapinls.obj
 0002:0000be80       ??_C@_1BG@NDGMJIMJ@?$AAu?$AAz?$AA?9?$AAU?$AAZ?$AA?9?$AAL?$AAa?$AAt?$AAn?$AA?$AA@ 1004ee80     LIBCMT:winapinls.obj
 0002:0000be98       ??_C@_1M@IDCCIHBC@?$AAt?$AAt?$AA?9?$AAR?$AAU?$AA?$AA@ 1004ee98     LIBCMT:winapinls.obj
 0002:0000bea4       ??_C@_1M@LOICPMOJ@?$AAb?$AAn?$AA?9?$AAI?$AAN?$AA?$AA@ 1004eea4     LIBCMT:winapinls.obj
 0002:0000beb0       ??_C@_1M@KPKKNEAH@?$AAp?$AAa?$AA?9?$AAI?$AAN?$AA?$AA@ 1004eeb0     LIBCMT:winapinls.obj
 0002:0000bebc       ??_C@_1M@PJGPPBOG@?$AAg?$AAu?$AA?9?$AAI?$AAN?$AA?$AA@ 1004eebc     LIBCMT:winapinls.obj
 0002:0000bec8       ??_C@_1M@KMKMOPHI@?$AAt?$AAa?$AA?9?$AAI?$AAN?$AA?$AA@ 1004eec8     LIBCMT:winapinls.obj
 0002:0000bed4       ??_C@_1M@KFEHEPAC@?$AAt?$AAe?$AA?9?$AAI?$AAN?$AA?$AA@ 1004eed4     LIBCMT:winapinls.obj
 0002:0000bee0       ??_C@_1M@CDCLMGHI@?$AAk?$AAn?$AA?9?$AAI?$AAN?$AA?$AA@ 1004eee0     LIBCMT:winapinls.obj
 0002:0000beec       ??_C@_1M@MIODLDKF@?$AAm?$AAl?$AA?9?$AAI?$AAN?$AA?$AA@ 1004eeec     LIBCMT:winapinls.obj
 0002:0000bef8       ??_C@_1M@PBIEACPO@?$AAm?$AAr?$AA?9?$AAI?$AAN?$AA?$AA@ 1004eef8     LIBCMT:winapinls.obj
 0002:0000bf04       ??_C@_1M@NIDEAGPH@?$AAs?$AAa?$AA?9?$AAI?$AAN?$AA?$AA@ 1004ef04     LIBCMT:winapinls.obj
 0002:0000bf10       ??_C@_1M@FHIHCBIO@?$AAm?$AAn?$AA?9?$AAM?$AAN?$AA?$AA@ 1004ef10     LIBCMT:winapinls.obj
 0002:0000bf1c       ??_C@_1M@JAIJPENP@?$AAc?$AAy?$AA?9?$AAG?$AAB?$AA?$AA@ 1004ef1c     LIBCMT:winapinls.obj
 0002:0000bf28       ??_C@_1M@PHGFBEPN@?$AAg?$AAl?$AA?9?$AAE?$AAS?$AA?$AA@ 1004ef28     LIBCMT:winapinls.obj
 0002:0000bf34       ??_C@_1O@KPIPDNCP@?$AAk?$AAo?$AAk?$AA?9?$AAI?$AAN?$AA?$AA@ 1004ef34     LIBCMT:winapinls.obj
 0002:0000bf44       ??_C@_1O@KNHJLDJA@?$AAs?$AAy?$AAr?$AA?9?$AAS?$AAY?$AA?$AA@ 1004ef44     LIBCMT:winapinls.obj
 0002:0000bf54       ??_C@_1O@MKEKBLAH@?$AAd?$AAi?$AAv?$AA?9?$AAM?$AAV?$AA?$AA@ 1004ef54     LIBCMT:winapinls.obj
 0002:0000bf64       ??_C@_1O@OHDCKDDF@?$AAq?$AAu?$AAz?$AA?9?$AAB?$AAO?$AA?$AA@ 1004ef64     LIBCMT:winapinls.obj
 0002:0000bf74       ??_C@_1M@LEPJNLFD@?$AAn?$AAs?$AA?9?$AAZ?$AAA?$AA?$AA@ 1004ef74     LIBCMT:winapinls.obj
 0002:0000bf80       ??_C@_1M@OMLEIIJB@?$AAm?$AAi?$AA?9?$AAN?$AAZ?$AA?$AA@ 1004ef80     LIBCMT:winapinls.obj
 0002:0000bf8c       ??_C@_1M@PMPEAILG@?$AAa?$AAr?$AA?9?$AAI?$AAQ?$AA?$AA@ 1004ef8c     LIBCMT:winapinls.obj
 0002:0000bf98       ??_C@_1M@CNKPNOEE@?$AAd?$AAe?$AA?9?$AAC?$AAH?$AA?$AA@ 1004ef98     LIBCMT:winapinls.obj
 0002:0000bfa4       ??_C@_1M@LKMGMLKO@?$AAe?$AAn?$AA?9?$AAG?$AAB?$AA?$AA@ 1004efa4     LIBCMT:winapinls.obj
 0002:0000bfb0       ??_C@_1M@PGKJFFGL@?$AAe?$AAs?$AA?9?$AAM?$AAX?$AA?$AA@ 1004efb0     LIBCMT:winapinls.obj
 0002:0000bfbc       ??_C@_1M@DNNANBDC@?$AAf?$AAr?$AA?9?$AAB?$AAE?$AA?$AA@ 1004efbc     LIBCMT:winapinls.obj
 0002:0000bfc8       ??_C@_1M@HLGMDFHM@?$AAi?$AAt?$AA?9?$AAC?$AAH?$AA?$AA@ 1004efc8     LIBCMT:winapinls.obj
 0002:0000bfd4       ??_C@_1M@CLLBGJH@?$AAn?$AAl?$AA?9?$AAB?$AAE?$AA?$AA@ 1004efd4     LIBCMT:winapinls.obj
 0002:0000bfe0       ??_C@_1M@BODBOGLF@?$AAn?$AAn?$AA?9?$AAN?$AAO?$AA?$AA@ 1004efe0     LIBCMT:winapinls.obj
 0002:0000bfec       ??_C@_1M@HFFAHKAD@?$AAp?$AAt?$AA?9?$AAP?$AAT?$AA?$AA@ 1004efec     LIBCMT:winapinls.obj
 0002:0000bff8       ??_C@_1BG@LNOAKHIE@?$AAs?$AAr?$AA?9?$AAS?$AAP?$AA?9?$AAL?$AAa?$AAt?$AAn?$AA?$AA@ 1004eff8     LIBCMT:winapinls.obj
 0002:0000c010       ??_C@_1M@HBMHBGAK@?$AAs?$AAv?$AA?9?$AAF?$AAI?$AA?$AA@ 1004f010     LIBCMT:winapinls.obj
 0002:0000c01c       ??_C@_1BG@DGCJGJBE@?$AAa?$AAz?$AA?9?$AAA?$AAZ?$AA?9?$AAC?$AAy?$AAr?$AAl?$AA?$AA@ 1004f01c     LIBCMT:winapinls.obj
 0002:0000c034       ??_C@_1M@KEJDAAHB@?$AAs?$AAe?$AA?9?$AAS?$AAE?$AA?$AA@ 1004f034     LIBCMT:winapinls.obj
 0002:0000c040       ??_C@_1M@HEIBJJAD@?$AAm?$AAs?$AA?9?$AAB?$AAN?$AA?$AA@ 1004f040     LIBCMT:winapinls.obj
 0002:0000c04c       ??_C@_1BG@PBGJMCEM@?$AAu?$AAz?$AA?9?$AAU?$AAZ?$AA?9?$AAC?$AAy?$AAr?$AAl?$AA?$AA@ 1004f04c     LIBCMT:winapinls.obj
 0002:0000c064       ??_C@_1O@LAOBCMDF@?$AAq?$AAu?$AAz?$AA?9?$AAE?$AAC?$AA?$AA@ 1004f064     LIBCMT:winapinls.obj
 0002:0000c074       ??_C@_1M@POEEMAIO@?$AAa?$AAr?$AA?9?$AAE?$AAG?$AA?$AA@ 1004f074     LIBCMT:winapinls.obj
 0002:0000c080       ??_C@_1M@EFAKDEDL@?$AAz?$AAh?$AA?9?$AAH?$AAK?$AA?$AA@ 1004f080     LIBCMT:winapinls.obj
 0002:0000c08c       ??_C@_1M@HKKIJHGI@?$AAd?$AAe?$AA?9?$AAA?$AAT?$AA?$AA@ 1004f08c     LIBCMT:winapinls.obj
 0002:0000c098       ??_C@_1M@KBFBEHJF@?$AAe?$AAn?$AA?9?$AAA?$AAU?$AA?$AA@ 1004f098     LIBCMT:winapinls.obj
 0002:0000c0a4       ??_C@_1M@MNPLFAAH@?$AAe?$AAs?$AA?9?$AAE?$AAS?$AA?$AA@ 1004f0a4     LIBCMT:winapinls.obj
 0002:0000c0b0       ??_C@_1M@HJOOJFMA@?$AAf?$AAr?$AA?9?$AAC?$AAA?$AA?$AA@ 1004f0b0     LIBCMT:winapinls.obj
 0002:0000c0bc       ??_C@_1BG@JPOFPNAB@?$AAs?$AAr?$AA?9?$AAS?$AAP?$AA?9?$AAC?$AAy?$AAr?$AAl?$AA?$AA@ 1004f0bc     LIBCMT:winapinls.obj
 0002:0000c0d4       ??_C@_1M@LNFOCMOB@?$AAs?$AAe?$AA?9?$AAF?$AAI?$AA?$AA@ 1004f0d4     LIBCMT:winapinls.obj
 0002:0000c0e0       ??_C@_1O@MGJBOAMB@?$AAq?$AAu?$AAz?$AA?9?$AAP?$AAE?$AA?$AA@ 1004f0e0     LIBCMT:winapinls.obj
 0002:0000c0f0       ??_C@_1M@GJINLBOK@?$AAa?$AAr?$AA?9?$AAL?$AAY?$AA?$AA@ 1004f0f0     LIBCMT:winapinls.obj
 0002:0000c0fc       ??_C@_1M@GGMNHJNL@?$AAz?$AAh?$AA?9?$AAS?$AAG?$AA?$AA@ 1004f0fc     LIBCMT:winapinls.obj
 0002:0000c108       ??_C@_1M@HOIKODND@?$AAd?$AAe?$AA?9?$AAL?$AAU?$AA?$AA@ 1004f108     LIBCMT:winapinls.obj
 0002:0000c114       ??_C@_1M@DDOCCGFG@?$AAe?$AAn?$AA?9?$AAC?$AAA?$AA?$AA@ 1004f114     LIBCMT:winapinls.obj
 0002:0000c120       ??_C@_1M@BNOEMJLF@?$AAe?$AAs?$AA?9?$AAG?$AAT?$AA?$AA@ 1004f120     LIBCMT:winapinls.obj
 0002:0000c12c       ??_C@_1M@EOGNKEK@?$AAf?$AAr?$AA?9?$AAC?$AAH?$AA?$AA@ 1004f12c     LIBCMT:winapinls.obj
 0002:0000c138       ??_C@_1M@FLIDJFHL@?$AAh?$AAr?$AA?9?$AAB?$AAA?$AA?$AA@ 1004f138     LIBCMT:winapinls.obj
 0002:0000c144       ??_C@_1O@FMCELNAJ@?$AAs?$AAm?$AAj?$AA?9?$AAN?$AAO?$AA?$AA@ 1004f144     LIBCMT:winapinls.obj
 0002:0000c154       ??_C@_1M@JHGLJMGJ@?$AAa?$AAr?$AA?9?$AAD?$AAZ?$AA?$AA@ 1004f154     LIBCMT:winapinls.obj
 0002:0000c160       ??_C@_1M@JKKFDCNP@?$AAz?$AAh?$AA?9?$AAM?$AAO?$AA?$AA@ 1004f160     LIBCMT:winapinls.obj
 0002:0000c16c       ??_C@_1M@GEEFALPE@?$AAd?$AAe?$AA?9?$AAL?$AAI?$AA?$AA@ 1004f16c     LIBCMT:winapinls.obj
 0002:0000c178       ??_C@_1M@IGEOFBG@?$AAe?$AAn?$AA?9?$AAN?$AAZ?$AA?$AA@ 1004f178     LIBCMT:winapinls.obj
 0002:0000c184       ??_C@_1M@KDBONEHP@?$AAe?$AAs?$AA?9?$AAC?$AAR?$AA?$AA@ 1004f184     LIBCMT:winapinls.obj
 0002:0000c190       ??_C@_1M@FHMDOHNN@?$AAf?$AAr?$AA?9?$AAL?$AAU?$AA?$AA@ 1004f190     LIBCMT:winapinls.obj
 0002:0000c19c       ??_C@_1BG@NFKKMAFG@?$AAb?$AAs?$AA?9?$AAB?$AAA?$AA?9?$AAL?$AAa?$AAt?$AAn?$AA?$AA@ 1004f19c     LIBCMT:winapinls.obj
 0002:0000c1b4       ??_C@_1O@IMNBEMCI@?$AAs?$AAm?$AAj?$AA?9?$AAS?$AAE?$AA?$AA@ 1004f1b4     LIBCMT:winapinls.obj
 0002:0000c1c4       ??_C@_1M@DHHMBNDP@?$AAa?$AAr?$AA?9?$AAM?$AAA?$AA?$AA@ 1004f1c4     LIBCMT:winapinls.obj
 0002:0000c1d0       ??_C@_1M@BNBLJCGH@?$AAe?$AAn?$AA?9?$AAI?$AAE?$AA?$AA@ 1004f1d0     LIBCMT:winapinls.obj
 0002:0000c1dc       ??_C@_1M@GEPAFMDL@?$AAe?$AAs?$AA?9?$AAP?$AAA?$AA?$AA@ 1004f1dc     LIBCMT:winapinls.obj
 0002:0000c1e8       ??_C@_1M@OJONDMDL@?$AAf?$AAr?$AA?9?$AAM?$AAC?$AA?$AA@ 1004f1e8     LIBCMT:winapinls.obj
 0002:0000c1f4       ??_C@_1BG@OBCNFJB@?$AAs?$AAr?$AA?9?$AAB?$AAA?$AA?9?$AAL?$AAa?$AAt?$AAn?$AA?$AA@ 1004f1f4     LIBCMT:winapinls.obj
 0002:0000c20c       ??_C@_1O@KEMEEGPO@?$AAs?$AAm?$AAa?$AA?9?$AAN?$AAO?$AA?$AA@ 1004f20c     LIBCMT:winapinls.obj
 0002:0000c21c       ??_C@_1M@ELMGFODK@?$AAa?$AAr?$AA?9?$AAT?$AAN?$AA?$AA@ 1004f21c     LIBCMT:winapinls.obj
 0002:0000c228       ??_C@_1M@BHDLHFAF@?$AAe?$AAn?$AA?9?$AAZ?$AAA?$AA?$AA@ 1004f228     LIBCMT:winapinls.obj
 0002:0000c234       ??_C@_1M@BMGIGLIF@?$AAe?$AAs?$AA?9?$AAD?$AAO?$AA?$AA@ 1004f234     LIBCMT:winapinls.obj
 0002:0000c240       ??_C@_1BG@CMBHIPBE@?$AAs?$AAr?$AA?9?$AAB?$AAA?$AA?9?$AAC?$AAy?$AAr?$AAl?$AA?$AA@ 1004f240     LIBCMT:winapinls.obj
 0002:0000c258       ??_C@_1O@HEDBLHNP@?$AAs?$AAm?$AAa?$AA?9?$AAS?$AAE?$AA?$AA@ 1004f258     LIBCMT:winapinls.obj
 0002:0000c268       ??_C@_1M@DAGCADIM@?$AAa?$AAr?$AA?9?$AAO?$AAM?$AA?$AA@ 1004f268     LIBCMT:winapinls.obj
 0002:0000c274       ??_C@_1M@FODLMICG@?$AAe?$AAn?$AA?9?$AAJ?$AAM?$AA?$AA@ 1004f274     LIBCMT:winapinls.obj
 0002:0000c280       ??_C@_1M@DNMLCIHB@?$AAe?$AAs?$AA?9?$AAV?$AAE?$AA?$AA@ 1004f280     LIBCMT:winapinls.obj
 0002:0000c28c       ??_C@_1O@EOKHMKJK@?$AAs?$AAm?$AAs?$AA?9?$AAF?$AAI?$AA?$AA@ 1004f28c     LIBCMT:winapinls.obj
 0002:0000c29c       ??_C@_1M@CAFJMKOF@?$AAa?$AAr?$AA?9?$AAY?$AAE?$AA?$AA@ 1004f29c     LIBCMT:winapinls.obj
 0002:0000c2a8       ??_C@_1M@CBFHIJLI@?$AAe?$AAn?$AA?9?$AAC?$AAB?$AA?$AA@ 1004f2a8     LIBCMT:winapinls.obj
 0002:0000c2b4       ??_C@_1M@BGNFLDN@?$AAe?$AAs?$AA?9?$AAC?$AAO?$AA?$AA@ 1004f2b4     LIBCMT:winapinls.obj
 0002:0000c2c0       ??_C@_1O@JMPHMAMC@?$AAs?$AAm?$AAn?$AA?9?$AAF?$AAI?$AA?$AA@ 1004f2c0     LIBCMT:winapinls.obj
 0002:0000c2d0       ??_C@_1M@JLANABKE@?$AAa?$AAr?$AA?9?$AAS?$AAY?$AA?$AA@ 1004f2d0     LIBCMT:winapinls.obj
 0002:0000c2dc       ??_C@_1M@HPKGCFGN@?$AAe?$AAn?$AA?9?$AAB?$AAZ?$AA?$AA@ 1004f2dc     LIBCMT:winapinls.obj
 0002:0000c2e8       ??_C@_1M@OLJCMLGM@?$AAe?$AAs?$AA?9?$AAP?$AAE?$AA?$AA@ 1004f2e8     LIBCMT:winapinls.obj
 0002:0000c2f4       ??_C@_1M@MKKGFKLE@?$AAa?$AAr?$AA?9?$AAJ?$AAO?$AA?$AA@ 1004f2f4     LIBCMT:winapinls.obj
 0002:0000c300       ??_C@_1M@EKPGLDNI@?$AAe?$AAn?$AA?9?$AAT?$AAT?$AA?$AA@ 1004f300     LIBCMT:winapinls.obj
 0002:0000c30c       ??_C@_1M@OONGHFHE@?$AAe?$AAs?$AA?9?$AAA?$AAR?$AA?$AA@ 1004f30c     LIBCMT:winapinls.obj
 0002:0000c318       ??_C@_1M@OOJFGBHE@?$AAa?$AAr?$AA?9?$AAL?$AAB?$AA?$AA@ 1004f318     LIBCMT:winapinls.obj
 0002:0000c324       ??_C@_1M@GCEJHNEG@?$AAe?$AAn?$AA?9?$AAZ?$AAW?$AA?$AA@ 1004f324     LIBCMT:winapinls.obj
 0002:0000c330       ??_C@_1M@JNOCAHJI@?$AAe?$AAs?$AA?9?$AAE?$AAC?$AA?$AA@ 1004f330     LIBCMT:winapinls.obj
 0002:0000c33c       ??_C@_1M@JEFHPGGB@?$AAa?$AAr?$AA?9?$AAK?$AAW?$AA?$AA@ 1004f33c     LIBCMT:winapinls.obj
 0002:0000c348       ??_C@_1M@MLKIBJOJ@?$AAe?$AAn?$AA?9?$AAP?$AAH?$AA?$AA@ 1004f348     LIBCMT:winapinls.obj
 0002:0000c354       ??_C@_1M@BDNIPEND@?$AAe?$AAs?$AA?9?$AAC?$AAL?$AA?$AA@ 1004f354     LIBCMT:winapinls.obj
 0002:0000c360       ??_C@_1M@MPNMEKBD@?$AAa?$AAr?$AA?9?$AAA?$AAE?$AA?$AA@ 1004f360     LIBCMT:winapinls.obj
 0002:0000c36c       ??_C@_1M@KBJALCPI@?$AAe?$AAs?$AA?9?$AAU?$AAY?$AA?$AA@ 1004f36c     LIBCMT:winapinls.obj
 0002:0000c378       ??_C@_1M@LLCCOAGA@?$AAa?$AAr?$AA?9?$AAB?$AAH?$AA?$AA@ 1004f378     LIBCMT:winapinls.obj
 0002:0000c384       ??_C@_1M@PBFNCDEL@?$AAe?$AAs?$AA?9?$AAP?$AAY?$AA?$AA@ 1004f384     LIBCMT:winapinls.obj
 0002:0000c390       ??_C@_1M@EDGINPNP@?$AAa?$AAr?$AA?9?$AAQ?$AAA?$AA?$AA@ 1004f390     LIBCMT:winapinls.obj
 0002:0000c39c       ??_C@_1M@MKDBIIJI@?$AAe?$AAs?$AA?9?$AAB?$AAO?$AA?$AA@ 1004f39c     LIBCMT:winapinls.obj
 0002:0000c3a8       ??_C@_1M@CPKKEBLD@?$AAe?$AAs?$AA?9?$AAS?$AAV?$AA?$AA@ 1004f3a8     LIBCMT:winapinls.obj
 0002:0000c3b4       ??_C@_1M@NDBGMMJL@?$AAe?$AAs?$AA?9?$AAH?$AAN?$AA?$AA@ 1004f3b4     LIBCMT:winapinls.obj
 0002:0000c3c0       ??_C@_1M@JIJIBHDP@?$AAe?$AAs?$AA?9?$AAN?$AAI?$AA?$AA@ 1004f3c0     LIBCMT:winapinls.obj
 0002:0000c3cc       ??_C@_1M@CGFMKEEK@?$AAe?$AAs?$AA?9?$AAP?$AAR?$AA?$AA@ 1004f3cc     LIBCMT:winapinls.obj
 0002:0000c3d8       ??_C@_1O@ICJHKIIK@?$AAz?$AAh?$AA?9?$AAC?$AAH?$AAT?$AA?$AA@ 1004f3d8     LIBCMT:winapinls.obj
 0002:0000c3e8       ??_C@_15CLNEJCE@?$AAs?$AAr?$AA?$AA@ 1004f3e8     LIBCMT:winapinls.obj
 0002:0000c3f0       ??_C@_1M@KAHEKEIG@?$AAa?$AAf?$AA?9?$AAz?$AAa?$AA?$AA@ 1004f3f0     LIBCMT:winapinls.obj
 0002:0000c3fc       ??_C@_1M@GIECOABL@?$AAa?$AAr?$AA?9?$AAa?$AAe?$AA?$AA@ 1004f3fc     LIBCMT:winapinls.obj
 0002:0000c408       ??_C@_1M@BMLMEKGI@?$AAa?$AAr?$AA?9?$AAb?$AAh?$AA?$AA@ 1004f408     LIBCMT:winapinls.obj
 0002:0000c414       ??_C@_1M@DAPFDGGB@?$AAa?$AAr?$AA?9?$AAd?$AAz?$AA?$AA@ 1004f414     LIBCMT:winapinls.obj
 0002:0000c420       ??_C@_1M@FJNKGKIG@?$AAa?$AAr?$AA?9?$AAe?$AAg?$AA?$AA@ 1004f420     LIBCMT:winapinls.obj
 0002:0000c42c       ??_C@_1M@FLGKKCLO@?$AAa?$AAr?$AA?9?$AAi?$AAq?$AA?$AA@ 1004f42c     LIBCMT:winapinls.obj
 0002:0000c438       ??_C@_1M@GNDIPALM@?$AAa?$AAr?$AA?9?$AAj?$AAo?$AA?$AA@ 1004f438     LIBCMT:winapinls.obj
 0002:0000c444       ??_C@_1M@DDMJFMGJ@?$AAa?$AAr?$AA?9?$AAk?$AAw?$AA?$AA@ 1004f444     LIBCMT:winapinls.obj
 0002:0000c450       ??_C@_1M@EJALMLHM@?$AAa?$AAr?$AA?9?$AAl?$AAb?$AA?$AA@ 1004f450     LIBCMT:winapinls.obj
 0002:0000c45c       ??_C@_1M@MOBDBLOC@?$AAa?$AAr?$AA?9?$AAl?$AAy?$AA?$AA@ 1004f45c     LIBCMT:winapinls.obj
 0002:0000c468       ??_C@_1M@JAOCLHDH@?$AAa?$AAr?$AA?9?$AAm?$AAa?$AA?$AA@ 1004f468     LIBCMT:winapinls.obj
 0002:0000c474       ??_C@_1M@JHPMKJIE@?$AAa?$AAr?$AA?9?$AAo?$AAm?$AA?$AA@ 1004f474     LIBCMT:winapinls.obj
 0002:0000c480       ??_C@_1M@OEPGHFNH@?$AAa?$AAr?$AA?9?$AAq?$AAa?$AA?$AA@ 1004f480     LIBCMT:winapinls.obj
 0002:0000c48c       ??_C@_1M@KJDONENM@?$AAa?$AAr?$AA?9?$AAs?$AAa?$AA?$AA@ 1004f48c     LIBCMT:winapinls.obj
 0002:0000c498       ??_C@_1M@DMJDKLKM@?$AAa?$AAr?$AA?9?$AAs?$AAy?$AA?$AA@ 1004f498     LIBCMT:winapinls.obj
 0002:0000c4a4       ??_C@_1M@OMFIPEDC@?$AAa?$AAr?$AA?9?$AAt?$AAn?$AA?$AA@ 1004f4a4     LIBCMT:winapinls.obj
 0002:0000c4b0       ??_C@_1M@IHMHGAON@?$AAa?$AAr?$AA?9?$AAy?$AAe?$AA?$AA@ 1004f4b0     LIBCMT:winapinls.obj
 0002:0000c4bc       ??_C@_1BG@KDCPGJGB@?$AAa?$AAz?$AA?9?$AAa?$AAz?$AA?9?$AAc?$AAy?$AAr?$AAl?$AA?$AA@ 1004f4bc     LIBCMT:winapinls.obj
 0002:0000c4d4       ??_C@_1BG@IBCKDDOE@?$AAa?$AAz?$AA?9?$AAa?$AAz?$AA?9?$AAl?$AAa?$AAt?$AAn?$AA?$AA@ 1004f4d4     LIBCMT:winapinls.obj
 0002:0000c4ec       ??_C@_1M@EGPFDCPD@?$AAb?$AAe?$AA?9?$AAb?$AAy?$AA?$AA@ 1004f4ec     LIBCMT:winapinls.obj
 0002:0000c4f8       ??_C@_1M@PCMGMCGC@?$AAb?$AAg?$AA?9?$AAb?$AAg?$AA?$AA@ 1004f4f8     LIBCMT:winapinls.obj
 0002:0000c504       ??_C@_1M@BJBMFGOB@?$AAb?$AAn?$AA?9?$AAi?$AAn?$AA?$AA@ 1004f504     LIBCMT:winapinls.obj
 0002:0000c510       ??_C@_1BG@EAKMMACD@?$AAb?$AAs?$AA?9?$AAb?$AAa?$AA?9?$AAl?$AAa?$AAt?$AAn?$AA?$AA@ 1004f510     LIBCMT:winapinls.obj
 0002:0000c528       ??_C@_1M@KGADAODK@?$AAc?$AAa?$AA?9?$AAe?$AAs?$AA?$AA@ 1004f528     LIBCMT:winapinls.obj
 0002:0000c534       ??_C@_1M@COAJPDHI@?$AAc?$AAs?$AA?9?$AAc?$AAz?$AA?$AA@ 1004f534     LIBCMT:winapinls.obj
 0002:0000c540       ??_C@_1M@DHBHFONH@?$AAc?$AAy?$AA?9?$AAg?$AAb?$AA?$AA@ 1004f540     LIBCMT:winapinls.obj
 0002:0000c54c       ??_C@_1M@IMGKELGA@?$AAd?$AAa?$AA?9?$AAd?$AAk?$AA?$AA@ 1004f54c     LIBCMT:winapinls.obj
 0002:0000c558       ??_C@_1M@NNDGDNGA@?$AAd?$AAe?$AA?9?$AAa?$AAt?$AA?$AA@ 1004f558     LIBCMT:winapinls.obj
 0002:0000c564       ??_C@_1M@IKDBHEEM@?$AAd?$AAe?$AA?9?$AAc?$AAh?$AA?$AA@ 1004f564     LIBCMT:winapinls.obj
 0002:0000c570       ??_C@_1M@GFFOJMCJ@?$AAd?$AAe?$AA?9?$AAd?$AAe?$AA?$AA@ 1004f570     LIBCMT:winapinls.obj
 0002:0000c57c       ??_C@_1M@MDNLKBPM@?$AAd?$AAe?$AA?9?$AAl?$AAi?$AA?$AA@ 1004f57c     LIBCMT:winapinls.obj
 0002:0000c588       ??_C@_1M@NJBEEJNL@?$AAd?$AAe?$AA?9?$AAl?$AAu?$AA?$AA@ 1004f588     LIBCMT:winapinls.obj
 0002:0000c594       ??_C@_1O@GNNELBAP@?$AAd?$AAi?$AAv?$AA?9?$AAm?$AAv?$AA?$AA@ 1004f594     LIBCMT:winapinls.obj
 0002:0000c5a4       ??_C@_1M@EJLEOGAE@?$AAe?$AAl?$AA?9?$AAg?$AAr?$AA?$AA@ 1004f5a4     LIBCMT:winapinls.obj
 0002:0000c5b0       ??_C@_1M@GMPONJN@?$AAe?$AAn?$AA?9?$AAa?$AAu?$AA?$AA@ 1004f5b0     LIBCMT:winapinls.obj
 0002:0000c5bc       ??_C@_1M@NIDIIPGF@?$AAe?$AAn?$AA?9?$AAb?$AAz?$AA?$AA@ 1004f5bc     LIBCMT:winapinls.obj
 0002:0000c5c8       ??_C@_1M@JEHMIMFO@?$AAe?$AAn?$AA?9?$AAc?$AAa?$AA?$AA@ 1004f5c8     LIBCMT:winapinls.obj
 0002:0000c5d4       ??_C@_1M@IGMJCDLA@?$AAe?$AAn?$AA?9?$AAc?$AAb?$AA?$AA@ 1004f5d4     LIBCMT:winapinls.obj
 0002:0000c5e0       ??_C@_1M@BNFIGBKG@?$AAe?$AAn?$AA?9?$AAg?$AAb?$AA?$AA@ 1004f5e0     LIBCMT:winapinls.obj
 0002:0000c5ec       ??_C@_1M@LKIFDIGP@?$AAe?$AAn?$AA?9?$AAi?$AAe?$AA?$AA@ 1004f5ec     LIBCMT:winapinls.obj
 0002:0000c5f8       ??_C@_1M@PJKFGCCO@?$AAe?$AAn?$AA?9?$AAj?$AAm?$AA?$AA@ 1004f5f8     LIBCMT:winapinls.obj
 0002:0000c604       ??_C@_1M@KPPKEPBO@?$AAe?$AAn?$AA?9?$AAn?$AAz?$AA?$AA@ 1004f604     LIBCMT:winapinls.obj
 0002:0000c610       ??_C@_1M@GMDGLDOB@?$AAe?$AAn?$AA?9?$AAp?$AAh?$AA?$AA@ 1004f610     LIBCMT:winapinls.obj
 0002:0000c61c       ??_C@_1M@ONGIBJNA@?$AAe?$AAn?$AA?9?$AAt?$AAt?$AA?$AA@ 1004f61c     LIBCMT:winapinls.obj
 0002:0000c628       ??_C@_1M@LLODPCMM@?$AAe?$AAn?$AA?9?$AAu?$AAs?$AA?$AA@ 1004f628     LIBCMT:winapinls.obj
 0002:0000c634       ??_C@_1M@LAKFNPAN@?$AAe?$AAn?$AA?9?$AAz?$AAa?$AA?$AA@ 1004f634     LIBCMT:winapinls.obj
 0002:0000c640       ??_C@_1M@MFNHNHEO@?$AAe?$AAn?$AA?9?$AAz?$AAw?$AA?$AA@ 1004f640     LIBCMT:winapinls.obj
 0002:0000c64c       ??_C@_1M@EJEINPHM@?$AAe?$AAs?$AA?9?$AAa?$AAr?$AA?$AA@ 1004f64c     LIBCMT:winapinls.obj
 0002:0000c658       ??_C@_1M@GNKPCCJA@?$AAe?$AAs?$AA?9?$AAb?$AAo?$AA?$AA@ 1004f658     LIBCMT:winapinls.obj
 0002:0000c664       ??_C@_1M@LEEGFONL@?$AAe?$AAs?$AA?9?$AAc?$AAl?$AA?$AA@ 1004f664     LIBCMT:winapinls.obj
 0002:0000c670       ??_C@_1M@KGPDPBDF@?$AAe?$AAs?$AA?9?$AAc?$AAo?$AA?$AA@ 1004f670     LIBCMT:winapinls.obj
 0002:0000c67c       ??_C@_1M@EIAHOHH@?$AAe?$AAs?$AA?9?$AAc?$AAr?$AA?$AA@ 1004f67c     LIBCMT:winapinls.obj
 0002:0000c688       ??_C@_1M@LLPGMBIN@?$AAe?$AAs?$AA?9?$AAd?$AAo?$AA?$AA@ 1004f688     LIBCMT:winapinls.obj
 0002:0000c694       ??_C@_1M@DKHMKNJA@?$AAe?$AAs?$AA?9?$AAe?$AAc?$AA?$AA@ 1004f694     LIBCMT:winapinls.obj
 0002:0000c6a0       ??_C@_1M@GKGFPKAP@?$AAe?$AAs?$AA?9?$AAe?$AAs?$AA?$AA@ 1004f6a0     LIBCMT:winapinls.obj
 0002:0000c6ac       ??_C@_1M@LKHKGDLN@?$AAe?$AAs?$AA?9?$AAg?$AAt?$AA?$AA@ 1004f6ac     LIBCMT:winapinls.obj
 0002:0000c6b8       ??_C@_1M@HEIIGGJD@?$AAe?$AAs?$AA?9?$AAh?$AAn?$AA?$AA@ 1004f6b8     LIBCMT:winapinls.obj
 0002:0000c6c4       ??_C@_1M@FBDHPPGD@?$AAe?$AAs?$AA?9?$AAm?$AAx?$AA?$AA@ 1004f6c4     LIBCMT:winapinls.obj
 0002:0000c6d0       ??_C@_1M@DPAGLNDH@?$AAe?$AAs?$AA?9?$AAn?$AAi?$AA?$AA@ 1004f6d0     LIBCMT:winapinls.obj
 0002:0000c6dc       ??_C@_1M@MDGOPGDD@?$AAe?$AAs?$AA?9?$AAp?$AAa?$AA?$AA@ 1004f6dc     LIBCMT:winapinls.obj
 0002:0000c6e8       ??_C@_1M@EMAMGBGE@?$AAe?$AAs?$AA?9?$AAp?$AAe?$AA?$AA@ 1004f6e8     LIBCMT:winapinls.obj
 0002:0000c6f4       ??_C@_1M@IBMCAOEC@?$AAe?$AAs?$AA?9?$AAp?$AAr?$AA?$AA@ 1004f6f4     LIBCMT:winapinls.obj
 0002:0000c700       ??_C@_1M@FGMDIJED@?$AAe?$AAs?$AA?9?$AAp?$AAy?$AA?$AA@ 1004f700     LIBCMT:winapinls.obj
 0002:0000c70c       ??_C@_1M@IIDEOLLL@?$AAe?$AAs?$AA?9?$AAs?$AAv?$AA?$AA@ 1004f70c     LIBCMT:winapinls.obj
 0002:0000c718       ??_C@_1M@GAOBIPA@?$AAe?$AAs?$AA?9?$AAu?$AAy?$AA?$AA@ 1004f718     LIBCMT:winapinls.obj
 0002:0000c724       ??_C@_1M@JKFFICHJ@?$AAe?$AAs?$AA?9?$AAv?$AAe?$AA?$AA@ 1004f724     LIBCMT:winapinls.obj
 0002:0000c730       ??_C@_1M@PNMLOJDF@?$AAe?$AAt?$AA?9?$AAe?$AAe?$AA?$AA@ 1004f730     LIBCMT:winapinls.obj
 0002:0000c73c       ??_C@_1M@GHHLIKEI@?$AAe?$AAu?$AA?9?$AAe?$AAs?$AA?$AA@ 1004f73c     LIBCMT:winapinls.obj
 0002:0000c748       ??_C@_1M@PBNONODE@?$AAf?$AAa?$AA?9?$AAi?$AAr?$AA?$AA@ 1004f748     LIBCMT:winapinls.obj
 0002:0000c754       ??_C@_1M@JEEHPMIL@?$AAf?$AAi?$AA?9?$AAf?$AAi?$AA?$AA@ 1004f754     LIBCMT:winapinls.obj
 0002:0000c760       ??_C@_1M@LMDCNDBA@?$AAf?$AAo?$AA?9?$AAf?$AAo?$AA?$AA@ 1004f760     LIBCMT:winapinls.obj
 0002:0000c76c       ??_C@_1M@JKEOHLDK@?$AAf?$AAr?$AA?9?$AAb?$AAe?$AA?$AA@ 1004f76c     LIBCMT:winapinls.obj
 0002:0000c778       ??_C@_1M@NOHADPMI@?$AAf?$AAr?$AA?9?$AAc?$AAa?$AA?$AA@ 1004f778     LIBCMT:winapinls.obj
 0002:0000c784       ??_C@_1M@KDHIHAEC@?$AAf?$AAr?$AA?9?$AAc?$AAh?$AA?$AA@ 1004f784     LIBCMT:winapinls.obj
 0002:0000c790       ??_C@_1M@MMBBFGAK@?$AAf?$AAr?$AA?9?$AAf?$AAr?$AA?$AA@ 1004f790     LIBCMT:winapinls.obj
 0002:0000c79c       ??_C@_1M@PAFNENNF@?$AAf?$AAr?$AA?9?$AAl?$AAu?$AA?$AA@ 1004f79c     LIBCMT:winapinls.obj
 0002:0000c7a8       ??_C@_1M@EOHDJGDD@?$AAf?$AAr?$AA?9?$AAm?$AAc?$AA?$AA@ 1004f7a8     LIBCMT:winapinls.obj
 0002:0000c7b4       ??_C@_1M@FAPLLOPF@?$AAg?$AAl?$AA?9?$AAe?$AAs?$AA?$AA@ 1004f7b4     LIBCMT:winapinls.obj
 0002:0000c7c0       ??_C@_1M@FOPBFLOO@?$AAg?$AAu?$AA?9?$AAi?$AAn?$AA?$AA@ 1004f7c0     LIBCMT:winapinls.obj
 0002:0000c7cc       ??_C@_1M@KBMCINPM@?$AAh?$AAe?$AA?9?$AAi?$AAl?$AA?$AA@ 1004f7cc     LIBCMT:winapinls.obj
 0002:0000c7d8       ??_C@_1M@BBPHKFPJ@?$AAh?$AAi?$AA?9?$AAi?$AAn?$AA?$AA@ 1004f7d8     LIBCMT:winapinls.obj
 0002:0000c7e4       ??_C@_1M@PMBNDPHD@?$AAh?$AAr?$AA?9?$AAb?$AAa?$AA?$AA@ 1004f7e4     LIBCMT:winapinls.obj
 0002:0000c7f0       ??_C@_1M@BPCKOEGE@?$AAh?$AAr?$AA?9?$AAh?$AAr?$AA?$AA@ 1004f7f0     LIBCMT:winapinls.obj
 0002:0000c7fc       ??_C@_1M@GACBMHKE@?$AAh?$AAu?$AA?9?$AAh?$AAu?$AA?$AA@ 1004f7fc     LIBCMT:winapinls.obj
 0002:0000c808       ??_C@_1M@MILPAJJC@?$AAh?$AAy?$AA?9?$AAa?$AAm?$AA?$AA@ 1004f808     LIBCMT:winapinls.obj
 0002:0000c814       ??_C@_1M@BABBICEC@?$AAi?$AAd?$AA?9?$AAi?$AAd?$AA?$AA@ 1004f814     LIBCMT:winapinls.obj
 0002:0000c820       ??_C@_1M@BIKNHHPF@?$AAi?$AAs?$AA?9?$AAi?$AAs?$AA?$AA@ 1004f820     LIBCMT:winapinls.obj
 0002:0000c82c       ??_C@_1M@NMPCJPHE@?$AAi?$AAt?$AA?9?$AAc?$AAh?$AA?$AA@ 1004f82c     LIBCMT:winapinls.obj
 0002:0000c838       ??_C@_1M@GHKGFEDF@?$AAi?$AAt?$AA?9?$AAi?$AAt?$AA?$AA@ 1004f838     LIBCMT:winapinls.obj
 0002:0000c844       ??_C@_1M@NIEJCJJA@?$AAj?$AAa?$AA?9?$AAj?$AAp?$AA?$AA@ 1004f844     LIBCMT:winapinls.obj
 0002:0000c850       ??_C@_1M@JILFNBIM@?$AAk?$AAa?$AA?9?$AAg?$AAe?$AA?$AA@ 1004f850     LIBCMT:winapinls.obj
 0002:0000c85c       ??_C@_1M@PACPMGPH@?$AAk?$AAk?$AA?9?$AAk?$AAz?$AA?$AA@ 1004f85c     LIBCMT:winapinls.obj
 0002:0000c868       ??_C@_1M@IELFGMHA@?$AAk?$AAn?$AA?9?$AAi?$AAn?$AA?$AA@ 1004f868     LIBCMT:winapinls.obj
 0002:0000c874       ??_C@_1O@IBBJHCH@?$AAk?$AAo?$AAk?$AA?9?$AAi?$AAn?$AA?$AA@ 1004f874     LIBCMT:winapinls.obj
 0002:0000c884       ??_C@_1M@DMHAEOGC@?$AAk?$AAo?$AA?9?$AAk?$AAr?$AA?$AA@ 1004f884     LIBCMT:winapinls.obj
 0002:0000c890       ??_C@_1M@HBAHBIGA@?$AAk?$AAy?$AA?9?$AAk?$AAg?$AA?$AA@ 1004f890     LIBCMT:winapinls.obj
 0002:0000c89c       ??_C@_1M@KPMILCJG@?$AAl?$AAt?$AA?9?$AAl?$AAt?$AA?$AA@ 1004f89c     LIBCMT:winapinls.obj
 0002:0000c8a8       ??_C@_1M@BDEKKCA@?$AAl?$AAv?$AA?9?$AAl?$AAv?$AA?$AA@ 1004f8a8     LIBCMT:winapinls.obj
 0002:0000c8b4       ??_C@_1M@ELCKCCJJ@?$AAm?$AAi?$AA?9?$AAn?$AAz?$AA?$AA@ 1004f8b4     LIBCMT:winapinls.obj
 0002:0000c8c0       ??_C@_1M@CBOOLAPA@?$AAm?$AAk?$AA?9?$AAm?$AAk?$AA?$AA@ 1004f8c0     LIBCMT:winapinls.obj
 0002:0000c8cc       ??_C@_1M@GPHNBJKN@?$AAm?$AAl?$AA?9?$AAi?$AAn?$AA?$AA@ 1004f8cc     LIBCMT:winapinls.obj
 0002:0000c8d8       ??_C@_1M@PABJILIG@?$AAm?$AAn?$AA?9?$AAm?$AAn?$AA?$AA@ 1004f8d8     LIBCMT:winapinls.obj
 0002:0000c8e4       ??_C@_1M@FGBKKIPG@?$AAm?$AAr?$AA?9?$AAi?$AAn?$AA?$AA@ 1004f8e4     LIBCMT:winapinls.obj
 0002:0000c8f0       ??_C@_1M@NDBPDDAL@?$AAm?$AAs?$AA?9?$AAb?$AAn?$AA?$AA@ 1004f8f0     LIBCMT:winapinls.obj
 0002:0000c8fc       ??_C@_1M@OPIHOOPI@?$AAm?$AAs?$AA?9?$AAm?$AAy?$AA?$AA@ 1004f8fc     LIBCMT:winapinls.obj
 0002:0000c908       ??_C@_1M@PPDBCNFM@?$AAm?$AAt?$AA?9?$AAm?$AAt?$AA?$AA@ 1004f908     LIBCMT:winapinls.obj
 0002:0000c914       ??_C@_1M@KDJDKMDD@?$AAn?$AAb?$AA?9?$AAn?$AAo?$AA?$AA@ 1004f914     LIBCMT:winapinls.obj
 0002:0000c920       ??_C@_1M@KFCFLMJP@?$AAn?$AAl?$AA?9?$AAb?$AAe?$AA?$AA@ 1004f920     LIBCMT:winapinls.obj
 0002:0000c92c       ??_C@_1M@KPOPDDGO@?$AAn?$AAl?$AA?9?$AAn?$AAl?$AA?$AA@ 1004f92c     LIBCMT:winapinls.obj
 0002:0000c938       ??_C@_1M@LJKPEMLN@?$AAn?$AAn?$AA?9?$AAn?$AAo?$AA?$AA@ 1004f938     LIBCMT:winapinls.obj
 0002:0000c944       ??_C@_1M@BDGHHBFL@?$AAn?$AAs?$AA?9?$AAz?$AAa?$AA?$AA@ 1004f944     LIBCMT:winapinls.obj
 0002:0000c950       ??_C@_1M@IDEHOAP@?$AAp?$AAa?$AA?9?$AAi?$AAn?$AA?$AA@ 1004f950     LIBCMT:winapinls.obj
 0002:0000c95c       ??_C@_1M@HDBKGOGH@?$AAp?$AAl?$AA?9?$AAp?$AAl?$AA?$AA@ 1004f95c     LIBCMT:winapinls.obj
 0002:0000c968       ??_C@_1M@LJLLCMEH@?$AAp?$AAt?$AA?9?$AAb?$AAr?$AA?$AA@ 1004f968     LIBCMT:winapinls.obj
 0002:0000c974       ??_C@_1M@NCMONAAL@?$AAp?$AAt?$AA?9?$AAp?$AAt?$AA?$AA@ 1004f974     LIBCMT:winapinls.obj
 0002:0000c980       ??_C@_1O@EAKMAJDN@?$AAq?$AAu?$AAz?$AA?9?$AAb?$AAo?$AA?$AA@ 1004f980     LIBCMT:winapinls.obj
 0002:0000c990       ??_C@_1O@BHHPIGDN@?$AAq?$AAu?$AAz?$AA?9?$AAe?$AAc?$AA?$AA@ 1004f990     LIBCMT:winapinls.obj
 0002:0000c9a0       ??_C@_1O@GBAPEKMJ@?$AAq?$AAu?$AAz?$AA?9?$AAp?$AAe?$AA?$AA@ 1004f9a0     LIBCMT:winapinls.obj
 0002:0000c9b0       ??_C@_1M@CLGLEFBO@?$AAr?$AAo?$AA?9?$AAr?$AAo?$AA?$AA@ 1004f9b0     LIBCMT:winapinls.obj
 0002:0000c9bc       ??_C@_1M@CEEDODME@?$AAr?$AAu?$AA?9?$AAr?$AAu?$AA?$AA@ 1004f9bc     LIBCMT:winapinls.obj
 0002:0000c9c8       ??_C@_1M@HPKKKMPP@?$AAs?$AAa?$AA?9?$AAi?$AAn?$AA?$AA@ 1004f9c8     LIBCMT:winapinls.obj
 0002:0000c9d4       ??_C@_1M@BKMAIGOJ@?$AAs?$AAe?$AA?9?$AAf?$AAi?$AA?$AA@ 1004f9d4     LIBCMT:winapinls.obj
 0002:0000c9e0       ??_C@_1M@NDPIFLFI@?$AAs?$AAe?$AA?9?$AAn?$AAo?$AA?$AA@ 1004f9e0     LIBCMT:winapinls.obj
 0002:0000c9ec       ??_C@_1M@DANKKHJ@?$AAs?$AAe?$AA?9?$AAs?$AAe?$AA?$AA@ 1004f9ec     LIBCMT:winapinls.obj
 0002:0000c9f8       ??_C@_1M@PNBLONPJ@?$AAs?$AAk?$AA?9?$AAs?$AAk?$AA?$AA@ 1004f9f8     LIBCMT:winapinls.obj
 0002:0000ca04       ??_C@_1M@LFMODOAL@?$AAs?$AAl?$AA?9?$AAs?$AAi?$AA?$AA@ 1004fa04     LIBCMT:winapinls.obj
 0002:0000ca10       ??_C@_1O@DFKOMPG@?$AAs?$AAm?$AAa?$AA?9?$AAn?$AAo?$AA?$AA@ 1004fa10     LIBCMT:winapinls.obj
 0002:0000ca20       ??_C@_1O@NDKPBNNH@?$AAs?$AAm?$AAa?$AA?9?$AAs?$AAe?$AA?$AA@ 1004fa20     LIBCMT:winapinls.obj
 0002:0000ca30       ??_C@_1O@PLLKBHAB@?$AAs?$AAm?$AAj?$AA?9?$AAn?$AAo?$AA?$AA@ 1004fa30     LIBCMT:winapinls.obj
 0002:0000ca40       ??_C@_1O@CLEPOGCA@?$AAs?$AAm?$AAj?$AA?9?$AAs?$AAe?$AA?$AA@ 1004fa40     LIBCMT:winapinls.obj
 0002:0000ca50       ??_C@_1O@DLGJGKMK@?$AAs?$AAm?$AAn?$AA?9?$AAf?$AAi?$AA?$AA@ 1004fa50     LIBCMT:winapinls.obj
 0002:0000ca60       ??_C@_1O@OJDJGAJC@?$AAs?$AAm?$AAs?$AA?9?$AAf?$AAi?$AA?$AA@ 1004fa60     LIBCMT:winapinls.obj
 0002:0000ca70       ??_C@_1M@BOFOGHPB@?$AAs?$AAq?$AA?9?$AAa?$AAl?$AA?$AA@ 1004fa70     LIBCMT:winapinls.obj
 0002:0000ca7c       ??_C@_1BG@LJBBIPGB@?$AAs?$AAr?$AA?9?$AAb?$AAa?$AA?9?$AAc?$AAy?$AAr?$AAl?$AA?$AA@ 1004fa7c     LIBCMT:winapinls.obj
 0002:0000ca94       ??_C@_1BG@JLBENFOE@?$AAs?$AAr?$AA?9?$AAb?$AAa?$AA?9?$AAl?$AAa?$AAt?$AAn?$AA?$AA@ 1004fa94     LIBCMT:winapinls.obj
 0002:0000caac       ??_C@_1BG@KODPNHE@?$AAs?$AAr?$AA?9?$AAs?$AAp?$AA?9?$AAc?$AAy?$AAr?$AAl?$AA?$AA@ 1004faac     LIBCMT:winapinls.obj
 0002:0000cac4       ??_C@_1BG@CIOGKHPB@?$AAs?$AAr?$AA?9?$AAs?$AAp?$AA?9?$AAl?$AAa?$AAt?$AAn?$AA?$AA@ 1004fac4     LIBCMT:winapinls.obj
 0002:0000cadc       ??_C@_1M@NGFJLMAC@?$AAs?$AAv?$AA?9?$AAf?$AAi?$AA?$AA@ 1004fadc     LIBCMT:winapinls.obj
 0002:0000cae8       ??_C@_1M@MPJEJAJC@?$AAs?$AAv?$AA?9?$AAs?$AAe?$AA?$AA@ 1004fae8     LIBCMT:winapinls.obj
 0002:0000caf4       ??_C@_1M@MPNDHLFK@?$AAs?$AAw?$AA?9?$AAk?$AAe?$AA?$AA@ 1004faf4     LIBCMT:winapinls.obj
 0002:0000cb00       ??_C@_1O@KOHBJJI@?$AAs?$AAy?$AAr?$AA?9?$AAs?$AAy?$AA?$AA@ 1004fb00     LIBCMT:winapinls.obj
 0002:0000cb10       ??_C@_1M@LDCEFHA@?$AAt?$AAa?$AA?9?$AAi?$AAn?$AA?$AA@ 1004fb10     LIBCMT:winapinls.obj
 0002:0000cb1c       ??_C@_1M@CNJOFAK@?$AAt?$AAe?$AA?9?$AAi?$AAn?$AA?$AA@ 1004fb1c     LIBCMT:winapinls.obj
 0002:0000cb28       ??_C@_1M@GNAECACD@?$AAt?$AAh?$AA?9?$AAt?$AAh?$AA?$AA@ 1004fb28     LIBCMT:winapinls.obj
 0002:0000cb34       ??_C@_1M@CHBIHOJO@?$AAt?$AAn?$AA?9?$AAz?$AAa?$AA?$AA@ 1004fb34     LIBCMT:winapinls.obj
 0002:0000cb40       ??_C@_1M@GCCMIGPJ@?$AAt?$AAr?$AA?9?$AAt?$AAr?$AA?$AA@ 1004fb40     LIBCMT:winapinls.obj
 0002:0000cb4c       ??_C@_1M@CELMCNBK@?$AAt?$AAt?$AA?9?$AAr?$AAu?$AA?$AA@ 1004fb4c     LIBCMT:winapinls.obj
 0002:0000cb58       ??_C@_1M@KLMCELGA@?$AAu?$AAk?$AA?9?$AAu?$AAa?$AA?$AA@ 1004fb58     LIBCMT:winapinls.obj
 0002:0000cb64       ??_C@_1M@EPAJJAJF@?$AAu?$AAr?$AA?9?$AAp?$AAk?$AA?$AA@ 1004fb64     LIBCMT:winapinls.obj
 0002:0000cb70       ??_C@_1BG@GEGPMCDJ@?$AAu?$AAz?$AA?9?$AAu?$AAz?$AA?9?$AAc?$AAy?$AAr?$AAl?$AA?$AA@ 1004fb70     LIBCMT:winapinls.obj
 0002:0000cb88       ??_C@_1BG@EGGKJILM@?$AAu?$AAz?$AA?9?$AAu?$AAz?$AA?9?$AAl?$AAa?$AAt?$AAn?$AA?$AA@ 1004fb88     LIBCMT:winapinls.obj
 0002:0000cba0       ??_C@_1M@GFOCLFF@?$AAv?$AAi?$AA?9?$AAv?$AAn?$AA?$AA@ 1004fba0     LIBCMT:winapinls.obj
 0002:0000cbac       ??_C@_1M@CPAMEDFI@?$AAx?$AAh?$AA?9?$AAz?$AAa?$AA?$AA@ 1004fbac     LIBCMT:winapinls.obj
 0002:0000cbb8       ??_C@_1O@EBKIFIGN@?$AAz?$AAh?$AA?9?$AAc?$AAh?$AAs?$AA?$AA@ 1004fbb8     LIBCMT:winapinls.obj
 0002:0000cbc8       ??_C@_1O@NMHPGANE@?$AAz?$AAh?$AA?9?$AAc?$AAh?$AAt?$AA?$AA@ 1004fbc8     LIBCMT:winapinls.obj
 0002:0000cbd8       ??_C@_1M@LPINJOMC@?$AAz?$AAh?$AA?9?$AAc?$AAn?$AA?$AA@ 1004fbd8     LIBCMT:winapinls.obj
 0002:0000cbe4       ??_C@_1M@OCJEJODD@?$AAz?$AAh?$AA?9?$AAh?$AAk?$AA?$AA@ 1004fbe4     LIBCMT:winapinls.obj
 0002:0000cbf0       ??_C@_1M@DNDLJINH@?$AAz?$AAh?$AA?9?$AAm?$AAo?$AA?$AA@ 1004fbf0     LIBCMT:winapinls.obj
 0002:0000cbfc       ??_C@_1M@MBFDNDND@?$AAz?$AAh?$AA?9?$AAs?$AAg?$AA?$AA@ 1004fbfc     LIBCMT:winapinls.obj
 0002:0000cc08       ??_C@_1M@IMEPLEPE@?$AAz?$AAh?$AA?9?$AAt?$AAw?$AA?$AA@ 1004fc08     LIBCMT:winapinls.obj
 0002:0000cc14       ??_C@_1M@BBGHNHJP@?$AAz?$AAu?$AA?9?$AAz?$AAa?$AA?$AA@ 1004fc14     LIBCMT:winapinls.obj
 0002:0000cc20       ___newctype                1004fc20     LIBCMT:ctype.obj
 0002:0000cf20       __wctype                   1004ff20     LIBCMT:ctype.obj
 0002:0000d128       ___newclmap                10050128     LIBCMT:ctype.obj
 0002:0000d2a8       ___newcumap                100502a8     LIBCMT:ctype.obj
 0002:0000d428       ___lc_category             10050428     LIBCMT:wsetloca.obj
 0002:0000d470       ??_C@_1O@GIFLHMA@?$AAL?$AAC?$AA_?$AAA?$AAL?$AAL?$AA?$AA@ 10050470     LIBCMT:wsetloca.obj
 0002:0000d480       ??_C@_1BG@PPOMIBNJ@?$AAL?$AAC?$AA_?$AAC?$AAO?$AAL?$AAL?$AAA?$AAT?$AAE?$AA?$AA@ 10050480     LIBCMT:wsetloca.obj
 0002:0000d498       ??_C@_1BC@FFJGAPJM@?$AAL?$AAC?$AA_?$AAC?$AAT?$AAY?$AAP?$AAE?$AA?$AA@ 10050498     LIBCMT:wsetloca.obj
 0002:0000d4ac       ??_C@_1BI@PCKFNJFB@?$AAL?$AAC?$AA_?$AAM?$AAO?$AAN?$AAE?$AAT?$AAA?$AAR?$AAY?$AA?$AA@ 100504ac     LIBCMT:wsetloca.obj
 0002:0000d4c4       ??_C@_1BG@ENIEDKID@?$AAL?$AAC?$AA_?$AAN?$AAU?$AAM?$AAE?$AAR?$AAI?$AAC?$AA?$AA@ 100504c4     LIBCMT:wsetloca.obj
 0002:0000d4dc       ??_C@_1BA@HAAOMIIG@?$AAL?$AAC?$AA_?$AAT?$AAI?$AAM?$AAE?$AA?$AA@ 100504dc     LIBCMT:wsetloca.obj
 0002:0000d570       ??_C@_15NBPDDFIP@?$AA?$DN?$AA?$DL?$AA?$AA@ 10050570     LIBCMT:wsetloca.obj
 0002:0000d578       ??_C@_13PJJBFPED@?$AA?$DL?$AA?$AA@ 10050578     LIBCMT:wsetloca.obj
 0002:0000d57c       ??_C@_13NMPKAAJP@?$AA?$DN?$AA?$AA@ 1005057c     LIBCMT:wsetloca.obj
 0002:0000d580       ??_C@_13FHBKNHDA@?$AAC?$AA?$AA@ 10050580     LIBCMT:wsetloca.obj
 0002:0000d584       ??_C@_17MBJJLFDM@?$AA_?$AA?4?$AA?0?$AA?$AA@ 10050584     LIBCMT:wsetloca.obj
 0002:0000d58c       ??_C@_13ENNFDPBH@?$AA_?$AA?$AA@ 1005058c     LIBCMT:wsetloca.obj
 0002:0000d590       ??_C@_13JOFGPIOO@?$AA?4?$AA?$AA@ 10050590     LIBCMT:wsetloca.obj
 0002:0000d594       ??_C@_06PGGFOGJG@1?$CDSNAN?$AA@ 10050594     LIBCMT:x10fout.obj
 0002:0000d59c       ??_C@_05PHHOCPM@1?$CDIND?$AA@ 1005059c     LIBCMT:x10fout.obj
 0002:0000d5a4       ??_C@_05DNEBIAHO@1?$CDINF?$AA@ 100505a4     LIBCMT:x10fout.obj
 0002:0000d5ac       ??_C@_06IMKFLFPG@1?$CDQNAN?$AA@ 100505ac     LIBCMT:x10fout.obj
 0002:0000d5b4       ??_C@_0M@HHGEPIBF@CreateFile2?$AA@ 100505b4     LIBCMT:wopen.obj
 0002:0000d5c0       ??_C@_1BA@BALFACEM@?$AAC?$AAO?$AAN?$AAO?$AAU?$AAT?$AA$?$AA?$AA@ 100505c0     LIBCMT:initcon.obj
 0002:0000d5d0       ___rg_language             100505d0     LIBCMT:getqloc.obj
 0002:0000d8dc       ??_C@_1BC@LLOKLNP@?$AAa?$AAm?$AAe?$AAr?$AAi?$AAc?$AAa?$AAn?$AA?$AA@ 100508dc     LIBCMT:getqloc.obj
 0002:0000d8f0       ??_C@_1CC@HEIGCDGG@?$AAa?$AAm?$AAe?$AAr?$AAi?$AAc?$AAa?$AAn?$AA?5?$AAe?$AAn?$AAg?$AAl?$AAi?$AAs?$AAh?$AA?$AA@ 100508f0     LIBCMT:getqloc.obj
 0002:0000d914       ??_C@_1CC@IHCNOMIN@?$AAa?$AAm?$AAe?$AAr?$AAi?$AAc?$AAa?$AAn?$AA?9?$AAe?$AAn?$AAg?$AAl?$AAi?$AAs?$AAh?$AA?$AA@ 10050914     LIBCMT:getqloc.obj
 0002:0000d938       ??_C@_1BG@GKAGPCGG@?$AAa?$AAu?$AAs?$AAt?$AAr?$AAa?$AAl?$AAi?$AAa?$AAn?$AA?$AA@ 10050938     LIBCMT:getqloc.obj
 0002:0000d950       ??_C@_1BA@GMENCENF@?$AAb?$AAe?$AAl?$AAg?$AAi?$AAa?$AAn?$AA?$AA@ 10050950     LIBCMT:getqloc.obj
 0002:0000d960       ??_C@_1BC@PJMIIAAN@?$AAc?$AAa?$AAn?$AAa?$AAd?$AAi?$AAa?$AAn?$AA?$AA@ 10050960     LIBCMT:getqloc.obj
 0002:0000d974       ??_C@_17NOIMNFBF@?$AAc?$AAh?$AAh?$AA?$AA@ 10050974     LIBCMT:getqloc.obj
 0002:0000d97c       ??_C@_17GGDALCHA@?$AAc?$AAh?$AAi?$AA?$AA@ 1005097c     LIBCMT:getqloc.obj
 0002:0000d984       ??_C@_1BA@NPNJKIBL@?$AAc?$AAh?$AAi?$AAn?$AAe?$AAs?$AAe?$AA?$AA@ 10050984     LIBCMT:getqloc.obj
 0002:0000d994       ??_C@_1CC@DINBAMMJ@?$AAc?$AAh?$AAi?$AAn?$AAe?$AAs?$AAe?$AA?9?$AAh?$AAo?$AAn?$AAg?$AAk?$AAo?$AAn?$AAg?$AA?$AA@ 10050994     LIBCMT:getqloc.obj
 0002:0000d9b8       ??_C@_1CG@IOBJPACO@?$AAc?$AAh?$AAi?$AAn?$AAe?$AAs?$AAe?$AA?9?$AAs?$AAi?$AAm?$AAp?$AAl?$AAi?$AAf?$AAi?$AAe?$AAd?$AA?$AA@ 100509b8     LIBCMT:getqloc.obj
 0002:0000d9e0       ??_C@_1CE@GAJNDCKG@?$AAc?$AAh?$AAi?$AAn?$AAe?$AAs?$AAe?$AA?9?$AAs?$AAi?$AAn?$AAg?$AAa?$AAp?$AAo?$AAr?$AAe?$AA?$AA@ 100509e0     LIBCMT:getqloc.obj
 0002:0000da04       ??_C@_1CI@PAJPIOOD@?$AAc?$AAh?$AAi?$AAn?$AAe?$AAs?$AAe?$AA?9?$AAt?$AAr?$AAa?$AAd?$AAi?$AAt?$AAi?$AAo?$AAn?$AAa?$AAl?$AA?$AA@ 10050a04     LIBCMT:getqloc.obj
 0002:0000da2c       ??_C@_1BM@NILJBMMD@?$AAd?$AAu?$AAt?$AAc?$AAh?$AA?9?$AAb?$AAe?$AAl?$AAg?$AAi?$AAa?$AAn?$AA?$AA@ 10050a2c     LIBCMT:getqloc.obj
 0002:0000da48       ??_C@_1CC@OOJPJNEJ@?$AAe?$AAn?$AAg?$AAl?$AAi?$AAs?$AAh?$AA?9?$AAa?$AAm?$AAe?$AAr?$AAi?$AAc?$AAa?$AAn?$AA?$AA@ 10050a48     LIBCMT:getqloc.obj
 0002:0000da6c       ??_C@_1BI@IOLFEEM@?$AAe?$AAn?$AAg?$AAl?$AAi?$AAs?$AAh?$AA?9?$AAa?$AAu?$AAs?$AA?$AA@ 10050a6c     LIBCMT:getqloc.obj
 0002:0000da84       ??_C@_1BO@HFFNLENJ@?$AAe?$AAn?$AAg?$AAl?$AAi?$AAs?$AAh?$AA?9?$AAb?$AAe?$AAl?$AAi?$AAz?$AAe?$AA?$AA@ 10050a84     LIBCMT:getqloc.obj
 0002:0000daa4       ??_C@_1BI@HAPKJMPO@?$AAe?$AAn?$AAg?$AAl?$AAi?$AAs?$AAh?$AA?9?$AAc?$AAa?$AAn?$AA?$AA@ 10050aa4     LIBCMT:getqloc.obj
 0002:0000dabc       ??_C@_1CE@HLNDMIOJ@?$AAe?$AAn?$AAg?$AAl?$AAi?$AAs?$AAh?$AA?9?$AAc?$AAa?$AAr?$AAi?$AAb?$AAb?$AAe?$AAa?$AAn?$AA?$AA@ 10050abc     LIBCMT:getqloc.obj
 0002:0000dae0       ??_C@_1BI@LDHJHHAC@?$AAe?$AAn?$AAg?$AAl?$AAi?$AAs?$AAh?$AA?9?$AAi?$AAr?$AAe?$AA?$AA@ 10050ae0     LIBCMT:getqloc.obj
 0002:0000daf8       ??_C@_1CA@NJMMCFOC@?$AAe?$AAn?$AAg?$AAl?$AAi?$AAs?$AAh?$AA?9?$AAj?$AAa?$AAm?$AAa?$AAi?$AAc?$AAa?$AA?$AA@ 10050af8     LIBCMT:getqloc.obj
 0002:0000db18       ??_C@_1BG@BHJEBBGG@?$AAe?$AAn?$AAg?$AAl?$AAi?$AAs?$AAh?$AA?9?$AAn?$AAz?$AA?$AA@ 10050b18     LIBCMT:getqloc.obj
 0002:0000db30       ??_C@_1CK@FGOEJJCO@?$AAe?$AAn?$AAg?$AAl?$AAi?$AAs?$AAh?$AA?9?$AAs?$AAo?$AAu?$AAt?$AAh?$AA?5?$AAa?$AAf?$AAr?$AAi?$AAc?$AAa?$AA?$AA@ 10050b30     LIBCMT:getqloc.obj
 0002:0000db5c       ??_C@_1DE@PDBJPCJ@?$AAe?$AAn?$AAg?$AAl?$AAi?$AAs?$AAh?$AA?9?$AAt?$AAr?$AAi?$AAn?$AAi?$AAd?$AAa?$AAd?$AA?5?$AAy?$AA?5?$AAt?$AAo?$AAb?$AAa?$AAg?$AAo?$AA?$AA@ 10050b5c     LIBCMT:getqloc.obj
 0002:0000db90       ??_C@_1BG@JGCANDME@?$AAe?$AAn?$AAg?$AAl?$AAi?$AAs?$AAh?$AA?9?$AAu?$AAk?$AA?$AA@ 10050b90     LIBCMT:getqloc.obj
 0002:0000dba8       ??_C@_1BG@DINKMLE@?$AAe?$AAn?$AAg?$AAl?$AAi?$AAs?$AAh?$AA?9?$AAu?$AAs?$AA?$AA@ 10050ba8     LIBCMT:getqloc.obj
 0002:0000dbc0       ??_C@_1BI@NMFDBHJE@?$AAe?$AAn?$AAg?$AAl?$AAi?$AAs?$AAh?$AA?9?$AAu?$AAs?$AAa?$AA?$AA@ 10050bc0     LIBCMT:getqloc.obj
 0002:0000dbd8       ??_C@_1BO@OIHKJKII@?$AAf?$AAr?$AAe?$AAn?$AAc?$AAh?$AA?9?$AAb?$AAe?$AAl?$AAg?$AAi?$AAa?$AAn?$AA?$AA@ 10050bd8     LIBCMT:getqloc.obj
 0002:0000dbf8       ??_C@_1CA@NKAELJKI@?$AAf?$AAr?$AAe?$AAn?$AAc?$AAh?$AA?9?$AAc?$AAa?$AAn?$AAa?$AAd?$AAi?$AAa?$AAn?$AA?$AA@ 10050bf8     LIBCMT:getqloc.obj
 0002:0000dc18       ??_C@_1CE@MGKCNLGN@?$AAf?$AAr?$AAe?$AAn?$AAc?$AAh?$AA?9?$AAl?$AAu?$AAx?$AAe?$AAm?$AAb?$AAo?$AAu?$AAr?$AAg?$AA?$AA@ 10050c18     LIBCMT:getqloc.obj
 0002:0000dc3c       ??_C@_1BK@CEGEAILM@?$AAf?$AAr?$AAe?$AAn?$AAc?$AAh?$AA?9?$AAs?$AAw?$AAi?$AAs?$AAs?$AA?$AA@ 10050c3c     LIBCMT:getqloc.obj
 0002:0000dc58       ??_C@_1CA@PAFKEOCC@?$AAg?$AAe?$AAr?$AAm?$AAa?$AAn?$AA?9?$AAa?$AAu?$AAs?$AAt?$AAr?$AAi?$AAa?$AAn?$AA?$AA@ 10050c58     LIBCMT:getqloc.obj
 0002:0000dc78       ??_C@_1CI@HCFHGOFD@?$AAg?$AAe?$AAr?$AAm?$AAa?$AAn?$AA?9?$AAl?$AAi?$AAc?$AAh?$AAt?$AAe?$AAn?$AAs?$AAt?$AAe?$AAi?$AAn?$AA?$AA@ 10050c78     LIBCMT:getqloc.obj
 0002:0000dca0       ??_C@_1CE@FEDDNPDG@?$AAg?$AAe?$AAr?$AAm?$AAa?$AAn?$AA?9?$AAl?$AAu?$AAx?$AAe?$AAm?$AAb?$AAo?$AAu?$AAr?$AAg?$AA?$AA@ 10050ca0     LIBCMT:getqloc.obj
 0002:0000dcc4       ??_C@_1BK@LIMINNMN@?$AAg?$AAe?$AAr?$AAm?$AAa?$AAn?$AA?9?$AAs?$AAw?$AAi?$AAs?$AAs?$AA?$AA@ 10050cc4     LIBCMT:getqloc.obj
 0002:0000dce0       ??_C@_1BM@LGMDBEPD@?$AAi?$AAr?$AAi?$AAs?$AAh?$AA?9?$AAe?$AAn?$AAg?$AAl?$AAi?$AAs?$AAh?$AA?$AA@ 10050ce0     LIBCMT:getqloc.obj
 0002:0000dcfc       ??_C@_1BM@NNCFBAEE@?$AAi?$AAt?$AAa?$AAl?$AAi?$AAa?$AAn?$AA?9?$AAs?$AAw?$AAi?$AAs?$AAs?$AA?$AA@ 10050cfc     LIBCMT:getqloc.obj
 0002:0000dd18       ??_C@_1BE@FEDJNPIB@?$AAn?$AAo?$AAr?$AAw?$AAe?$AAg?$AAi?$AAa?$AAn?$AA?$AA@ 10050d18     LIBCMT:getqloc.obj
 0002:0000dd2c       ??_C@_1CC@CILKDEIE@?$AAn?$AAo?$AAr?$AAw?$AAe?$AAg?$AAi?$AAa?$AAn?$AA?9?$AAb?$AAo?$AAk?$AAm?$AAa?$AAl?$AA?$AA@ 10050d2c     LIBCMT:getqloc.obj
 0002:0000dd50       ??_C@_1CE@DHMMHEPL@?$AAn?$AAo?$AAr?$AAw?$AAe?$AAg?$AAi?$AAa?$AAn?$AA?9?$AAn?$AAy?$AAn?$AAo?$AAr?$AAs?$AAk?$AA?$AA@ 10050d50     LIBCMT:getqloc.obj
 0002:0000dd74       ??_C@_1CK@OPNMHECD@?$AAp?$AAo?$AAr?$AAt?$AAu?$AAg?$AAu?$AAe?$AAs?$AAe?$AA?9?$AAb?$AAr?$AAa?$AAz?$AAi?$AAl?$AAi?$AAa?$AAn?$AA?$AA@ 10050d74     LIBCMT:getqloc.obj
 0002:0000dda0       ??_C@_1CE@KEEHCDB@?$AAs?$AAp?$AAa?$AAn?$AAi?$AAs?$AAh?$AA?9?$AAa?$AAr?$AAg?$AAe?$AAn?$AAt?$AAi?$AAn?$AAa?$AA?$AA@ 10050da0     LIBCMT:getqloc.obj
 0002:0000ddc4       ??_C@_1CA@GIAOLHJD@?$AAs?$AAp?$AAa?$AAn?$AAi?$AAs?$AAh?$AA?9?$AAb?$AAo?$AAl?$AAi?$AAv?$AAi?$AAa?$AA?$AA@ 10050dc4     LIBCMT:getqloc.obj
 0002:0000dde4       ??_C@_1BM@OJNDFNPD@?$AAs?$AAp?$AAa?$AAn?$AAi?$AAs?$AAh?$AA?9?$AAc?$AAh?$AAi?$AAl?$AAe?$AA?$AA@ 10050de4     LIBCMT:getqloc.obj
 0002:0000de00       ??_C@_1CC@OCOLPALL@?$AAs?$AAp?$AAa?$AAn?$AAi?$AAs?$AAh?$AA?9?$AAc?$AAo?$AAl?$AAo?$AAm?$AAb?$AAi?$AAa?$AA?$AA@ 10050e00     LIBCMT:getqloc.obj
 0002:0000de24       ??_C@_1CG@BPOFMKBB@?$AAs?$AAp?$AAa?$AAn?$AAi?$AAs?$AAh?$AA?9?$AAc?$AAo?$AAs?$AAt?$AAa?$AA?5?$AAr?$AAi?$AAc?$AAa?$AA?$AA@ 10050e24     LIBCMT:getqloc.obj
 0002:0000de4c       ??_C@_1DG@IGOBAPBB@?$AAs?$AAp?$AAa?$AAn?$AAi?$AAs?$AAh?$AA?9?$AAd?$AAo?$AAm?$AAi?$AAn?$AAi?$AAc?$AAa?$AAn?$AA?5?$AAr?$AAe?$AAp?$AAu?$AAb?$AAl?$AAi?$AAc?$AA?$AA@ 10050e4c     LIBCMT:getqloc.obj
 0002:0000de84       ??_C@_1CA@JHAPGEGI@?$AAs?$AAp?$AAa?$AAn?$AAi?$AAs?$AAh?$AA?9?$AAe?$AAc?$AAu?$AAa?$AAd?$AAo?$AAr?$AA?$AA@ 10050e84     LIBCMT:getqloc.obj
 0002:0000dea4       ??_C@_1CI@LAPALJPP@?$AAs?$AAp?$AAa?$AAn?$AAi?$AAs?$AAh?$AA?9?$AAe?$AAl?$AA?5?$AAs?$AAa?$AAl?$AAv?$AAa?$AAd?$AAo?$AAr?$AA?$AA@ 10050ea4     LIBCMT:getqloc.obj
 0002:0000decc       ??_C@_1CE@PDGBOFOM@?$AAs?$AAp?$AAa?$AAn?$AAi?$AAs?$AAh?$AA?9?$AAg?$AAu?$AAa?$AAt?$AAe?$AAm?$AAa?$AAl?$AAa?$AA?$AA@ 10050ecc     LIBCMT:getqloc.obj
 0002:0000def0       ??_C@_1CC@NBEBAODI@?$AAs?$AAp?$AAa?$AAn?$AAi?$AAs?$AAh?$AA?9?$AAh?$AAo?$AAn?$AAd?$AAu?$AAr?$AAa?$AAs?$AA?$AA@ 10050ef0     LIBCMT:getqloc.obj
 0002:0000df14       ??_C@_1CA@LLKGHBMF@?$AAs?$AAp?$AAa?$AAn?$AAi?$AAs?$AAh?$AA?9?$AAm?$AAe?$AAx?$AAi?$AAc?$AAa?$AAn?$AA?$AA@ 10050f14     LIBCMT:getqloc.obj
 0002:0000df34       ??_C@_1BO@LKNDOIGD@?$AAs?$AAp?$AAa?$AAn?$AAi?$AAs?$AAh?$AA?9?$AAm?$AAo?$AAd?$AAe?$AAr?$AAn?$AA?$AA@ 10050f34     LIBCMT:getqloc.obj
 0002:0000df54       ??_C@_1CE@NMDMOEEB@?$AAs?$AAp?$AAa?$AAn?$AAi?$AAs?$AAh?$AA?9?$AAn?$AAi?$AAc?$AAa?$AAr?$AAa?$AAg?$AAu?$AAa?$AA?$AA@ 10050f54     LIBCMT:getqloc.obj
 0002:0000df78       ??_C@_1BO@LLCBEJGB@?$AAs?$AAp?$AAa?$AAn?$AAi?$AAs?$AAh?$AA?9?$AAp?$AAa?$AAn?$AAa?$AAm?$AAa?$AA?$AA@ 10050f78     LIBCMT:getqloc.obj
 0002:0000df98       ??_C@_1CC@FKPGGIHO@?$AAs?$AAp?$AAa?$AAn?$AAi?$AAs?$AAh?$AA?9?$AAp?$AAa?$AAr?$AAa?$AAg?$AAu?$AAa?$AAy?$AA?$AA@ 10050f98     LIBCMT:getqloc.obj
 0002:0000dfbc       ??_C@_1BK@CDEIHOOP@?$AAs?$AAp?$AAa?$AAn?$AAi?$AAs?$AAh?$AA?9?$AAp?$AAe?$AAr?$AAu?$AA?$AA@ 10050fbc     LIBCMT:getqloc.obj
 0002:0000dfd8       ??_C@_1CI@GAHAKKGP@?$AAs?$AAp?$AAa?$AAn?$AAi?$AAs?$AAh?$AA?9?$AAp?$AAu?$AAe?$AAr?$AAt?$AAo?$AA?5?$AAr?$AAi?$AAc?$AAo?$AA?$AA@ 10050fd8     LIBCMT:getqloc.obj
 0002:0000e000       ??_C@_1CA@NKJBCAGP@?$AAs?$AAp?$AAa?$AAn?$AAi?$AAs?$AAh?$AA?9?$AAu?$AAr?$AAu?$AAg?$AAu?$AAa?$AAy?$AA?$AA@ 10051000     LIBCMT:getqloc.obj
 0002:0000e020       ??_C@_1CE@ODILCONM@?$AAs?$AAp?$AAa?$AAn?$AAi?$AAs?$AAh?$AA?9?$AAv?$AAe?$AAn?$AAe?$AAz?$AAu?$AAe?$AAl?$AAa?$AA?$AA@ 10051020     LIBCMT:getqloc.obj
 0002:0000e044       ??_C@_1CA@OBNMCGFO@?$AAs?$AAw?$AAe?$AAd?$AAi?$AAs?$AAh?$AA?9?$AAf?$AAi?$AAn?$AAl?$AAa?$AAn?$AAd?$AA?$AA@ 10051044     LIBCMT:getqloc.obj
 0002:0000e064       ??_C@_1M@PIPDDPPI@?$AAs?$AAw?$AAi?$AAs?$AAs?$AA?$AA@ 10051064     LIBCMT:getqloc.obj
 0002:0000e070       ??_C@_15GMFIMNFM@?$AAu?$AAs?$AA?$AA@ 10051070     LIBCMT:getqloc.obj
 0002:0000e078       ??_C@_17HAEBFAGL@?$AAu?$AAs?$AAa?$AA?$AA@ 10051078     LIBCMT:getqloc.obj
 0002:0000e080       ___rg_country              10051080     LIBCMT:getqloc.obj
 0002:0000e194       ??_C@_1BA@DPFJEPHB@?$AAa?$AAm?$AAe?$AAr?$AAi?$AAc?$AAa?$AA?$AA@ 10051194     LIBCMT:getqloc.obj
 0002:0000e1a4       ??_C@_1BA@ELOGGFK@?$AAb?$AAr?$AAi?$AAt?$AAa?$AAi?$AAn?$AA?$AA@ 100511a4     LIBCMT:getqloc.obj
 0002:0000e1b4       ??_C@_1M@GHBGIGDA@?$AAc?$AAh?$AAi?$AAn?$AAa?$AA?$AA@ 100511b4     LIBCMT:getqloc.obj
 0002:0000e1c0       ??_C@_1M@NCHEJOPO@?$AAc?$AAz?$AAe?$AAc?$AAh?$AA?$AA@ 100511c0     LIBCMT:getqloc.obj
 0002:0000e1cc       ??_C@_1BA@BKPAPBLA@?$AAe?$AAn?$AAg?$AAl?$AAa?$AAn?$AAd?$AA?$AA@ 100511cc     LIBCMT:getqloc.obj
 0002:0000e1dc       ??_C@_1BM@HKBCKIPC@?$AAg?$AAr?$AAe?$AAa?$AAt?$AA?5?$AAb?$AAr?$AAi?$AAt?$AAa?$AAi?$AAn?$AA?$AA@ 100511dc     LIBCMT:getqloc.obj
 0002:0000e1f8       ??_C@_1BA@PPCHPGJB@?$AAh?$AAo?$AAl?$AAl?$AAa?$AAn?$AAd?$AA?$AA@ 100511f8     LIBCMT:getqloc.obj
 0002:0000e208       ??_C@_1BE@JBMPEGDG@?$AAh?$AAo?$AAn?$AAg?$AA?9?$AAk?$AAo?$AAn?$AAg?$AA?$AA@ 10051208     LIBCMT:getqloc.obj
 0002:0000e21c       ??_C@_1BI@KOELBBPJ@?$AAn?$AAe?$AAw?$AA?9?$AAz?$AAe?$AAa?$AAl?$AAa?$AAn?$AAd?$AA?$AA@ 1005121c     LIBCMT:getqloc.obj
 0002:0000e234       ??_C@_15HIEBHAIO@?$AAn?$AAz?$AA?$AA@ 10051234     LIBCMT:getqloc.obj
 0002:0000e23c       ??_C@_1BC@CHBCPFPI@?$AAp?$AAr?$AA?5?$AAc?$AAh?$AAi?$AAn?$AAa?$AA?$AA@ 1005123c     LIBCMT:getqloc.obj
 0002:0000e250       ??_C@_1BC@JAOIIFKD@?$AAp?$AAr?$AA?9?$AAc?$AAh?$AAi?$AAn?$AAa?$AA?$AA@ 10051250     LIBCMT:getqloc.obj
 0002:0000e264       ??_C@_1BI@BEHPPHKC@?$AAp?$AAu?$AAe?$AAr?$AAt?$AAo?$AA?9?$AAr?$AAi?$AAc?$AAo?$AA?$AA@ 10051264     LIBCMT:getqloc.obj
 0002:0000e27c       ??_C@_1O@PAEOFKDI@?$AAs?$AAl?$AAo?$AAv?$AAa?$AAk?$AA?$AA@ 1005127c     LIBCMT:getqloc.obj
 0002:0000e28c       ??_C@_1BK@FIHMCKAM@?$AAs?$AAo?$AAu?$AAt?$AAh?$AA?5?$AAa?$AAf?$AAr?$AAi?$AAc?$AAa?$AA?$AA@ 1005128c     LIBCMT:getqloc.obj
 0002:0000e2a8       ??_C@_1BI@NAEOODKB@?$AAs?$AAo?$AAu?$AAt?$AAh?$AA?5?$AAk?$AAo?$AAr?$AAe?$AAa?$AA?$AA@ 100512a8     LIBCMT:getqloc.obj
 0002:0000e2c0       ??_C@_1BK@FBDGGIFF@?$AAs?$AAo?$AAu?$AAt?$AAh?$AA?9?$AAa?$AAf?$AAr?$AAi?$AAc?$AAa?$AA?$AA@ 100512c0     LIBCMT:getqloc.obj
 0002:0000e2dc       ??_C@_1BI@GHLEJDPK@?$AAs?$AAo?$AAu?$AAt?$AAh?$AA?9?$AAk?$AAo?$AAr?$AAe?$AAa?$AA?$AA@ 100512dc     LIBCMT:getqloc.obj
 0002:0000e2f4       ??_C@_1CE@PLHLOMJF@?$AAt?$AAr?$AAi?$AAn?$AAi?$AAd?$AAa?$AAd?$AA?5?$AA?$CG?$AA?5?$AAt?$AAo?$AAb?$AAa?$AAg?$AAo?$AA?$AA@ 100512f4     LIBCMT:getqloc.obj
 0002:0000e318       ??_C@_1BO@MODIMHHI@?$AAu?$AAn?$AAi?$AAt?$AAe?$AAd?$AA?9?$AAk?$AAi?$AAn?$AAg?$AAd?$AAo?$AAm?$AA?$AA@ 10051318     LIBCMT:getqloc.obj
 0002:0000e338       ??_C@_1BM@FFHJONBJ@?$AAu?$AAn?$AAi?$AAt?$AAe?$AAd?$AA?9?$AAs?$AAt?$AAa?$AAt?$AAe?$AAs?$AA?$AA@ 10051338     LIBCMT:getqloc.obj
 0002:0000e354       ___rg_language_count       10051354     LIBCMT:getqloc.obj
 0002:0000e358       ___rg_country_count        10051358     LIBCMT:getqloc.obj
 0002:0000e35c       ??_C@_17DNCLJFIF@?$AAA?$AAC?$AAP?$AA?$AA@ 1005135c     LIBCMT:getqloc.obj
 0002:0000e364       ??_C@_17CIKBIHLH@?$AAO?$AAC?$AAP?$AA?$AA@ 10051364     LIBCMT:getqloc.obj
 0002:0000e36c       ___rglangidNotDefault      1005136c     LIBCMT:getqloc_downlevel.obj
 0002:0000e380       __real@00000000            10051380     LIBCMT:wcstoq.obj
 0002:0000e388       __load_config_used         10051388     LIBCMT:loadcfg.obj
 0002:0000fad0       ___safe_se_handler_table   10052ad0     <linker-defined>
 0002:0000fbe0       ___rtc_iaa                 10052be0     LIBCMT:initsect.obj
 0002:0000fce4       ___rtc_izz                 10052ce4     LIBCMT:initsect.obj
 0002:0000fde8       ___rtc_taa                 10052de8     LIBCMT:initsect.obj
 0002:0000feec       ___rtc_tzz                 10052eec     LIBCMT:initsect.obj
 0003:000005b8       _Pos_PID_P                 100545b8     Pos_PID_data.obj
 0003:000d48b0       _pci20041digout            101288b0     xpctarget.obj
 0003:000d48b4       _nipcdio24cnfg             101288b4     xpctarget.obj
 0003:000d48b8       _rtddm6604cnfg             101288b8     xpctarget.obj
 0003:000d49dc       _DefaultCOMIOBase          101289dc     xpcruntime:xpcimports.obj
 0003:000d49ec       _DefaultCOMIRQ             101289ec     xpcruntime:xpcimports.obj
 0003:000d4a00       __fltused                  10128a00     LIBCMT:fpinit.obj
 0003:000d4a04       __ldused                   10128a04     LIBCMT:fpinit.obj
 0003:000d4a10       __iob                      10128a10     LIBCMT:_file.obj
 0003:000d4c90       ___isa_enabled             10128c90     LIBCMT:cpu_disp.obj
 0003:000d4c94       ___security_cookie         10128c94     LIBCMT:gs_cookie.obj
 0003:000d4c98       ___security_cookie_complement 10128c98     LIBCMT:gs_cookie.obj
 0003:000d4e70       ___nullstring              10128e70     LIBCMT:output.obj
 0003:000d4e74       ___wnullstring             10128e74     LIBCMT:output.obj
 0003:000d4f68       __cfltcvt_tab              10128f68     LIBCMT:cmiscdat.obj
 0003:000d50b8       __mbctype                  101290b8     LIBCMT:mbctype.obj
 0003:000d51c0       __mbcasemap                101291c0     LIBCMT:mbctype.obj
 0003:000d52c0       ___initialmbcinfo          101292c0     LIBCMT:mbctype.obj
 0003:000d54e4       ___ptmbcinfo               101294e4     LIBCMT:mbctype.obj
 0003:000d55e0       ___badioinfo               101295e0     LIBCMT:ioinit.obj
 0003:000d5620       __lookuptrailbytes         10129620     LIBCMT:read.obj
 0003:000d5720       __d_inf                    10129720     LIBCMT:util.obj
 0003:000d5728       __d_ind                    10129728     LIBCMT:util.obj
 0003:000d5730       __d_max                    10129730     LIBCMT:util.obj
 0003:000d5738       __d_min                    10129738     LIBCMT:util.obj
 0003:000d5740       __d_mzero                  10129740     LIBCMT:util.obj
 0003:000d5764       ___abort_behavior          10129764     LIBCMT:abort.obj
 0003:000d5768       ___flsindex                10129768     LIBCMT:tidtable.obj
 0003:000d5770       ___mb_cur_max              10129770     LIBCMT:nlsdata.obj
 0003:000d5774       ___wclocalestr             10129774     LIBCMT:nlsdata.obj
 0003:000d5778       ___lc_time_c               10129778     LIBCMT:nlsdata.obj
 0003:000d58dc       ___ptlocinfo               101298dc     LIBCMT:nlsdata.obj
 0003:000d58e0       ___initiallocinfo          101298e0     LIBCMT:nlsdata.obj
 0003:000d5998       ___initiallocalestructinfo 10129998     LIBCMT:nlsdata.obj
 0003:000d59a0       ___globallocalestatus      101299a0     LIBCMT:glstatus.obj
 0003:000d59a4       __matherr_flag             101299a4     LIBCMT:matherr.obj
 0003:000d59b0       __NLG_Destination          101299b0     LIBCMT:exsup.obj
 0003:000d59c0       ___lconv                   101299c0     LIBCMT:lconv.obj
 0003:000d59c4       ___lconv_static_decimal    101299c4     LIBCMT:lconv.obj
 0003:000d59c8       ___lconv_c                 101299c8     LIBCMT:lconv.obj
 0003:000d5a18       ___lconv_static_W_decimal  10129a18     LIBCMT:lconv.obj
 0003:000d5a1c       __pctype                   10129a1c     LIBCMT:ctype.obj
 0003:000d5a20       __pwctype                  10129a20     LIBCMT:ctype.obj
 0003:000d5a60       __confh                    10129a60     LIBCMT:initcon.obj
 0003:000d5a68       __pow10pos                 10129a68     LIBCMT:constpow.obj
 0003:000d5bc8       __pow10neg                 10129bc8     LIBCMT:constpow.obj
 0003:000d5d30       __HUGE                     10129d30     LIBCMT:huge.obj
 0003:000d627c       ___isa_available_default   1012a27c     rt_logging.obj
 0003:000d628c       _pci20098PortA             1012a28c     xpctarget.obj
 0003:000d6290       _pci20098PortB             1012a290     xpctarget.obj
 0003:000d6294       _siepowercan_firmware_initialized 1012a294     xpctarget.obj
 0003:000d6298       _siepowercan_port1_configured 1012a298     xpctarget.obj
 0003:000d629c       _siepowercan_port2_configured 1012a29c     xpctarget.obj
 0003:000d62a0       _CANAC2_FIRMWARE_LOADED    1012a2a0     xpctarget.obj
 0003:000d62a4       _rs232ports                1012a2a4     xpctarget.obj
 0003:000d62b4       _NI_AT_MIO_16F_5_commreg2  1012a2b4     xpctarget.obj
 0003:000d62b8       _RTD_DM6430_init           1012a2b8     xpctarget.obj
 0003:000d62bc       _RTD_DM6420_init           1012a2bc     xpctarget.obj
 0003:000d62c0       _CANAC2_FIRMWARE_LOADED_mb1 1012a2c0     xpctarget.obj
 0003:000d62c4       _CANAC2_FIRMWARE_LOADED_mb2 1012a2c4     xpctarget.obj
 0003:000d62c8       _CANAC2_FIRMWARE_LOADED_mb3 1012a2c8     xpctarget.obj
 0003:000d62cc       _xmlsize                   1012a2cc     xpctarget.obj
 0003:000d6910       ___fastflag                1012a910     LIBCMT:fpinit.obj
 0003:000d6c38       __C_Exit_Done              1012ac38     LIBCMT:crt0dat.obj
 0003:000d6c3c       ___argc                    1012ac3c     LIBCMT:crt0dat.obj
 0003:000d6c40       ___argv                    1012ac40     LIBCMT:crt0dat.obj
 0003:000d6c44       ___wargv                   1012ac44     LIBCMT:crt0dat.obj
 0003:000d6c48       __environ                  1012ac48     LIBCMT:crt0dat.obj
 0003:000d6c4c       __wenviron                 1012ac4c     LIBCMT:crt0dat.obj
 0003:000d6c50       __pgmptr                   1012ac50     LIBCMT:crt0dat.obj
 0003:000d6c54       __wpgmptr                  1012ac54     LIBCMT:crt0dat.obj
 0003:000d6c58       __umaskval                 1012ac58     LIBCMT:crt0dat.obj
 0003:000d6c5c       __exitflag                 1012ac5c     LIBCMT:crt0dat.obj
 0003:000d6c60       __C_Termination_Done       1012ac60     LIBCMT:crt0dat.obj
 0003:000d6c64       ___winitenv                1012ac64     LIBCMT:crt0dat.obj
 0003:000d6c68       ___initenv                 1012ac68     LIBCMT:crt0dat.obj
 0003:000d6c6c       __cflush                   1012ac6c     LIBCMT:_file.obj
 0003:000d6c70       ___isa_available           1012ac70     LIBCMT:cpu_disp.obj
 0003:000d6c74       ___favor                   1012ac74     LIBCMT:cpu_disp.obj
 0003:000d6c7c       __aenvptr                  1012ac7c     LIBCMT:dllcrt0.obj
 0003:000d6c80       __wenvptr                  1012ac80     LIBCMT:dllcrt0.obj
 0003:000d6c84       ?_pnhHeap@@3P6AHI@ZA       1012ac84     LIBCMT:handler.obj
 0003:000d6c88       ___app_type                1012ac88     LIBCMT:crt0msg.obj
 0003:000d72b8       __newmode                  1012b2b8     LIBCMT:_newmode.obj
 0003:000d72bc       __crtheap                  1012b2bc     LIBCMT:heapinit.obj
 0003:000d72c0       ___pInvalidArgHandler      1012b2c0     LIBCMT:invarg.obj
 0003:000d72c4       __stdbuf                   1012b2c4     LIBCMT:_sftbuf.obj
 0003:000d7420       __maxwait                  1012b420     LIBCMT:crtheap.obj
 0003:000d7424       ?__pInconsistency@@3P6AXXZA 1012b424     LIBCMT:hooks.obj
 0003:000d7428       ___pPurecall               1012b428     LIBCMT:inithelp.obj
 0003:000d7444       ___mbcodepage              1012b444     LIBCMT:mbctype.obj
 0003:000d7448       ___ismbcodepage            1012b448     LIBCMT:mbctype.obj
 0003:000d744c       ___mbulinfo                1012b44c     LIBCMT:mbctype.obj
 0003:000d7458       ___mblocalename            1012b458     LIBCMT:mbctype.obj
 0003:000d7460       ___pioinfo                 1012b460     LIBCMT:ioinit.obj
 0003:000d7560       ___error_mode              1012b560     LIBCMT:errmode.obj
 0003:000d7680       __outputformat             1012b680     LIBCMT:outputformat.obj
 0003:000d7688       __commode                  1012b688     LIBCMT:ncommode.obj
 0003:000d768c       ___lconv_static_null       1012b68c     LIBCMT:lconv.obj
 0003:000d7690       ___lconv_static_W_null     1012b690     LIBCMT:lconv.obj
 0003:000d7694       ___locale_changed          1012b694     LIBCMT:wsetloca.obj
 0003:000d7698       __fmode                    1012b698     LIBCMT:txtmode.obj
 0003:000d76a0       _CANAC2_2_receiveindex_mb3 1012b6a0     <common>
 0003:000da774       _CANAC2_2_receivemaxindex_mb3 1012e774     <common>
 0003:000da780       _CANAC2_2_sendindex_mb3    1012e780     <common>
 0003:000daaa0       _CANAC2_2_sendmaxindex_mb3 1012eaa0     <common>
 0003:000daac0       _CANAC2_1_receiveindex_mb3 1012eac0     <common>
 0003:000dade0       _CANAC2_1_receivemaxindex_mb3 1012ede0     <common>
 0003:000dae00       _CANAC2_1_sendindex_mb3    1012ee00     <common>
 0003:000db120       _CANAC2_1_sendmaxindex_mb3 1012f120     <common>
 0003:000db140       _CANAC2_2_receive_mb3      1012f140     <common>
 0003:000db460       _CANAC2_2_send_mb3         1012f460     <common>
 0003:000db780       _CANAC2_1_receive_mb3      1012f780     <common>
 0003:000dbaa0       _CANAC2_1_send_mb3         1012faa0     <common>
 0003:000dbdc0       _CANAC2_2_receiveindex_mb2 1012fdc0     <common>
 0003:000dc0e0       _CANAC2_2_receivemaxindex_mb2 101300e0     <common>
 0003:000dc100       _CANAC2_2_sendindex_mb2    10130100     <common>
 0003:000dc420       _CANAC2_2_sendmaxindex_mb2 10130420     <common>
 0003:000dc440       _CANAC2_1_receiveindex_mb2 10130440     <common>
 0003:000dc760       _CANAC2_1_receivemaxindex_mb2 10130760     <common>
 0003:000dc780       _CANAC2_1_sendindex_mb2    10130780     <common>
 0003:000dcaa0       _CANAC2_1_sendmaxindex_mb2 10130aa0     <common>
 0003:000dcac0       _CANAC2_2_receive_mb2      10130ac0     <common>
 0003:000dcde0       _CANAC2_2_send_mb2         10130de0     <common>
 0003:000dd100       _CANAC2_1_receive_mb2      10131100     <common>
 0003:000dd420       _CANAC2_1_send_mb2         10131420     <common>
 0003:000dd740       _CANAC2_2_receiveindex_mb1 10131740     <common>
 0003:000dda60       _CANAC2_2_receivemaxindex_mb1 10131a60     <common>
 0003:000dda80       _CANAC2_2_sendindex_mb1    10131a80     <common>
 0003:000ddda0       _CANAC2_2_sendmaxindex_mb1 10131da0     <common>
 0003:000dddc0       _CANAC2_1_receiveindex_mb1 10131dc0     <common>
 0003:000de0e0       _CANAC2_1_receivemaxindex_mb1 101320e0     <common>
 0003:000de100       _CANAC2_1_sendindex_mb1    10132100     <common>
 0003:000de420       _CANAC2_1_sendmaxindex_mb1 10132420     <common>
 0003:000de440       _CANAC2_2_receive_mb1      10132440     <common>
 0003:000de760       _CANAC2_2_send_mb1         10132760     <common>
 0003:000dea80       _CANAC2_1_receive_mb1      10132a80     <common>
 0003:000deda0       _CANAC2_1_send_mb1         10132da0     <common>
 0003:000df0c0       _CANAC2_2_receiveindex     101330c0     <common>
 0003:000df3e0       _CANAC2_2_receivemaxindex  101333e0     <common>
 0003:000df400       _CANAC2_2_sendindex        10133400     <common>
 0003:000df720       _CANAC2_2_sendmaxindex     10133720     <common>
 0003:000df740       _CANAC2_1_receiveindex     10133740     <common>
 0003:000dfa60       _CANAC2_1_receivemaxindex  10133a60     <common>
 0003:000dfa80       _CANAC2_1_sendindex        10133a80     <common>
 0003:000dfda0       _CANAC2_1_sendmaxindex     10133da0     <common>
 0003:000dfdc0       _CANAC2_2_receive          10133dc0     <common>
 0003:000e00e0       _CANAC2_2_send             101340e0     <common>
 0003:000e0400       _CANAC2_1_receive          10134400     <common>
 0003:000e0720       _CANAC2_1_send             10134720     <common>
 0003:000e0a40       _siepowercan_can_object_buffer_port2 10134a40     <common>
 0003:000e4a60       _siepowercan_can_object_buffer_port1 10138a60     <common>
 0003:000e8a60       _rtNaNF                    1013ca60     <common>
 0003:000e8a74       _rtMinusInfF               1013ca74     <common>
 0003:000e8a78       _rtInfF                    1013ca78     <common>
 0003:000e8a80       _rtNaN                     1013ca80     <common>
 0003:000e8a88       _rtMinusInf                1013ca88     <common>
 0003:000e8a90       _rtInf                     1013ca90     <common>
 0003:000e8aa0       _Pos_PID_M_                1013caa0     <common>
 0003:000ec220       _Pos_PID_DW                10140220     <common>
 0003:000ec3a0       _Pos_PID_X                 101403a0     <common>
 0003:000ec3e0       _Pos_PID_B                 101403e0     <common>
 0003:000ec660       _xpceaddEvent              10140660     <common>
 0003:000ec6b0       _xpceDeRegisterISR         101406b0     <common>
 0003:000ec6b4       _xpceRegisterISR           101406b4     <common>
 0003:000ec6b8       _xpcIsModelInit            101406b8     <common>
 0003:000ec6bc       _xpcGetElapsedTime         101406bc     <common>
 0003:000ec6c0       _xpcBusyWait               101406c0     <common>
 0003:000ec6c4       _xpcFreePhysicalMemory     101406c4     <common>
 0003:000ec6c8       _xpcAllocPhysicalMemory    101406c8     <common>
 0003:000ec6cc       _xpcReserveMemoryRegion    101406cc     <common>
 0003:000ec6d0       _xpcOutpB                  101406d0     <common>
 0003:000ec6d4       _xpcOutpW                  101406d4     <common>
 0003:000ec6d8       _xpcOutpDW                 101406d8     <common>
 0003:000ec6dc       _xpcInpB                   101406dc     <common>
 0003:000ec6e0       _xpcInpW                   101406e0     <common>
 0003:000ec6e4       _xpcInpDW                  101406e4     <common>
 0003:000ec6e8       _slTestRegAssessment       101406e8     <common>
 0003:000ec6ec       _slTestTerminate           101406ec     <common>
 0003:000ec6f0       _slTestEvalOnFail          101406f0     <common>
 0003:000ec6f4       _slTestLogAssessments      101406f4     <common>
 0003:000ec6f8       _slTestInitialize          101406f8     <common>
 0003:000ec6fc       _unRegisterPTPTimeRead     101406fc     <common>
 0003:000ec700       _registerPTPTimeRead       10140700     <common>
 0003:000ec704       _slrteGetCurrentStepSize   10140704     <common>
 0003:000ec708       _slrteSetStepSizeDelta     10140708     <common>
 0003:000ec70c       _xpceGetIntTimerGranularityNS 1014070c     <common>
 0003:000ec710       _sendToAsyncQueueTgtAppSvc 10140710     <common>
 0003:000ec714       _terminateToAsyncQueueTgtAppSvc 10140714     <common>
 0003:000ec718       _startToAsyncQueueTgtAppSvc 10140718     <common>
 0003:000ec71c       _getStatusFlags            1014071c     <common>
 0003:000ec720       _getCommService            10140720     <common>
 0003:000ec724       _getMemoryService          10140724     <common>
 0003:000ec728       _StreamVideo               10140728     <common>
 0003:000ec72c       _StopVideoDisplay          1014072c     <common>
 0003:000ec730       _StartVideoDisplay         10140730     <common>
 0003:000ec734       _DestroyVideoDisplay       10140734     <common>
 0003:000ec738       _CreateVideoDisplay        10140738     <common>
 0003:000ec73c       _ConvertUImage             1014073c     <common>
 0003:000ec740       _StopVideo                 10140740     <common>
 0003:000ec744       _ReadFrameBuffer           10140744     <common>
 0003:000ec748       _StartVideo                10140748     <common>
 0003:000ec74c       _GetVideoConfigs           1014074c     <common>
 0003:000ec750       _FindUsbVideoDevice        10140750     <common>
 0003:000ec754       _xpceDeleteSemaphore       10140754     <common>
 0003:000ec758       _xpceSignalSemaphore       10140758     <common>
 0003:000ec75c       _xpceWaitSemaphore         1014075c     <common>
 0003:000ec760       _xpceCreateSemaphore       10140760     <common>
 0003:000ec764       _TBGiveSpinFast            10140764     <common>
 0003:000ec768       _TBTakeSpinFast            10140768     <common>
 0003:000ec76c       _TBDeleteSpin              1014076c     <common>
 0003:000ec770       _TBCreateSpin              10140770     <common>
 0003:000ec774       _xpceScopeAcqOK            10140774     <common>
 0003:000ec778       _rl32eRestartAcquisition   10140778     <common>
 0003:000ec77c       _rl32eSetTargetScopeSigFt  1014077c     <common>
 0003:000ec780       _rl32eSetTargetScope       10140780     <common>
 0003:000ec784       _xpceFSScopeSet            10140784     <common>
 0003:000ec788       _rl32eSetScope             10140788     <common>
 0003:000ec78c       _rl32eAddSignal            1014078c     <common>
 0003:000ec790       _rl32eGetSignalNo          10140790     <common>
 0003:000ec794       _rl32eDefScope             10140794     <common>
 0003:000ec798       _rl32eScopeExists          10140798     <common>
 0003:000ec79c       _xpceUDPClose              1014079c     <common>
 0003:000ec7a0       _xpceUDPReceive            101407a0     <common>
 0003:000ec7a4       _xpceUDPSend               101407a4     <common>
 0003:000ec7a8       _xpceUDPOpenReceive        101407a8     <common>
 0003:000ec7ac       _xpceUDPOpenSend           101407ac     <common>
 0003:000ec7b0       _rl32eSendBlock            101407b0     <common>
 0003:000ec7b4       _rl32eLineStatus           101407b4     <common>
 0003:000ec7b8       _rl32eReceiveBufferCount   101407b8     <common>
 0003:000ec7bc       _rl32eReceiveChar          101407bc     <common>
 0003:000ec7c0       _rl32eSendChar             101407c0     <common>
 0003:000ec7c4       _rl32eCloseCOMPort         101407c4     <common>
 0003:000ec7c8       _rl32eInitCOMPort          101407c8     <common>
 0003:000ec7cc       _xpceGetParamDims          101407cc     <common>
 0003:000ec7d0       _xpceGetParameter          101407d0     <common>
 0003:000ec7d4       _xpceSetParameter          101407d4     <common>
 0003:000ec7d8       _xpceGetSignalValue        101407d8     <common>
 0003:000ec7dc       _xpceAssignPCIInterrupt    101407dc     <common>
 0003:000ec7e0       _rl32eGetPCIInfoAtSlot     101407e0     <common>
 0003:000ec7e4       _rl32eGetPCIInfo           101407e4     <common>
 0003:000ec7e8       _rl32eShowPCIInfo          101407e8     <common>
 0003:000ec7ec       _rl32eShowPCIDev           101407ec     <common>
 0003:000ec7f0       _xpceGetTET                101407f0     <common>
 0003:000ec7f4       _xpceFTSubtract            101407f4     <common>
 0003:000ec7f8       _xpceFTAdd                 101407f8     <common>
 0003:000ec7fc       _xpceFTReadTime            101407fc     <common>
 0003:000ec800       ___unguarded_readlc_active 10140800     <common>
 0003:000ec810       ___setlc_active            10140810     <common>
 0003:000ec814       __nhandle                  10140814     <common>
 0003:000ec820       _encodedKERNEL32Functions  10140820     <common>
 0003:000ec8c8       __debugger_hook_dummy      101408c8     <common>
 0003:000ec8d4       __pDestructExceptionObject 101408d4     <common>
 0003:000ec8e0       __acmdln                   101408e0     <common>
 0003:000ec900       __bufin                    10140900     <common>
 0003:000edc3c       ___piob                    10141c3c     <common>
 0003:000edc40       __nstream                  10141c40     <common>
 0003:000edc44       ___dyn_tls_init_callback   10141c44     <common>
 0003:000edc54       ___onexitend               10141c54     <common>
 0003:000edc58       ___onexitbegin             10141c58     <common>
 0003:000edc5c       ___mbctype_initialized     10141c5c     <common>
 0003:000edc60       ___env_initialized         10141c60     <common>
 0004:00000000       __imp__GetModuleHandleA@4  10142000     kernel32:KERNEL32.dll
 0004:00000004       __imp__GetProcAddress@8    10142004     kernel32:KERNEL32.dll
 0004:00000008       __imp__HeapAlloc@12        10142008     kernel32:KERNEL32.dll
 0004:0000000c       __imp__IsDebuggerPresent@0 1014200c     kernel32:KERNEL32.dll
 0004:00000010       __imp__IsProcessorFeaturePresent@4 10142010     kernel32:KERNEL32.dll
 0004:00000014       __imp__EncodePointer@4     10142014     kernel32:KERNEL32.dll
 0004:00000018       __imp__DecodePointer@4     10142018     kernel32:KERNEL32.dll
 0004:0000001c       __imp__GetLastError@0      1014201c     kernel32:KERNEL32.dll
 0004:00000020       __imp__ExitProcess@4       10142020     kernel32:KERNEL32.dll
 0004:00000024       __imp__GetModuleHandleExW@12 10142024     kernel32:KERNEL32.dll
 0004:00000028       __imp__AreFileApisANSI@0   10142028     kernel32:KERNEL32.dll
 0004:0000002c       __imp__MultiByteToWideChar@24 1014202c     kernel32:KERNEL32.dll
 0004:00000030       __imp__WideCharToMultiByte@32 10142030     kernel32:KERNEL32.dll
 0004:00000034       __imp__HeapFree@12         10142034     kernel32:KERNEL32.dll
 0004:00000038       __imp__HeapReAlloc@16      10142038     kernel32:KERNEL32.dll
 0004:0000003c       __imp__EnterCriticalSection@4 1014203c     kernel32:KERNEL32.dll
 0004:00000040       __imp__LeaveCriticalSection@4 10142040     kernel32:KERNEL32.dll
 0004:00000044       __imp__GetStdHandle@4      10142044     kernel32:KERNEL32.dll
 0004:00000048       __imp__GetFileType@4       10142048     kernel32:KERNEL32.dll
 0004:0000004c       __imp__GetModuleFileNameW@12 1014204c     kernel32:KERNEL32.dll
 0004:00000050       __imp__WriteConsoleW@20    10142050     kernel32:KERNEL32.dll
 0004:00000054       __imp__GetCommandLineA@0   10142054     kernel32:KERNEL32.dll
 0004:00000058       __imp__GetCurrentThreadId@0 10142058     kernel32:KERNEL32.dll
 0004:0000005c       __imp__WriteFile@20        1014205c     kernel32:KERNEL32.dll
 0004:00000060       __imp__GetProcessHeap@0    10142060     kernel32:KERNEL32.dll
 0004:00000064       __imp__RaiseException@16   10142064     kernel32:KERNEL32.dll
 0004:00000068       __imp__UnhandledExceptionFilter@4 10142068     kernel32:KERNEL32.dll
 0004:0000006c       __imp__SetUnhandledExceptionFilter@4 1014206c     kernel32:KERNEL32.dll
 0004:00000070       __imp__SetLastError@4      10142070     kernel32:KERNEL32.dll
 0004:00000074       __imp__InitializeCriticalSectionAndSpinCount@8 10142074     kernel32:KERNEL32.dll
 0004:00000078       __imp__CreateEventW@16     10142078     kernel32:KERNEL32.dll
 0004:0000007c       __imp__Sleep@4             1014207c     kernel32:KERNEL32.dll
 0004:00000080       __imp__GetCurrentProcess@0 10142080     kernel32:KERNEL32.dll
 0004:00000084       __imp__TerminateProcess@8  10142084     kernel32:KERNEL32.dll
 0004:00000088       __imp__TlsAlloc@0          10142088     kernel32:KERNEL32.dll
 0004:0000008c       __imp__TlsGetValue@4       1014208c     kernel32:KERNEL32.dll
 0004:00000090       __imp__TlsSetValue@8       10142090     kernel32:KERNEL32.dll
 0004:00000094       __imp__TlsFree@4           10142094     kernel32:KERNEL32.dll
 0004:00000098       __imp__GetStartupInfoW@4   10142098     kernel32:KERNEL32.dll
 0004:0000009c       __imp__GetTickCount@0      1014209c     kernel32:KERNEL32.dll
 0004:000000a0       __imp__GetModuleHandleW@4  101420a0     kernel32:KERNEL32.dll
 0004:000000a4       __imp__CreateSemaphoreW@16 101420a4     kernel32:KERNEL32.dll
 0004:000000a8       __imp__DeleteCriticalSection@4 101420a8     kernel32:KERNEL32.dll
 0004:000000ac       __imp__FatalAppExitA@8     101420ac     kernel32:KERNEL32.dll
 0004:000000b0       __imp__SetConsoleCtrlHandler@8 101420b0     kernel32:KERNEL32.dll
 0004:000000b4       __imp__FreeLibrary@4       101420b4     kernel32:KERNEL32.dll
 0004:000000b8       __imp__LoadLibraryExW@12   101420b8     kernel32:KERNEL32.dll
 0004:000000bc       __imp__IsValidCodePage@4   101420bc     kernel32:KERNEL32.dll
 0004:000000c0       __imp__GetACP@0            101420c0     kernel32:KERNEL32.dll
 0004:000000c4       __imp__GetOEMCP@0          101420c4     kernel32:KERNEL32.dll
 0004:000000c8       __imp__GetCPInfo@8         101420c8     kernel32:KERNEL32.dll
 0004:000000cc       __imp__CloseHandle@4       101420cc     kernel32:KERNEL32.dll
 0004:000000d0       __imp__RtlUnwind@16        101420d0     kernel32:KERNEL32.dll
 0004:000000d4       __imp__ReadFile@20         101420d4     kernel32:KERNEL32.dll
 0004:000000d8       __imp__GetConsoleMode@8    101420d8     kernel32:KERNEL32.dll
 0004:000000dc       __imp__ReadConsoleW@20     101420dc     kernel32:KERNEL32.dll
 0004:000000e0       __imp__GetConsoleCP@0      101420e0     kernel32:KERNEL32.dll
 0004:000000e4       __imp__DeleteFileW@4       101420e4     kernel32:KERNEL32.dll
 0004:000000e8       __imp__SetFilePointerEx@20 101420e8     kernel32:KERNEL32.dll
 0004:000000ec       __imp__OutputDebugStringW@4 101420ec     kernel32:KERNEL32.dll
 0004:000000f0       __imp__GetCurrentThread@0  101420f0     kernel32:KERNEL32.dll
 0004:000000f4       __imp__GetModuleFileNameA@12 101420f4     kernel32:KERNEL32.dll
 0004:000000f8       __imp__QueryPerformanceCounter@4 101420f8     kernel32:KERNEL32.dll
 0004:000000fc       __imp__GetCurrentProcessId@0 101420fc     kernel32:KERNEL32.dll
 0004:00000100       __imp__GetSystemTimeAsFileTime@4 10142100     kernel32:KERNEL32.dll
 0004:00000104       __imp__GetEnvironmentStringsW@0 10142104     kernel32:KERNEL32.dll
 0004:00000108       __imp__FreeEnvironmentStringsW@4 10142108     kernel32:KERNEL32.dll
 0004:0000010c       __imp__HeapSize@12         1014210c     kernel32:KERNEL32.dll
 0004:00000110       __imp__GetDateFormatW@24   10142110     kernel32:KERNEL32.dll
 0004:00000114       __imp__GetTimeFormatW@24   10142114     kernel32:KERNEL32.dll
 0004:00000118       __imp__CompareStringW@24   10142118     kernel32:KERNEL32.dll
 0004:0000011c       __imp__LCMapStringW@24     1014211c     kernel32:KERNEL32.dll
 0004:00000120       __imp__GetLocaleInfoW@16   10142120     kernel32:KERNEL32.dll
 0004:00000124       __imp__IsValidLocale@8     10142124     kernel32:KERNEL32.dll
 0004:00000128       __imp__GetUserDefaultLCID@0 10142128     kernel32:KERNEL32.dll
 0004:0000012c       __imp__EnumSystemLocalesW@8 1014212c     kernel32:KERNEL32.dll
 0004:00000130       __imp__GetStringTypeW@16   10142130     kernel32:KERNEL32.dll
 0004:00000134       __imp__FlushFileBuffers@4  10142134     kernel32:KERNEL32.dll
 0004:00000138       __imp__SetStdHandle@8      10142138     kernel32:KERNEL32.dll
 0004:0000013c       __imp__CreateFileW@28      1014213c     kernel32:KERNEL32.dll
 0004:00000140       __imp__SetEndOfFile@4      10142140     kernel32:KERNEL32.dll
 0004:00000144       \177KERNEL32_NULL_THUNK_DATA 10142144     kernel32:KERNEL32.dll
 0004:000001b0       __IMPORT_DESCRIPTOR_KERNEL32 101421b0     kernel32:KERNEL32.dll
 0004:000001c4       __NULL_IMPORT_DESCRIPTOR   101421c4     kernel32:KERNEL32.dll

 entry point at        0001:00017d5b

