 Pos_PID_xpc

 Timestamp is 58fd0f3e (Sun Apr 23 16:31:58 2017)

 Preferred load address is 10000000

 Start         Length     Name                   Class
 0001:00000000 00041bb1H .text$mn                CODE
 0002:00000000 00000104H .CRT$XCA                DATA
 0002:00000104 00000104H .CRT$XCZ                DATA
 0002:00000208 00000104H .CRT$XIA                DATA
 0002:0000030c 00000113H .CRT$XIC                DATA
 0002:00000420 00000104H .CRT$XIZ                DATA
 0002:00000524 00000104H .CRT$XPA                DATA
 0002:00000628 00000109H .CRT$XPX                DATA
 0002:00000734 00000104H .CRT$XPXA               DATA
 0002:00000838 00000104H .CRT$XPZ                DATA
 0002:0000093c 00000104H .CRT$XTA                DATA
 0002:00000a40 00000104H .CRT$XTZ                DATA
 0002:00000b50 0001001eH .rdata                  DATA
 0002:00010b70 000001a8H .rdata$debug            DATA
 0002:00010d20 0000010eH .rdata$sxdata           DATA
 0002:00010e30 00000104H .rtc$IAA                DATA
 0002:00010f34 00000104H .rtc$IZZ                DATA
 0002:00011038 00000104H .rtc$TAA                DATA
 0002:0001113c 00000104H .rtc$TZZ                DATA
 0002:00011240 00000991H .xdata$x                DATA
 0002:00011be0 00000214H .edata                  DATA
 0003:00000000 000038caH .data                   DATA
 0003:000038e0 00017ac4H .bss                    DATA
 0004:00000000 000001b0H .idata$5                DATA
 0004:000001b0 00000014H .idata$2                DATA
 0004:000001c4 00000014H .idata$3                DATA
 0004:000001d8 000001b0H .idata$4                DATA
 0004:00000388 0000076bH .idata$6                DATA

  Address         Publics by Value              Rva+Base       Lib:Object

 0000:00000000       ___guard_fids_count        00000000     <absolute>
 0000:00000000       __except_list              00000000     <absolute>
 0000:00000000       ___guard_fids_table        00000000     <absolute>
 0000:00000000       ___guard_flags             00000000     <absolute>
 0000:00000003       ___safe_se_handler_count   00000003     <absolute>
 0000:00000000       ___ImageBase               10000000     <linker-defined>
 0001:000003c0       _MWDSP_EPH_R_B             100013c0 f   Pos_PID.obj
 0001:00000480       _MWDSP_EPH_R_D             10001480 f   Pos_PID.obj
 0001:00000550       _MdlInitialize             10001550 f   Pos_PID.obj
 0001:00000560       _MdlInitializeSampleTimes  10001560 f   Pos_PID.obj
 0001:00000570       _MdlInitializeSizes        10001570 f   Pos_PID.obj
 0001:00000580       _MdlOutputs                10001580 f   Pos_PID.obj
 0001:00000590       _MdlStart                  10001590 f   Pos_PID.obj
 0001:000005a0       _MdlTerminate              100015a0 f   Pos_PID.obj
 0001:000005b0       _MdlUpdate                 100015b0 f   Pos_PID.obj
 0001:000005c0       _Pos_PID                   100015c0 f   Pos_PID.obj
 0001:00002870       _Pos_PID_Deadbandpulsecounter 10003870 f   Pos_PID.obj
 0001:000028d0       _Pos_PID_derivatives       100038d0 f   Pos_PID.obj
 0001:00002940       _Pos_PID_initialize        10003940 f   Pos_PID.obj
 0001:00003b20       _Pos_PID_output            10004b20 f   Pos_PID.obj
 0001:00004e00       _Pos_PID_terminate         10005e00 f   Pos_PID.obj
 0001:00004ed0       _Pos_PID_update            10005ed0 f   Pos_PID.obj
 0001:00005030       _binsearch_u32d            10006030 f   Pos_PID.obj
 0001:00005090       _plook_u32d_bincka         10006090 f   Pos_PID.obj
 0001:000050e0       _rt_ODECreateIntegrationData 100060e0 f   Pos_PID.obj
 0001:000050f0       _rt_ODEDestroyIntegrationData 100060f0 f   Pos_PID.obj
 0001:00005100       _rt_ODEUpdateContinuousStates 10006100 f   Pos_PID.obj
 0001:00005700       _Pos_PID_GetCAPIStaticMap  10006700 f   Pos_PID_capi.obj
 0001:00005710       _Pos_PID_InitializeDataMapInfo 10006710 f   Pos_PID_capi.obj
 0001:000057a0       _TgtConnBackgroundTask     100067a0 f   Pos_PID_tgtconn.obj
 0001:000057b0       _TgtConnInit               100067b0 f   Pos_PID_tgtconn.obj
 0001:000057d0       _TgtConnPostStep           100067d0 f   Pos_PID_tgtconn.obj
 0001:000057e0       _TgtConnPreStep            100067e0 f   Pos_PID_tgtconn.obj
 0001:000057f0       _TgtConnTerm               100067f0 f   Pos_PID_tgtconn.obj
 0001:00005800       _rtGetInf                  10006800 f   rtGetInf.obj
 0001:00005830       _rtGetInfF                 10006830 f   rtGetInf.obj
 0001:00005850       _rtGetMinusInf             10006850 f   rtGetInf.obj
 0001:00005880       _rtGetMinusInfF            10006880 f   rtGetInf.obj
 0001:000058a0       _rtGetNaN                  100068a0 f   rtGetNaN.obj
 0001:000058d0       _rtGetNaNF                 100068d0 f   rtGetNaN.obj
 0001:00006200       _rt_CreateLogVar           10007200 f   rt_logging.obj
 0001:00006290       _rt_CreateLogVarWithConvert 10007290 f   rt_logging.obj
 0001:00006c10       _rt_CreateStructLogVar     10007c10 f   rt_logging.obj
 0001:00007980       _rt_GetMxIdFromDTypeId     10008980 f   rt_logging.obj
 0001:000079b0       _rt_GetMxIdFromDTypeIdForRSim 100089b0 f   rt_logging.obj
 0001:0000a2f0       _rt_StartDataLogging       1000b2f0 f   rt_logging.obj
 0001:0000a7b0       _rt_StartDataLoggingWithStartTime 1000b7b0 f   rt_logging.obj
 0001:0000b110       _rt_StopDataLogging        1000c110 f   rt_logging.obj
 0001:0000b130       _rt_StopDataLoggingImpl    1000c130 f   rt_logging.obj
 0001:0000b450       _rt_UpdateLogVar           1000c450 f   rt_logging.obj
 0001:0000c810       _rt_UpdateStructLogVar     1000d810 f   rt_logging.obj
 0001:0000c8a0       _rt_UpdateTXXFYLogVars     1000d8a0 f   rt_logging.obj
 0001:0000cbe0       _rt_UpdateTXYLogVars       1000dbe0 f   rt_logging.obj
 0001:0000ce30       _rt_CleanUpForStateLogWithMMI 1000de30 f   rt_logging_mmi.obj
 0001:0000cf40       _rt_FillStateSigInfoFromMMI 1000df40 f   rt_logging_mmi.obj
 0001:0000d2f0       _rt_mxCreateCharMatrixFromStrings 1000e2f0 f   rt_matrx.obj
 0001:0000d440       _rt_mxCreateDoubleMatrix   1000e440 f   rt_matrx.obj
 0001:0000d4a0       _rt_mxCreateNumericArray   1000e4a0 f   rt_matrx.obj
 0001:0000d520       _rt_mxCreateString         1000e520 f   rt_matrx.obj
 0001:0000d5b0       _rt_mxDuplicateArray       1000e5b0 f   rt_matrx.obj
 0001:0000d610       _rt_mxGetDimensions        1000e610 f   rt_matrx.obj
 0001:0000d650       _rt_mxGetEps               1000e650 f   rt_matrx.obj
 0001:0000d660       _rt_mxGetString            1000e660 f   rt_matrx.obj
 0001:0000d6e0       _rtIsInf                   1000e6e0 f   rt_nonfinite.obj
 0001:0000d720       _rtIsInfF                  1000e720 f   rt_nonfinite.obj
 0001:0000d760       _rtIsNaN                   1000e760 f   rt_nonfinite.obj
 0001:0000d780       _rtIsNaNF                  1000e780 f   rt_nonfinite.obj
 0001:0000d7a0       _rt_InitInfAndNaN          1000e7a0 f   rt_nonfinite.obj
 0001:0000d800       _rtPrintfNoOp              1000e800 f   rt_printf.obj
 0001:0000d810       _rtwCAPI_CountSysRan       1000e810 f   rtw_modelmap_utils.obj
 0001:0000d8b0       _rtwCAPI_EncodePath        1000e8b0 f   rtw_modelmap_utils.obj
 0001:0000d9a0       _rtwCAPI_FillSysRan        1000e9a0 f   rtw_modelmap_utils.obj
 0001:0000da90       _rtwCAPI_FreeFullPaths     1000ea90 f   rtw_modelmap_utils.obj
 0001:0000db20       _rtwCAPI_GetFullStateBlockPath 1000eb20 f   rtw_modelmap_utils.obj
 0001:0000dcd0       _rtwCAPI_GetNumContStateRecords 1000ecd0 f   rtw_modelmap_utils.obj
 0001:0000dd90       _rtwCAPI_GetNumSigLogRecords 1000ed90 f   rtw_modelmap_utils.obj
 0001:0000dde0       _rtwCAPI_GetNumSigLogRecordsForRTWLogging 1000ede0 f   rtw_modelmap_utils.obj
 0001:0000de70       _rtwCAPI_GetNumStateRecords 1000ee70 f   rtw_modelmap_utils.obj
 0001:0000dec0       _rtwCAPI_GetNumStateRecordsForRTWLogging 1000eec0 f   rtw_modelmap_utils.obj
 0001:0000df50       _rtwCAPI_GetSigAddrFromMap 1000ef50 f   rtw_modelmap_utils.obj
 0001:0000e010       _rtwCAPI_GetSigLogRecordInfo 1000f010 f   rtw_modelmap_utils.obj
 0001:0000e440       _rtwCAPI_GetStateRecordInfo 1000f440 f   rtw_modelmap_utils.obj
 0001:0000e8f0       _rtwCAPI_GetStateWidth     1000f8f0 f   rtw_modelmap_utils.obj
 0001:0000e950       _rtwCAPI_HasStates         1000f950 f   rtw_modelmap_utils.obj
 0001:0000e9c0       _rtwCAPI_UpdateFullPaths   1000f9c0 f   rtw_modelmap_utils.obj
 0001:0000eba0       _DllMain@12                1000fba0 f   xpctarget.obj
 0001:0000ebb0       _Pos_PID_ChangeStepSize    1000fbb0 f   xpctarget.obj
 0001:0000ec20       _SLRTSetErrorStatus        1000fc20 f   xpctarget.obj
 0001:0000ec40       _changeStepSize            1000fc40 f   xpctarget.obj
 0001:0000ecb0       _getDLMVersion             1000fcb0 f   xpctarget.obj
 0001:0000ecc0       _getRefMdlPath             1000fcc0 f   xpctarget.obj
 0001:0000ed40       _getRefMdlSignalNumber     1000fd40 f   xpctarget.obj
 0001:0000edf0       _getrlmdlinfo              1000fdf0 f   xpctarget.obj
 0001:0000efd0       _updateDiscreteEvents      1000ffd0 f   xpctarget.obj
 0001:0000efe0       _getNumRef                 1000ffe0 f   appmappingData.obj
 0001:0000eff0       _encconteccnt328mpci       1000fff0 f   encconteccnt328mpci.obj
 0001:00010a80       _dacbpcidda0x12            10011a80 f   dacbpcidda0x12.obj
 0001:00011620       _dopci8255                 10012620 f   dopci8255.obj
 0001:00012530       _dipci8255                 10013530 f   dipci8255.obj
 0001:00013500       _xpcudpbytereceive         10014500 f   xpcudpbytereceive.obj
 0001:00013550       _GetPCIDeviceFull          10014550 f   xpcruntime:xpcimports.obj
 0001:00013580       _ShowPCIDevice             10014580 f   xpcruntime:xpcimports.obj
 0001:00013bf0       _xpcGetPciConfigAtSlot     10014bf0 f   xpcruntime:xpcimports.obj
 0001:00013e70       _xpcInitProcs              10014e70 f   xpcruntime:xpcimports.obj
 0001:000149d0       _xpceuploadevent           100159d0 f   xpcruntime:xpcimports.obj
 0001:000149d1       __heap_alloc               100159d1 f i LIBCMT:malloc.obj
 0001:00014a0e       _malloc                    10015a0e f   LIBCMT:malloc.obj
 0001:00014aa0       __get_printf_count_output  10015aa0 f   LIBCMT:printf.obj
 0001:00014ab5       __printf_l                 10015ab5 f   LIBCMT:printf.obj
 0001:00014acc       __printf_p                 10015acc f   LIBCMT:printf.obj
 0001:00014ae2       __printf_p_l               10015ae2 f   LIBCMT:printf.obj
 0001:00014af9       __printf_s_l               10015af9 f   LIBCMT:printf.obj
 0001:00014b10       __set_printf_count_output  10015b10 f   LIBCMT:printf.obj
 0001:00014b38       _printf                    10015b38 f   LIBCMT:printf.obj
 0001:00014be7       _printf_s                  10015be7 f   LIBCMT:printf.obj
 0001:00014c00       _memcpy                    10015c00 f   LIBCMT:memcpy.obj
 0001:00015250       _memset                    10016250 f   LIBCMT:memset.obj
 0001:000152e0       __fpmath                   100162e0 f   LIBCMT:fpinit.obj
 0001:000152f7       ___setfflag                100162f7 f   LIBCMT:fpinit.obj
 0001:0001530a       __cfltcvt_init             1001630a f   LIBCMT:fpinit.obj
 0001:0001536a       ___raise_securityfailure   1001636a f   LIBCMT:gs_report.obj
 0001:000153a7       ___report_gsfailure        100163a7 f   LIBCMT:gs_report.obj
 0001:000154a2       ___report_rangecheckfailure 100164a2 f   LIBCMT:gs_report.obj
 0001:000154ae       ___report_securityfailure  100164ae f   LIBCMT:gs_report.obj
 0001:0001557e       ___report_securityfailureEx 1001657e f   LIBCMT:gs_report.obj
 0001:00015694       ___copy_path_to_wide_string 10016694 f   LIBCMT:crt0dat.obj
 0001:00015746       ___copy_to_char            10016746 f   LIBCMT:crt0dat.obj
 0001:000157fb       ___crtCorExitProcess       100167fb f   LIBCMT:crt0dat.obj
 0001:0001582f       ___crtExitProcess          1001682f f   LIBCMT:crt0dat.obj
 0001:00015845       ___freeCrtMemory           10016845 f   LIBCMT:crt0dat.obj
 0001:00015952       __amsg_exit                10016952 f   LIBCMT:crt0dat.obj
 0001:0001596e       __c_exit                   1001696e f   LIBCMT:crt0dat.obj
 0001:0001597d       __cexit                    1001697d f   LIBCMT:crt0dat.obj
 0001:0001598c       __cinit                    1001698c f   LIBCMT:crt0dat.obj
 0001:00015a10       __exit                     10016a10 f   LIBCMT:crt0dat.obj
 0001:00015a24       __exit_app                 10016a24 f   LIBCMT:crt0dat.obj
 0001:00015a32       __get_pgmptr               10016a32 f   LIBCMT:crt0dat.obj
 0001:00015a61       __get_wpgmptr              10016a61 f   LIBCMT:crt0dat.obj
 0001:00015a90       __init_pointers            10016a90 f   LIBCMT:crt0dat.obj
 0001:00015afe       __initterm_e               10016afe f   LIBCMT:crt0dat.obj
 0001:00015b20       __lockexit                 10016b20 f   LIBCMT:crt0dat.obj
 0001:00015b29       __unlockexit               10016b29 f   LIBCMT:crt0dat.obj
 0001:00015c61       _exit                      10016c61 f   LIBCMT:crt0dat.obj
 0001:00015c75       _calloc                    10016c75 f   LIBCMT:calloc.obj
 0001:00015cb5       _free                      10016cb5 f   LIBCMT:free.obj
 0001:00015ced       _realloc                   10016ced f   LIBCMT:realloc.obj
 0001:00015da0       _memmove                   10016da0 f   LIBCMT:memmove.obj
 0001:000163f0       _strchr                    100173f0 f   LIBCMT:strchr.obj
 0001:0001645e       ___from_strstr_to_strchr   1001745e     LIBCMT:strchr.obj
 0001:00016520       _strncat                   10017520 f   LIBCMT:strncat.obj
 0001:00016660       _strncpy                   10017660 f   LIBCMT:strncpy.obj
 0001:00016784       ___initstdio               10017784 f   LIBCMT:_file.obj
 0001:000167f7       ___endstdio                100177f7 f   LIBCMT:_file.obj
 0001:0001681e       ___iob_func                1001781e f   LIBCMT:_file.obj
 0001:00016824       __lock_file                10017824 f   LIBCMT:_file.obj
 0001:00016863       __lock_file2               10017863 f   LIBCMT:_file.obj
 0001:00016893       __unlock_file              10017893 f   LIBCMT:_file.obj
 0001:000168cd       __unlock_file2             100178cd f   LIBCMT:_file.obj
 0001:000168fa       __fclose_nolock            100178fa f   LIBCMT:fclose.obj
 0001:00016966       _fclose                    10017966 f   LIBCMT:fclose.obj
 0001:000169dd       __fsopen                   100179dd f   LIBCMT:fopen.obj
 0001:00016aa1       _fopen                     10017aa1 f   LIBCMT:fopen.obj
 0001:00016ab6       _fopen_s                   10017ab6 f   LIBCMT:fopen.obj
 0001:00016afb       __fprintf_l                10017afb f   LIBCMT:fprintf.obj
 0001:00016b15       __fprintf_p                10017b15 f   LIBCMT:fprintf.obj
 0001:00016b2e       __fprintf_p_l              10017b2e f   LIBCMT:fprintf.obj
 0001:00016b48       __fprintf_s_l              10017b48 f   LIBCMT:fprintf.obj
 0001:00016b62       _fprintf                   10017b62 f   LIBCMT:fprintf.obj
 0001:00016c74       _fprintf_s                 10017c74 f   LIBCMT:fprintf.obj
 0001:00016c8d       __fread_nolock             10017c8d f   LIBCMT:fread.obj
 0001:00016ca8       __fread_nolock_s           10017ca8 f   LIBCMT:fread.obj
 0001:00016e6d       _fread                     10017e6d f   LIBCMT:fread.obj
 0001:00016e88       _fread_s                   10017e88 f   LIBCMT:fread.obj
 0001:00016f19       __fwrite_nolock            10017f19 f   LIBCMT:fwrite.obj
 0001:00017072       _fwrite                    10018072 f   LIBCMT:fwrite.obj
 0001:000170f4       __unlink                   100180f4 f   LIBCMT:unlink.obj
 0001:000170fd       _remove                    100180fd f   LIBCMT:unlink.obj
 0001:0001713f       _rewind                    1001813f f   LIBCMT:rewind.obj
 0001:000171fe       __scprintf                 100181fe f   LIBCMT:sprintf.obj
 0001:00017211       __scprintf_l               10018211 f   LIBCMT:sprintf.obj
 0001:00017228       __scprintf_p               10018228 f   LIBCMT:sprintf.obj
 0001:0001723b       __scprintf_p_l             1001823b f   LIBCMT:sprintf.obj
 0001:00017252       __snprintf_s               10018252 f   LIBCMT:sprintf.obj
 0001:00017271       __snprintf_s_l             10018271 f   LIBCMT:sprintf.obj
 0001:00017291       __sprintf_l                10018291 f   LIBCMT:sprintf.obj
 0001:000172ab       __sprintf_p                100182ab f   LIBCMT:sprintf.obj
 0001:000172c7       __sprintf_p_l              100182c7 f   LIBCMT:sprintf.obj
 0001:000172e4       __sprintf_s_l              100182e4 f   LIBCMT:sprintf.obj
 0001:00017301       _sprintf                   10018301 f   LIBCMT:sprintf.obj
 0001:00017385       _sprintf_s                 10018385 f   LIBCMT:sprintf.obj
 0001:000173a1       _ldexp                     100183a1 f   LIBCMT:ldexp.obj
 0001:0001758d       @__security_check_cookie@4 1001858d f   LIBCMT:secchk.obj
 0001:000175a0       __ftoui3                   100185a0 f   LIBCMT:ftol3.obj
 0001:000175af       __ftoul3                   100185af f   LIBCMT:ftol3.obj
 0001:000175be       __ftol3                    100185be f   LIBCMT:ftol3.obj
 0001:000175cb       __ftol3_NaN                100185cb f   LIBCMT:ftol3.obj
 0001:000175e3       __ftol3_work               100185e3 f   LIBCMT:ftol3.obj
 0001:00017669       __ftol3_common             10018669 f   LIBCMT:ftol3.obj
 0001:0001772b       __ftol3_arg_error          1001872b f   LIBCMT:ftol3.obj
 0001:0001773d       __ftol3_except             1001873d f   LIBCMT:ftol3.obj
 0001:0001777f       __dtoui3                   1001877f f   LIBCMT:ftol3.obj
 0001:0001778e       __dtoul3                   1001878e f   LIBCMT:ftol3.obj
 0001:0001779d       __dtol3                    1001879d f   LIBCMT:ftol3.obj
 0001:000177aa       __dtol3_NaN                100187aa f   LIBCMT:ftol3.obj
 0001:000177c7       __dtol3_work               100187c7 f   LIBCMT:ftol3.obj
 0001:000178ac       __ultod3                   100188ac f   LIBCMT:ftol3.obj
 0001:0001793d       __ltod3                    1001893d f   LIBCMT:ftol3.obj
 0001:0001796b       ___isa_available_init      1001896b f   LIBCMT:cpu_disp.obj
 0001:00017ae4       __invoke_watson_if_error   10018ae4 f i LIBCMT:wassert.obj
 0001:00017b04       __wassert                  10018b04 f   LIBCMT:wassert.obj
 0001:000181a8       __CRT_INIT@12              100191a8 f   LIBCMT:dllcrt0.obj
 0001:0001831a       __DllMainCRTStartup@12     1001931a f   LIBCMT:dllcrt0.obj
 0001:0001844b       ___DllXcptFilter           1001944b f   LIBCMT:dllcrt0.obj
 0001:00018470       ?_query_new_handler@@YAP6AHI@ZXZ 10019470 f   LIBCMT:handler.obj
 0001:0001847d       ?_set_new_handler@@YAP6AHI@ZH@Z 1001947d f   LIBCMT:handler.obj
 0001:00018486       ?_set_new_handler@@YAP6AHI@ZP6AHI@Z@Z 10019486 f   LIBCMT:handler.obj
 0001:000184bb       __callnewh                 100194bb f   LIBCMT:handler.obj
 0001:000184e1       __initp_heap_handler       100194e1 f   LIBCMT:handler.obj
 0001:000184ee       __FF_MSGBANNER             100194ee f   LIBCMT:crt0msg.obj
 0001:00018527       __GET_RTERRMSG             10019527 f   LIBCMT:crt0msg.obj
 0001:0001854b       __NMSG_WRITE               1001954b f   LIBCMT:crt0msg.obj
 0001:00018708       ___doserrno                10019708 f   LIBCMT:dosmap.obj
 0001:0001871b       __dosmaperr                1001971b f   LIBCMT:dosmap.obj
 0001:0001873c       __errno                    1001973c f   LIBCMT:dosmap.obj
 0001:0001874f       __get_doserrno             1001974f f   LIBCMT:dosmap.obj
 0001:00018772       __get_errno                10019772 f   LIBCMT:dosmap.obj
 0001:00018795       __get_errno_from_oserr     10019795 f   LIBCMT:dosmap.obj
 0001:000187d6       __set_doserrno             100197d6 f   LIBCMT:dosmap.obj
 0001:000187f5       __set_errno                100197f5 f   LIBCMT:dosmap.obj
 0001:00018814       __get_heap_handle          10019814 f   LIBCMT:heapinit.obj
 0001:0001881a       __heap_init                1001981a f   LIBCMT:heapinit.obj
 0001:0001882f       __heap_term                1001982f f   LIBCMT:heapinit.obj
 0001:00018837       ?_invalid_parameter@@YAXPBG00II@Z 10019837 f   LIBCMT:invarg.obj
 0001:0001883c       ?_invoke_watson@@YAXPBG00II@Z 1001983c f   LIBCMT:invarg.obj
 0001:00018854       __call_reportfault         10019854 f   LIBCMT:invarg.obj
 0001:00018979       __get_invalid_parameter_handler 10019979 f   LIBCMT:invarg.obj
 0001:00018986       __initp_misc_invarg        10019986 f   LIBCMT:invarg.obj
 0001:00018993       __invalid_parameter        10019993 f   LIBCMT:invarg.obj
 0001:000189be       __invalid_parameter_noinfo 100199be f   LIBCMT:invarg.obj
 0001:000189ce       __invalid_parameter_noinfo_noreturn 100199ce f   LIBCMT:invarg.obj
 0001:000189e9       __invoke_watson            100199e9 f   LIBCMT:invarg.obj
 0001:00018a14       __set_invalid_parameter_handler 10019a14 f   LIBCMT:invarg.obj
 0001:00018a39       __vprintf_l                10019a39 f   LIBCMT:vprintf.obj
 0001:00018a54       __vprintf_p                10019a54 f   LIBCMT:vprintf.obj
 0001:00018a6e       __vprintf_p_l              10019a6e f   LIBCMT:vprintf.obj
 0001:00018a89       __vprintf_s_l              10019a89 f   LIBCMT:vprintf.obj
 0001:00018aa4       _vprintf                   10019aa4 f   LIBCMT:vprintf.obj
 0001:00018abe       _vprintf_helper            10019abe f   LIBCMT:vprintf.obj
 0001:00018b4b       _vprintf_s                 10019b4b f   LIBCMT:vprintf.obj
 0001:00018b65       __ftbuf                    10019b65 f   LIBCMT:_sftbuf.obj
 0001:00018b96       __stbuf                    10019b96 f   LIBCMT:_sftbuf.obj
 0001:00018c3c       ??0_LocaleUpdate@@QAE@PAUlocaleinfo_struct@@@Z 10019c3c f i LIBCMT:output.obj
 0001:00018cc4       ??1_LocaleUpdate@@QAE@XZ   10019cc4 f i LIBCMT:output.obj
 0001:00018cd2       ?GetLocaleT@_LocaleUpdate@@QAEPAUlocaleinfo_struct@@XZ 10019cd2 f i LIBCMT:output.obj
 0001:00018cd5       __output_l                 10019cd5 f   LIBCMT:output.obj
 0001:00019855       _get_int64_arg             1001a855 f i LIBCMT:output.obj
 0001:00019868       _get_int_arg               1001a868 f i LIBCMT:output.obj
 0001:00019878       _get_short_arg             1001a878 f i LIBCMT:output.obj
 0001:00019980       __SEH_prolog4              1001a980 f   LIBCMT:sehprolg4.obj
 0001:000199c5       __SEH_epilog4              1001a9c5 f   LIBCMT:sehprolg4.obj
 0001:00019a20       __except_handler4          1001aa20 f   LIBCMT:chandler4.obj
 0001:00019bb4       __VEC_memset               1001abb4 f   LIBCMT:p4_memset.obj
 0001:00019c7c       ?strrchr@@YAPADPADH@Z      1001ac7c f i LIBCMT:cvt.obj
 0001:00019c85       __cfltcvt                  1001ac85 f   LIBCMT:cvt.obj
 0001:00019ca6       __cfltcvt_l                1001aca6 f   LIBCMT:cvt.obj
 0001:00019d2c       __cftoa                    1001ad2c f   LIBCMT:cvt.obj
 0001:00019d4a       __cftoa_l                  1001ad4a f   LIBCMT:cvt.obj
 0001:0001a0a6       __cftoe                    1001b0a6 f   LIBCMT:cvt.obj
 0001:0001a215       __cftoe_l                  1001b215 f   LIBCMT:cvt.obj
 0001:0001a2e3       __cftof                    1001b2e3 f   LIBCMT:cvt.obj
 0001:0001a3ea       __cftof_l                  1001b3ea f   LIBCMT:cvt.obj
 0001:0001a4ab       __cftog                    1001b4ab f   LIBCMT:cvt.obj
 0001:0001a4c9       __cftog_l                  1001b4c9 f   LIBCMT:cvt.obj
 0001:0001a5c8       __cropzeros                1001b5c8 f   LIBCMT:cvt.obj
 0001:0001a5d9       __cropzeros_l              1001b5d9 f   LIBCMT:cvt.obj
 0001:0001a659       __fassign                  1001b659 f   LIBCMT:cvt.obj
 0001:0001a671       __fassign_l                1001b671 f   LIBCMT:cvt.obj
 0001:0001a6b3       __forcdecpt                1001b6b3 f   LIBCMT:cvt.obj
 0001:0001a6c4       __forcdecpt_l              1001b6c4 f   LIBCMT:cvt.obj
 0001:0001a738       __positive                 1001b738 f   LIBCMT:cvt.obj
 0001:0001a77a       __setdefaultprecision      1001b77a f   LIBCMT:fp8.obj
 0001:0001a7a1       __initp_misc_cfltcvt_tab   1001b7a1 f   LIBCMT:cmiscdat.obj
 0001:0001a7c0       __crt_debugger_hook        1001b7c0 f   LIBCMT:dbghook.obj
 0001:0001a7f5       ___crtCloseThreadpoolTimer 1001b7f5 f   LIBCMT:winapisupp.obj
 0001:0001a80c       ___crtCloseThreadpoolWait  1001b80c f   LIBCMT:winapisupp.obj
 0001:0001a823       ___crtCreateEventExW       1001b823 f   LIBCMT:winapisupp.obj
 0001:0001a85e       ___crtCreateSemaphoreExW   1001b85e f   LIBCMT:winapisupp.obj
 0001:0001a898       ___crtCreateSymbolicLinkW  1001b898 f   LIBCMT:winapisupp.obj
 0001:0001a8c1       ___crtCreateThreadpoolTimer 1001b8c1 f   LIBCMT:winapisupp.obj
 0001:0001a8e2       ___crtCreateThreadpoolWait 1001b8e2 f   LIBCMT:winapisupp.obj
 0001:0001a903       ___crtFlsAlloc             1001b903 f   LIBCMT:winapisupp.obj
 0001:0001a921       ___crtFlsFree              1001b921 f   LIBCMT:winapisupp.obj
 0001:0001a940       ___crtFlsGetValue          1001b940 f   LIBCMT:winapisupp.obj
 0001:0001a95f       ___crtFlsSetValue          1001b95f f   LIBCMT:winapisupp.obj
 0001:0001a981       ___crtFlushProcessWriteBuffers 1001b981 f   LIBCMT:winapisupp.obj
 0001:0001a991       ___crtFreeLibraryWhenCallbackReturns 1001b991 f   LIBCMT:winapisupp.obj
 0001:0001a9ab       ___crtGetCurrentProcessorNumber 1001b9ab f   LIBCMT:winapisupp.obj
 0001:0001a9bd       ___crtGetFileInformationByHandleEx 1001b9bd f   LIBCMT:winapisupp.obj
 0001:0001a9e9       ___crtGetLogicalProcessorInformation 1001b9e9 f   LIBCMT:winapisupp.obj
 0001:0001aa0f       ___crtGetShowWindowMode    1001ba0f f   LIBCMT:winapisupp.obj
 0001:0001aa32       ___crtGetTickCount64       1001ba32 f   LIBCMT:winapisupp.obj
 0001:0001aa4a       ___crtInitializeCriticalSectionEx 1001ba4a f   LIBCMT:winapisupp.obj
 0001:0001aa78       ___crtIsPackagedApp        1001ba78 f   LIBCMT:winapisupp.obj
 0001:0001aab8       ___crtLoadWinApiPointers   1001bab8 f   LIBCMT:winapisupp.obj
 0001:0001ad43       ___crtSetFileInformationByHandle 1001bd43 f   LIBCMT:winapisupp.obj
 0001:0001ad6f       ___crtSetThreadStackGuarantee 1001bd6f f   LIBCMT:winapisupp.obj
 0001:0001ad8a       ___crtSetThreadpoolTimer   1001bd8a f   LIBCMT:winapisupp.obj
 0001:0001adaa       ___crtSetThreadpoolWait    1001bdaa f   LIBCMT:winapisupp.obj
 0001:0001adc7       ___crtSetUnhandledExceptionFilter 1001bdc7 f   LIBCMT:winapisupp.obj
 0001:0001add5       ___crtSleep                1001bdd5 f   LIBCMT:winapisupp.obj
 0001:0001ade3       ___crtTerminateProcess     1001bde3 f   LIBCMT:winapisupp.obj
 0001:0001adf8       ___crtUnhandledException   1001bdf8 f   LIBCMT:winapisupp.obj
 0001:0001ae0e       ___crtWaitForThreadpoolTimerCallbacks 1001be0e f   LIBCMT:winapisupp.obj
 0001:0001ae28       __RTC_Initialize           1001be28 f   LIBCMT:initsect.obj
 0001:0001ae48       __RTC_Terminate            1001be48 f   LIBCMT:initsect.obj
 0001:0001ae68       __lock                     1001be68 f   LIBCMT:mlock.obj
 0001:0001ae9c       __lockerr_exit             1001be9c f   LIBCMT:mlock.obj
 0001:0001aebc       __mtdeletelocks            1001bebc f   LIBCMT:mlock.obj
 0001:0001af10       __mtinitlocknum            1001bf10 f   LIBCMT:mlock.obj
 0001:0001afb9       __mtinitlocks              1001bfb9 f   LIBCMT:mlock.obj
 0001:0001aff2       __unlock                   1001bff2 f   LIBCMT:mlock.obj
 0001:0001b010       __FindPESection            1001c010 f   LIBCMT:pesect.obj
 0001:0001b060       __IsNonwritableInCurrentImage 1001c060 f   LIBCMT:pesect.obj
 0001:0001b120       __ValidateImageBase        1001c120 f   LIBCMT:pesect.obj
 0001:0001b151       ___onexitinit              1001c151 f   LIBCMT:onexit.obj
 0001:0001b180       __onexit                   1001c180 f   LIBCMT:onexit.obj
 0001:0001b27c       _atexit                    1001c27c f   LIBCMT:onexit.obj
 0001:0001b291       __calloc_crt               1001c291 f   LIBCMT:crtheap.obj
 0001:0001b2d9       __malloc_crt               1001c2d9 f   LIBCMT:crtheap.obj
 0001:0001b320       __realloc_crt              1001c320 f   LIBCMT:crtheap.obj
 0001:0001b36a       __recalloc_crt             1001c36a f   LIBCMT:crtheap.obj
 0001:0001b3b8       __set_malloc_crt_max_wait  1001c3b8 f   LIBCMT:crtheap.obj
 0001:0001b3cb       _wait_a_bit                1001c3cb f i LIBCMT:crtheap.obj
 0001:0001b3ef       ?_inconsistency@@YAXXZ     1001c3ef f   LIBCMT:hooks.obj
 0001:0001b427       ?terminate@@YAXXZ          1001c427 f   LIBCMT:hooks.obj
 0001:0001b45b       ?unexpected@@YAXXZ         1001c45b f   LIBCMT:hooks.obj
 0001:0001b46e       __initp_eh_hooks           1001c46e f   LIBCMT:hooks.obj
 0001:0001b47f       ___getlocaleinfo           1001c47f f   LIBCMT:inithelp.obj
 0001:0001b658       __initp_misc_purevirt      1001c658 f   LIBCMT:inithelp.obj
 0001:0001b665       ___fpecode                 1001c665 f   LIBCMT:winsig.obj
 0001:0001b66e       ___get_sigabrt             1001c66e f   LIBCMT:winsig.obj
 0001:0001b67b       ___pxcptinfoptrs           1001c67b f   LIBCMT:winsig.obj
 0001:0001b684       __initp_misc_winsig        1001c684 f   LIBCMT:winsig.obj
 0001:0001b745       _raise                     1001c745 f   LIBCMT:winsig.obj
 0001:0001b93a       _signal                    1001c93a f   LIBCMT:winsig.obj
 0001:0001bb91       __initp_misc_rand_s        1001cb91 f   LIBCMT:rand_s.obj
 0001:0001bb9e       _rand_s                    1001cb9e f   LIBCMT:rand_s.obj
 0001:0001bca4       ___initmbctable            1001cca4 f   LIBCMT:mbctype.obj
 0001:0001bf5b       ___updatetmbcinfo          1001cf5b f   LIBCMT:mbctype.obj
 0001:0001c001       __getmbcp                  1001d001 f   LIBCMT:mbctype.obj
 0001:0001c032       __setmbcp                  1001d032 f   LIBCMT:mbctype.obj
 0001:0001c1da       __setmbcp_nolock           1001d1da f   LIBCMT:mbctype.obj
 0001:0001c3c5       __calloc_impl              1001d3c5 f   LIBCMT:calloc_impl.obj
 0001:0001c43f       __fcloseall                1001d43f f   LIBCMT:closeall.obj
 0001:0001c4dc       __fflush_nolock            1001d4dc f   LIBCMT:fflush.obj
 0001:0001c522       __flush                    1001d522 f   LIBCMT:fflush.obj
 0001:0001c586       __flushall                 1001d586 f   LIBCMT:fflush.obj
 0001:0001c58f       _fflush                    1001d58f f   LIBCMT:fflush.obj
 0001:0001c6cc       __fileno                   1001d6cc f   LIBCMT:fileno.obj
 0001:0001c6f0       __close                    1001d6f0 f   LIBCMT:close.obj
 0001:0001c7cb       __close_nolock             1001d7cb f   LIBCMT:close.obj
 0001:0001c865       __freebuf                  1001d865 f   LIBCMT:_freebuf.obj
 0001:0001c895       __getstream                1001d895 f   LIBCMT:stream.obj
 0001:0001c9b4       __openfile                 1001d9b4 f   LIBCMT:_open.obj
 0001:0001cc30       __local_unwind4            1001dc30 f   LIBCMT:exsup4.obj
 0001:0001cd06       __seh_longjmp_unwind4@4    1001dd06 f   LIBCMT:exsup4.obj
 0001:0001cd22       @_EH4_CallFilterFunc@8     1001dd22 f   LIBCMT:exsup4.obj
 0001:0001cd39       @_EH4_TransferToHandler@8  1001dd39 f   LIBCMT:exsup4.obj
 0001:0001cd52       @_EH4_GlobalUnwind2@8      1001dd52 f   LIBCMT:exsup4.obj
 0001:0001cd6b       @_EH4_LocalUnwind@16       1001dd6b f   LIBCMT:exsup4.obj
 0001:0001cd82       __vfprintf_l               1001dd82 f   LIBCMT:vfprintf.obj
 0001:0001cda0       __vfprintf_p               1001dda0 f   LIBCMT:vfprintf.obj
 0001:0001cdbd       __vfprintf_p_l             1001ddbd f   LIBCMT:vfprintf.obj
 0001:0001cddb       __vfprintf_s_l             1001dddb f   LIBCMT:vfprintf.obj
 0001:0001cdf9       _vfprintf                  1001ddf9 f   LIBCMT:vfprintf.obj
 0001:0001ce16       _vfprintf_helper           1001de16 f   LIBCMT:vfprintf.obj
 0001:0001cf27       _vfprintf_s                1001df27 f   LIBCMT:vfprintf.obj
 0001:0001cf44       __ioinit                   1001df44 f   LIBCMT:ioinit.obj
 0001:0001d1f8       __ioterm                   1001e1f8 f   LIBCMT:ioinit.obj
 0001:0001d24a       __filbuf                   1001e24a f   LIBCMT:_filbuf.obj
 0001:0001d36b       _memcpy_s                  1001e36b f   LIBCMT:memcpy_s.obj
 0001:0001d3ea       __read                     1001e3ea f   LIBCMT:read.obj
 0001:0001d4fe       __read_nolock              1001e4fe f   LIBCMT:read.obj
 0001:0001dc8f       __flsbuf                   1001ec8f f   LIBCMT:_flsbuf.obj
 0001:0001ddde       __write                    1001edde f   LIBCMT:write.obj
 0001:0001decd       __write_nolock             1001eecd f   LIBCMT:write.obj
 0001:0001e732       __wremove                  1001f732 f   LIBCMT:wunlink.obj
 0001:0001e760       __wunlink                  1001f760 f   LIBCMT:wunlink.obj
 0001:0001e769       __lseek                    1001f769 f   LIBCMT:lseek.obj
 0001:0001e858       __lseek_nolock             1001f858 f   LIBCMT:lseek.obj
 0001:0001e8ff       __vscprintf                1001f8ff f   LIBCMT:vsprintf.obj
 0001:0001e919       __vscprintf_helper         1001f919 f   LIBCMT:vsprintf.obj
 0001:0001e975       __vscprintf_l              1001f975 f   LIBCMT:vsprintf.obj
 0001:0001e990       __vscprintf_p              1001f990 f   LIBCMT:vsprintf.obj
 0001:0001e9aa       __vscprintf_p_l            1001f9aa f   LIBCMT:vsprintf.obj
 0001:0001e9c5       __vsprintf_l               1001f9c5 f   LIBCMT:vsprintf.obj
 0001:0001ea49       _vsprintf                  1001fa49 f   LIBCMT:vsprintf.obj
 0001:0001ea61       __vsnprintf_c              1001fa61 f   LIBCMT:vsnprnc.obj
 0001:0001ea88       __vsnprintf_c_l            1001fa88 f   LIBCMT:vsnprnc.obj
 0001:0001eab0       __vsnprintf_helper         1001fab0 f   LIBCMT:vsnprnc.obj
 0001:0001eb7a       __vsnprintf_s              1001fb7a f   LIBCMT:vsnprnc.obj
 0001:0001eb98       __vsnprintf_s_l            1001fb98 f   LIBCMT:vsnprnc.obj
 0001:0001ec98       __vsprintf_p               1001fc98 f   LIBCMT:vsnprnc.obj
 0001:0001ecbf       __vsprintf_p_l             1001fcbf f   LIBCMT:vsnprnc.obj
 0001:0001ece7       __vsprintf_s_l             1001fce7 f   LIBCMT:vsnprnc.obj
 0001:0001ed5c       _vsprintf_s                1001fd5c f   LIBCMT:vsnprnc.obj
 0001:0001ed77       __chgsign                  1001fd77 f   LIBCMT:ieeemisc.obj
 0001:0001eda4       __chgsignf                 1001fda4 f   LIBCMT:ieeemisc.obj
 0001:0001edc5       __copysign                 1001fdc5 f   LIBCMT:ieeemisc.obj
 0001:0001eded       __copysignf                1001fded f   LIBCMT:ieeemisc.obj
 0001:0001ee09       __finite                   1001fe09 f   LIBCMT:ieeemisc.obj
 0001:0001ee21       __fpclass                  1001fe21 f   LIBCMT:ieeemisc.obj
 0001:0001eebd       __isnan                    1001febd f   LIBCMT:ieeemisc.obj
 0001:0001eef0       __logb                     1001fef0 f   LIBCMT:ieeemisc.obj
 0001:0001efd1       __nextafter                1001ffd1 f   LIBCMT:ieeemisc.obj
 0001:0001f271       __scalb                    10020271 f   LIBCMT:ieeemisc.obj
 0001:0001f289       __add_exp                  10020289 f   LIBCMT:util.obj
 0001:0001f2b8       __decomp                   100202b8 f   LIBCMT:util.obj
 0001:0001f38a       __get_exp                  1002038a f   LIBCMT:util.obj
 0001:0001f3a3       __set_bexp                 100203a3 f   LIBCMT:util.obj
 0001:0001f3cc       __set_exp                  100203cc f   LIBCMT:util.obj
 0001:0001f3fb       __sptype                   100203fb f   LIBCMT:util.obj
 0001:0001f456       __errcode                  10020456 f   LIBCMT:fpexcept.obj
 0001:0001f488       __except1                  10020488 f   LIBCMT:fpexcept.obj
 0001:0001f550       __except2                  10020550 f   LIBCMT:fpexcept.obj
 0001:0001f650       __handle_exc               10020650 f   LIBCMT:fpexcept.obj
 0001:0001f82e       __handle_qnan1             1002082e f   LIBCMT:fpexcept.obj
 0001:0001f87e       __handle_qnan2             1002087e f   LIBCMT:fpexcept.obj
 0001:0001f8de       __raise_exc                100208de f   LIBCMT:fpexcept.obj
 0001:0001f8ff       __raise_exc_ex             100208ff f   LIBCMT:fpexcept.obj
 0001:0001fbe4       __raise_excf               10020be4 f   LIBCMT:fpexcept.obj
 0001:0001fc05       __set_errno_from_matherr   10020c05 f   LIBCMT:fpexcept.obj
 0001:0001fc32       __umatherr                 10020c32 f   LIBCMT:fpexcept.obj
 0001:0001fcd2       ___clrfp_sse2              10020cd2 f   LIBCMT:fpctrl.obj
 0001:0001fcf3       ___ctrlfp_sse2             10020cf3 f   LIBCMT:fpctrl.obj
 0001:0001fd2c       ___fclrf_sse2              10020d2c f   LIBCMT:fpctrl.obj
 0001:0001fd49       ___get_fpsr_sse2           10020d49 f   LIBCMT:fpctrl.obj
 0001:0001fd65       ___set_fpsr_sse2           10020d65 f   LIBCMT:fpctrl.obj
 0001:0001fddb       ___set_statfp_sse2         10020ddb f   LIBCMT:fpctrl.obj
 0001:0001fdf4       ___statfp_sse2             10020df4 f   LIBCMT:fpctrl.obj
 0001:0001fe09       __clrfp                    10020e09 f   LIBCMT:fpctrl.obj
 0001:0001fe1a       __ctrlfp                   10020e1a f   LIBCMT:fpctrl.obj
 0001:0001fe45       __set_statfp               10020e45 f   LIBCMT:fpctrl.obj
 0001:0001fe9d       __statfp                   10020e9d f   LIBCMT:fpctrl.obj
 0001:0001fead       _wcscat_s                  10020ead f   LIBCMT:wcscat_s.obj
 0001:0001ff19       _wcscpy_s                  10020f19 f   LIBCMT:wcscpy_s.obj
 0001:0001ff75       _wcslen                    10020f75 f   LIBCMT:wcslen.obj
 0001:0001ff8e       _wcsncat_s                 10020f8e f   LIBCMT:wcsncat_s.obj
 0001:0002005c       __set_abort_behavior       1002105c f   LIBCMT:abort.obj
 0001:0002007b       _abort                     1002107b f   LIBCMT:abort.obj
 0001:000200be       ___set_app_type            100210be f   LIBCMT:errmode.obj
 0001:000200cb       __set_error_mode           100210cb f   LIBCMT:errmode.obj
 0001:00020227       __i64tow_s                 10021227 f   LIBCMT:xtows.obj
 0001:00020258       __itow_s                   10021258 f   LIBCMT:xtows.obj
 0001:00020281       __ltow_s                   10021281 f   LIBCMT:xtows.obj
 0001:000202ab       __ui64tow_s                100212ab f   LIBCMT:xtows.obj
 0001:000202c6       __ultow_s                  100212c6 f   LIBCMT:xtows.obj
 0001:000203d1       _setvbuf                   100213d1 f   LIBCMT:setvbuf.obj
 0001:000204d7       __fwprintf_l               100214d7 f   LIBCMT:fwprintf.obj
 0001:000204f1       __fwprintf_p               100214f1 f   LIBCMT:fwprintf.obj
 0001:0002050a       __fwprintf_p_l             1002150a f   LIBCMT:fwprintf.obj
 0001:00020524       __fwprintf_s_l             10021524 f   LIBCMT:fwprintf.obj
 0001:0002053e       _fwprintf                  1002153e f   LIBCMT:fwprintf.obj
 0001:000205d2       _fwprintf_s                100215d2 f   LIBCMT:fwprintf.obj
 0001:000205eb       __vsnwprintf_s             100215eb f   LIBCMT:vswprnc.obj
 0001:00020609       __vsnwprintf_s_l           10021609 f   LIBCMT:vswprnc.obj
 0001:0002070d       __vswprintf_c              1002170d f   LIBCMT:vswprnc.obj
 0001:00020734       __vswprintf_c_l            10021734 f   LIBCMT:vswprnc.obj
 0001:0002075c       __vswprintf_helper         1002175c f   LIBCMT:vswprnc.obj
 0001:00020857       __vswprintf_p              10021857 f   LIBCMT:vswprnc.obj
 0001:0002087e       __vswprintf_p_l            1002187e f   LIBCMT:vswprnc.obj
 0001:000208a6       __vswprintf_s_l            100218a6 f   LIBCMT:vswprnc.obj
 0001:0002091d       _vswprintf_s               1002191d f   LIBCMT:vswprnc.obj
 0001:00020938       ___crtMessageBoxW          10021938 f   LIBCMT:crtmboxw.obj
 0001:00020b1e       ___crtMessageBoxWaitThreadW@4 10021b1e f   LIBCMT:crtmboxw.obj
 0001:00020b3c       __XcptFilter               10021b3c f   LIBCMT:winxfltr.obj
 0001:00020c97       ___CppXcptFilter           10021c97 f   LIBCMT:winxfltr.obj
 0001:00020ce9       ___get_flsindex            10021ce9 f   LIBCMT:tidtable.obj
 0001:00020cef       ___threadhandle            10021cef f   LIBCMT:tidtable.obj
 0001:00020cf5       ___threadid                10021cf5 f   LIBCMT:tidtable.obj
 0001:00020cfb       __freefls@4                10021cfb f   LIBCMT:tidtable.obj
 0001:00020e30       __freeptd                  10021e30 f   LIBCMT:tidtable.obj
 0001:00020e66       __getptd                   10021e66 f   LIBCMT:tidtable.obj
 0001:00020e7e       __getptd_noexit            10021e7e f   LIBCMT:tidtable.obj
 0001:00020eed       __initptd                  10021eed f   LIBCMT:tidtable.obj
 0001:00020fa0       __mtinit                   10021fa0 f   LIBCMT:tidtable.obj
 0001:00021016       __mtterm                   10022016 f   LIBCMT:tidtable.obj
 0001:00021033       __set_pgmptr               10022033 f i LIBCMT:stdargv.obj
 0001:00021040       __setargv                  10022040 f   LIBCMT:stdargv.obj
 0001:0002126f       __setenvp                  1002226f f   LIBCMT:stdenvp.obj
 0001:00021350       ___security_init_cookie    10022350 f   LIBCMT:gs_support.obj
 0001:000213ec       ___crtGetEnvironmentStringsA 100223ec f   LIBCMT:a_env.obj
 0001:00021480       _strlen                    10022480 f   LIBCMT:strlen.obj
 0001:0002150b       _wcsncpy_s                 1002250b f   LIBCMT:wcsncpy_s.obj
 0001:000215c9       __output_s_l               100225c9 f   LIBCMT:outputs.obj
 0001:00022251       __output_p_l               10023251 f   LIBCMT:outputp.obj
 0001:00023589       __validate_param_reuseA    10024589 f   LIBCMT:outputp.obj
 0001:000236bf       _get_crtdouble_arg         100246bf f i LIBCMT:outputp.obj
 0001:000237be       __isatty                   100247be f   LIBCMT:isatty.obj
 0001:00023812       ___addlocaleref            10024812 f   LIBCMT:localref.obj
 0001:000238a7       ___freetlocinfo            100248a7 f   LIBCMT:localref.obj
 0001:00023a01       ___removelocaleref         10024a01 f   LIBCMT:localref.obj
 0001:00023aa1       ___updatetlocinfo          10024aa1 f   LIBCMT:localref.obj
 0001:00023b21       __updatetlocinfoEx_nolock  10024b21 f   LIBCMT:localref.obj
 0001:00023b6c       ___iswcsym                 10024b6c f i LIBCMT:_wctype.obj
 0001:00023b90       ___iswcsymf                10024b90 f i LIBCMT:_wctype.obj
 0001:00023bb4       __isleadbyte_l             10024bb4 f i LIBCMT:_wctype.obj
 0001:00023bee       __iswalnum_l               10024bee f i LIBCMT:_wctype.obj
 0001:00023c02       __iswalpha_l               10024c02 f i LIBCMT:_wctype.obj
 0001:00023c16       __iswblank_l               10024c16 f i LIBCMT:_wctype.obj
 0001:00023c31       __iswcntrl_l               10024c31 f i LIBCMT:_wctype.obj
 0001:00023c42       __iswcsym_l                10024c42 f i LIBCMT:_wctype.obj
 0001:00023c66       __iswcsymf_l               10024c66 f i LIBCMT:_wctype.obj
 0001:00023c8a       __iswdigit_l               10024c8a f i LIBCMT:_wctype.obj
 0001:00023c9b       __iswgraph_l               10024c9b f i LIBCMT:_wctype.obj
 0001:00023caf       __iswlower_l               10024caf f i LIBCMT:_wctype.obj
 0001:00023cc0       __iswprint_l               10024cc0 f i LIBCMT:_wctype.obj
 0001:00023cd4       __iswpunct_l               10024cd4 f i LIBCMT:_wctype.obj
 0001:00023ce5       __iswspace_l               10024ce5 f i LIBCMT:_wctype.obj
 0001:00023cf6       __iswupper_l               10024cf6 f i LIBCMT:_wctype.obj
 0001:00023d07       __iswxdigit_l              10024d07 f i LIBCMT:_wctype.obj
 0001:00023d1b       _isleadbyte                10024d1b f i LIBCMT:_wctype.obj
 0001:00023d2c       _iswalnum                  10024d2c f i LIBCMT:_wctype.obj
 0001:00023d40       _iswalpha                  10024d40 f i LIBCMT:_wctype.obj
 0001:00023d54       _iswascii                  10024d54 f i LIBCMT:_wctype.obj
 0001:00023d66       _iswblank                  10024d66 f i LIBCMT:_wctype.obj
 0001:00023d81       _iswcntrl                  10024d81 f i LIBCMT:_wctype.obj
 0001:00023d92       _iswdigit                  10024d92 f i LIBCMT:_wctype.obj
 0001:00023da3       _iswgraph                  10024da3 f i LIBCMT:_wctype.obj
 0001:00023db7       _iswlower                  10024db7 f i LIBCMT:_wctype.obj
 0001:00023dc8       _iswprint                  10024dc8 f i LIBCMT:_wctype.obj
 0001:00023ddc       _iswpunct                  10024ddc f i LIBCMT:_wctype.obj
 0001:00023ded       _iswspace                  10024ded f i LIBCMT:_wctype.obj
 0001:00023dfe       _iswupper                  10024dfe f i LIBCMT:_wctype.obj
 0001:00023e0f       _iswxdigit                 10024e0f f i LIBCMT:_wctype.obj
 0001:00023e23       __wctomb_l                 10024e23 f   LIBCMT:wctomb.obj
 0001:00023e72       __wctomb_s_l               10024e72 f   LIBCMT:wctomb.obj
 0001:00023f96       _wctomb                    10024f96 f   LIBCMT:wctomb.obj
 0001:00023fc9       _wctomb_s                  10024fc9 f   LIBCMT:wctomb.obj
 0001:00023ff0       __aulldvrm                 10024ff0 f   LIBCMT:ulldvrm.obj
 0001:00024085       ___isascii                 10025085 f i LIBCMT:_ctype.obj
 0001:00024095       ___iscsym                  10025095 f i LIBCMT:_ctype.obj
 0001:000240b5       ___iscsymf                 100250b5 f i LIBCMT:_ctype.obj
 0001:000240d2       ___toascii                 100250d2 f i LIBCMT:_ctype.obj
 0001:000240dd       __isalnum_l                100250dd f i LIBCMT:_ctype.obj
 0001:00024135       __isalpha_l                10025135 f i LIBCMT:_ctype.obj
 0001:0002418d       __isblank_l                1002518d f i LIBCMT:_ctype.obj
 0001:000241e7       __iscntrl_l                100251e7 f i LIBCMT:_ctype.obj
 0001:00024239       __iscsym_l                 10025239 f i LIBCMT:_ctype.obj
 0001:0002425a       __iscsymf_l                1002525a f i LIBCMT:_ctype.obj
 0001:0002427b       __isdigit_l                1002527b f i LIBCMT:_ctype.obj
 0001:000242cd       __isgraph_l                100252cd f i LIBCMT:_ctype.obj
 0001:00024325       __islower_l                10025325 f i LIBCMT:_ctype.obj
 0001:00024377       __isprint_l                10025377 f i LIBCMT:_ctype.obj
 0001:000243cf       __ispunct_l                100253cf f i LIBCMT:_ctype.obj
 0001:00024421       __isspace_l                10025421 f i LIBCMT:_ctype.obj
 0001:00024473       __isupper_l                10025473 f i LIBCMT:_ctype.obj
 0001:000244c5       __isxdigit_l               100254c5 f i LIBCMT:_ctype.obj
 0001:0002451d       _isalnum                   1002551d f i LIBCMT:_ctype.obj
 0001:0002454a       _isalpha                   1002554a f i LIBCMT:_ctype.obj
 0001:00024577       _isblank                   10025577 f i LIBCMT:_ctype.obj
 0001:000245ac       _iscntrl                   100255ac f i LIBCMT:_ctype.obj
 0001:000245d7       _isdigit                   100255d7 f i LIBCMT:_ctype.obj
 0001:00024602       _isgraph                   10025602 f i LIBCMT:_ctype.obj
 0001:0002462f       _islower                   1002562f f i LIBCMT:_ctype.obj
 0001:0002465a       _isprint                   1002565a f i LIBCMT:_ctype.obj
 0001:00024687       _ispunct                   10025687 f i LIBCMT:_ctype.obj
 0001:000246b2       _isspace                   100256b2 f i LIBCMT:_ctype.obj
 0001:000246dd       _isupper                   100256dd f i LIBCMT:_ctype.obj
 0001:00024708       _isxdigit                  10025708 f i LIBCMT:_ctype.obj
 0001:00024735       __tolower                  10025735 f   LIBCMT:tolower.obj
 0001:00024740       __tolower_l                10025740 f   LIBCMT:tolower.obj
 0001:00024883       _tolower                   10025883 f   LIBCMT:tolower.obj
 0001:000248af       _strcpy_s                  100258af f   LIBCMT:strcpy_s.obj
 0001:00024910       _strrchr                   10025910 f   LIBCMT:strrchr.obj
 0001:00024a47       __fptostr                  10025a47 f   LIBCMT:_fptostr.obj
 0001:00024af7       ___crt_atoflt_l            10025af7 f   LIBCMT:atodbl.obj
 0001:00024b9b       __atodbl                   10025b9b f   LIBCMT:atodbl.obj
 0001:00024bb0       __atodbl_l                 10025bb0 f   LIBCMT:atodbl.obj
 0001:00024c3e       __atoflt                   10025c3e f   LIBCMT:atodbl.obj
 0001:00024c53       __atoflt_l                 10025c53 f   LIBCMT:atodbl.obj
 0001:00024c6b       __atoldbl                  10025c6b f   LIBCMT:atodbl.obj
 0001:00024c80       __atoldbl_l                10025c80 f   LIBCMT:atodbl.obj
 0001:00024d0f       ___dtold                   10025d0f f   LIBCMT:cfout.obj
 0001:00024dd7       __fltout2                  10025dd7 f   LIBCMT:cfout.obj
 0001:00024e70       __alldvrm                  10025e70 f   LIBCMT:lldvrm.obj
 0001:00024f50       __aullshr                  10025f50 f   LIBCMT:ullshr.obj
 0001:00024f6f       __get_output_format        10025f6f f   LIBCMT:outputformat.obj
 0001:00024f75       __set_output_format        10025f75 f   LIBCMT:outputformat.obj
 0001:00024fa7       __controlfp_s              10025fa7 f   LIBCMT:contrlfp.obj
 0001:00025004       __fptrap                   10026004 f   LIBCMT:crt0fp.obj
 0001:0002500d       __msize                    1002600d f   LIBCMT:msize.obj
 0001:0002503e       __recalloc                 1002603e f   LIBCMT:recalloc.obj
 0001:000250a7       _strncpy_s                 100260a7 f   LIBCMT:strncpy_s.obj
 0001:0002522f       __MallocaIsSizeInRange     1002622f f i LIBCMT:a_loc.obj
 0001:00025240       __MarkAllocaS              10026240 f i LIBCMT:a_loc.obj
 0001:00025254       ___crtGetLocaleInfoA       10026254 f   LIBCMT:a_loc.obj
 0001:0002528e       __freea                    1002628e f i LIBCMT:a_loc.obj
 0001:000252ac       _GetTableIndexFromLcid     100262ac f   LIBCMT:winapinls.obj
 0001:000252e1       _GetTableIndexFromLocaleName 100262e1 f   LIBCMT:winapinls.obj
 0001:0002532f       ___crtCompareStringEx      1002632f f   LIBCMT:winapinls.obj
 0001:0002537b       ___crtDownlevelLCIDToLocaleName 1002637b f   LIBCMT:winapinls.obj
 0001:000253f7       ___crtDownlevelLocaleNameToLCID 100263f7 f   LIBCMT:winapinls.obj
 0001:00025435       ___crtEnumSystemLocalesEx  10026435 f   LIBCMT:winapinls.obj
 0001:00025472       ___crtGetDateFormatEx      10026472 f   LIBCMT:winapinls.obj
 0001:000254bb       ___crtGetLocaleInfoEx      100264bb f   LIBCMT:winapinls.obj
 0001:000254ea       ___crtGetTimeFormatEx      100264ea f   LIBCMT:winapinls.obj
 0001:0002551f       ___crtGetUserDefaultLocaleName 1002651f f   LIBCMT:winapinls.obj
 0001:0002554a       ___crtIsValidLocaleName    1002654a f   LIBCMT:winapinls.obj
 0001:00025575       ___crtLCMapStringEx        10026575 f   LIBCMT:winapinls.obj
 0001:000255c1       ___wcsnicmp_ascii          100265c1 f   LIBCMT:winapinls.obj
 0001:00025853       ___crtLCMapStringA         10026853 f   LIBCMT:a_map.obj
 0001:00025991       ___crtGetStringTypeA       10026991 f   LIBCMT:a_str.obj
 0001:000259d1       __commit                   100269d1 f   LIBCMT:commit.obj
 0001:00025aba       ___lock_fhandle            10026aba f   LIBCMT:osfinfo.obj
 0001:00025b48       __alloc_osfhnd             10026b48 f   LIBCMT:osfinfo.obj
 0001:00025cf1       __free_osfhnd              10026cf1 f   LIBCMT:osfinfo.obj
 0001:00025d77       __get_osfhandle            10026d77 f   LIBCMT:osfinfo.obj
 0001:00025dde       __open_osfhandle           10026dde f   LIBCMT:osfinfo.obj
 0001:00025ef4       __set_osfhnd               10026ef4 f   LIBCMT:osfinfo.obj
 0001:00025f76       __unlock_fhandle           10026f76 f   LIBCMT:osfinfo.obj
 0001:00025f9c       __open                     10026f9c f   LIBCMT:open.obj
 0001:0002604c       __sopen                    1002704c f   LIBCMT:open.obj
 0001:0002607f       __sopen_helper             1002707f f   LIBCMT:open.obj
 0001:00026148       __sopen_nolock             10027148 f   LIBCMT:open.obj
 0001:00026196       __sopen_s                  10027196 f   LIBCMT:open.obj
 0001:000261b4       __mbsnbcmp                 100271b4 f   LIBCMT:mbsnbcmp.obj
 0001:000261cc       __mbsnbcmp_l               100271cc f   LIBCMT:mbsnbcmp.obj
 0001:000262e3       __mbsnbicmp                100272e3 f   LIBCMT:mbsnbicm.obj
 0001:000262fb       __mbsnbicmp_l              100272fb f   LIBCMT:mbsnbicm.obj
 0001:000264c0       __global_unwind2           100274c0 f   LIBCMT:exsup.obj
 0001:00026525       __local_unwind2            10027525 f   LIBCMT:exsup.obj
 0001:000265a9       __abnormal_termination     100275a9 f   LIBCMT:exsup.obj
 0001:000265cc       __NLG_Notify1              100275cc f   LIBCMT:exsup.obj
 0001:000265d5       __NLG_Notify               100275d5 f   LIBCMT:exsup.obj
 0001:000265ec       __NLG_Dispatch2            100275ec     LIBCMT:exsup.obj
 0001:000265ec       __NLG_Dispatch             100275ec     LIBCMT:exsup.obj
 0001:000265f4       __NLG_Call                 100275f4 f   LIBCMT:exsup.obj
 0001:000265f6       __NLG_Return2              100275f6     LIBCMT:exsup.obj
 0001:000265f7       __getbuf                   100275f7 f   LIBCMT:_getbuf.obj
 0001:0002663d       __lseeki64                 1002763d f   LIBCMT:lseeki64.obj
 0001:00026739       __lseeki64_nolock          10027739 f   LIBCMT:lseeki64.obj
 0001:000267ac       __mbtowc_l                 100277ac f   LIBCMT:mbtowc.obj
 0001:000268a1       _mbtowc                    100278a1 f   LIBCMT:mbtowc.obj
 0001:000268b9       __putwch                   100278b9 f   LIBCMT:putwch.obj
 0001:00026905       __putwch_nolock            10027905 f   LIBCMT:putwch.obj
 0001:00026950       __chkstk                   10027950 f   LIBCMT:chkstk.obj
 0001:00026950       __alloca_probe             10027950 f   LIBCMT:chkstk.obj
 0001:0002697b       __matherr                  1002797b f   LIBCMT:matherr.obj
 0001:0002697e       __vfwprintf_l              1002797e f   LIBCMT:vfwprint.obj
 0001:0002699c       __vfwprintf_p              1002799c f   LIBCMT:vfwprint.obj
 0001:000269b9       __vfwprintf_p_l            100279b9 f   LIBCMT:vfwprint.obj
 0001:000269d7       __vfwprintf_s_l            100279d7 f   LIBCMT:vfwprint.obj
 0001:000269f5       _vfwprintf                 100279f5 f   LIBCMT:vfwprint.obj
 0001:00026a12       _vfwprintf_helper          10027a12 f   LIBCMT:vfwprint.obj
 0001:00026aa5       _vfwprintf_s               10027aa5 f   LIBCMT:vfwprint.obj
 0001:00026ac2       __woutput_l                10027ac2 f   LIBCMT:woutput.obj
 0001:000277a1       __woutput_s_l              100287a1 f   LIBCMT:woutputs.obj
 0001:000284b8       __validate_param_reuseW    100294b8 f   LIBCMT:woutputp.obj
 0001:00028630       __woutput_p_l              10029630 f   LIBCMT:woutputp.obj
 0001:00029a59       __ismbbalnum               1002aa59 f   LIBCMT:ismbbyte.obj
 0001:00029a72       __ismbbalnum_l             1002aa72 f   LIBCMT:ismbbyte.obj
 0001:00029a8c       __ismbbalpha               1002aa8c f   LIBCMT:ismbbyte.obj
 0001:00029aa5       __ismbbalpha_l             1002aaa5 f   LIBCMT:ismbbyte.obj
 0001:00029abf       __ismbbblank               1002aabf f   LIBCMT:ismbbyte.obj
 0001:00029ae0       __ismbbblank_l             1002aae0 f   LIBCMT:ismbbyte.obj
 0001:00029b02       __ismbbgraph               1002ab02 f   LIBCMT:ismbbyte.obj
 0001:00029b1b       __ismbbgraph_l             1002ab1b f   LIBCMT:ismbbyte.obj
 0001:00029b35       __ismbbkalnum              1002ab35 f   LIBCMT:ismbbyte.obj
 0001:00029b4b       __ismbbkalnum_l            1002ab4b f   LIBCMT:ismbbyte.obj
 0001:00029b62       __ismbbkana                1002ab62 f   LIBCMT:ismbbyte.obj
 0001:00029b73       __ismbbkana_l              1002ab73 f   LIBCMT:ismbbyte.obj
 0001:00029bbf       __ismbbkprint              1002abbf f   LIBCMT:ismbbyte.obj
 0001:00029bd5       __ismbbkprint_l            1002abd5 f   LIBCMT:ismbbyte.obj
 0001:00029bec       __ismbbkpunct              1002abec f   LIBCMT:ismbbyte.obj
 0001:00029c02       __ismbbkpunct_l            1002ac02 f   LIBCMT:ismbbyte.obj
 0001:00029c19       __ismbblead                1002ac19 f   LIBCMT:ismbbyte.obj
 0001:00029c2f       __ismbblead_l              1002ac2f f   LIBCMT:ismbbyte.obj
 0001:00029c46       __ismbbprint               1002ac46 f   LIBCMT:ismbbyte.obj
 0001:00029c5f       __ismbbprint_l             1002ac5f f   LIBCMT:ismbbyte.obj
 0001:00029c79       __ismbbpunct               1002ac79 f   LIBCMT:ismbbyte.obj
 0001:00029c8f       __ismbbpunct_l             1002ac8f f   LIBCMT:ismbbyte.obj
 0001:00029ca6       __ismbbtrail               1002aca6 f   LIBCMT:ismbbyte.obj
 0001:00029cbc       __ismbbtrail_l             1002acbc f   LIBCMT:ismbbyte.obj
 0001:00029ef9       __strtol_l                 1002aef9 f   LIBCMT:strtol.obj
 0001:00029f14       __strtoul_l                1002af14 f   LIBCMT:strtol.obj
 0001:00029f2f       _strtol                    1002af2f f   LIBCMT:strtol.obj
 0001:00029f59       _strtoul                   1002af59 f   LIBCMT:strtol.obj
 0001:00029f83       ___free_lconv_mon          1002af83 f   LIBCMT:initmon.obj
 0001:0002a07f       ___init_monetary           1002b07f f   LIBCMT:initmon.obj
 0001:0002a458       ___free_lconv_num          1002b458 f   LIBCMT:initnum.obj
 0001:0002a4bf       ___init_numeric            1002b4bf f   LIBCMT:initnum.obj
 0001:0002a6fd       ___free_lc_time            1002b6fd f   LIBCMT:inittime.obj
 0001:0002aa7d       ___init_time               1002ba7d f   LIBCMT:inittime.obj
 0001:0002b2ec       _localeconv                1002c2ec f   LIBCMT:lconv.obj
 0001:0002b312       __iswctype_l               1002c312 f   LIBCMT:iswctype.obj
 0001:0002b324       _is_wctype                 1002c324 f   LIBCMT:iswctype.obj
 0001:0002b32d       _iswctype                  1002c32d f   LIBCMT:iswctype.obj
 0001:0002b383       ____lc_codepage_func       1002c383 f   LIBCMT:initctyp.obj
 0001:0002b3a9       ____lc_collate_cp_func     1002c3a9 f   LIBCMT:initctyp.obj
 0001:0002b3cf       ____lc_locale_name_func    1002c3cf f   LIBCMT:initctyp.obj
 0001:0002b3f7       ____mb_cur_max_func        1002c3f7 f   LIBCMT:initctyp.obj
 0001:0002b41d       ____mb_cur_max_l_func      1002c41d f   LIBCMT:initctyp.obj
 0001:0002b434       ___init_ctype              1002c434 f   LIBCMT:initctyp.obj
 0001:0002b7cc       ___pctype_func             1002c7cc f   LIBCMT:ctype.obj
 0001:0002b7f5       ___pwctype_func            1002c7f5 f   LIBCMT:ctype.obj
 0001:0002b7fb       __isctype                  1002c7fb f   LIBCMT:isctype.obj
 0001:0002b82a       __isctype_l                1002c82a f   LIBCMT:isctype.obj
 0001:0002b8db       ___init_dummy              1002c8db f   LIBCMT:wsetloca.obj
 0001:0002b8de       __locterm                  1002c8de f   LIBCMT:wsetloca.obj
 0001:0002b930       ____setlc_active_func      1002c930 f   LIBCMT:wsetloca.obj
 0001:0002b936       ____unguarded_readlc_active_add_func 1002c936 f   LIBCMT:wsetloca.obj
 0001:0002b93c       ___copy_locale_name        1002c93c f   LIBCMT:wsetloca.obj
 0001:0002b9a0       ___create_locale           1002c9a0 f   LIBCMT:wsetloca.obj
 0001:0002b9a9       ___free_locale             1002c9a9 f   LIBCMT:wsetloca.obj
 0001:0002b9ae       ___get_current_locale      1002c9ae f   LIBCMT:wsetloca.obj
 0001:0002b9b3       ___lc_lctowcs              1002c9b3 f   LIBCMT:wsetloca.obj
 0001:0002ba21       ___lc_wcstolc              1002ca21 f   LIBCMT:wsetloca.obj
 0001:0002bb4d       __configthreadlocale       1002cb4d f   LIBCMT:wsetloca.obj
 0001:0002bbd3       __create_locale            1002cbd3 f   LIBCMT:wsetloca.obj
 0001:0002bc35       __expandlocale             1002cc35 f   LIBCMT:wsetloca.obj
 0001:0002bf2c       __free_locale              1002cf2c f   LIBCMT:wsetloca.obj
 0001:0002bfe3       __get_current_locale       1002cfe3 f   LIBCMT:wsetloca.obj
 0001:0002c092       __wcreate_locale           1002d092 f   LIBCMT:wsetloca.obj
 0001:0002c169       __wcscats                  1002d169 f   LIBCMT:wsetloca.obj
 0001:0002c1a8       __wsetlocale               1002d1a8 f   LIBCMT:wsetloca.obj
 0001:0002caea       __CopyMan                  1002daea f i LIBCMT:intrncvt.obj
 0001:0002cb07       __FillZeroMan              1002db07 f i LIBCMT:intrncvt.obj
 0001:0002cb16       __IncMan                   1002db16 f i LIBCMT:intrncvt.obj
 0001:0002cb78       __IsZeroMan                1002db78 f i LIBCMT:intrncvt.obj
 0001:0002cb95       __RoundMan                 1002db95 f i LIBCMT:intrncvt.obj
 0001:0002cc96       __ShrMan                   1002dc96 f i LIBCMT:intrncvt.obj
 0001:0002cd24       __ZeroTail                 1002dd24 f i LIBCMT:intrncvt.obj
 0001:0002cd6c       ___addl                    1002dd6c f i LIBCMT:intrncvt.obj
 0001:0002cd90       __ld12cvt                  1002dd90 f i LIBCMT:intrncvt.obj
 0001:0002d2fb       __ld12tod                  1002e2fb f   LIBCMT:intrncvt.obj
 0001:0002d86d       __ld12tof                  1002e86d f   LIBCMT:intrncvt.obj
 0001:0002dddf       __ld12told                 1002eddf f   LIBCMT:intrncvt.obj
 0001:0002deae       ___STRINGTOLD_L            1002eeae f   LIBCMT:strgtold.obj
 0001:0002df09       ___ld12mul                 1002ef09 f i LIBCMT:strgtold.obj
 0001:0002e1d5       ___multtenpow12            1002f1d5 f i LIBCMT:strgtold.obj
 0001:0002e528       ___shl_12                  1002f528 f i LIBCMT:strgtold.obj
 0001:0002e559       ___shr_12                  1002f559 f i LIBCMT:strgtold.obj
 0001:0002e589       ___strgtold12_l            1002f589 f   LIBCMT:strgtold.obj
 0001:0002ed31       _$I10_OUTPUT               1002fd31 f   LIBCMT:x10fout.obj
 0001:0002f705       ___add_12                  10030705 f i LIBCMT:x10fout.obj
 0001:0002f8b1       ___control87_2             100308b1 f   LIBCMT:ieee87.obj
 0001:0002ff25       __clearfp                  10030f25 f   LIBCMT:ieee87.obj
 0001:00030005       __control87                10031005 f i LIBCMT:ieee87.obj
 0001:00030307       __controlfp                10031307 f   LIBCMT:ieee87.obj
 0001:00030612       __fpreset                  10031612 f   LIBCMT:ieee87.obj
 0001:000306df       __set_controlfp            100316df f   LIBCMT:ieee87.obj
 0001:00030752       __statusfp                 10031752 f   LIBCMT:ieee87.obj
 0001:000307ec       __statusfp2                100317ec f   LIBCMT:ieee87.obj
 0001:00030850       __alloca_probe_16          10031850 f   LIBCMT:alloca16.obj
 0001:00030866       __alloca_probe_8           10031866     LIBCMT:alloca16.obj
 0001:0003087c       _wcsnlen                   1003187c f   LIBCMT:wcslen_s.obj
 0001:00030923       __wopen                    10031923 f   LIBCMT:wopen.obj
 0001:000309d3       __wsopen                   100319d3 f   LIBCMT:wopen.obj
 0001:00030a06       __wsopen_helper            10031a06 f   LIBCMT:wopen.obj
 0001:00030acf       __wsopen_nolock            10031acf f   LIBCMT:wopen.obj
 0001:00031222       __wsopen_s                 10032222 f   LIBCMT:wopen.obj
 0001:00031240       _strncmp                   10032240 f   LIBCMT:strncmp.obj
 0001:000312b8       __strnicmp                 100322b8 f   LIBCMT:strnicmp.obj
 0001:00031323       __strnicmp_l               10032323 f   LIBCMT:strnicmp.obj
 0001:000313d4       ___termconout              100323d4 f   LIBCMT:initcon.obj
 0001:000313eb       ___initconout              100323eb f   LIBCMT:initcon.obj
 0001:0003140a       __fputwc_nolock            1003240a f   LIBCMT:fputwc.obj
 0001:00031590       _fputwc                    10032590 f   LIBCMT:fputwc.obj
 0001:00031607       _putwc                     10032607 f   LIBCMT:fputwc.obj
 0001:000317f1       __wcstol_l                 100327f1 f   LIBCMT:wcstol.obj
 0001:00031809       __wcstoul_l                10032809 f   LIBCMT:wcstol.obj
 0001:00031821       _wcstol                    10032821 f   LIBCMT:wcstol.obj
 0001:00031839       _wcstoul                   10032839 f   LIBCMT:wcstol.obj
 0001:00031851       ___init_collate            10032851 f   LIBCMT:initcoll.obj
 0001:00031971       _memcmp                    10032971 f   LIBCMT:memcmp.obj
 0001:00034885       _wcscmp                    10035885 f   LIBCMT:wcscmp.obj
 0001:000348c3       _wcscspn                   100358c3 f   LIBCMT:wcscspn.obj
 0001:0003490e       _wcsncmp                   1003590e f   LIBCMT:wcsncmp.obj
 0001:00034944       _wcspbrk                   10035944 f   LIBCMT:wcspbrk.obj
 0001:00034f48       ___get_qualified_locale    10035f48 f   LIBCMT:getqloc.obj
 0001:000357b8       ___get_qualified_locale_downlevel 100367b8 f   LIBCMT:getqloc_downlevel.obj
 0001:000359d4       ___mtold12                 100369d4 f   LIBCMT:mantold.obj
 0001:00035bb4       __chsize                   10036bb4 f   LIBCMT:chsize.obj
 0001:00035bce       __chsize_nolock            10036bce f   LIBCMT:chsize.obj
 0001:00035d84       __chsize_s                 10036d84 f   LIBCMT:chsize.obj
 0001:00035e72       __get_fmode                10036e72 f   LIBCMT:setmode.obj
 0001:00035e9c       __set_fmode                10036e9c f   LIBCMT:setmode.obj
 0001:00035ed7       __setmode                  10036ed7 f   LIBCMT:setmode.obj
 0001:00035fdc       __setmode_nolock           10036fdc f   LIBCMT:setmode.obj
 0001:000360b0       ___ascii_strnicmp          100370b0 f   LIBCMT:_strnicm.obj
 0001:00036111       __flswbuf                  10037111 f   LIBCMT:_flswbuf.obj
 0001:00036273       __wchartodigit             10037273 f   LIBCMT:wchtodig.obj
 0001:00036412       __wtoi                     10037412 f   LIBCMT:wtox.obj
 0001:0003641b       __wtoi64                   1003741b f   LIBCMT:wtox.obj
 0001:0003642f       __wtoi64_l                 1003742f f   LIBCMT:wtox.obj
 0001:00036446       __wtoi_l                   10037446 f   LIBCMT:wtox.obj
 0001:0003644f       __wtol                     1003744f f   LIBCMT:wtox.obj
 0001:00036463       __wtol_l                   10037463 f   LIBCMT:wtox.obj
 0001:0003647a       __wtoll                    1003747a f   LIBCMT:wtox.obj
 0001:0003648e       __wtoll_l                  1003748e f   LIBCMT:wtox.obj
 0001:000364a5       _wcschr                    100374a5 f   LIBCMT:wcschr.obj
 0001:00036553       __wcsicmp                  10037553 f   LIBCMT:wcsicmp.obj
 0001:000365e6       __wcsicmp_l                100375e6 f   LIBCMT:wcsicmp.obj
 0001:000366c1       __wcsnicmp                 100376c1 f   LIBCMT:wcsnicmp.obj
 0001:00036777       __wcsnicmp_l               10037777 f   LIBCMT:wcsnicmp.obj
 0001:00036b40       __wcstof_l                 10037b40 f   LIBCMT:wcstoq.obj
 0001:00036bf3       __wcstoi64                 10037bf3 f   LIBCMT:wcstoq.obj
 0001:00036c1d       __wcstoi64_l               10037c1d f   LIBCMT:wcstoq.obj
 0001:00036c38       __wcstoimax_l              10037c38 f   LIBCMT:wcstoq.obj
 0001:00036c41       __wcstold_l                10037c41 f   LIBCMT:wcstoq.obj
 0001:00036c4a       __wcstoll_l                10037c4a f   LIBCMT:wcstoq.obj
 0001:00036c53       __wcstoui64                10037c53 f   LIBCMT:wcstoq.obj
 0001:00036c7d       __wcstoui64_l              10037c7d f   LIBCMT:wcstoq.obj
 0001:00036c98       __wcstoull_l               10037c98 f   LIBCMT:wcstoq.obj
 0001:00036ca1       __wcstoumax_l              10037ca1 f   LIBCMT:wcstoq.obj
 0001:00036caa       _wcstof                    10037caa f   LIBCMT:wcstoq.obj
 0001:00036cbf       _wcstoimax                 10037cbf f   LIBCMT:wcstoq.obj
 0001:00036cc8       _wcstold                   10037cc8 f   LIBCMT:wcstoq.obj
 0001:00036cd1       _wcstoll                   10037cd1 f   LIBCMT:wcstoq.obj
 0001:00036cda       _wcstoull                  10037cda f   LIBCMT:wcstoq.obj
 0001:00036ce3       _wcstoumax                 10037ce3 f   LIBCMT:wcstoq.obj
 0001:00036cec       __towlower_l               10037cec f   LIBCMT:towlower.obj
 0001:00036d9d       _towlower                  10037d9d f   LIBCMT:towlower.obj
 0001:00036dae       __wcstod_l                 10037dae f   LIBCMT:wcstod.obj
 0001:00036ea9       _wcstod                    10037ea9 f   LIBCMT:wcstod.obj
 0001:00036ec0       __allmul                   10037ec0 f   LIBCMT:llmul.obj
 0001:00036ef4       ___crtLCMapStringW         10037ef4 f   LIBCMT:w_map.obj
 0001:00036f23       __wfltin2                  10037f23 f   LIBCMT:wcfin.obj
 0001:00036fd0       ___WSTRINGTOLD_L           10037fd0 f   LIBCMT:wstrgtold.obj
 0001:0003702b       ___wstrgtold12_l           1003802b f   LIBCMT:wstrgtold.obj
 0001:0003787c       _GetModuleHandleA@4        1003887c f   kernel32:KERNEL32.dll
 0001:00037882       _GetProcAddress@8          10038882 f   kernel32:KERNEL32.dll
 0001:00037888       _HeapAlloc@12              10038888 f   kernel32:KERNEL32.dll
 0001:0003788e       _IsDebuggerPresent@0       1003888e f   kernel32:KERNEL32.dll
 0001:00037894       _IsProcessorFeaturePresent@4 10038894 f   kernel32:KERNEL32.dll
 0001:0003789a       _EncodePointer@4           1003889a f   kernel32:KERNEL32.dll
 0001:000378a0       _DecodePointer@4           100388a0 f   kernel32:KERNEL32.dll
 0001:000378a6       _GetLastError@0            100388a6 f   kernel32:KERNEL32.dll
 0001:000378ac       _ExitProcess@4             100388ac f   kernel32:KERNEL32.dll
 0001:000378b2       _GetModuleHandleExW@12     100388b2 f   kernel32:KERNEL32.dll
 0001:000378b8       _AreFileApisANSI@0         100388b8 f   kernel32:KERNEL32.dll
 0001:000378be       _MultiByteToWideChar@24    100388be f   kernel32:KERNEL32.dll
 0001:000378c4       _WideCharToMultiByte@32    100388c4 f   kernel32:KERNEL32.dll
 0001:000378ca       _HeapFree@12               100388ca f   kernel32:KERNEL32.dll
 0001:000378d0       _HeapReAlloc@16            100388d0 f   kernel32:KERNEL32.dll
 0001:000378d6       _EnterCriticalSection@4    100388d6 f   kernel32:KERNEL32.dll
 0001:000378dc       _LeaveCriticalSection@4    100388dc f   kernel32:KERNEL32.dll
 0001:000378e2       _GetStdHandle@4            100388e2 f   kernel32:KERNEL32.dll
 0001:000378e8       _GetFileType@4             100388e8 f   kernel32:KERNEL32.dll
 0001:000378ee       _GetModuleFileNameW@12     100388ee f   kernel32:KERNEL32.dll
 0001:000378f4       _WriteConsoleW@20          100388f4 f   kernel32:KERNEL32.dll
 0001:000378fa       _GetCommandLineA@0         100388fa f   kernel32:KERNEL32.dll
 0001:00037900       _GetCurrentThreadId@0      10038900 f   kernel32:KERNEL32.dll
 0001:00037906       _WriteFile@20              10038906 f   kernel32:KERNEL32.dll
 0001:0003790c       _GetProcessHeap@0          1003890c f   kernel32:KERNEL32.dll
 0001:00037912       _UnhandledExceptionFilter@4 10038912 f   kernel32:KERNEL32.dll
 0001:00037918       _SetUnhandledExceptionFilter@4 10038918 f   kernel32:KERNEL32.dll
 0001:0003791e       _SetLastError@4            1003891e f   kernel32:KERNEL32.dll
 0001:00037924       _InitializeCriticalSectionAndSpinCount@8 10038924 f   kernel32:KERNEL32.dll
 0001:0003792a       _CreateEventW@16           1003892a f   kernel32:KERNEL32.dll
 0001:00037930       _Sleep@4                   10038930 f   kernel32:KERNEL32.dll
 0001:00037936       _GetCurrentProcess@0       10038936 f   kernel32:KERNEL32.dll
 0001:0003793c       _TerminateProcess@8        1003893c f   kernel32:KERNEL32.dll
 0001:00037942       _TlsAlloc@0                10038942 f   kernel32:KERNEL32.dll
 0001:00037948       _TlsGetValue@4             10038948 f   kernel32:KERNEL32.dll
 0001:0003794e       _TlsSetValue@8             1003894e f   kernel32:KERNEL32.dll
 0001:00037954       _TlsFree@4                 10038954 f   kernel32:KERNEL32.dll
 0001:0003795a       _GetStartupInfoW@4         1003895a f   kernel32:KERNEL32.dll
 0001:00037960       _GetTickCount@0            10038960 f   kernel32:KERNEL32.dll
 0001:00037966       _GetModuleHandleW@4        10038966 f   kernel32:KERNEL32.dll
 0001:0003796c       _CreateSemaphoreW@16       1003896c f   kernel32:KERNEL32.dll
 0001:00037972       _DeleteCriticalSection@4   10038972 f   kernel32:KERNEL32.dll
 0001:00037978       _FatalAppExitA@8           10038978 f   kernel32:KERNEL32.dll
 0001:0003797e       _SetConsoleCtrlHandler@8   1003897e f   kernel32:KERNEL32.dll
 0001:00037984       _FreeLibrary@4             10038984 f   kernel32:KERNEL32.dll
 0001:0003798a       _LoadLibraryExW@12         1003898a f   kernel32:KERNEL32.dll
 0001:00037990       _IsValidCodePage@4         10038990 f   kernel32:KERNEL32.dll
 0001:00037996       _GetACP@0                  10038996 f   kernel32:KERNEL32.dll
 0001:0003799c       _GetOEMCP@0                1003899c f   kernel32:KERNEL32.dll
 0001:000379a2       _GetCPInfo@8               100389a2 f   kernel32:KERNEL32.dll
 0001:000379a8       _CloseHandle@4             100389a8 f   kernel32:KERNEL32.dll
 0001:000379ae       _RtlUnwind@16              100389ae f   kernel32:KERNEL32.dll
 0001:000379b4       _ReadFile@20               100389b4 f   kernel32:KERNEL32.dll
 0001:000379ba       _GetConsoleMode@8          100389ba f   kernel32:KERNEL32.dll
 0001:000379c0       _ReadConsoleW@20           100389c0 f   kernel32:KERNEL32.dll
 0001:000379c6       _GetConsoleCP@0            100389c6 f   kernel32:KERNEL32.dll
 0001:000379cc       _DeleteFileW@4             100389cc f   kernel32:KERNEL32.dll
 0001:000379d2       _SetFilePointerEx@20       100389d2 f   kernel32:KERNEL32.dll
 0001:000379d8       _RaiseException@16         100389d8 f   kernel32:KERNEL32.dll
 0001:000379de       _OutputDebugStringW@4      100389de f   kernel32:KERNEL32.dll
 0001:000379e4       _GetCurrentThread@0        100389e4 f   kernel32:KERNEL32.dll
 0001:000379ea       _GetModuleFileNameA@12     100389ea f   kernel32:KERNEL32.dll
 0001:000379f0       _QueryPerformanceCounter@4 100389f0 f   kernel32:KERNEL32.dll
 0001:000379f6       _GetCurrentProcessId@0     100389f6 f   kernel32:KERNEL32.dll
 0001:000379fc       _GetSystemTimeAsFileTime@4 100389fc f   kernel32:KERNEL32.dll
 0001:00037a02       _GetEnvironmentStringsW@0  10038a02 f   kernel32:KERNEL32.dll
 0001:00037a08       _FreeEnvironmentStringsW@4 10038a08 f   kernel32:KERNEL32.dll
 0001:00037a0e       _HeapSize@12               10038a0e f   kernel32:KERNEL32.dll
 0001:00037a14       _GetDateFormatW@24         10038a14 f   kernel32:KERNEL32.dll
 0001:00037a1a       _GetTimeFormatW@24         10038a1a f   kernel32:KERNEL32.dll
 0001:00037a20       _CompareStringW@24         10038a20 f   kernel32:KERNEL32.dll
 0001:00037a26       _LCMapStringW@24           10038a26 f   kernel32:KERNEL32.dll
 0001:00037a2c       _GetLocaleInfoW@16         10038a2c f   kernel32:KERNEL32.dll
 0001:00037a32       _IsValidLocale@8           10038a32 f   kernel32:KERNEL32.dll
 0001:00037a38       _GetUserDefaultLCID@0      10038a38 f   kernel32:KERNEL32.dll
 0001:00037a3e       _EnumSystemLocalesW@8      10038a3e f   kernel32:KERNEL32.dll
 0001:00037a44       _GetStringTypeW@16         10038a44 f   kernel32:KERNEL32.dll
 0001:00037a4a       _FlushFileBuffers@4        10038a4a f   kernel32:KERNEL32.dll
 0001:00037a50       _SetStdHandle@8            10038a50 f   kernel32:KERNEL32.dll
 0001:00037a56       _CreateFileW@28            10038a56 f   kernel32:KERNEL32.dll
 0001:00037a5c       _SetEndOfFile@4            10038a5c f   kernel32:KERNEL32.dll
 0002:00000000       ___xc_a                    10043000     LIBCMT:crt0init.obj
 0002:00000104       ___xc_z                    10043104     LIBCMT:crt0init.obj
 0002:00000208       ___xi_a                    10043208     LIBCMT:crt0init.obj
 0002:00000420       ___xi_z                    10043420     LIBCMT:crt0init.obj
 0002:00000524       ___xp_a                    10043524     LIBCMT:crt0init.obj
 0002:00000838       ___xp_z                    10043838     LIBCMT:crt0init.obj
 0002:0000093c       ___xt_a                    1004393c     LIBCMT:crt0init.obj
 0002:00000a40       ___xt_z                    10043a40     LIBCMT:crt0init.obj
 0002:00000b88       _Pos_PID_M                 10043b88     Pos_PID.obj
 0002:00000b8c       ??_C@_0BI@PEBACBDB@Error?5creating?5scope?53?6?$AA@ 10043b8c     Pos_PID.obj
 0002:00000ba8       ??_C@_0BH@EKMHGNPN@X_Encoder?1count_to_mm1?$AA@ 10043ba8     Pos_PID.obj
 0002:00000bc4       ??_C@_0BI@PHJEPFFP@Error?5creating?5scope?51?6?$AA@ 10043bc4     Pos_PID.obj
 0002:00000be0       ??_C@_09LIAEOFKL@Xdata?4dat?$AA@ 10043be0     Pos_PID.obj
 0002:00000bec       ??_C@_0BI@PCNLODNK@Error?5creating?5scope?56?6?$AA@ 10043bec     Pos_PID.obj
 0002:00000c08       ??_C@_0BH@HFJGCGKD@Y_encoder?5?1count_to_mm?$AA@ 10043c08     Pos_PID.obj
 0002:00000c24       ??_C@_0BI@PBFPDHLE@Error?5creating?5scope?54?6?$AA@ 10043c24     Pos_PID.obj
 0002:00000c40       ??_C@_09FHMGIOJF@Ydata?4dat?$AA@ 10043c40     Pos_PID.obj
 0002:00000c4c       ??_C@_0BI@PDBJIJON@Error?5creating?5scope?57?6?$AA@ 10043c4c     Pos_PID.obj
 0002:00000c68       ??_C@_0BG@HNLKCFNF@Z_encoder?1count_to_mm?$AA@ 10043c68     Pos_PID.obj
 0002:00000c84       ??_C@_0BI@PJIHKEOH@Error?5creating?5scope?59?6?$AA@ 10043c84     Pos_PID.obj
 0002:00000ca0       ??_C@_09LMPBDFJG@Zdata?4dat?$AA@ 10043ca0     Pos_PID.obj
 0002:00000cac       ??_C@_0BI@PFNCELAG@Error?5creating?5scope?52?6?$AA@ 10043cac     Pos_PID.obj
 0002:00000cc8       ??_C@_0CE@EPPCEOKP@Force?5Subsystem?1Byte?5Unpacking?51@ 10043cc8     Pos_PID.obj
 0002:00000cf4       ??_C@_0CE@GENPBNGM@Force?5Subsystem?1Byte?5Unpacking?51@ 10043cf4     Pos_PID.obj
 0002:00000d20       ??_C@_0CE@HNMECMCN@Force?5Subsystem?1Byte?5Unpacking?51@ 10043d20     Pos_PID.obj
 0002:00000d4c       ??_C@_0BI@PAJNFNID@Error?5creating?5scope?55?6?$AA@ 10043d4c     Pos_PID.obj
 0002:00000d68       ??_C@_07FDDKLPMO@var?4dat?$AA@ 10043d68     Pos_PID.obj
 0002:00000d74       ??_C@_04GDMNHCBG@ode4?$AA@ 10043d74     Pos_PID.obj
 0002:00000d7c       ??_C@_04EPKDLPPB@tout?$AA@ 10043d7c     Pos_PID.obj
 0002:00000d82       ??_C@_00CNPNBAHC@?$AA@     10043d82     Pos_PID.obj
 0002:00000d84       ??_C@_03HBFGMJOD@rt_?$AA@  10043d84     Pos_PID.obj
 0002:00000d88       ??_C@_0BA@ILODDMJB@CNT32?98M?$CIPCI?$CJ?52?$AA@ 10043d88     Pos_PID.obj
 0002:00000d9c       ??_C@_0CC@KLPMAOFI@Pos_PID?1X_Encoder?1CNT32?98M?$CIPCI?$CJ?5@ 10043d9c     Pos_PID.obj
 0002:00000dc4       ??_C@_0BA@KAMOGPFC@CNT32?98M?$CIPCI?$CJ?51?$AA@ 10043dc4     Pos_PID.obj
 0002:00000dd8       ??_C@_0CD@KHPOEAEG@Pos_PID?1Y_encoder?5?1CNT32?98M?$CIPCI?$CJ@ 10043dd8     Pos_PID.obj
 0002:00000e04       ??_C@_0CC@GLENOIIO@Pos_PID?1Z_encoder?1CNT32?98M?$CIPCI?$CJ?5@ 10043e04     Pos_PID.obj
 0002:00000e2c       ??_C@_0O@GDKFENNN@PCI?9DDA08?512?5?$AA@ 10043e2c     Pos_PID.obj
 0002:00000e3c       ??_C@_0BG@KFNANGEK@Pos_PID?1PCI?9DDA08?512?5?$AA@ 10043e3c     Pos_PID.obj
 0002:00000e58       ??_C@_0BA@OBLCOPFK@PCI?9DDA?508?512?54?$AA@ 10043e58     Pos_PID.obj
 0002:00000e6c       ??_C@_0CM@MAOPNPGA@Pos_PID?1X?5output?5processing?1PCI?9@ 10043e6c     Pos_PID.obj
 0002:00000ea0       ??_C@_0BA@KOPDHJJN@PCI?9DDA?508?512?53?$AA@ 10043ea0     Pos_PID.obj
 0002:00000eb4       ??_C@_0CM@BKNOJNDC@Pos_PID?1Y?5output?5processing?1PCI?9@ 10043eb4     Pos_PID.obj
 0002:00000ee8       ??_C@_0P@MGKGOBE@PCI?9DDA08?512?53?$AA@ 10043ee8     Pos_PID.obj
 0002:00000efc       ??_C@_0CL@KBODMIPB@Pos_PID?1Z?5output?5processing?1PCI?9@ 10043efc     Pos_PID.obj
 0002:00000f30       ??_C@_0BA@JMMFBLBP@PCI?9DDA?508?512?51?$AA@ 10043f30     Pos_PID.obj
 0002:00000f44       ??_C@_0CM@EMAIIEEO@Pos_PID?1Z?5output?5processing?1PCI?9@ 10043f44     Pos_PID.obj
 0002:00000f78       ??_C@_09JLALMMJD@Receive?51?$AA@ 10043f78     Pos_PID.obj
 0002:00000f84       ??_C@_0CC@NCKFNJDB@Pos_PID?1Force?5Subsystem?1Receive?5@ 10043f84     Pos_PID.obj
 0002:00000fb0       __real@3f50624dd2f1a9fc    10043fb0     Pos_PID.obj
 0002:00000fc0       __real@3fc5555555555555    10043fc0     Pos_PID.obj
 0002:00000fd0       __real@3fe0000000000000    10043fd0     Pos_PID.obj
 0002:00000fe0       __real@3ff0000000000000    10043fe0     Pos_PID.obj
 0002:00000ff0       __real@4000000000000000    10043ff0     Pos_PID.obj
 0002:00001000       __real@4008000000000000    10044000     Pos_PID.obj
 0002:00001010       __real@40d86a0000000000    10044010     Pos_PID.obj
 0002:00001020       __real@410e848000000000    10044020     Pos_PID.obj
 0002:00001030       __real@41f0000000000000    10044030     Pos_PID.obj
 0002:00001040       __real@bff0000000000000    10044040     Pos_PID.obj
 0002:00001050       __xmm@000002d4000000650000007c00000002 10044050     Pos_PID.obj
 0002:00001070       __xmm@3f50624dd2f1a9fc0000000000000000 10044070     Pos_PID.obj
 0002:00001090       __xmm@41f00000000000000000000000000000 10044090     Pos_PID.obj
 0002:000010b0       __xmm@7fffffffffffffff7fffffffffffffff 100440b0     Pos_PID.obj
 0002:000010d0       __xmm@80000000000000008000000000000000 100440d0     Pos_PID.obj
 0002:00003464       ??_C@_0BA@IBIFMAKE@Data?5Store?5Read?$AA@ 10046464     Pos_PID_capi.obj
 0002:00003478       ??_C@_0BB@BHGHOFID@Data?5Store?5Read1?$AA@ 10046478     Pos_PID_capi.obj
 0002:0000348c       ??_C@_0BB@DMEKLGEA@Data?5Store?5Read2?$AA@ 1004648c     Pos_PID_capi.obj
 0002:000034a0       ??_C@_03IFGKDPPO@Sum?$AA@  100464a0     Pos_PID_capi.obj
 0002:000034a4       ??_C@_04JMNNLCJG@Sum1?$AA@ 100464a4     Pos_PID_capi.obj
 0002:000034ac       ??_C@_04LHPAOBFF@Sum2?$AA@ 100464ac     Pos_PID_capi.obj
 0002:000034b4       ??_C@_04KOOLNABE@Sum3?$AA@ 100464b4     Pos_PID_capi.obj
 0002:000034bc       ??_C@_04DLLHKNK@motY?$AA@  100464bc     Pos_PID_capi.obj
 0002:000034c4       ??_C@_04OBKKEGND@Sum4?$AA@ 100464c4     Pos_PID_capi.obj
 0002:000034cc       ??_C@_04PILBHHJC@Sum5?$AA@ 100464cc     Pos_PID_capi.obj
 0002:000034d4       ??_C@_08IALGIDFE@Z?5enable?$AA@ 100464d4     Pos_PID_capi.obj
 0002:000034e0       ??_C@_0CB@LCOPODFI@Force?5Subsystem?1Byte?5Unpacking?51@ 100464e0     Pos_PID_capi.obj
 0002:00003508       ??_C@_09GDHNBGIO@orce?5Data?$AA@ 10046508     Pos_PID_capi.obj
 0002:00003514       ??_C@_0BN@JKENEMCE@Force?5Subsystem?1Receive?51?1p1?$AA@ 10046514     Pos_PID_capi.obj
 0002:00003538       ??_C@_0BN@LBGABPOH@Force?5Subsystem?1Receive?51?1p2?$AA@ 10046538     Pos_PID_capi.obj
 0002:0000355c       ??_C@_0BP@LILILHGF@PID?5Controller?1Derivative?5Gain?$AA@ 1004655c     Pos_PID_capi.obj
 0002:00003584       ??_C@_0CC@ONNHOEGJ@PID?5Controller?1Filter?5Coefficien@ 10046584     Pos_PID_capi.obj
 0002:000035ac       ??_C@_0BN@FPDAFOPD@PID?5Controller?1Integral?5Gain?$AA@ 100465ac     Pos_PID_capi.obj
 0002:000035d0       ??_C@_0CB@GMJOOHBE@PID?5Controller?1Proportional?5Gain@ 100465d0     Pos_PID_capi.obj
 0002:000035f8       ??_C@_0BG@CIMLHIGA@PID?5Controller?1Filter?$AA@ 100465f8     Pos_PID_capi.obj
 0002:00003614       ??_C@_0BK@CDEALJIB@PID?5Controller?1Integrator?$AA@ 10046614     Pos_PID_capi.obj
 0002:00003634       ??_C@_0BD@OOEBONAM@PID?5Controller?1Sum?$AA@ 10046634     Pos_PID_capi.obj
 0002:0000364c       ??_C@_0BE@JNENIHMH@PID?5Controller?1SumD?$AA@ 1004664c     Pos_PID_capi.obj
 0002:00003664       ??_C@_0CA@JCLCDECD@PID?5Controller1?1Derivative?5Gain?$AA@ 10046664     Pos_PID_capi.obj
 0002:0000368c       ??_C@_0CD@GJLLDHKH@PID?5Controller1?1Filter?5Coefficie@ 1004668c     Pos_PID_capi.obj
 0002:000036b8       ??_C@_0BO@EHDLGDKL@PID?5Controller1?1Integral?5Gain?$AA@ 100466b8     Pos_PID_capi.obj
 0002:000036dc       ??_C@_0CC@LOAMPHAH@PID?5Controller1?1Proportional?5Gai@ 100466dc     Pos_PID_capi.obj
 0002:00003704       ??_C@_0BH@DDFBBCKN@PID?5Controller1?1Filter?$AA@ 10046704     Pos_PID_capi.obj
 0002:00003720       ??_C@_0BL@ODOMGKNA@PID?5Controller1?1Integrator?$AA@ 10046720     Pos_PID_capi.obj
 0002:00003740       ??_C@_0BE@ELJJHECD@PID?5Controller1?1Sum?$AA@ 10046740     Pos_PID_capi.obj
 0002:00003758       ??_C@_0BF@DGDJGCAH@PID?5Controller1?1SumD?$AA@ 10046758     Pos_PID_capi.obj
 0002:00003774       ??_C@_0CA@HIDEOJEB@PID?5Controller2?1Derivative?5Gain?$AA@ 10046774     Pos_PID_capi.obj
 0002:0000379c       ??_C@_0CD@BCKFLFEE@PID?5Controller2?1Filter?5Coefficie@ 1004679c     Pos_PID_capi.obj
 0002:000037c8       ??_C@_0BO@GOPDNHFJ@PID?5Controller2?1Integral?5Gain?$AA@ 100467c8     Pos_PID_capi.obj
 0002:000037ec       ??_C@_0CC@BBKFLKMN@PID?5Controller2?1Proportional?5Gai@ 100467ec     Pos_PID_capi.obj
 0002:00003814       ??_C@_0BH@KNMCOGI@PID?5Controller2?1Filter?$AA@ 10046814     Pos_PID_capi.obj
 0002:00003830       ??_C@_0BL@FOCGAGBO@PID?5Controller2?1Integrator?$AA@ 10046830     Pos_PID_capi.obj
 0002:00003850       ??_C@_0BE@MNANAGIN@PID?5Controller2?1Sum?$AA@ 10046850     Pos_PID_capi.obj
 0002:00003868       ??_C@_0BF@HNBHIJK@PID?5Controller2?1SumD?$AA@ 10046868     Pos_PID_capi.obj
 0002:00003884       ??_C@_0CI@LEJGADJG@System?5Moving?5Flag?1Data?5Type?5Con@ 10046884     Pos_PID_capi.obj
 0002:000038b4       ??_C@_0CJ@NPIFKHMA@System?5Moving?5Flag?1Data?5Type?5Con@ 100468b4     Pos_PID_capi.obj
 0002:000038e8       ??_C@_0CJ@PEKIPEAD@System?5Moving?5Flag?1Data?5Type?5Con@ 100468e8     Pos_PID_capi.obj
 0002:0000391c       ??_C@_0CE@NFIDGPCE@System?5Moving?5Flag?1Logical?5Opera@ 1004691c     Pos_PID_capi.obj
 0002:00003948       ??_C@_0BO@CEPNHLNC@System?5Moving?5Flag?1Unit?5Delay?$AA@ 10046948     Pos_PID_capi.obj
 0002:0000396c       ??_C@_0CC@CBBEFAKJ@X?5Position?5Input?1Data?5Store?5Read@ 1004696c     Pos_PID_capi.obj
 0002:00003994       ??_C@_0CH@LGODBDAH@X?5Position?5Input?1Data?5Type?5Conve@ 10046994     Pos_PID_capi.obj
 0002:000039c4       ??_C@_0CB@DEJHGMOB@X?5Position?5Input?1X?5Matrix?5output@ 100469c4     Pos_PID_capi.obj
 0002:000039ec       ??_C@_0CF@HFOIHOLF@X?5Position?5Input?1X?5Matrix?5Counte@ 100469ec     Pos_PID_capi.obj
 0002:00003a18       ??_C@_0P@FMGIAIK@X?5Matrix?5index?$AA@ 10046a18     Pos_PID_capi.obj
 0002:00003a2c       ??_C@_0CF@FOMFCNHG@X?5Position?5Input?1X?5Matrix?5Counte@ 10046a2c     Pos_PID_capi.obj
 0002:00003a58       ??_C@_0BN@DNFMKDHA@X?5Position?5Input?1Unit?5Delay2?$AA@ 10046a58     Pos_PID_capi.obj
 0002:00003a7c       ??_C@_0CJ@CGAOJKBG@X?5Position?5signal?1Deadband?5pulse@ 10046a7c     Pos_PID_capi.obj
 0002:00003ab0       ??_C@_05ELOADNHC@pulse?$AA@ 10046ab0     Pos_PID_capi.obj
 0002:00003ab8       ??_C@_0CI@MGCKCNND@X?5Position?5signal?1Data?5Type?5Conv@ 10046ab8     Pos_PID_capi.obj
 0002:00003ae8       ??_C@_0BN@JCDDHKMP@X?5Position?5signal?1Counter?1p1?$AA@ 10046ae8     Pos_PID_capi.obj
 0002:00003b0c       ??_C@_0BN@LJBOCJAM@X?5Position?5signal?1Counter?1p2?$AA@ 10046b0c     Pos_PID_capi.obj
 0002:00003b30       ??_C@_0BN@PJHCCIMD@X?5Position?5signal?1Unit?5Delay?$AA@ 10046b30     Pos_PID_capi.obj
 0002:00003b54       ??_C@_0BJ@JCBJABNP@X?5output?5processing?1Abs1?$AA@ 10046b54     Pos_PID_capi.obj
 0002:00003b74       ??_C@_08GBPNJCEO@X?5Enable?$AA@ 10046b74     Pos_PID_capi.obj
 0002:00003b80       ??_C@_0BN@ONLBEKCH@X?5output?5processing?1Voltage1?$AA@ 10046b80     Pos_PID_capi.obj
 0002:00003ba4       ??_C@_09DAEBENAE@x?5Voltage?$AA@ 10046ba4     Pos_PID_capi.obj
 0002:00003bb0       ??_C@_0BK@HKNLLJPB@X?5output?5processing?1Sign2?$AA@ 10046bb0     Pos_PID_capi.obj
 0002:00003bd0       ??_C@_04BKKAELJL@motX?$AA@ 10046bd0     Pos_PID_capi.obj
 0002:00003bd8       ??_C@_06HEPCHGOC@X?5Data?$AA@ 10046bd8     Pos_PID_capi.obj
 0002:00003be0       ??_C@_0BK@JCDACHMF@X_Encoder?1CNT32?98M?$CIPCI?$CJ?52?$AA@ 10046be0     Pos_PID_capi.obj
 0002:00003c00       ??_C@_06JMEOMOEA@counts?$AA@ 10046c00     Pos_PID_capi.obj
 0002:00003c08       ??_C@_0P@BDAHEJMM@X_Encoder?1Sum3?$AA@ 10046c08     Pos_PID_capi.obj
 0002:00003c1c       ??_C@_0CC@BMINDANO@Y?5Position?5Input?1Data?5Store?5Read@ 10046c1c     Pos_PID_capi.obj
 0002:00003c44       ??_C@_0CH@OBHBCJOP@Y?5Position?5Input?1Data?5Type?5Conve@ 10046c44     Pos_PID_capi.obj
 0002:00003c74       ??_C@_0CB@KMANGNID@Y?5Position?5Input?1Y?5Matrix?5output@ 10046c74     Pos_PID_capi.obj
 0002:00003c9c       ??_C@_0CF@JAHPFCOM@Y?5Position?5Input?1Y?5Matrix?5Counte@ 10046c9c     Pos_PID_capi.obj
 0002:00003cc8       ??_C@_0P@LMDNFLGC@Y?5Matrix?5index?$AA@ 10046cc8     Pos_PID_capi.obj
 0002:00003cdc       ??_C@_0CF@LLFCABCP@Y?5Position?5Input?1Y?5Matrix?5Counte@ 10046cdc     Pos_PID_capi.obj
 0002:00003d08       ??_C@_0BN@HFHGCJJH@Y?5Position?5Input?1Unit?5Delay1?$AA@ 10046d08     Pos_PID_capi.obj
 0002:00003d2c       ??_C@_0CJ@MOBJAKLH@Y?5Position?5signal?1Deadband?5pulse@ 10046d2c     Pos_PID_capi.obj
 0002:00003d60       ??_C@_0CI@GJGOLPJE@Y?5Position?5signal?1Data?5Type?5Conv@ 10046d60     Pos_PID_capi.obj
 0002:00003d90       ??_C@_0BN@PBDEKDOL@Y?5Position?5signal?1Counter?1p1?$AA@ 10046d90     Pos_PID_capi.obj
 0002:00003db4       ??_C@_0BN@NKBJPACI@Y?5Position?5signal?1Counter?1p2?$AA@ 10046db4     Pos_PID_capi.obj
 0002:00003dd8       ??_C@_0BN@JKHFPBOH@Y?5Position?5signal?1Unit?5Delay?$AA@ 10046dd8     Pos_PID_capi.obj
 0002:00003dfc       ??_C@_0BI@BLHECBNB@Y?5output?5processing?1Abs?$AA@ 10046dfc     Pos_PID_capi.obj
 0002:00003e18       ??_C@_08LJDLLPJB@Y?5enable?$AA@ 10046e18     Pos_PID_capi.obj
 0002:00003e24       ??_C@_0BM@FJKCPKKH@Y?5output?5processing?1Voltage?$AA@ 10046e24     Pos_PID_capi.obj
 0002:00003e48       ??_C@_09KGGNCPDB@VoltageY?5?$AA@ 10046e48     Pos_PID_capi.obj
 0002:00003e54       ??_C@_0BJ@NMLPJIAF@Y?5output?5processing?1Sign?$AA@ 10046e54     Pos_PID_capi.obj
 0002:00003e74       ??_C@_06NCIFHNFG@Y?5Data?$AA@ 10046e74     Pos_PID_capi.obj
 0002:00003e7c       ??_C@_0BL@CJHJGDJG@Y_encoder?5?1CNT32?98M?$CIPCI?$CJ?51?$AA@ 10046e7c     Pos_PID_capi.obj
 0002:00003e9c       ??_C@_0BA@CLBLCPNH@Y_encoder?5?1Sum2?$AA@ 10046e9c     Pos_PID_capi.obj
 0002:00003eb0       ??_C@_0CC@DOEKFFED@Z?5Position?5Input?1Data?5Store?5Read@ 10046eb0     Pos_PID_capi.obj
 0002:00003ed8       ??_C@_0CH@BJMHGGNH@Z?5Position?5Input?1Data?5Type?5Conve@ 10046ed8     Pos_PID_capi.obj
 0002:00003f08       ??_C@_0CB@NONCGIGE@Z?5Position?5Input?1Z?5Matrix?5output@ 10046f08     Pos_PID_capi.obj
 0002:00003f30       ??_C@_0BA@MEKFFBDB@Z?5Matrix?5output?$AA@ 10046f30     Pos_PID_capi.obj
 0002:00003f44       ??_C@_0CF@GFLHCAEG@Z?5Position?5Input?1Z?5Matrix?5Counte@ 10046f44     Pos_PID_capi.obj
 0002:00003f70       ??_C@_0P@KNEADBBL@Z?5Matrix?5index?$AA@ 10046f70     Pos_PID_capi.obj
 0002:00003f84       ??_C@_0CF@EOJKHDIF@Z?5Position?5Input?1Z?5Matrix?5Counte@ 10046f84     Pos_PID_capi.obj
 0002:00003fb0       ??_C@_0BM@EPIKAMNP@Z?5Position?5Input?1Unit?5Delay?$AA@ 10046fb0     Pos_PID_capi.obj
 0002:00003fd4       ??_C@_0CJ@CNFALNBF@Z?5Position?5signal?1Deadband?5pulse@ 10046fd4     Pos_PID_capi.obj
 0002:00004008       ??_C@_0CI@EDNCAPBM@Z?5Position?5signal?1Data?5Type?5Conv@ 10047008     Pos_PID_capi.obj
 0002:00004038       ??_C@_0BN@FEDMMIIH@Z?5Position?5signal?1Counter?1p1?$AA@ 10047038     Pos_PID_capi.obj
 0002:0000405c       ??_C@_0BN@HPBBJLEE@Z?5Position?5signal?1Counter?1p2?$AA@ 1004705c     Pos_PID_capi.obj
 0002:00004080       ??_C@_0BN@DPHNJKIL@Z?5Position?5signal?1Unit?5Delay?$AA@ 10047080     Pos_PID_capi.obj
 0002:000040a4       ??_C@_0BJ@CJFCHEEB@Z?5output?5processing?1Abs2?$AA@ 100470a4     Pos_PID_capi.obj
 0002:000040c4       ??_C@_0CJ@FNGJJAF@Z?5output?5processing?1Data?5Type?5Co@ 100470c4     Pos_PID_capi.obj
 0002:000040f8       ??_C@_0BN@JDKLKM@Z?5output?5processing?1Voltage2?$AA@ 100470f8     Pos_PID_capi.obj
 0002:0000411c       ??_C@_0L@ILKNELCH@Voltage?5Z?5?$AA@ 1004711c     Pos_PID_capi.obj
 0002:0000412c       ??_C@_0CF@PCJIKODN@Z?5output?5processing?1Logical?5Oper@ 1004712c     Pos_PID_capi.obj
 0002:00004158       ??_C@_0CD@FEMILHHP@Z?5output?5processing?1PCI?9DDA08?512@ 10047158     Pos_PID_capi.obj
 0002:00004184       ??_C@_0BK@EELMKBFN@Z?5output?5processing?1Sign1?$AA@ 10047184     Pos_PID_capi.obj
 0002:000041a4       ??_C@_06ODGNGHML@Z?5Data?$AA@ 100471a4     Pos_PID_capi.obj
 0002:000041ac       ??_C@_0BK@FCIBMBBD@Z_encoder?1CNT32?98M?$CIPCI?$CJ?51?$AA@ 100471ac     Pos_PID_capi.obj
 0002:000041cc       ??_C@_0P@BBOEICOJ@Z_encoder?1Sum2?$AA@ 100471cc     Pos_PID_capi.obj
 0002:000041e0       ??_C@_0CE@JJCKGEKJ@System?5Moving?5Flag?1X?5Flipflop?1Lo@ 100471e0     Pos_PID_capi.obj
 0002:0000420c       ??_C@_0CF@CELNFFHP@System?5Moving?5Flag?1X?5Flipflop?1Me@ 1004720c     Pos_PID_capi.obj
 0002:00004238       ??_C@_0CE@BOIMKPOK@System?5Moving?5Flag?1Y?5Flipflop?1Lo@ 10047238     Pos_PID_capi.obj
 0002:00004264       ??_C@_0CF@MLOPODJO@System?5Moving?5Flag?1Y?5Flipflop?1Me@ 10047264     Pos_PID_capi.obj
 0002:00004290       ??_C@_0CE@ENBGPEGO@System?5Moving?5Flag?1Z?5Flipflop?1Lo@ 10047290     Pos_PID_capi.obj
 0002:000042bc       ??_C@_0CF@CBGJDOPM@System?5Moving?5Flag?1Z?5Flipflop?1Me@ 100472bc     Pos_PID_capi.obj
 0002:000042e8       ??_C@_0BC@HLOAMCHO@Data?5Store?5Memory?$AA@ 100472e8     Pos_PID_capi.obj
 0002:00004300       ??_C@_0N@DKJJGJMJ@InitialValue?$AA@ 10047300     Pos_PID_capi.obj
 0002:00004310       ??_C@_0BD@HBJLLLEL@Data?5Store?5Memory1?$AA@ 10047310     Pos_PID_capi.obj
 0002:00004328       ??_C@_0BD@FKLGOIII@Data?5Store?5Memory2?$AA@ 10047328     Pos_PID_capi.obj
 0002:00004340       ??_C@_0BD@EDKNNJMJ@Data?5Store?5Memory3?$AA@ 10047340     Pos_PID_capi.obj
 0002:00004358       ??_C@_0P@DNAGJNE@PID?5Controller?$AA@ 10047358     Pos_PID_capi.obj
 0002:0000436c       ??_C@_01NANMIPIL@N?$AA@    1004736c     Pos_PID_capi.obj
 0002:00004370       ??_C@_0BA@EHOAMBBG@PID?5Controller1?$AA@ 10047370     Pos_PID_capi.obj
 0002:00004384       ??_C@_0BA@GMMNJCNF@PID?5Controller2?$AA@ 10047384     Pos_PID_capi.obj
 0002:00004398       ??_C@_02KKFPAPOP@P1?$AA@   10047398     Pos_PID_capi.obj
 0002:0000439c       ??_C@_02IBHCFMCM@P2?$AA@   1004739c     Pos_PID_capi.obj
 0002:000043a0       ??_C@_02JIGJGNGN@P3?$AA@   100473a0     Pos_PID_capi.obj
 0002:000043a4       ??_C@_02NHCIPLKK@P4?$AA@   100473a4     Pos_PID_capi.obj
 0002:000043a8       ??_C@_02MODDMKOL@P5?$AA@   100473a8     Pos_PID_capi.obj
 0002:000043ac       ??_C@_02OFBOJJCI@P6?$AA@   100473ac     Pos_PID_capi.obj
 0002:000043b0       ??_C@_02PMAFKIGJ@P7?$AA@   100473b0     Pos_PID_capi.obj
 0002:000043b4       ??_C@_0BK@OLGJPAKM@Force?5Subsystem?1Receive?51?$AA@ 100473b4     Pos_PID_capi.obj
 0002:000043d4       ??_C@_0BB@CFEOEMDC@InitialCondition?$AA@ 100473d4     Pos_PID_capi.obj
 0002:000043e8       ??_C@_0BO@EPIIPPKI@System?5Moving?5Flag?1X?5Flipflop?$AA@ 100473e8     Pos_PID_capi.obj
 0002:0000440c       ??_C@_0BC@DEOHEJIB@initial_condition?$AA@ 1004740c     Pos_PID_capi.obj
 0002:00004424       ??_C@_0BO@IOAGCAGI@System?5Moving?5Flag?1Y?5Flipflop?$AA@ 10047424     Pos_PID_capi.obj
 0002:00004448       ??_C@_0BO@BHOEEGGJ@System?5Moving?5Flag?1Z?5Flipflop?$AA@ 10047448     Pos_PID_capi.obj
 0002:0000446c       ??_C@_0BJ@GCDCIOIA@BreakpointsForDimension1?$AA@ 1004746c     Pos_PID_capi.obj
 0002:0000448c       ??_C@_0CC@BGJDLOAL@X?5Position?5Input?1X?5Matrix?5Counte@ 1004748c     Pos_PID_capi.obj
 0002:000044b4       ??_C@_0N@LIAJDDBE@InitialCount?$AA@ 100474b4     Pos_PID_capi.obj
 0002:000044c4       ??_C@_08OOPKMNBD@HitValue?$AA@ 100474c4     Pos_PID_capi.obj
 0002:000044d0       ??_C@_0BK@GIDICEDH@X?5Position?5signal?1Counter?$AA@ 100474d0     Pos_PID_capi.obj
 0002:000044f0       ??_C@_04OMOMKKFL@Gain?$AA@ 100474f0     Pos_PID_capi.obj
 0002:000044f8       ??_C@_0CE@MKBKFKDI@X?5output?5processing?1PCI?9DDA?508?51@ 100474f8     Pos_PID_capi.obj
 0002:00004524       ??_C@_02HLJNLEKG@P8?$AA@   10047524     Pos_PID_capi.obj
 0002:00004528       ??_C@_02GCIGIFOH@P9?$AA@   10047528     Pos_PID_capi.obj
 0002:0000452c       ??_C@_03OPFJJGBF@P10?$AA@  1004752c     Pos_PID_capi.obj
 0002:00004530       ??_C@_0BL@CEODHDBK@X_Encoder?1encoder?5offsets2?$AA@ 10047530     Pos_PID_capi.obj
 0002:00004550       ??_C@_05LPIJGKJ@Value?$AA@ 10047550     Pos_PID_capi.obj
 0002:00004558       ??_C@_03PGECKHFE@P11?$AA@  10047558     Pos_PID_capi.obj
 0002:0000455c       ??_C@_03NNGPPEJH@P12?$AA@  1004755c     Pos_PID_capi.obj
 0002:00004560       ??_C@_03MEHEMFNG@P13?$AA@  10047560     Pos_PID_capi.obj
 0002:00004564       ??_C@_03ILDFFDBB@P14?$AA@  10047564     Pos_PID_capi.obj
 0002:00004568       ??_C@_03JCCOGCFA@P15?$AA@  10047568     Pos_PID_capi.obj
 0002:0000456c       ??_C@_03LJADDBJD@P16?$AA@  1004756c     Pos_PID_capi.obj
 0002:00004570       ??_C@_03KABIAANC@P17?$AA@  10047570     Pos_PID_capi.obj
 0002:00004574       ??_C@_03CHIABMBN@P18?$AA@  10047574     Pos_PID_capi.obj
 0002:00004578       ??_C@_03DOJLCNFM@P19?$AA@  10047578     Pos_PID_capi.obj
 0002:0000457c       ??_C@_03ONBPCIEM@P20?$AA@  1004757c     Pos_PID_capi.obj
 0002:00004580       ??_C@_03PEAEBJAN@P21?$AA@  10047580     Pos_PID_capi.obj
 0002:00004584       ??_C@_03NPCJEKMO@P22?$AA@  10047584     Pos_PID_capi.obj
 0002:00004588       ??_C@_03MGDCHLIP@P23?$AA@  10047588     Pos_PID_capi.obj
 0002:0000458c       ??_C@_03IJHDONEI@P24?$AA@  1004758c     Pos_PID_capi.obj
 0002:00004590       ??_C@_03JAGINMAJ@P25?$AA@  10047590     Pos_PID_capi.obj
 0002:00004594       ??_C@_03LLEFIPMK@P26?$AA@  10047594     Pos_PID_capi.obj
 0002:00004598       ??_C@_03KCFOLOIL@P27?$AA@  10047598     Pos_PID_capi.obj
 0002:0000459c       ??_C@_03CFMGKCEE@P28?$AA@  1004759c     Pos_PID_capi.obj
 0002:000045a0       ??_C@_03DMNNJDAF@P29?$AA@  100475a0     Pos_PID_capi.obj
 0002:000045a4       ??_C@_03OMNNECHL@P30?$AA@  100475a4     Pos_PID_capi.obj
 0002:000045a8       ??_C@_03PFMGHDDK@P31?$AA@  100475a8     Pos_PID_capi.obj
 0002:000045ac       ??_C@_03NOOLCAPJ@P32?$AA@  100475ac     Pos_PID_capi.obj
 0002:000045b0       ??_C@_03MHPABBLI@P33?$AA@  100475b0     Pos_PID_capi.obj
 0002:000045b4       ??_C@_03IILBIHHP@P34?$AA@  100475b4     Pos_PID_capi.obj
 0002:000045b8       ??_C@_03JBKKLGDO@P35?$AA@  100475b8     Pos_PID_capi.obj
 0002:000045bc       ??_C@_0CC@LFLHCEHO@Y?5Position?5Input?1Y?5Matrix?5Counte@ 100475bc     Pos_PID_capi.obj
 0002:000045e4       ??_C@_0BK@IPCFICKA@Y?5Position?5signal?1Counter?$AA@ 100475e4     Pos_PID_capi.obj
 0002:00004604       ??_C@_0CE@BACLBIGK@Y?5output?5processing?1PCI?9DDA?508?51@ 10047604     Pos_PID_capi.obj
 0002:00004630       ??_C@_0BM@PPFBNHIK@Y_encoder?5?1encoder?5offsets1?$AA@ 10047630     Pos_PID_capi.obj
 0002:00004654       ??_C@_0CC@ILKLIMKA@Z?5Position?5Input?1Z?5Matrix?5Counte@ 10047654     Pos_PID_capi.obj
 0002:0000467c       ??_C@_0BK@HNHCGPFI@Z?5Position?5signal?1Counter?$AA@ 1004767c     Pos_PID_capi.obj
 0002:0000469c       ??_C@_0CE@EGPNABBG@Z?5output?5processing?1PCI?9DDA?508?51@ 1004769c     Pos_PID_capi.obj
 0002:000046c8       ??_C@_0BL@GCPIFIIH@Z_encoder?1encoder?5offsets1?$AA@ 100476c8     Pos_PID_capi.obj
 0002:000046e8       ??_C@_0L@HPPBCIFA@TruthTable?$AA@ 100476e8     Pos_PID_capi.obj
 0002:000046f8       ??_C@_04EEEGHMJE@db_x?$AA@ 100476f8     Pos_PID_capi.obj
 0002:00004700       ??_C@_04FNFNENNF@db_y?$AA@ 10047700     Pos_PID_capi.obj
 0002:00004708       ??_C@_04HGHABOBG@db_z?$AA@ 10047708     Pos_PID_capi.obj
 0002:00004710       ??_C@_03JKKEMAOD@kdx?$AA@  10047710     Pos_PID_capi.obj
 0002:00004714       ??_C@_03IDLPPBKC@kdy?$AA@  10047714     Pos_PID_capi.obj
 0002:00004718       ??_C@_03KIJCKCGB@kdz?$AA@  10047718     Pos_PID_capi.obj
 0002:0000471c       ??_C@_03JCHMFDLA@kix?$AA@  1004771c     Pos_PID_capi.obj
 0002:00004720       ??_C@_03ILGHGCPB@kiy?$AA@  10047720     Pos_PID_capi.obj
 0002:00004724       ??_C@_03KAEKDBDC@kiz?$AA@  10047724     Pos_PID_capi.obj
 0002:00004728       ??_C@_03IBILMLEP@kpx?$AA@  10047728     Pos_PID_capi.obj
 0002:0000472c       ??_C@_03JIJAPKAO@kpy?$AA@  1004772c     Pos_PID_capi.obj
 0002:00004730       ??_C@_03LDLNKJMN@kpz?$AA@  10047730     Pos_PID_capi.obj
 0002:00004734       ??_C@_04NMNJKFFI@xpos?$AA@ 10047734     Pos_PID_capi.obj
 0002:0000473c       ??_C@_04OBLJIMOI@ypos?$AA@ 1004773c     Pos_PID_capi.obj
 0002:00004744       ??_C@_04KGBJPGDI@zpos?$AA@ 10047744     Pos_PID_capi.obj
 0002:0000474c       ??_C@_0L@MEPOOHLP@hitcount_x?$AA@ 1004774c     Pos_PID_capi.obj
 0002:0000475c       ??_C@_0L@NNOFNGPO@hitcount_y?$AA@ 1004775c     Pos_PID_capi.obj
 0002:0000476c       ??_C@_0L@PGMIIFDN@hitcount_z?$AA@ 1004776c     Pos_PID_capi.obj
 0002:0000477c       ??_C@_06BNJCAIGJ@double?$AA@ 1004777c     Pos_PID_capi.obj
 0002:00004784       ??_C@_06CNMIJIPB@real_T?$AA@ 10047784     Pos_PID_capi.obj
 0002:0000478c       ??_C@_0O@PPAIJIHF@unsigned?5char?$AA@ 1004778c     Pos_PID_capi.obj
 0002:0000479c       ??_C@_07NCEHLPOC@uint8_T?$AA@ 1004779c     Pos_PID_capi.obj
 0002:000047a8       ??_C@_09JBMFCIMO@boolean_T?$AA@ 100477a8     Pos_PID_capi.obj
 0002:000047b4       ??_C@_05KNFBNCOH@float?$AA@ 100477b4     Pos_PID_capi.obj
 0002:000047bc       ??_C@_0CJ@GGPBKPNK@Could?5not?5start?5ToAsyncQueue?5app@ 100477bc     Pos_PID_tgtconn.obj
 0002:00005050       ??_C@_0DJ@FHKINPLE@Unexpected?5itemKind?5?$DN?5DATA_ITEM?5@ 10048050     rt_logging.obj
 0002:00005094       ??_C@_0DA@IEHFPFCJ@Unexpected?5itemKind?$DN?$CFd?5in?5rt_Pro@ 10048094     rt_logging.obj
 0002:000050d0       ??_C@_0DA@IFLHJPBO@Unexpected?5itemKind?$DN?$CFd?5in?5rt_Pro@ 100480d0     rt_logging.obj
 0002:0000510c       ??_C@_0DA@IAPIIJJL@Unexpected?5itemKind?$DN?$CFd?5in?5rt_Pro@ 1004810c     rt_logging.obj
 0002:00005148       ??_C@_0BE@LCIGPJIG@MATLAB?55?40?5MAT?9file?$AA@ 10048148     rt_logging.obj
 0002:00005160       ??_C@_0FB@PCJEAJIB@?$CK?$CK?$CK?5Log?5variable?5?$CFs?5has?5wrapped?5@ 10048160     rt_logging.obj
 0002:000051c8       ??_C@_0MG@NKMLMOGF@?$CK?$CK?$CK?5To?5avoid?5wrapping?0?5explicitl@ 100481c8     rt_logging.obj
 0002:000052b8       ??_C@_0N@IPAEOLLP@_rtw_tmw?4tmw?$AA@ 100482b8     rt_logging.obj
 0002:000052c8       ??_C@_04HDOCAJNK@?$CFs?$CFs?$AA@ 100482c8     rt_logging.obj
 0002:000052d0       ??_C@_03ELIABIOC@w?$CLb?$AA@ 100482d0     rt_logging.obj
 0002:000052d4       ??_C@_0BF@JPILDDFA@?$CK?$CK?$CK?5Error?5opening?5?$CFs?$AA@ 100482d4     rt_logging.obj
 0002:000052f0       ??_C@_0BK@EEMDELA@unable?5to?5open?5data?5file?6?$AA@ 100482f0     rt_logging.obj
 0002:00005310       ??_C@_04CGFJFPFD@none?$AA@ 10048310     rt_logging.obj
 0002:00005318       ??_C@_0EE@LCGFPNON@?$CK?$CK?$CK?5Error?5creating?5signals?5struc@ 10048318     rt_logging.obj
 0002:0000536c       ??_C@_0CE@NHECEDMK@?$CK?$CK?$CK?5Error?5creating?5log?5variable?5@ 1004836c     rt_logging.obj
 0002:00005398       ??_C@_0DB@IOCGKAGH@?$CK?$CK?$CK?5Errors?5occurred?5when?5startin@ 10048398     rt_logging.obj
 0002:000053d4       ??_C@_0BO@BBLOGEBK@?$CK?$CK?$CK?5Memory?5allocation?5error?4?6?$AA@ 100483d4     rt_logging.obj
 0002:000053f8       ??_C@_0N@LGFBAGEL@?5?$CIreal?5part?$CJ?$AA@ 100483f8     rt_logging.obj
 0002:00005408       ??_C@_0KH@CGNMHNFE@?5?5?5?5varName?5?5?5?5?5?5?5?5?5?5?$DN?5?$CFs?$CFs?6?5?5?5?5@ 10048408     rt_logging.obj
 0002:000054d0       ??_C@_0LE@OALKKEFM@?5?5?5?5varName?5?5?5?5?5?5?5?5?5?5?$DN?5?$CFs?5?$CIcompl@ 100484d0     rt_logging.obj
 0002:000055a8       ??_C@_0KF@JDDLEOKO@?5?5?5?5varName?5?5?5?5?5?5?5?5?5?5?$DN?5?$CFs?6?5?5?5?5nR@ 100485a8     rt_logging.obj
 0002:00005670       ??_C@_0DP@HPDMIOFM@?$CK?$CK?$CK?5Using?5a?5default?5buffer?5of?5si@ 10048670     rt_logging.obj
 0002:000056c0       ??_C@_0KE@JEFOLKNF@?6?$CK?$CK?$CK?5Memory?5required?5to?5log?5vari@ 100486c0     rt_logging.obj
 0002:00005788       ??_C@_0JP@DKLMHCBI@?$CK?$CK?$CK?5Details?3?6?5?5?5?5?5?5?5varName?5?5?5?5?5@ 10048788     rt_logging.obj
 0002:00005848       ??_C@_0CM@CAMILBED@?$CK?$CK?$CK?5Error?5allocating?5memory?5for?5@ 10048848     rt_logging.obj
 0002:0000587c       ??_C@_0DF@BBCNMOPM@?$CK?$CK?$CK?5Error?5allocating?5memory?5for?5@ 1004887c     rt_logging.obj
 0002:000058c0       ??_C@_0JP@DBCLPCCI@?$CK?$CK?$CK?5Details?3?6?5?5?5?5?5?5?5varName?5?5?5?5?5@ 100488c0     rt_logging.obj
 0002:00005980       ??_C@_0FK@DPGAOBGA@?$CK?$CK?$CK?5Error?5allocating?5memory?5for?5@ 10048980     rt_logging.obj
 0002:000059ec       ??_C@_0BI@GGDNPHLJ@?$CK?$CK?$CK?5Error?5writing?5to?5?$CFs?$AA@ 100489ec     rt_logging.obj
 0002:00005a08       ??_C@_0CB@IBGJGELG@?$CK?$CK?$CK?5Error?5writing?5?$CFs?5due?5to?3?5?$CFs?6@ 10048a08     rt_logging.obj
 0002:00005a30       ??_C@_0CN@FLMCHCPB@?$CK?$CK?$CK?5Error?5writing?5log?5variable?5?$CF@ 10048a30     rt_logging.obj
 0002:00005a68       ??_C@_0DH@GAJCNOJP@?$CK?$CK?$CK?5Error?5writing?5structure?5log?5@ 10048a68     rt_logging.obj
 0002:00005aac       ??_C@_0BD@POEALECL@?$CK?$CK?5created?5?$CFs?5?$CK?$CK?6?6?$AA@ 10048aac     rt_logging.obj
 0002:00005ac8       __real@0000000000000000    10048ac8     rt_logging.obj
 0002:00005ad8       __real@4020000000000000    10048ad8     rt_logging.obj
 0002:00005ae8       __real@41dfffffffc00000    10048ae8     rt_logging.obj
 0002:00005af8       __real@41efffffffe00000    10048af8     rt_logging.obj
 0002:00005b08       __real@4330000000000000    10048b08     rt_logging.obj
 0002:00005b18       __real@8000000000000000    10048b18     rt_logging.obj
 0002:00005b28       __real@bfbf9add3afd2773    10048b28     rt_logging.obj
 0002:00005b38       __real@c000000000000000    10048b38     rt_logging.obj
 0002:00005b50       __xmm@20202020202020202020202020202020 10048b50     rt_logging.obj
 0002:00005b80       __real@3cb0000000000000    10048b80     rt_matrx.obj
 0002:00005b8c       ??_C@_0BI@INNPNFJN@Memory?5Allocation?5Error?$AA@ 10048b8c     rtw_modelmap_utils.obj
 0002:00005ba8       ??_C@_1HC@OAPLBLFC@?$AAC?$AA?3?$AA?2?$AAP?$AAR?$AAO?$AAG?$AAR?$AAA?$AA?$HO?$AA1?$AA?2?$AAM?$AAA?$AAT?$AAL?$AAA?$AAB?$AA?2?$AAR?$AA2?$AA0?$AA1?$AA6?$AAa?$AA?2?$AAr?$AAt?$AAw?$AA?2?$AAc?$AA?2@ 10048ba8     rtw_modelmap_utils.obj
 0002:00005c30       ??_C@_1CI@OEAJCJND@?$AAj?$AA?5?$AA?$DN?$AA?$DN?$AA?5?$AAe?$AAn?$AAc?$AAo?$AAd?$AAe?$AAd?$AAP?$AAa?$AAt?$AAh?$AAL?$AAe?$AAn?$AA?$AA@ 10048c30     rtw_modelmap_utils.obj
 0002:00005c60       ??_C@_1DC@NFAOIFKB@?$AAe?$AAn?$AAc?$AAo?$AAd?$AAe?$AAd?$AAP?$AAa?$AAt?$AAh?$AA?$FL?$AAj?$AA?9?$AA1?$AA?$FN?$AA?5?$AA?$DN?$AA?$DN?$AA?5?$AA?8?$AA?2?$AA0?$AA?8?$AA?$AA@ 10048c60     rtw_modelmap_utils.obj
 0002:00005c9c       ??_C@_1DI@FLNJGPEE@?$AAs?$AAi?$AAg?$AAC?$AAo?$AAm?$AAp?$AAl?$AAe?$AAx?$AAi?$AAt?$AAy?$AA?$FL?$AA?$CK?$AAs?$AAi?$AAg?$AAI?$AAd?$AAx?$AA?$FN?$AA?5?$AA?$CB?$AA?$DN?$AA?5?$AA1?$AA?$AA@ 10048c9c     rtw_modelmap_utils.obj
 0002:00005ce0       ??_C@_1KI@OFELMGBG@?$AA?$CI?$AA?$CI?$AA?$CI?$AAd?$AAa?$AAt?$AAa?$AAT?$AAy?$AAp?$AAe?$AAM?$AAa?$AAp?$AA?$CJ?$AA?$FL?$AA?$CI?$AA?$CI?$AA?$CI?$AAs?$AAt?$AAa?$AAt?$AAe?$AAs?$AA?$CJ?$AA?$FL?$AA?$CI?$AAi?$AA?$CJ?$AA?$FN?$AA?4@ 10048ce0     rtw_modelmap_utils.obj
 0002:00005dac       ??_C@_1DA@ILCMPHNE@?$AAf?$AAu?$AAl?$AAl?$AAP?$AAa?$AAt?$AAh?$AA?5?$AA?$CB?$AA?$DN?$AA?5?$AA?$CI?$AA?$CI?$AAv?$AAo?$AAi?$AAd?$AA?5?$AA?$CK?$AA?$CJ?$AA0?$AA?$CJ?$AA?$AA@ 10048dac     rtw_modelmap_utils.obj
 0002:00005de8       ??_C@_1CI@OEPPFCCA@?$AAp?$AAa?$AAt?$AAh?$AA?5?$AA?$CB?$AA?$DN?$AA?5?$AA?$CI?$AA?$CI?$AAv?$AAo?$AAi?$AAd?$AA?5?$AA?$CK?$AA?$CJ?$AA0?$AA?$CJ?$AA?$AA@ 10048de8     rtw_modelmap_utils.obj
 0002:00005e18       ??_C@_1FK@GLJIMFHB@?$AA?$CI?$AA?$CI?$AAm?$AAm?$AAi?$AA?$CJ?$AA?9?$AA?$DO?$AAI?$AAn?$AAs?$AAt?$AAa?$AAn?$AAc?$AAe?$AAM?$AAa?$AAp?$AA?4?$AAf?$AAu?$AAl?$AAl?$AAP?$AAa?$AAt?$AAh?$AA?$CJ?$AA?5?$AA?$DN?$AA?$DN@ 10048e18     rtw_modelmap_utils.obj
 0002:00005e84       ??_C@_1DG@HPCJGNCE@?$AAm?$AAm?$AAi?$AAP?$AAa?$AAt?$AAh?$AA?$FL?$AAp?$AAa?$AAt?$AAh?$AAL?$AAe?$AAn?$AA?9?$AA1?$AA?$FN?$AA?5?$AA?$DN?$AA?$DN?$AA?5?$AA?8?$AA?2?$AA0?$AA?8?$AA?$AA@ 10048e84     rtw_modelmap_utils.obj
 0002:00005ec4       ??_C@_1DM@DBAOGGOO@?$AAm?$AAm?$AAi?$AAP?$AAa?$AAt?$AAh?$AA?$FL?$AAm?$AAm?$AAi?$AAP?$AAa?$AAt?$AAh?$AAL?$AAe?$AAn?$AA?9?$AA1?$AA?$FN?$AA?5?$AA?$DN?$AA?$DN?$AA?5?$AA?8?$AA?2?$AA0?$AA?8?$AA?$AA@ 10048ec4     rtw_modelmap_utils.obj
 0002:00005f0c       ??_C@_1DC@LHIAKAFE@?$AAb?$AAl?$AAo?$AAc?$AAk?$AAP?$AAa?$AAt?$AAh?$AA?5?$AA?$CB?$AA?$DN?$AA?5?$AA?$CI?$AA?$CI?$AAv?$AAo?$AAi?$AAd?$AA?5?$AA?$CK?$AA?$CJ?$AA0?$AA?$CJ?$AA?$AA@ 10048f0c     rtw_modelmap_utils.obj
 0002:00005f48       ??_C@_1GI@KIEJKPGC@?$AAf?$AAu?$AAl?$AAl?$AAS?$AAt?$AAa?$AAt?$AAe?$AAB?$AAl?$AAo?$AAc?$AAk?$AAP?$AAa?$AAt?$AAh?$AA?$FL?$AAf?$AAu?$AAl?$AAl?$AAS?$AAt?$AAa?$AAt?$AAe?$AAB?$AAl?$AAo?$AAc@ 10048f48     rtw_modelmap_utils.obj
 0002:00005fc8       ??_C@_1EE@DNPIBJHC@?$AA?$CI?$AA?$CI?$AAd?$AAi?$AAm?$AAM?$AAa?$AAp?$AA?$CJ?$AA?$FL?$AA?$CI?$AAm?$AAa?$AAp?$AAI?$AAd?$AAx?$AA?$CJ?$AA?$FN?$AA?4?$AAn?$AAu?$AAm?$AAD?$AAi?$AAm?$AAs?$AA?$CJ?$AA?5?$AA?$DN?$AA?$DN?$AA?5@ 10048fc8     rtw_modelmap_utils.obj
 0002:0000601c       ??_C@_06JFOKFOED@CSTATE?$AA@ 1004901c     rtw_modelmap_utils.obj
 0002:00006024       ??_C@_06FAENGAMN@DSTATE?$AA@ 10049024     rtw_modelmap_utils.obj
 0002:0000602c       ??_C@_1BI@LEBJNOGG@?$AAc?$AAs?$AAv?$AAI?$AAd?$AAx?$AA?5?$AA?$DO?$AA?$DN?$AA?5?$AA0?$AA?$AA@ 1004902c     rtw_modelmap_utils.obj
 0002:00006048       ??_C@_1BA@KDMGHCHP@?$AAT?$AAI?$AAD?$AA?$DN?$AA?$DN?$AA?9?$AA1?$AA?$AA@ 10049048     rtw_modelmap_utils.obj
 0002:0000605c       ??_C@_1DM@DHGKBPCE@?$AAs?$AAi?$AAg?$AAP?$AAa?$AAt?$AAh?$AA?$FL?$AAs?$AAi?$AAg?$AAP?$AAa?$AAt?$AAh?$AAL?$AAe?$AAn?$AA?9?$AA1?$AA?$FN?$AA?5?$AA?$DN?$AA?$DN?$AA?5?$AA?8?$AA?2?$AA0?$AA?8?$AA?$AA@ 1004905c     rtw_modelmap_utils.obj
 0002:000060a4       _serialfifoground          100490a4     xpc_datatype_ground.obj
 0002:000060b0       _bcmsg1553ground           100490b0     xpc_datatype_ground.obj
 0002:000060c0       _bcstatground              100490c0     xpc_datatype_ground.obj
 0002:000060d8       _bmmsg1553ground           100490d8     xpc_datatype_ground.obj
 0002:000060f8       ??_C@_07KFKDPLMF@Pos_PID?$AA@ 100490f8     xpctarget.obj
 0002:00006104       _ptsetfilename             10049104     xpctarget.obj
 0002:00006108       _xmlfile                   10049108     xpctarget.obj
 0002:00006110       ??_C@_0L@CHBJKKFC@xpceSetVar?$AA@ 10049110     xpctarget.obj
 0002:00006120       ??_C@_03ICACBPID@6?44?$AA@ 10049120     xpctarget.obj
 0002:00006128       __real@3fb999999999999a    10049128     xpctarget.obj
 0002:00006138       __real@408f400000000000    10049138     xpctarget.obj
 0002:00006148       _Pos_PID_BIOMAP            10049148     appmappingData.obj
 0002:00006610       _Pos_PID_LBLMAP            10049610     appmappingData.obj
 0002:00006ad8       _Pos_PID_SIDMAP            10049ad8     appmappingData.obj
 0002:00006fa0       _Pos_PID_SBIO              10049fa0     appmappingData.obj
 0002:00007138       _Pos_PID_SLBL              1004a138     appmappingData.obj
 0002:000072d0       _Pos_PID_PTIDSMAP          1004a2d0     appmappingData.obj
 0002:000079b8       _Pos_PID_PTNAMESMAP        1004a9b8     appmappingData.obj
 0002:000080a0       _Pos_PID_SPTMAP            1004b0a0     appmappingData.obj
 0002:00008414       _Pos_PID_dtmap             1004b414     appmappingData.obj
 0002:00008438       _appInfo                   1004b438     appmappingData.obj
 0002:00008b90       ??_C@_0BE@CKBAIFD@encconteccnt328mpci?$AA@ 1004bb90     encconteccnt328mpci.obj
 0002:00008ba8       ??_C@_0CG@PDPCNMMO@?$CFs?3?5?$CFd?5input?5args?5expected?0?5?$CFd?5p@ 1004bba8     encconteccnt328mpci.obj
 0002:00008bd8       ??_C@_07GNCCFEIM@?$CFs?$CI?$CFd?$CJ?6?$AA@ 1004bbd8     encconteccnt328mpci.obj
 0002:00008be4       ??_C@_0CE@CLLJOMGM@?$CFs?$CI?$CFd?$CJ?5Sample?5Time?5?$CFf?5?$CIChannel?5?$CF@ 1004bbe4     encconteccnt328mpci.obj
 0002:00008c10       ??_C@_0CK@NDIIACOD@?$CFs?$CI?$CFd?$CJ?5PCI?5Bus?5?$CFd?5?5?5Slot?5?$CFd?5?5?5Ch@ 1004bc10     encconteccnt328mpci.obj
 0002:00008c44       ??_C@_0CO@OADOCJBA@?$CFs?3?5CNT32?98M?$CIPCI?$CJ?5not?5found?5at?5b@ 1004bc44     encconteccnt328mpci.obj
 0002:00008c7c       ??_C@_0CB@GGINOLOG@?5?5?5Initial?5Value?3?50x?$CFx?5Load?3?5?$CFd?6@ 1004bc7c     encconteccnt328mpci.obj
 0002:00008ca4       ??_C@_0BL@JCCHIDDO@?5?5?5Start?5Method?3?5?$CFd?5?$CI0x?$CFx?$CJ?$AA@ 1004bca4     encconteccnt328mpci.obj
 0002:00008cc4       ??_C@_0BL@ONAHILHM@?5?5?5Stop?5Method?3?5?$CFd?5?$CI0x?$CFx?$CJ?6?$AA@ 1004bcc4     encconteccnt328mpci.obj
 0002:00008ce4       ??_C@_0BO@DJDJGILF@?5?5?5Input?5Signal?3?50x?$CFx?5?$CI0x?$CFx?$CJ?6?$AA@ 1004bce4     encconteccnt328mpci.obj
 0002:00008d08       ??_C@_0GI@GFJKDDOK@?5?5?5Input?5Signal?5Overloaded?5?$CIStar@ 1004bd08     encconteccnt328mpci.obj
 0002:00008d84       ??_C@_0DK@GPOKCJIM@?5?5?5Rise?1Fall?1Match?50?1Match?51?5?5?5P@ 1004bd84     encconteccnt328mpci.obj
 0002:00008dcc       ??_C@_0CD@KKOOHPOD@?5?5?5Zero?9Clear?3?5?$CFd?1?$CFd?1?$CFd?1?$CFd?5?$CI0x?$CFx@ 1004bdcc     encconteccnt328mpci.obj
 0002:00008df8       ??_C@_0DC@FPLMBIJB@?5?5?5Match?50?5Overloaded?5?$CIPreset?1Ze@ 1004bdf8     encconteccnt328mpci.obj
 0002:00008e34       ??_C@_0DC@LHKLIIDA@?5?5?5Match?51?5Overloaded?5?$CIPreset?1Ze@ 1004be34     encconteccnt328mpci.obj
 0002:00008e70       ??_C@_0BO@EIIFPMDO@?5?5?5Digital?5Filter?3?5?$CFd?5?$CI0x?$CFx?$CJ?6?$AA@ 1004be70     encconteccnt328mpci.obj
 0002:00008e94       ??_C@_0BL@OJPKOPMK@?5?5?5Index?5Logic?3?5?$CFd?5?$CI0x?$CFx?$CJ?6?$AA@ 1004be94     encconteccnt328mpci.obj
 0002:00008eb4       ??_C@_0BL@JKPAGFND@?5?5?5Pulse?5Input?3?5?$CFd?5?$CI0x?$CFx?$CJ?6?$AA@ 1004beb4     encconteccnt328mpci.obj
 0002:00008ed4       ??_C@_0BJ@GNILLNEI@?5?5?5Direction?3?5?$CFd?5?$CI0x?$CFx?$CJ?6?$AA@ 1004bed4     encconteccnt328mpci.obj
 0002:00008ef4       ??_C@_0BO@DKFKJOII@?5?5?5Operation?5Mode?3?5?$CFd?5?$CI0x?$CFx?$CJ?6?$AA@ 1004bef4     encconteccnt328mpci.obj
 0002:00008f18       ??_C@_0BH@DBDDMMGO@?5?5?5COUNTER?5MODE?3?50x?$CFx?6?$AA@ 1004bf18     encconteccnt328mpci.obj
 0002:00008f34       ??_C@_0BG@PGOHHDMJ@?5?5?5Preset?5Value?3?50x?$CFx?$AA@ 1004bf34     encconteccnt328mpci.obj
 0002:00008f50       ??_C@_0BH@OBCHHCLB@?5?5?5Match?50?5Value?3?50x?$CFx?$AA@ 1004bf50     encconteccnt328mpci.obj
 0002:00008f6c       ??_C@_0BI@PPJDJHAK@?5?5?5Match?51?5Value?3?50x?$CFx?6?$AA@ 1004bf6c     encconteccnt328mpci.obj
 0002:00008f88       ??_C@_0CB@BHICGGII@?5?5?5One?5Shot?5Duration?3?5?$CFd?5?$CI0x?$CFx?$CJ?6@ 1004bf88     encconteccnt328mpci.obj
 0002:00008fb0       ??_C@_0FK@MHKNLCPD@?5?5?5Output?5Signal?5?$CIMatch?50?11?5Abno@ 1004bfb0     encconteccnt328mpci.obj
 0002:0000901c       ??_C@_0BB@JCAIALPL@?5?5?5OUTPUT?3?50x?$CFx?6?$AA@ 1004c01c     encconteccnt328mpci.obj
 0002:00009030       ??_C@_0BM@KEHJNHBI@?5?5?5Index?5Enable?3?5?$CFd?5?$CI0x?$CFx?$CJ?6?$AA@ 1004c030     encconteccnt328mpci.obj
 0002:00009054       ??_C@_0BC@PJJJOOAA@?5?5?5Z?9PULSE?3?50x?$CFx?6?$AA@ 1004c054     encconteccnt328mpci.obj
 0002:0000906c       ??_C@_0CH@LIFPIGPB@?5?5?5Enable?5Digital?5Input?3?5?$CFd?5Outp@ 1004c06c     encconteccnt328mpci.obj
 0002:0000909c       ??_C@_0DF@HCJHNGFD@?5?5?5Digital?5Output?5Initial?5Value?3@ 1004c09c     encconteccnt328mpci.obj
 0002:000090dc       ??_C@_0CP@CNANCOON@?5?5?5External?5Output?5Signal?5Overlo@ 1004c0dc     encconteccnt328mpci.obj
 0002:00009118       ??_C@_0ED@LKHIFFLC@Wrong?5number?5of?5input?5arguments?5@ 1004c118     dacbpcidda0x12.obj
 0002:00009168       ??_C@_0BA@MBPMNBMJ@CB?5PCI?9DDA02?112?$AA@ 1004c168     dacbpcidda0x12.obj
 0002:0000917c       ??_C@_0BA@EOLMCEGJ@CB?5PCI?9DDA04?112?$AA@ 1004c17c     dacbpcidda0x12.obj
 0002:00009190       ??_C@_0BA@ILEMMJGI@CB?5PCI?9DDA08?112?$AA@ 1004c190     dacbpcidda0x12.obj
 0002:000091a4       ??_C@_0BA@KFJABEMN@CB?5PCI?9DDA02?116?$AA@ 1004c1a4     dacbpcidda0x12.obj
 0002:000091b8       ??_C@_0BA@CKNAOBGN@CB?5PCI?9DDA04?116?$AA@ 1004c1b8     dacbpcidda0x12.obj
 0002:000091cc       ??_C@_0BA@OPCAAMGM@CB?5PCI?9DDA08?116?$AA@ 1004c1cc     dacbpcidda0x12.obj
 0002:000091e0       ??_C@_0BB@IGAELBME@CB?5PCIM?9DDA06?116?$AA@ 1004c1e0     dacbpcidda0x12.obj
 0002:000091f4       ??_C@_0BD@IPMBHKCA@CB?5PCIM?9DAS1602?116?$AA@ 1004c1f4     dacbpcidda0x12.obj
 0002:0000920c       ??_C@_0BG@EPCOHGPO@?$CFs?3?5board?5not?5present?$AA@ 1004c20c     dacbpcidda0x12.obj
 0002:00009228       ??_C@_0CI@NFFNBHJA@?$CFs?5?$CIbus?5?$CFd?0?5slot?5?$CFd?$CJ?3?5board?5not?5@ 1004c228     dacbpcidda0x12.obj
 0002:00009258       __real@3ee4f8b588e368f1    1004c258     dacbpcidda0x12.obj
 0002:00009268       __real@4004000000000000    1004c268     dacbpcidda0x12.obj
 0002:00009278       __real@4014000000000000    1004c278     dacbpcidda0x12.obj
 0002:00009288       __real@4024000000000000    1004c288     dacbpcidda0x12.obj
 0002:00009298       __real@4034000000000000    1004c298     dacbpcidda0x12.obj
 0002:000092a8       __real@40b0000000000000    1004c2a8     dacbpcidda0x12.obj
 0002:000092b8       __real@40f0000000000000    1004c2b8     dacbpcidda0x12.obj
 0002:000092c4       ??_C@_0BC@MPAJBIJ@CB?5PCI?9DAS1602?116?$AA@ 1004c2c4     dopci8255.obj
 0002:000092dc       ??_C@_0P@HKDMEDDF@CB?5PCI?9DAS1200?$AA@ 1004c2dc     dopci8255.obj
 0002:000092f0       ??_C@_0BC@NLEKMPOI@CB?5PCI?9DAS1200?1JR?$AA@ 1004c2f0     dopci8255.obj
 0002:00009308       ??_C@_0O@OECMNDND@CB?5PCI?9DIO48H?$AA@ 1004c308     dopci8255.obj
 0002:00009318       ??_C@_0O@MIFNHFGL@CB?5PCI?9DIO24H?$AA@ 1004c318     dopci8255.obj
 0002:00009328       ??_C@_0O@BMNICGAE@CB?5PCI?9DIO96H?$AA@ 1004c328     dopci8255.obj
 0002:00009338       ??_C@_0N@PCCDCCJA@CB?5PCI?9DIO24?$AA@ 1004c338     dopci8255.obj
 0002:00009348       ??_C@_0BC@GIJMFEIN@CB?5PCI?9DAS1602?112?$AA@ 1004c348     dopci8255.obj
 0002:00009360       ??_C@_0M@DJFFBOOL@NI?5PCI?96503?$AA@ 1004c360     dopci8255.obj
 0002:00009370       ??_C@_0O@CJHADKHB@NI?5PCI?9DIO?996?$AA@ 1004c370     dopci8255.obj
 0002:00009380       ??_C@_0M@PLHAOKFN@NI?5PXI?96508?$AA@ 1004c380     dopci8255.obj
 0002:00009390       ??_C@_0N@NMILOOOH@NI?5PCI?96025E?$AA@ 1004c390     dopci8255.obj
 0002:000093a0       ??_C@_0BA@CMHAIHFM@CB?5PCI?9DUAL?9AC5?$AA@ 1004c3a0     dopci8255.obj
 0002:000093b4       ??_C@_0N@MMEAKPPD@CB?5PCI?9DIO96?$AA@ 1004c3b4     dopci8255.obj
 0002:000093c4       ??_C@_0BE@MDOBOAKD@CB?5?$CIMC?$CJ?5PCI?9DAS1001?$AA@ 1004c3c4     dopci8255.obj
 0002:000093dc       ??_C@_0BE@OIMMLDGA@CB?5?$CIMC?$CJ?5PCI?9DAS1002?$AA@ 1004c3dc     dopci8255.obj
 0002:000093f4       ??_C@_0BI@IHCNPKCM@No?5?$CFs?5at?5bus?5?$CFd?5slot?5?$CFd?$AA@ 1004c3f4     dopci8255.obj
 0002:00009410       ??_C@_0CJ@MHHCOHM@Board?5base?5address?5came?5up?50?0?5ca@ 1004c410     dopci8255.obj
 0002:00009444       ??_C@_0BC@JCHLEIED@MC?5PCI?9DAS1602?116?$AA@ 1004c444     dipci8255.obj
 0002:0000945c       ??_C@_0P@KEALKDG@MC?5PCI?9DAS1200?$AA@ 1004c45c     dipci8255.obj
 0002:00009470       ??_C@_0BC@EFMBBGCC@MC?5PCI?9DAS1200?1JR?$AA@ 1004c470     dipci8255.obj
 0002:00009488       ??_C@_0O@PCCBFPNG@MC?5PCI?9DIO48H?$AA@ 1004c488     dipci8255.obj
 0002:00009498       ??_C@_0BA@FIIFPMIK@MC?5PCI?9DDA02?112?$AA@ 1004c498     dipci8255.obj
 0002:000094ac       ??_C@_0BA@NHMFAJCK@MC?5PCI?9DDA04?112?$AA@ 1004c4ac     dipci8255.obj
 0002:000094c0       ??_C@_0BA@BCDFOECL@MC?5PCI?9DDA08?112?$AA@ 1004c4c0     dipci8255.obj
 0002:000094d4       ??_C@_0O@NOFAPJGO@MC?5PCI?9DIO24H?$AA@ 1004c4d4     dipci8255.obj
 0002:000094e4       ??_C@_0O@KNFKKAB@MC?5PCI?9DIO96H?$AA@ 1004c4e4     dipci8255.obj
 0002:000094f4       ??_C@_0N@JDGAGCEP@MC?5PCI?9DIO24?$AA@ 1004c4f4     dipci8255.obj
 0002:00009504       ??_C@_0BC@PGBHINEH@MC?5PCI?9DAS1602?112?$AA@ 1004c504     dipci8255.obj
 0002:0000951c       ??_C@_0BA@LFAJKKBP@MC?5PCI?9DUAL?9AC5?$AA@ 1004c51c     dipci8255.obj
 0002:00009530       ??_C@_0BA@DMOJDJIO@MC?5PCI?9DDA02?116?$AA@ 1004c530     dipci8255.obj
 0002:00009544       ??_C@_0BA@LDKJMMCO@MC?5PCI?9DDA04?116?$AA@ 1004c544     dipci8255.obj
 0002:00009558       ??_C@_0BA@HGFJCBCP@MC?5PCI?9DDA08?116?$AA@ 1004c558     dipci8255.obj
 0002:0000956c       ??_C@_0BB@GJEINIMD@MC?5PCIM?9DDA06?116?$AA@ 1004c56c     dipci8255.obj
 0002:00009580       ??_C@_0BD@PEOONKFH@MC?5PCIM?9DAS1602?116?$AA@ 1004c580     dipci8255.obj
 0002:00009598       ??_C@_0N@KNADOPCM@MC?5PCI?9DIO96?$AA@ 1004c598     dipci8255.obj
 0002:000095a8       ??_C@_0P@LJFCEDPM@MC?5PCI?9DAS1001?$AA@ 1004c5a8     dipci8255.obj
 0002:000095bc       ??_C@_0P@JCHPBADP@MC?5PCI?9DAS1002?$AA@ 1004c5bc     dipci8255.obj
 0002:000095d0       ??_C@_0CN@MHEKKFIE@Output?5port?5width?5argument?5must?5@ 1004c5d0     xpcudpbytereceive.obj
 0002:00009608       ??_C@_0DC@KNMLNALJ@Error?5in?5udpbytereceive?3?5memory?5@ 1004c608     xpcudpbytereceive.obj
 0002:00009644       ??_C@_0CI@CAMPNCMJ@Error?3?5No?5UDP?5channel?5free?5or?5UD@ 1004c644     xpcudpbytereceive.obj
 0002:00009674       ??_C@_0CC@DMFKNLL@VendorId?5?$DN?50x?$CFx?0?5DeviceId?5?$DN?50x?$CFx@ 1004c674     xpcruntime:xpcimports.obj
 0002:00009698       ??_C@_0DH@OHCBLNMG@Subsystem?5Device?5ID?5?$DN?50x?$CFx?6Subsy@ 1004c698     xpcruntime:xpcimports.obj
 0002:000096d0       ??_C@_0BD@MMMMEFCM@Class?5Code?5?$DN?50x?$CFx?6?$AA@ 1004c6d0     xpcruntime:xpcimports.obj
 0002:000096e4       ??_C@_0BE@OLDDDNHM@InterruptLine?5?$DN?5?$CFd?6?$AA@ 1004c6e4     xpcruntime:xpcimports.obj
 0002:000096f8       ??_C@_0BF@OLKLEKBD@bus?5?$DN?5?$CFd?0?5slot?5?$DN?5?$CFd?6?$AA@ 1004c6f8     xpcruntime:xpcimports.obj
 0002:00009710       ??_C@_0CE@DGLLGDFH@?5?5?5?5Phys?5?5?5Virtual?5?5?5Length?5IO?1M@ 1004c710     xpcruntime:xpcimports.obj
 0002:00009734       ??_C@_0BI@FEOPLEMG@?$CF08x?5?$CF08x?5?$CF08x?5?5?5?5?5?5?$CFc?6?$AA@ 1004c734     xpcruntime:xpcimports.obj
 0002:0000974c       ??_C@_0BB@BNNCEDPC@rl32eScopeExists?$AA@ 1004c74c     xpcruntime:xpcimports.obj
 0002:00009760       ??_C@_0BM@FJBFEGFG@rl32eScopeExists?5not?5found?6?$AA@ 1004c760     xpcruntime:xpcimports.obj
 0002:0000977c       ??_C@_0O@BNNGKJEA@rl32eDefScope?$AA@ 1004c77c     xpcruntime:xpcimports.obj
 0002:0000978c       ??_C@_0BJ@CDNOENKA@rl32eDefScope?5not?5found?6?$AA@ 1004c78c     xpcruntime:xpcimports.obj
 0002:000097a8       ??_C@_0P@CKNKILDP@rl32eAddSignal?$AA@ 1004c7a8     xpcruntime:xpcimports.obj
 0002:000097b8       ??_C@_0BK@GMJAJBAI@rl32eAddSignal?5not?5found?6?$AA@ 1004c7b8     xpcruntime:xpcimports.obj
 0002:000097d4       ??_C@_0BB@LDMIHGCE@rl32eGetSignalNo?$AA@ 1004c7d4     xpcruntime:xpcimports.obj
 0002:000097e8       ??_C@_0BM@LGAMBAID@rl32eGetSignalNo?5not?5found?6?$AA@ 1004c7e8     xpcruntime:xpcimports.obj
 0002:00009804       ??_C@_0O@CFDGALBP@rl32eSetScope?$AA@ 1004c804     xpcruntime:xpcimports.obj
 0002:00009814       ??_C@_0BJ@JCLHHIN@rl32eSetScope?5not?5found?6?$AA@ 1004c814     xpcruntime:xpcimports.obj
 0002:00009830       ??_C@_0P@IKMCBMHH@xpceFSScopeSet?$AA@ 1004c830     xpcruntime:xpcimports.obj
 0002:00009840       ??_C@_0BK@JODJPNNH@xpceFSScopeSet?5not?5found?6?$AA@ 1004c840     xpcruntime:xpcimports.obj
 0002:0000985c       ??_C@_0BE@DLACEEJM@rl32eSetTargetScope?$AA@ 1004c85c     xpcruntime:xpcimports.obj
 0002:00009870       ??_C@_0BP@JCHFMKPJ@rl32eSetTargetScope?5not?5found?6?$AA@ 1004c870     xpcruntime:xpcimports.obj
 0002:00009890       ??_C@_0BJ@LIDLNDHC@rl32eSetTargetScopeSigFt?$AA@ 1004c890     xpcruntime:xpcimports.obj
 0002:000098ac       ??_C@_0CE@JLGHCFHI@rl32eSetTargetScopeSigFt?5not?5fou@ 1004c8ac     xpcruntime:xpcimports.obj
 0002:000098d0       ??_C@_0BI@JAPOIDNG@rl32eRestartAcquisition?$AA@ 1004c8d0     xpcruntime:xpcimports.obj
 0002:000098e8       ??_C@_0CD@LLBEFFBO@rl32eRestartAcquisition?5not?5foun@ 1004c8e8     xpcruntime:xpcimports.obj
 0002:0000990c       ??_C@_0P@IEIIADJB@xpceScopeAcqOK?$AA@ 1004c90c     xpcruntime:xpcimports.obj
 0002:0000991c       ??_C@_0BK@NJCKNFPN@xpceScopeAcqOK?5not?5found?6?$AA@ 1004c91c     xpcruntime:xpcimports.obj
 0002:00009938       ??_C@_0BA@IJINKAHF@xpceRegisterISR?$AA@ 1004c938     xpcruntime:xpcimports.obj
 0002:00009948       ??_C@_0BL@NNDLOEJE@xpceRegisterISR?5not?5found?6?$AA@ 1004c948     xpcruntime:xpcimports.obj
 0002:00009964       ??_C@_0BC@NLBADGKF@xpceDeRegisterISR?$AA@ 1004c964     xpcruntime:xpcimports.obj
 0002:00009978       ??_C@_0BN@DCAIKFFD@xpceDeRegisterISR?5not?5found?6?$AA@ 1004c978     xpcruntime:xpcimports.obj
 0002:00009998       ??_C@_0P@CPGPNKEB@xpceFTReadTime?$AA@ 1004c998     xpcruntime:xpcimports.obj
 0002:000099a8       ??_C@_0BK@NMABIODN@xpceFTReadTime?5not?5found?6?$AA@ 1004c9a8     xpcruntime:xpcimports.obj
 0002:000099c4       ??_C@_09PHNHCHFH@xpceFTAdd?$AA@ 1004c9c4     xpcruntime:xpcimports.obj
 0002:000099d0       ??_C@_0BF@FJLEIILA@xpceFTAdd?5not?5found?6?$AA@ 1004c9d0     xpcruntime:xpcimports.obj
 0002:000099e8       ??_C@_0P@KEODBLHO@xpceFTSubtract?$AA@ 1004c9e8     xpcruntime:xpcimports.obj
 0002:000099f8       ??_C@_0BK@HONODOKP@xpceFTSubtract?5not?5found?6?$AA@ 1004c9f8     xpcruntime:xpcimports.obj
 0002:00009a14       ??_C@_07JPMEPILD@xpcInpB?$AA@ 1004ca14     xpcruntime:xpcimports.obj
 0002:00009a1c       ??_C@_0BD@PGABEJOL@xpcInpB?5not?5found?6?$AA@ 1004ca1c     xpcruntime:xpcimports.obj
 0002:00009a30       ??_C@_07KIHBBOKH@xpcInpW?$AA@ 1004ca30     xpcruntime:xpcimports.obj
 0002:00009a38       ??_C@_0BD@FPCJFMCC@xpcInpW?5not?5found?6?$AA@ 1004ca38     xpcruntime:xpcimports.obj
 0002:00009a4c       ??_C@_08KDIAJBOP@xpcInpDW?$AA@ 1004ca4c     xpcruntime:xpcimports.obj
 0002:00009a58       ??_C@_0BE@PIELDNIL@xpcInpDW?5not?5found?6?$AA@ 1004ca58     xpcruntime:xpcimports.obj
 0002:00009a6c       ??_C@_08PJFMOIGO@xpcOutpB?$AA@ 1004ca6c     xpcruntime:xpcimports.obj
 0002:00009a78       ??_C@_0BE@HCKNCEKF@xpcOutpB?5not?5found?6?$AA@ 1004ca78     xpcruntime:xpcimports.obj
 0002:00009a8c       ??_C@_08MOOJAOHK@xpcOutpW?$AA@ 1004ca8c     xpcruntime:xpcimports.obj
 0002:00009a98       ??_C@_0BE@NLIFDBGM@xpcOutpW?5not?5found?6?$AA@ 1004ca98     xpcruntime:xpcimports.obj
 0002:00009aac       ??_C@_09FLIEKHJG@xpcOutpDW?$AA@ 1004caac     xpcruntime:xpcimports.obj
 0002:00009ab8       ??_C@_0BF@GJKLPNHB@xpcOutpDW?5not?5found?6?$AA@ 1004cab8     xpcruntime:xpcimports.obj
 0002:00009ad0       ??_C@_0BH@EHOLELHH@xpcReserveMemoryRegion?$AA@ 1004cad0     xpcruntime:xpcimports.obj
 0002:00009ae8       ??_C@_0CC@KAAAGPI@xpcReserveMemoryRegion?5not?5found@ 1004cae8     xpcruntime:xpcimports.obj
 0002:00009b0c       ??_C@_0BA@JGPMHGAF@rl32eShowPCIDev?$AA@ 1004cb0c     xpcruntime:xpcimports.obj
 0002:00009b1c       ??_C@_0BL@DDFFLNHI@rl32eShowPCIDev?5not?5found?6?$AA@ 1004cb1c     xpcruntime:xpcimports.obj
 0002:00009b38       ??_C@_0BB@KBCOJPFB@rl32eShowPCIInfo?$AA@ 1004cb38     xpcruntime:xpcimports.obj
 0002:00009b4c       ??_C@_0BM@IFDMAGLO@rl32eShowPCIInfo?5not?5found?6?$AA@ 1004cb4c     xpcruntime:xpcimports.obj
 0002:00009b68       ??_C@_0BA@BGPAADB@rl32eGetPCIInfo?$AA@ 1004cb68     xpcruntime:xpcimports.obj
 0002:00009b78       ??_C@_0BL@IGOMLDCK@rl32eGetPCIInfo?5not?5found?6?$AA@ 1004cb78     xpcruntime:xpcimports.obj
 0002:00009b94       ??_C@_0BG@NJPFKFDP@rl32eGetPCIInfoAtSlot?$AA@ 1004cb94     xpcruntime:xpcimports.obj
 0002:00009bac       ??_C@_0CB@BBKIPMLA@rl32eGetPCIInfoAtSlot?5not?5found?6@ 1004cbac     xpcruntime:xpcimports.obj
 0002:00009bd0       ??_C@_0BH@OKBOPNFG@xpceAssignPCIInterrupt?$AA@ 1004cbd0     xpcruntime:xpcimports.obj
 0002:00009be8       ??_C@_0CC@CDNDNJBJ@xpceAssignPCIInterrupt?5not?5found@ 1004cbe8     xpcruntime:xpcimports.obj
 0002:00009c0c       ??_C@_0BB@FCHHFAAH@rl32eInitCOMPort?$AA@ 1004cc0c     xpcruntime:xpcimports.obj
 0002:00009c20       ??_C@_0BM@DDJGKAHB@rl32eInitCOMPort?5not?5found?6?$AA@ 1004cc20     xpcruntime:xpcimports.obj
 0002:00009c3c       ??_C@_0BC@CHEEFCP@rl32eCloseCOMPort?$AA@ 1004cc3c     xpcruntime:xpcimports.obj
 0002:00009c50       ??_C@_0BN@KCOFELEM@rl32eCloseCOMPort?5not?5found?6?$AA@ 1004cc50     xpcruntime:xpcimports.obj
 0002:00009c70       ??_C@_0O@LLJGKFOG@rl32eSendChar?$AA@ 1004cc70     xpcruntime:xpcimports.obj
 0002:00009c80       ??_C@_0BJ@JCJKDACJ@rl32eSendChar?5not?5found?6?$AA@ 1004cc80     xpcruntime:xpcimports.obj
 0002:00009c9c       ??_C@_0BB@OMFKCOEK@rl32eReceiveChar?$AA@ 1004cc9c     xpcruntime:xpcimports.obj
 0002:00009cb0       ??_C@_0BM@HGAIOAND@rl32eReceiveChar?5not?5found?6?$AA@ 1004ccb0     xpcruntime:xpcimports.obj
 0002:00009ccc       ??_C@_0BI@PKEJFHMJ@rl32eReceiveBufferCount?$AA@ 1004cccc     xpcruntime:xpcimports.obj
 0002:00009ce4       ??_C@_0CD@LNMOFLAH@rl32eReceiveBufferCount?5not?5foun@ 1004cce4     xpcruntime:xpcimports.obj
 0002:00009d08       ??_C@_0BA@CFIJOJPK@rl32eLineStatus?$AA@ 1004cd08     xpcruntime:xpcimports.obj
 0002:00009d18       ??_C@_0BL@PLIDKKGI@rl32eLineStatus?5not?5found?6?$AA@ 1004cd18     xpcruntime:xpcimports.obj
 0002:00009d34       ??_C@_0P@MDMKIJF@rl32eSendBlock?$AA@ 1004cd34     xpcruntime:xpcimports.obj
 0002:00009d44       ??_C@_0BK@KNBNFIKH@rl32eSendBlock?5not?5found?6?$AA@ 1004cd44     xpcruntime:xpcimports.obj
 0002:00009d60       ??_C@_0BD@PCKOKHO@xpceGetSignalValue?$AA@ 1004cd60     xpcruntime:xpcimports.obj
 0002:00009d74       ??_C@_0BO@GCBDJHMB@xpceGetSignalValue?5not?5found?6?$AA@ 1004cd74     xpcruntime:xpcimports.obj
 0002:00009d94       ??_C@_0BB@BJONJAGA@xpceSetParameter?$AA@ 1004cd94     xpcruntime:xpcimports.obj
 0002:00009da8       ??_C@_0BM@BJIKDLHA@xpceSetParameter?5not?5found?6?$AA@ 1004cda8     xpcruntime:xpcimports.obj
 0002:00009dc4       ??_C@_0BB@GNFDFMCM@xpceGetParameter?$AA@ 1004cdc4     xpcruntime:xpcimports.obj
 0002:00009dd8       ??_C@_0BM@POHNKBC@xpceGetParameter?5not?5found?6?$AA@ 1004cdd8     xpcruntime:xpcimports.obj
 0002:00009df4       ??_C@_0BB@CEIJLFCD@xpceGetParamDims?$AA@ 1004cdf4     xpcruntime:xpcimports.obj
 0002:00009e08       ??_C@_0BM@OABDBKAO@xpceGetParamDims?5not?5found?6?$AA@ 1004ce08     xpcruntime:xpcimports.obj
 0002:00009e24       ??_C@_0L@OCBLLHBM@xpceGetTET?$AA@ 1004ce24     xpcruntime:xpcimports.obj
 0002:00009e30       ??_C@_0BG@HNOFBOB@xpceGetTET?5not?5found?6?$AA@ 1004ce30     xpcruntime:xpcimports.obj
 0002:00009e48       ??_C@_0BA@FHMIOKFL@xpceUDPOpenSend?$AA@ 1004ce48     xpcruntime:xpcimports.obj
 0002:00009e58       ??_C@_0BL@HNLPFEK@xpceUDPOpenSend?5not?5found?6?$AA@ 1004ce58     xpcruntime:xpcimports.obj
 0002:00009e74       ??_C@_0BD@BCELJJJL@xpceUDPOpenReceive?$AA@ 1004ce74     xpcruntime:xpcimports.obj
 0002:00009e88       ??_C@_0BO@IFKJBHKC@xpceUDPOpenReceive?5not?5found?6?$AA@ 1004ce88     xpcruntime:xpcimports.obj
 0002:00009ea8       ??_C@_0M@OFPFLJGN@xpceUDPSend?$AA@ 1004cea8     xpcruntime:xpcimports.obj
 0002:00009eb4       ??_C@_0BH@NOIKLPAB@xpceUDPSend?5not?5found?6?$AA@ 1004ceb4     xpcruntime:xpcimports.obj
 0002:00009ecc       ??_C@_0P@PLFDECIN@xpceUDPReceive?$AA@ 1004cecc     xpcruntime:xpcimports.obj
 0002:00009edc       ??_C@_0BK@OPJMLDLH@xpceUDPReceive?5not?5found?6?$AA@ 1004cedc     xpcruntime:xpcimports.obj
 0002:00009ef8       ??_C@_0N@IEHPMFME@xpceUDPClose?$AA@ 1004cef8     xpcruntime:xpcimports.obj
 0002:00009f08       ??_C@_0BI@FHPFHECO@xpceUDPClose?5not?5found?6?$AA@ 1004cf08     xpcruntime:xpcimports.obj
 0002:00009f20       ??_C@_0P@OKGNGAGH@xpcIsModelInit?$AA@ 1004cf20     xpcruntime:xpcimports.obj
 0002:00009f30       ??_C@_0BK@DHEMLBIM@xpcIsModelInit?5not?5found?6?$AA@ 1004cf30     xpcruntime:xpcimports.obj
 0002:00009f4c       ??_C@_0BH@KJJLCAOJ@xpcAllocPhysicalMemory?$AA@ 1004cf4c     xpcruntime:xpcimports.obj
 0002:00009f64       ??_C@_0CC@MOJPNHKL@xpcAllocPhysicalMemory?5not?5found@ 1004cf64     xpcruntime:xpcimports.obj
 0002:00009f88       ??_C@_0BG@CBNPGAEL@xpcFreePhysicalMemory?$AA@ 1004cf88     xpcruntime:xpcimports.obj
 0002:00009fa0       ??_C@_0CB@PKJEBPOG@xpcFreePhysicalMemory?5not?5found?6@ 1004cfa0     xpcruntime:xpcimports.obj
 0002:00009fc4       ??_C@_0BC@JGKNLICL@xpcGetElapsedTime?$AA@ 1004cfc4     xpcruntime:xpcimports.obj
 0002:00009fd8       ??_C@_0BN@OEOAHCIO@xpcGetElapsedTime?5not?5found?6?$AA@ 1004cfd8     xpcruntime:xpcimports.obj
 0002:00009ff8       ??_C@_0M@ICBLMODA@xpcBusyWait?$AA@ 1004cff8     xpcruntime:xpcimports.obj
 0002:0000a004       ??_C@_0BH@FBOPECBI@xpcBusyWait?5not?5found?6?$AA@ 1004d004     xpcruntime:xpcimports.obj
 0002:0000a01c       ??_C@_0N@LKKJEKKA@TBCreateSpin?$AA@ 1004d01c     xpcruntime:xpcimports.obj
 0002:0000a02c       ??_C@_0BI@FHKMLKOE@TBCreateSpin?5not?5found?6?$AA@ 1004d02c     xpcruntime:xpcimports.obj
 0002:0000a044       ??_C@_0N@HOAJHNBD@TBDeleteSpin?$AA@ 1004d044     xpcruntime:xpcimports.obj
 0002:0000a054       ??_C@_0BI@BKCPAAG@TBDeleteSpin?5not?5found?6?$AA@ 1004d054     xpcruntime:xpcimports.obj
 0002:0000a06c       ??_C@_0P@DAHDDBJG@TBTakeSpinFast?$AA@ 1004d06c     xpcruntime:xpcimports.obj
 0002:0000a07c       ??_C@_0BK@NKAIBHGB@TBTakeSpinFast?5not?5found?6?$AA@ 1004d07c     xpcruntime:xpcimports.obj
 0002:0000a098       ??_C@_0P@FKNAAELA@TBGiveSpinFast?$AA@ 1004d098     xpcruntime:xpcimports.obj
 0002:0000a0a8       ??_C@_0BK@KGPJBJND@TBGiveSpinFast?5not?5found?6?$AA@ 1004d0a8     xpcruntime:xpcimports.obj
 0002:0000a0c4       ??_C@_0BE@IIGBFDHK@xpceCreateSemaphore?$AA@ 1004d0c4     xpcruntime:xpcimports.obj
 0002:0000a0d8       ??_C@_0BP@KFBAFFKJ@xpceCreateSemaphore?5not?5found?6?$AA@ 1004d0d8     xpcruntime:xpcimports.obj
 0002:0000a0f8       ??_C@_0BC@IFNIONKJ@xpceWaitSemaphore?$AA@ 1004d0f8     xpcruntime:xpcimports.obj
 0002:0000a10c       ??_C@_0BN@NMFAADIO@xpceWaitSemaphore?5not?5found?6?$AA@ 1004d10c     xpcruntime:xpcimports.obj
 0002:0000a12c       ??_C@_0BE@NNDIOBKE@xpceSignalSemaphore?$AA@ 1004d12c     xpcruntime:xpcimports.obj
 0002:0000a140       ??_C@_0BP@LBANMHJP@xpceSignalSemaphore?5not?5found?6?$AA@ 1004d140     xpcruntime:xpcimports.obj
 0002:0000a160       ??_C@_0BE@MEBEKOIM@xpceDeleteSemaphore?$AA@ 1004d160     xpcruntime:xpcimports.obj
 0002:0000a174       ??_C@_0BP@OFNCKOJH@xpceDeleteSemaphore?5not?5found?6?$AA@ 1004d174     xpcruntime:xpcimports.obj
 0002:0000a194       ??_C@_0BD@MFNDMBOF@FindUsbVideoDevice?$AA@ 1004d194     xpcruntime:xpcimports.obj
 0002:0000a1a8       ??_C@_0BO@POKLDHMI@FindUsbVideoDevice?5not?5found?6?$AA@ 1004d1a8     xpcruntime:xpcimports.obj
 0002:0000a1c8       ??_C@_0BA@PLPAPNAB@GetVideoConfigs?$AA@ 1004d1c8     xpcruntime:xpcimports.obj
 0002:0000a1d8       ??_C@_0BL@DALDHKHC@GetVideoConfigs?5not?5found?6?$AA@ 1004d1d8     xpcruntime:xpcimports.obj
 0002:0000a1f4       ??_C@_0L@GBAEMHMH@StartVideo?$AA@ 1004d1f4     xpcruntime:xpcimports.obj
 0002:0000a200       ??_C@_0BG@HDCELEBP@StartVideo?5not?5found?6?$AA@ 1004d200     xpcruntime:xpcimports.obj
 0002:0000a218       ??_C@_0BA@FDNPOCLN@ReadFrameBuffer?$AA@ 1004d218     xpcruntime:xpcimports.obj
 0002:0000a228       ??_C@_0BL@JHGHPNBI@ReadFrameBuffer?5not?5found?6?$AA@ 1004d228     xpcruntime:xpcimports.obj
 0002:0000a244       ??_C@_09FAHCLKAG@StopVideo?$AA@ 1004d244     xpcruntime:xpcimports.obj
 0002:0000a250       ??_C@_0BF@NKGKKADL@StopVideo?5not?5found?6?$AA@ 1004d250     xpcruntime:xpcimports.obj
 0002:0000a268       ??_C@_0O@MCPKDLLL@ConvertUImage?$AA@ 1004d268     xpcruntime:xpcimports.obj
 0002:0000a278       ??_C@_0BJ@PHJKOAFL@ConvertUImage?5not?5found?6?$AA@ 1004d278     xpcruntime:xpcimports.obj
 0002:0000a294       ??_C@_0BD@NKCBPBJJ@CreateVideoDisplay?$AA@ 1004d294     xpcruntime:xpcimports.obj
 0002:0000a2a8       ??_C@_0BO@HPPLLNFP@CreateVideoDisplay?5not?5found?6?$AA@ 1004d2a8     xpcruntime:xpcimports.obj
 0002:0000a2c8       ??_C@_0BE@KJCKGPHA@DestroyVideoDisplay?$AA@ 1004d2c8     xpcruntime:xpcimports.obj
 0002:0000a2dc       ??_C@_0BP@FMGLJAIJ@DestroyVideoDisplay?5not?5found?6?$AA@ 1004d2dc     xpcruntime:xpcimports.obj
 0002:0000a2fc       ??_C@_0BC@HCMIMIDN@StartVideoDisplay?$AA@ 1004d2fc     xpcruntime:xpcimports.obj
 0002:0000a310       ??_C@_0BN@EFIEBGOO@StartVideoDisplay?5not?5found?6?$AA@ 1004d310     xpcruntime:xpcimports.obj
 0002:0000a330       ??_C@_0BB@JBBLMILG@StopVideoDisplay?$AA@ 1004d330     xpcruntime:xpcimports.obj
 0002:0000a344       ??_C@_0BM@DBJBPLEL@StopVideoDisplay?5not?5found?6?$AA@ 1004d344     xpcruntime:xpcimports.obj
 0002:0000a360       ??_C@_0M@MFJEGMHC@StreamVideo?$AA@ 1004d360     xpcruntime:xpcimports.obj
 0002:0000a36c       ??_C@_0BH@OINCDMLA@StreamVideo?5not?5found?6?$AA@ 1004d36c     xpcruntime:xpcimports.obj
 0002:0000a384       ??_C@_0N@IGGLCIGE@xpceaddEvent?$AA@ 1004d384     xpcruntime:xpcimports.obj
 0002:0000a394       ??_C@_0BI@NHJNFMKH@xpceaddEvent?5not?5found?6?$AA@ 1004d394     xpcruntime:xpcimports.obj
 0002:0000a3ac       ??_C@_0BB@LCMHHHFN@getMemoryService?$AA@ 1004d3ac     xpcruntime:xpcimports.obj
 0002:0000a3c0       ??_C@_0BM@MPLCNIIE@getMemoryService?5not?5found?6?$AA@ 1004d3c0     xpcruntime:xpcimports.obj
 0002:0000a3dc       ??_C@_0P@KIKONDKK@getCommService?$AA@ 1004d3dc     xpcruntime:xpcimports.obj
 0002:0000a3ec       ??_C@_0BK@NCECBKNM@getCommService?5not?5found?6?$AA@ 1004d3ec     xpcruntime:xpcimports.obj
 0002:0000a408       ??_C@_0P@GDLHFECE@getStatusFlags?$AA@ 1004d408     xpcruntime:xpcimports.obj
 0002:0000a418       ??_C@_0BK@NEKDLJHG@getStatusFlags?5not?5found?6?$AA@ 1004d418     xpcruntime:xpcimports.obj
 0002:0000a434       ??_C@_0BL@CDFCLKOL@startToAsyncQueueTgtAppSvc?$AA@ 1004d434     xpcruntime:xpcimports.obj
 0002:0000a450       ??_C@_0CG@JGOFFKEL@startToAsyncQueueTgtAppSvc?5not?5f@ 1004d450     xpcruntime:xpcimports.obj
 0002:0000a478       ??_C@_0BP@IJNGPPPE@terminateToAsyncQueueTgtAppSvc?$AA@ 1004d478     xpcruntime:xpcimports.obj
 0002:0000a498       ??_C@_0CK@NDEMAMKF@terminateToAsyncQueueTgtAppSvc?5n@ 1004d498     xpcruntime:xpcimports.obj
 0002:0000a4c4       ??_C@_0BK@IDACEHAO@sendToAsyncQueueTgtAppSvc?$AA@ 1004d4c4     xpcruntime:xpcimports.obj
 0002:0000a4e0       ??_C@_0CF@PNCKPEHN@sendToAsyncQueueTgtAppSvc?5not?5fo@ 1004d4e0     xpcruntime:xpcimports.obj
 0002:0000a508       ??_C@_0BN@HJOHIFOM@xpceGetIntTimerGranularityNS?$AA@ 1004d508     xpcruntime:xpcimports.obj
 0002:0000a528       ??_C@_0CI@OADDPMKB@xpceGetIntTimerGranularityNS?5not@ 1004d528     xpcruntime:xpcimports.obj
 0002:0000a550       ??_C@_0BG@CCHICKPN@slrteSetStepSizeDelta?$AA@ 1004d550     xpcruntime:xpcimports.obj
 0002:0000a568       ??_C@_0CB@MKHINEIJ@slrteSetStepSizeDelta?5not?5found?6@ 1004d568     xpcruntime:xpcimports.obj
 0002:0000a58c       ??_C@_0BI@CLNBLDKJ@slrteGetCurrentStepSize?$AA@ 1004d58c     xpcruntime:xpcimports.obj
 0002:0000a5a4       ??_C@_0CD@GIOJPGJA@slrteGetCurrentStepSize?5not?5foun@ 1004d5a4     xpcruntime:xpcimports.obj
 0002:0000a5c8       ??_C@_0BE@FCLCBOC@registerPTPTimeRead?$AA@ 1004d5c8     xpcruntime:xpcimports.obj
 0002:0000a5dc       ??_C@_0BP@LHPKAJIP@registerPTPTimeRead?5not?5found?6?$AA@ 1004d5dc     xpcruntime:xpcimports.obj
 0002:0000a5fc       ??_C@_0BG@KIGCDDJI@unRegisterPTPTimeRead?$AA@ 1004d5fc     xpcruntime:xpcimports.obj
 0002:0000a614       ??_C@_0CB@MLFFBFCM@unRegisterPTPTimeRead?5not?5found?6@ 1004d614     xpcruntime:xpcimports.obj
 0002:0000a638       ??_C@_0BB@IPMDDBHK@slTestInitialize?$AA@ 1004d638     xpcruntime:xpcimports.obj
 0002:0000a64c       ??_C@_0BM@LAJFCCJH@slTestInitialize?5not?5found?6?$AA@ 1004d64c     xpcruntime:xpcimports.obj
 0002:0000a668       ??_C@_0BF@OOMPMEBC@slTestLogAssessments?$AA@ 1004d668     xpcruntime:xpcimports.obj
 0002:0000a680       ??_C@_0CA@FGJCEBAG@slTestLogAssessments?5not?5found?6?$AA@ 1004d680     xpcruntime:xpcimports.obj
 0002:0000a6a0       ??_C@_0BB@HJHKONHO@slTestEvalOnFail?$AA@ 1004d6a0     xpcruntime:xpcimports.obj
 0002:0000a6b4       ??_C@_0BM@JIKCFFNJ@slTestEvalOnFail?5not?5found?6?$AA@ 1004d6b4     xpcruntime:xpcimports.obj
 0002:0000a6d0       ??_C@_0BA@LBHLABFP@slTestTerminate?$AA@ 1004d6d0     xpcruntime:xpcimports.obj
 0002:0000a6e0       ??_C@_0BL@EMFGKAPA@slTestTerminate?5not?5found?6?$AA@ 1004d6e0     xpcruntime:xpcimports.obj
 0002:0000a6fc       ??_C@_0BE@JPNPBBEO@slTestRegAssessment?$AA@ 1004d6fc     xpcruntime:xpcimports.obj
 0002:0000a710       ??_C@_0BP@FBDEJJJH@slTestRegAssessment?5not?5found?6?$AA@ 1004d710     xpcruntime:xpcimports.obj
 0002:0000a730       __FPinit                   1004d730     LIBCMT:fpinit.obj
 0002:0000a73c       ??_C@_1BI@BGOHAHKC@?$AAm?$AAs?$AAc?$AAo?$AAr?$AAe?$AAe?$AA?4?$AAd?$AAl?$AAl?$AA?$AA@ 1004d73c     LIBCMT:crt0dat.obj
 0002:0000a754       ??_C@_0P@MIGLKIOC@CorExitProcess?$AA@ 1004d754     LIBCMT:crt0dat.obj
 0002:0000a7f4       ??_C@_17LGKOMLJ@?$AA?4?$AA?4?$AA?4?$AA?$AA@ 1004d7f4     LIBCMT:wassert.obj
 0002:0000a7fc       ??_C@_13LBAGMAIH@?$AA?6?$AA?$AA@ 1004d7fc     LIBCMT:wassert.obj
 0002:0000a800       ??_C@_15IABLJNFO@?$AA?6?$AA?6?$AA?$AA@ 1004d800     LIBCMT:wassert.obj
 0002:0000a808       ??_C@_1CE@OJBNHDMO@?$AAA?$AAs?$AAs?$AAe?$AAr?$AAt?$AAi?$AAo?$AAn?$AA?5?$AAf?$AAa?$AAi?$AAl?$AAe?$AAd?$AA?$CB?$AA?$AA@ 1004d808     LIBCMT:wassert.obj
 0002:0000a82c       ??_C@_1BE@PHKBBGE@?$AAP?$AAr?$AAo?$AAg?$AAr?$AAa?$AAm?$AA?3?$AA?5?$AA?$AA@ 1004d82c     LIBCMT:wassert.obj
 0002:0000a840       ??_C@_1CO@EAEJAADC@?$AA?$DM?$AAp?$AAr?$AAo?$AAg?$AAr?$AAa?$AAm?$AA?5?$AAn?$AAa?$AAm?$AAe?$AA?5?$AAu?$AAn?$AAk?$AAn?$AAo?$AAw?$AAn?$AA?$DO?$AA?$AA@ 1004d840     LIBCMT:wassert.obj
 0002:0000a870       ??_C@_1O@HEMHKNDC@?$AAF?$AAi?$AAl?$AAe?$AA?3?$AA?5?$AA?$AA@ 1004d870     LIBCMT:wassert.obj
 0002:0000a880       ??_C@_1O@KCAFKHJE@?$AAL?$AAi?$AAn?$AAe?$AA?3?$AA?5?$AA?$AA@ 1004d880     LIBCMT:wassert.obj
 0002:0000a890       ??_C@_1BK@PEDCIPMA@?$AAE?$AAx?$AAp?$AAr?$AAe?$AAs?$AAs?$AAi?$AAo?$AAn?$AA?3?$AA?5?$AA?$AA@ 1004d890     LIBCMT:wassert.obj
 0002:0000a8b0       ??_C@_1OA@EGMLFBHJ@?$AAF?$AAo?$AAr?$AA?5?$AAi?$AAn?$AAf?$AAo?$AAr?$AAm?$AAa?$AAt?$AAi?$AAo?$AAn?$AA?5?$AAo?$AAn?$AA?5?$AAh?$AAo?$AAw?$AA?5?$AAy?$AAo?$AAu?$AAr?$AA?5?$AAp?$AAr?$AAo?$AAg@ 1004d8b0     LIBCMT:wassert.obj
 0002:0000a990       ??_C@_1HK@POCJMFGK@?$AA?$CI?$AAP?$AAr?$AAe?$AAs?$AAs?$AA?5?$AAR?$AAe?$AAt?$AAr?$AAy?$AA?5?$AAt?$AAo?$AA?5?$AAd?$AAe?$AAb?$AAu?$AAg?$AA?5?$AAt?$AAh?$AAe?$AA?5?$AAa?$AAp?$AAp?$AAl?$AAi?$AAc@ 1004d990     LIBCMT:wassert.obj
 0002:0000aa10       ??_C@_1EK@MBDPDCGA@?$AAM?$AAi?$AAc?$AAr?$AAo?$AAs?$AAo?$AAf?$AAt?$AA?5?$AAV?$AAi?$AAs?$AAu?$AAa?$AAl?$AA?5?$AAC?$AA?$CL?$AA?$CL?$AA?5?$AAR?$AAu?$AAn?$AAt?$AAi?$AAm?$AAe?$AA?5?$AAL?$AAi?$AAb@ 1004da10     LIBCMT:wassert.obj
 0002:0000aa5c       __pRawDllMain              1004da5c     LIBCMT:dllcrt0.obj
 0002:0000aa5c       __pDefaultRawDllMain       1004da5c     LIBCMT:dllcrt0.obj
 0002:0000aa60       ?ProcessDetach@NativeDll@<CrtImplementationDetails>@@0IB 1004da60     LIBCMT:handler.obj
 0002:0000aa64       ?ProcessAttach@NativeDll@<CrtImplementationDetails>@@0IB 1004da64     LIBCMT:handler.obj
 0002:0000aa68       ?ThreadAttach@NativeDll@<CrtImplementationDetails>@@0IB 1004da68     LIBCMT:handler.obj
 0002:0000aa6c       ?ThreadDetach@NativeDll@<CrtImplementationDetails>@@0IB 1004da6c     LIBCMT:handler.obj
 0002:0000aa70       ?ProcessVerifier@NativeDll@<CrtImplementationDetails>@@0IB 1004da70     LIBCMT:handler.obj
 0002:0000ab30       ??_C@_1FK@PGACCAFB@?$AAR?$AA6?$AA0?$AA0?$AA2?$AA?$AN?$AA?6?$AA?9?$AA?5?$AAf?$AAl?$AAo?$AAa?$AAt?$AAi?$AAn?$AAg?$AA?5?$AAp?$AAo?$AAi?$AAn?$AAt?$AA?5?$AAs?$AAu?$AAp?$AAp?$AAo?$AAr?$AAt?$AA?5@ 1004db30     LIBCMT:crt0msg.obj
 0002:0000ab90       ??_C@_1FE@LLNEDJMD@?$AAR?$AA6?$AA0?$AA0?$AA8?$AA?$AN?$AA?6?$AA?9?$AA?5?$AAn?$AAo?$AAt?$AA?5?$AAe?$AAn?$AAo?$AAu?$AAg?$AAh?$AA?5?$AAs?$AAp?$AAa?$AAc?$AAe?$AA?5?$AAf?$AAo?$AAr?$AA?5?$AAa?$AAr@ 1004db90     LIBCMT:crt0msg.obj
 0002:0000abe8       ??_C@_1FI@HONFMGBI@?$AAR?$AA6?$AA0?$AA0?$AA9?$AA?$AN?$AA?6?$AA?9?$AA?5?$AAn?$AAo?$AAt?$AA?5?$AAe?$AAn?$AAo?$AAu?$AAg?$AAh?$AA?5?$AAs?$AAp?$AAa?$AAc?$AAe?$AA?5?$AAf?$AAo?$AAr?$AA?5?$AAe?$AAn@ 1004dbe8     LIBCMT:crt0msg.obj
 0002:0000ac40       ??_C@_1EG@BEHAGFJD@?$AAR?$AA6?$AA0?$AA1?$AA0?$AA?$AN?$AA?6?$AA?9?$AA?5?$AAa?$AAb?$AAo?$AAr?$AAt?$AA?$CI?$AA?$CJ?$AA?5?$AAh?$AAa?$AAs?$AA?5?$AAb?$AAe?$AAe?$AAn?$AA?5?$AAc?$AAa?$AAl?$AAl?$AAe?$AAd@ 1004dc40     LIBCMT:crt0msg.obj
 0002:0000ac88       ??_C@_1FI@LOGNIKDM@?$AAR?$AA6?$AA0?$AA1?$AA6?$AA?$AN?$AA?6?$AA?9?$AA?5?$AAn?$AAo?$AAt?$AA?5?$AAe?$AAn?$AAo?$AAu?$AAg?$AAh?$AA?5?$AAs?$AAp?$AAa?$AAc?$AAe?$AA?5?$AAf?$AAo?$AAr?$AA?5?$AAt?$AAh@ 1004dc88     LIBCMT:crt0msg.obj
 0002:0000ace0       ??_C@_1FK@BEOGODMC@?$AAR?$AA6?$AA0?$AA1?$AA7?$AA?$AN?$AA?6?$AA?9?$AA?5?$AAu?$AAn?$AAe?$AAx?$AAp?$AAe?$AAc?$AAt?$AAe?$AAd?$AA?5?$AAm?$AAu?$AAl?$AAt?$AAi?$AAt?$AAh?$AAr?$AAe?$AAa?$AAd?$AA?5@ 1004dce0     LIBCMT:crt0msg.obj
 0002:0000ad40       ??_C@_1EC@JIBHAOPH@?$AAR?$AA6?$AA0?$AA1?$AA8?$AA?$AN?$AA?6?$AA?9?$AA?5?$AAu?$AAn?$AAe?$AAx?$AAp?$AAe?$AAc?$AAt?$AAe?$AAd?$AA?5?$AAh?$AAe?$AAa?$AAp?$AA?5?$AAe?$AAr?$AAr?$AAo?$AAr?$AA?$AN?$AA?6@ 1004dd40     LIBCMT:crt0msg.obj
 0002:0000ad88       ??_C@_1FC@ECHBIFBC@?$AAR?$AA6?$AA0?$AA1?$AA9?$AA?$AN?$AA?6?$AA?9?$AA?5?$AAu?$AAn?$AAa?$AAb?$AAl?$AAe?$AA?5?$AAt?$AAo?$AA?5?$AAo?$AAp?$AAe?$AAn?$AA?5?$AAc?$AAo?$AAn?$AAs?$AAo?$AAl?$AAe?$AA?5@ 1004dd88     LIBCMT:crt0msg.obj
 0002:0000ade0       ??_C@_1GK@FHCKBEFA@?$AAR?$AA6?$AA0?$AA2?$AA4?$AA?$AN?$AA?6?$AA?9?$AA?5?$AAn?$AAo?$AAt?$AA?5?$AAe?$AAn?$AAo?$AAu?$AAg?$AAh?$AA?5?$AAs?$AAp?$AAa?$AAc?$AAe?$AA?5?$AAf?$AAo?$AAr?$AA?5?$AA_?$AAo@ 1004dde0     LIBCMT:crt0msg.obj
 0002:0000ae50       ??_C@_1EM@MAADIHMB@?$AAR?$AA6?$AA0?$AA2?$AA5?$AA?$AN?$AA?6?$AA?9?$AA?5?$AAp?$AAu?$AAr?$AAe?$AA?5?$AAv?$AAi?$AAr?$AAt?$AAu?$AAa?$AAl?$AA?5?$AAf?$AAu?$AAn?$AAc?$AAt?$AAi?$AAo?$AAn?$AA?5?$AAc@ 1004de50     LIBCMT:crt0msg.obj
 0002:0000aea0       ??_C@_1GK@MCAAGJMO@?$AAR?$AA6?$AA0?$AA2?$AA6?$AA?$AN?$AA?6?$AA?9?$AA?5?$AAn?$AAo?$AAt?$AA?5?$AAe?$AAn?$AAo?$AAu?$AAg?$AAh?$AA?5?$AAs?$AAp?$AAa?$AAc?$AAe?$AA?5?$AAf?$AAo?$AAr?$AA?5?$AAs?$AAt@ 1004dea0     LIBCMT:crt0msg.obj
 0002:0000af10       ??_C@_1GK@MFGOKLAG@?$AAR?$AA6?$AA0?$AA2?$AA7?$AA?$AN?$AA?6?$AA?9?$AA?5?$AAn?$AAo?$AAt?$AA?5?$AAe?$AAn?$AAo?$AAu?$AAg?$AAh?$AA?5?$AAs?$AAp?$AAa?$AAc?$AAe?$AA?5?$AAf?$AAo?$AAr?$AA?5?$AAl?$AAo@ 1004df10     LIBCMT:crt0msg.obj
 0002:0000af80       ??_C@_1EK@HHFLMAOL@?$AAR?$AA6?$AA0?$AA2?$AA8?$AA?$AN?$AA?6?$AA?9?$AA?5?$AAu?$AAn?$AAa?$AAb?$AAl?$AAe?$AA?5?$AAt?$AAo?$AA?5?$AAi?$AAn?$AAi?$AAt?$AAi?$AAa?$AAl?$AAi?$AAz?$AAe?$AA?5?$AAh?$AAe@ 1004df80     LIBCMT:crt0msg.obj
 0002:0000afcc       ??_C@_1DO@BMFCDCD@?$AAR?$AA6?$AA0?$AA3?$AA0?$AA?$AN?$AA?6?$AA?9?$AA?5?$AAC?$AAR?$AAT?$AA?5?$AAn?$AAo?$AAt?$AA?5?$AAi?$AAn?$AAi?$AAt?$AAi?$AAa?$AAl?$AAi?$AAz?$AAe?$AAd?$AA?$AN?$AA?6?$AA?$AA@ 1004dfcc     LIBCMT:crt0msg.obj
 0002:0000b010       ??_C@_1MG@ENCOOIDF@?$AAR?$AA6?$AA0?$AA3?$AA1?$AA?$AN?$AA?6?$AA?9?$AA?5?$AAA?$AAt?$AAt?$AAe?$AAm?$AAp?$AAt?$AA?5?$AAt?$AAo?$AA?5?$AAi?$AAn?$AAi?$AAt?$AAi?$AAa?$AAl?$AAi?$AAz?$AAe?$AA?5?$AAt@ 1004e010     LIBCMT:crt0msg.obj
 0002:0000b0d8       ??_C@_1GG@GOPILAJP@?$AAR?$AA6?$AA0?$AA3?$AA2?$AA?$AN?$AA?6?$AA?9?$AA?5?$AAn?$AAo?$AAt?$AA?5?$AAe?$AAn?$AAo?$AAu?$AAg?$AAh?$AA?5?$AAs?$AAp?$AAa?$AAc?$AAe?$AA?5?$AAf?$AAo?$AAr?$AA?5?$AAl?$AAo@ 1004e0d8     LIBCMT:crt0msg.obj
 0002:0000b140       ??_C@_1BOO@KGEDBGAJ@?$AAR?$AA6?$AA0?$AA3?$AA3?$AA?$AN?$AA?6?$AA?9?$AA?5?$AAA?$AAt?$AAt?$AAe?$AAm?$AAp?$AAt?$AA?5?$AAt?$AAo?$AA?5?$AAu?$AAs?$AAe?$AA?5?$AAM?$AAS?$AAI?$AAL?$AA?5?$AAc?$AAo?$AAd@ 1004e140     LIBCMT:crt0msg.obj
 0002:0000b330       ??_C@_1GG@MKFPEKFO@?$AAR?$AA6?$AA0?$AA3?$AA4?$AA?$AN?$AA?6?$AA?9?$AA?5?$AAi?$AAn?$AAc?$AAo?$AAn?$AAs?$AAi?$AAs?$AAt?$AAe?$AAn?$AAt?$AA?5?$AAo?$AAn?$AAe?$AAx?$AAi?$AAt?$AA?5?$AAb?$AAe?$AAg@ 1004e330     LIBCMT:crt0msg.obj
 0002:0000b398       ??_C@_1BO@BFCDCGC@?$AAD?$AAO?$AAM?$AAA?$AAI?$AAN?$AA?5?$AAe?$AAr?$AAr?$AAo?$AAr?$AA?$AN?$AA?6?$AA?$AA@ 1004e398     LIBCMT:crt0msg.obj
 0002:0000b3b8       ??_C@_1BK@KMOMNAAI@?$AAS?$AAI?$AAN?$AAG?$AA?5?$AAe?$AAr?$AAr?$AAo?$AAr?$AA?$AN?$AA?6?$AA?$AA@ 1004e3b8     LIBCMT:crt0msg.obj
 0002:0000b3d4       ??_C@_1BM@JBBEPPHI@?$AAT?$AAL?$AAO?$AAS?$AAS?$AA?5?$AAe?$AAr?$AAr?$AAo?$AAr?$AA?$AN?$AA?6?$AA?$AA@ 1004e3d4     LIBCMT:crt0msg.obj
 0002:0000b3f0       ??_C@_15JNBOKNOG@?$AA?$AN?$AA?6?$AA?$AA@ 1004e3f0     LIBCMT:crt0msg.obj
 0002:0000b3f8       ??_C@_1BO@BKOMIGKJ@?$AAr?$AAu?$AAn?$AAt?$AAi?$AAm?$AAe?$AA?5?$AAe?$AAr?$AAr?$AAo?$AAr?$AA?5?$AA?$AA@ 1004e3f8     LIBCMT:crt0msg.obj
 0002:0000b418       ??_C@_1DE@JNGNBFGO@?$AAR?$AAu?$AAn?$AAt?$AAi?$AAm?$AAe?$AA?5?$AAE?$AAr?$AAr?$AAo?$AAr?$AA?$CB?$AA?6?$AA?6?$AAP?$AAr?$AAo?$AAg?$AAr?$AAa?$AAm?$AA?3?$AA?5?$AA?$AA@ 1004e418     LIBCMT:crt0msg.obj
 0002:0000b44c       ??_C@_06OJHGLDPL@?$CInull?$CJ?$AA@ 1004e44c     LIBCMT:output.obj
 0002:0000b454       ??_C@_1O@CEDCILHN@?$AA?$CI?$AAn?$AAu?$AAl?$AAl?$AA?$CJ?$AA?$AA@ 1004e454     LIBCMT:output.obj
 0002:0000b468       ___lookuptable             1004e468     LIBCMT:output.obj
 0002:0000b4c4       ??_C@_05KLBDPFGC@e?$CL000?$AA@ 1004e4c4     LIBCMT:cvt.obj
 0002:0000b4cc       ??_C@_1BK@MGMFAEKH@?$AAk?$AAe?$AAr?$AAn?$AAe?$AAl?$AA3?$AA2?$AA?4?$AAd?$AAl?$AAl?$AA?$AA@ 1004e4cc     LIBCMT:winapisupp.obj
 0002:0000b4e8       ??_C@_08KNHFBNJ@FlsAlloc?$AA@ 1004e4e8     LIBCMT:winapisupp.obj
 0002:0000b4f4       ??_C@_07PEJMOBNF@FlsFree?$AA@ 1004e4f4     LIBCMT:winapisupp.obj
 0002:0000b4fc       ??_C@_0M@GDNOONDI@FlsGetValue?$AA@ 1004e4fc     LIBCMT:winapisupp.obj
 0002:0000b508       ??_C@_0M@JCPCPOEF@FlsSetValue?$AA@ 1004e508     LIBCMT:winapisupp.obj
 0002:0000b514       ??_C@_0BM@HCFOFFN@InitializeCriticalSectionEx?$AA@ 1004e514     LIBCMT:winapisupp.obj
 0002:0000b530       ??_C@_0P@DLHPPCNH@CreateEventExW?$AA@ 1004e530     LIBCMT:winapisupp.obj
 0002:0000b540       ??_C@_0BD@KIEEOEEH@CreateSemaphoreExW?$AA@ 1004e540     LIBCMT:winapisupp.obj
 0002:0000b554       ??_C@_0BI@BKLFFAPO@SetThreadStackGuarantee?$AA@ 1004e554     LIBCMT:winapisupp.obj
 0002:0000b56c       ??_C@_0BG@OGFAJCKC@CreateThreadpoolTimer?$AA@ 1004e56c     LIBCMT:winapisupp.obj
 0002:0000b584       ??_C@_0BD@LPLEMMDI@SetThreadpoolTimer?$AA@ 1004e584     LIBCMT:winapisupp.obj
 0002:0000b598       ??_C@_0CA@FMNJENH@WaitForThreadpoolTimerCallbacks?$AA@ 1004e598     LIBCMT:winapisupp.obj
 0002:0000b5b8       ??_C@_0BF@DCFCCNOC@CloseThreadpoolTimer?$AA@ 1004e5b8     LIBCMT:winapisupp.obj
 0002:0000b5d0       ??_C@_0BF@FLABGKKM@CreateThreadpoolWait?$AA@ 1004e5d0     LIBCMT:winapisupp.obj
 0002:0000b5e8       ??_C@_0BC@MGCOHNA@SetThreadpoolWait?$AA@ 1004e5e8     LIBCMT:winapisupp.obj
 0002:0000b5fc       ??_C@_0BE@OCIOMIMP@CloseThreadpoolWait?$AA@ 1004e5fc     LIBCMT:winapisupp.obj
 0002:0000b610       ??_C@_0BJ@LKGHFHBO@FlushProcessWriteBuffers?$AA@ 1004e610     LIBCMT:winapisupp.obj
 0002:0000b62c       ??_C@_0BP@KALKKPMO@FreeLibraryWhenCallbackReturns?$AA@ 1004e62c     LIBCMT:winapisupp.obj
 0002:0000b64c       ??_C@_0BK@DFNBACLA@GetCurrentProcessorNumber?$AA@ 1004e64c     LIBCMT:winapisupp.obj
 0002:0000b668       ??_C@_0BP@KHGALBC@GetLogicalProcessorInformation?$AA@ 1004e668     LIBCMT:winapisupp.obj
 0002:0000b688       ??_C@_0BE@FKKLLFLM@CreateSymbolicLinkW?$AA@ 1004e688     LIBCMT:winapisupp.obj
 0002:0000b69c       ??_C@_0BJ@OHNKDLIJ@SetDefaultDllDirectories?$AA@ 1004e69c     LIBCMT:winapisupp.obj
 0002:0000b6b8       ??_C@_0BE@LJANKFHF@EnumSystemLocalesEx?$AA@ 1004e6b8     LIBCMT:winapisupp.obj
 0002:0000b6cc       ??_C@_0BA@IHGNDAEB@CompareStringEx?$AA@ 1004e6cc     LIBCMT:winapisupp.obj
 0002:0000b6dc       ??_C@_0BA@EPCJIIPD@GetDateFormatEx?$AA@ 1004e6dc     LIBCMT:winapisupp.obj
 0002:0000b6ec       ??_C@_0BA@ONOKGCMP@GetLocaleInfoEx?$AA@ 1004e6ec     LIBCMT:winapisupp.obj
 0002:0000b6fc       ??_C@_0BA@CIJJKCJJ@GetTimeFormatEx?$AA@ 1004e6fc     LIBCMT:winapisupp.obj
 0002:0000b70c       ??_C@_0BJ@PBCCBIPI@GetUserDefaultLocaleName?$AA@ 1004e70c     LIBCMT:winapisupp.obj
 0002:0000b728       ??_C@_0BC@CELBKLLA@IsValidLocaleName?$AA@ 1004e728     LIBCMT:winapisupp.obj
 0002:0000b73c       ??_C@_0O@KKBNKAPF@LCMapStringEx?$AA@ 1004e73c     LIBCMT:winapisupp.obj
 0002:0000b74c       ??_C@_0BE@JOGNEJCI@GetCurrentPackageId?$AA@ 1004e74c     LIBCMT:winapisupp.obj
 0002:0000b760       ??_C@_0P@CDHHOHKP@GetTickCount64?$AA@ 1004e760     LIBCMT:winapisupp.obj
 0002:0000b770       ??_C@_0BO@KPCLFDJJ@GetFileInformationByHandleExW?$AA@ 1004e770     LIBCMT:winapisupp.obj
 0002:0000b790       ??_C@_0BM@MHIDLABK@SetFileInformationByHandleW?$AA@ 1004e790     LIBCMT:winapisupp.obj
 0002:0000b7ac       ??_C@_1BK@GAEMIDIL@?$AAA?$AAD?$AAV?$AAA?$AAP?$AAI?$AA3?$AA2?$AA?4?$AAD?$AAL?$AAL?$AA?$AA@ 1004e7ac     LIBCMT:rand_s.obj
 0002:0000b7c8       ??_C@_0BC@JEAENNKH@SystemFunction036?$AA@ 1004e7c8     LIBCMT:rand_s.obj
 0002:0000b7ec       ??_C@_1M@HPNHIDJI@?$AAj?$AAa?$AA?9?$AAJ?$AAP?$AA?$AA@ 1004e7ec     LIBCMT:mbctype.obj
 0002:0000b7f8       ??_C@_1M@BIBDDEMK@?$AAz?$AAh?$AA?9?$AAC?$AAN?$AA?$AA@ 1004e7f8     LIBCMT:mbctype.obj
 0002:0000b804       ??_C@_1M@JLOOOEGK@?$AAk?$AAo?$AA?9?$AAK?$AAR?$AA?$AA@ 1004e804     LIBCMT:mbctype.obj
 0002:0000b810       ??_C@_1M@CLNBBOPM@?$AAz?$AAh?$AA?9?$AAT?$AAW?$AA?$AA@ 1004e810     LIBCMT:mbctype.obj
 0002:0000b83c       ??_C@_04FJHINJAO@tanh?$AA@ 1004e83c     LIBCMT:fpexcept.obj
 0002:0000b844       ??_C@_04FIHNOPOL@asin?$AA@ 1004e844     LIBCMT:fpexcept.obj
 0002:0000b84c       ??_C@_04PDIFKINK@acos?$AA@ 1004e84c     LIBCMT:fpexcept.obj
 0002:0000b854       ??_C@_04MLLJIGOK@atan?$AA@ 1004e854     LIBCMT:fpexcept.obj
 0002:0000b85c       ??_C@_05KNGEOGJB@atan2?$AA@ 1004e85c     LIBCMT:fpexcept.obj
 0002:0000b864       ??_C@_04EIAKFFMI@sqrt?$AA@ 1004e864     LIBCMT:fpexcept.obj
 0002:0000b86c       ??_C@_03BLEJJJBH@sin?$AA@  1004e86c     LIBCMT:fpexcept.obj
 0002:0000b870       ??_C@_03LALBNOCG@cos?$AA@  1004e870     LIBCMT:fpexcept.obj
 0002:0000b874       ??_C@_03IIINPABG@tan?$AA@  1004e874     LIBCMT:fpexcept.obj
 0002:0000b878       ??_C@_04GFPJNGEK@ceil?$AA@ 1004e878     LIBCMT:fpexcept.obj
 0002:0000b880       ??_C@_05PBJFFIGL@floor?$AA@ 1004e880     LIBCMT:fpexcept.obj
 0002:0000b888       ??_C@_04ODHECPBC@fabs?$AA@ 1004e888     LIBCMT:fpexcept.obj
 0002:0000b890       ??_C@_04EHEDPDJG@modf?$AA@ 1004e890     LIBCMT:fpexcept.obj
 0002:0000b898       ??_C@_05CEJMAHNP@ldexp?$AA@ 1004e898     LIBCMT:fpexcept.obj
 0002:0000b8a0       ??_C@_05KBKMEMPO@_cabs?$AA@ 1004e8a0     LIBCMT:fpexcept.obj
 0002:0000b8a8       ??_C@_06MEIMCGCF@_hypot?$AA@ 1004e8a8     LIBCMT:fpexcept.obj
 0002:0000b8b0       ??_C@_04KEPJIHGP@fmod?$AA@ 1004e8b0     LIBCMT:fpexcept.obj
 0002:0000b8b8       ??_C@_05GKKHEGJL@frexp?$AA@ 1004e8b8     LIBCMT:fpexcept.obj
 0002:0000b8c0       ??_C@_03MJLDFKDL@_y0?$AA@  1004e8c0     LIBCMT:fpexcept.obj
 0002:0000b8c4       ??_C@_03NAKIGLHK@_y1?$AA@  1004e8c4     LIBCMT:fpexcept.obj
 0002:0000b8c8       ??_C@_03ONILCKOB@_yn?$AA@  1004e8c8     LIBCMT:fpexcept.obj
 0002:0000b8cc       ??_C@_05JGDBENOH@_logb?$AA@ 1004e8cc     LIBCMT:fpexcept.obj
 0002:0000b8d4       ??_C@_0L@KDOEJCKC@_nextafter?$AA@ 1004e8d4     LIBCMT:fpexcept.obj
 0002:0000b8e0       ??_C@_03KHJOGHMM@exp?$AA@  1004e8e0     LIBCMT:fpexcept.obj
 0002:0000b8e4       ??_C@_03JGHBODFD@pow?$AA@  1004e8e4     LIBCMT:fpexcept.obj
 0002:0000b8e8       ??_C@_03MGHMBJCF@log?$AA@  1004e8e8     LIBCMT:fpexcept.obj
 0002:0000b8ec       ??_C@_05HGHHAHAP@log10?$AA@ 1004e8ec     LIBCMT:fpexcept.obj
 0002:0000b8f4       ??_C@_04COOMCNPB@sinh?$AA@ 1004e8f4     LIBCMT:fpexcept.obj
 0002:0000b8fc       ??_C@_04HPJJNFIM@cosh?$AA@ 1004e8fc     LIBCMT:fpexcept.obj
 0002:0000b904       ??_C@_1BG@GOEBHBDC@?$AAU?$AAS?$AAE?$AAR?$AA3?$AA2?$AA?4?$AAD?$AAL?$AAL?$AA?$AA@ 1004e904     LIBCMT:crtmboxw.obj
 0002:0000b91c       ??_C@_0M@DLDCCGNP@MessageBoxW?$AA@ 1004e91c     LIBCMT:crtmboxw.obj
 0002:0000b928       ??_C@_0BA@HNOPNCHB@GetActiveWindow?$AA@ 1004e928     LIBCMT:crtmboxw.obj
 0002:0000b938       ??_C@_0BD@HHGDFDBJ@GetLastActivePopup?$AA@ 1004e938     LIBCMT:crtmboxw.obj
 0002:0000b94c       ??_C@_0BK@DEKFELLI@GetUserObjectInformationW?$AA@ 1004e94c     LIBCMT:crtmboxw.obj
 0002:0000b968       ??_C@_0BI@DFKBFLJE@GetProcessWindowStation?$AA@ 1004e968     LIBCMT:crtmboxw.obj
 0002:0000b980       __XcptActTab               1004e980     LIBCMT:winxfltr.obj
 0002:0000ba10       __XcptActTabCount          1004ea10     LIBCMT:winxfltr.obj
 0002:0000ba14       __XcptActTabSize           1004ea14     LIBCMT:winxfltr.obj
 0002:0000ba18       __First_FPE_Indx           1004ea18     LIBCMT:winxfltr.obj
 0002:0000ba1c       __Num_FPE                  1004ea1c     LIBCMT:winxfltr.obj
 0002:0000ba20       ___lookuptable_s           1004ea20     LIBCMT:outputs.obj
 0002:0000ba7c       ??_C@_03KOEHGMDN@Sun?$AA@  1004ea7c     LIBCMT:nlsdata.obj
 0002:0000ba80       ??_C@_03PDAGKDH@Mon?$AA@   1004ea80     LIBCMT:nlsdata.obj
 0002:0000ba84       ??_C@_03NAGEINEP@Tue?$AA@  1004ea84     LIBCMT:nlsdata.obj
 0002:0000ba88       ??_C@_03MHOMLAJA@Wed?$AA@  1004ea88     LIBCMT:nlsdata.obj
 0002:0000ba8c       ??_C@_03IOFIKPDN@Thu?$AA@  1004ea8c     LIBCMT:nlsdata.obj
 0002:0000ba90       ??_C@_03IDIOELNC@Fri?$AA@  1004ea90     LIBCMT:nlsdata.obj
 0002:0000ba94       ??_C@_03FEFJNEK@Sat?$AA@   1004ea94     LIBCMT:nlsdata.obj
 0002:0000ba98       ??_C@_06OOPIFAJ@Sunday?$AA@ 1004ea98     LIBCMT:nlsdata.obj
 0002:0000baa0       ??_C@_06JLEDEDGH@Monday?$AA@ 1004eaa0     LIBCMT:nlsdata.obj
 0002:0000baa8       ??_C@_07BAAGCFCM@Tuesday?$AA@ 1004eaa8     LIBCMT:nlsdata.obj
 0002:0000bab0       ??_C@_09DLIGFAKA@Wednesday?$AA@ 1004eab0     LIBCMT:nlsdata.obj
 0002:0000babc       ??_C@_08HACCIKIA@Thursday?$AA@ 1004eabc     LIBCMT:nlsdata.obj
 0002:0000bac8       ??_C@_06JECMNKMI@Friday?$AA@ 1004eac8     LIBCMT:nlsdata.obj
 0002:0000bad0       ??_C@_08INBOOONO@Saturday?$AA@ 1004ead0     LIBCMT:nlsdata.obj
 0002:0000badc       ??_C@_03JIHJHPIE@Jan?$AA@  1004eadc     LIBCMT:nlsdata.obj
 0002:0000bae0       ??_C@_03HJBDCHOM@Feb?$AA@  1004eae0     LIBCMT:nlsdata.obj
 0002:0000bae4       ??_C@_03ODNJBKGA@Mar?$AA@  1004eae4     LIBCMT:nlsdata.obj
 0002:0000bae8       ??_C@_03LEOLGMJP@Apr?$AA@  1004eae8     LIBCMT:nlsdata.obj
 0002:0000baec       ??_C@_03CNMDKL@May?$AA@    1004eaec     LIBCMT:nlsdata.obj
 0002:0000baf0       ??_C@_03IDFGHECI@Jun?$AA@  1004eaf0     LIBCMT:nlsdata.obj
 0002:0000baf4       ??_C@_03LBGABGKK@Jul?$AA@  1004eaf4     LIBCMT:nlsdata.obj
 0002:0000baf8       ??_C@_03IFJFEIGA@Aug?$AA@  1004eaf8     LIBCMT:nlsdata.obj
 0002:0000bafc       ??_C@_03GGCAPAJC@Sep?$AA@  1004eafc     LIBCMT:nlsdata.obj
 0002:0000bb00       ??_C@_03BMAOKBAD@Oct?$AA@  1004eb00     LIBCMT:nlsdata.obj
 0002:0000bb04       ??_C@_03JPJOFNIA@Nov?$AA@  1004eb04     LIBCMT:nlsdata.obj
 0002:0000bb08       ??_C@_03MKABNOCG@Dec?$AA@  1004eb08     LIBCMT:nlsdata.obj
 0002:0000bb0c       ??_C@_07CGJPFGJA@January?$AA@ 1004eb0c     LIBCMT:nlsdata.obj
 0002:0000bb14       ??_C@_08GNJGEPFN@February?$AA@ 1004eb14     LIBCMT:nlsdata.obj
 0002:0000bb20       ??_C@_05HPCKOFNC@March?$AA@ 1004eb20     LIBCMT:nlsdata.obj
 0002:0000bb28       ??_C@_05DMJDNLEJ@April?$AA@ 1004eb28     LIBCMT:nlsdata.obj
 0002:0000bb30       ??_C@_04CNLMGBGM@June?$AA@ 1004eb30     LIBCMT:nlsdata.obj
 0002:0000bb38       ??_C@_04MIEPOIFP@July?$AA@ 1004eb38     LIBCMT:nlsdata.obj
 0002:0000bb40       ??_C@_06LBBHFDDG@August?$AA@ 1004eb40     LIBCMT:nlsdata.obj
 0002:0000bb48       ??_C@_09BHHEALKD@September?$AA@ 1004eb48     LIBCMT:nlsdata.obj
 0002:0000bb54       ??_C@_07JJNFCEND@October?$AA@ 1004eb54     LIBCMT:nlsdata.obj
 0002:0000bb5c       ??_C@_08HCHEGEOA@November?$AA@ 1004eb5c     LIBCMT:nlsdata.obj
 0002:0000bb68       ??_C@_08EDHMEBNP@December?$AA@ 1004eb68     LIBCMT:nlsdata.obj
 0002:0000bb74       ??_C@_02DEDBPAFC@AM?$AA@   1004eb74     LIBCMT:nlsdata.obj
 0002:0000bb78       ??_C@_02CJNFDJBF@PM?$AA@   1004eb78     LIBCMT:nlsdata.obj
 0002:0000bb7c       ??_C@_08BPBNCDIB@MM?1dd?1yy?$AA@ 1004eb7c     LIBCMT:nlsdata.obj
 0002:0000bb88       ??_C@_0BE@CKGJFCPC@dddd?0?5MMMM?5dd?0?5yyyy?$AA@ 1004eb88     LIBCMT:nlsdata.obj
 0002:0000bb9c       ??_C@_08JCCMCCIL@HH?3mm?3ss?$AA@ 1004eb9c     LIBCMT:nlsdata.obj
 0002:0000bba8       ??_C@_17MBGCMIPB@?$AAS?$AAu?$AAn?$AA?$AA@ 1004eba8     LIBCMT:nlsdata.obj
 0002:0000bbb0       ??_C@_17KBOMKBF@?$AAM?$AAo?$AAn?$AA?$AA@ 1004ebb0     LIBCMT:nlsdata.obj
 0002:0000bbb8       ??_C@_17BMKGEGOJ@?$AAT?$AAu?$AAe?$AA?$AA@ 1004ebb8     LIBCMT:nlsdata.obj
 0002:0000bbc0       ??_C@_17CJEDCEPE@?$AAW?$AAe?$AAd?$AA?$AA@ 1004ebc0     LIBCMT:nlsdata.obj
 0002:0000bbc8       ??_C@_17PDPHAADD@?$AAT?$AAh?$AAu?$AA?$AA@ 1004ebc8     LIBCMT:nlsdata.obj
 0002:0000bbd0       ??_C@_17HFOLPPLP@?$AAF?$AAr?$AAi?$AA?$AA@ 1004ebd0     LIBCMT:nlsdata.obj
 0002:0000bbd8       ??_C@_17GGIBDPIH@?$AAS?$AAa?$AAt?$AA?$AA@ 1004ebd8     LIBCMT:nlsdata.obj
 0002:0000bbe0       ??_C@_1O@IHNHDHPB@?$AAS?$AAu?$AAn?$AAd?$AAa?$AAy?$AA?$AA@ 1004ebe0     LIBCMT:nlsdata.obj
 0002:0000bbf0       ??_C@_1O@MMNBFLIA@?$AAM?$AAo?$AAn?$AAd?$AAa?$AAy?$AA?$AA@ 1004ebf0     LIBCMT:nlsdata.obj
 0002:0000bc00       ??_C@_1BA@ENFBFFEK@?$AAT?$AAu?$AAe?$AAs?$AAd?$AAa?$AAy?$AA?$AA@ 1004ec00     LIBCMT:nlsdata.obj
 0002:0000bc10       ??_C@_1BE@EBOGMDOH@?$AAW?$AAe?$AAd?$AAn?$AAe?$AAs?$AAd?$AAa?$AAy?$AA?$AA@ 1004ec10     LIBCMT:nlsdata.obj
 0002:0000bc24       ??_C@_1BC@HHMNLIHE@?$AAT?$AAh?$AAu?$AAr?$AAs?$AAd?$AAa?$AAy?$AA?$AA@ 1004ec24     LIBCMT:nlsdata.obj
 0002:0000bc38       ??_C@_1O@PDICJHAG@?$AAF?$AAr?$AAi?$AAd?$AAa?$AAy?$AA?$AA@ 1004ec38     LIBCMT:nlsdata.obj
 0002:0000bc48       ??_C@_1BC@ENMNNPAJ@?$AAS?$AAa?$AAt?$AAu?$AAr?$AAd?$AAa?$AAy?$AA?$AA@ 1004ec48     LIBCMT:nlsdata.obj
 0002:0000bc5c       ??_C@_17DKNBKCHM@?$AAJ?$AAa?$AAn?$AA?$AA@ 1004ec5c     LIBCMT:nlsdata.obj
 0002:0000bc64       ??_C@_17LMDJEKJN@?$AAF?$AAe?$AAb?$AA?$AA@ 1004ec64     LIBCMT:nlsdata.obj
 0002:0000bc6c       ??_C@_17CKNLEDEC@?$AAM?$AAa?$AAr?$AA?$AA@ 1004ec6c     LIBCMT:nlsdata.obj
 0002:0000bc74       ??_C@_17LFPOIHDD@?$AAA?$AAp?$AAr?$AA?$AA@ 1004ec74     LIBCMT:nlsdata.obj
 0002:0000bc7c       ??_C@_17PNNKMEED@?$AAM?$AAa?$AAy?$AA?$AA@ 1004ec7c     LIBCMT:nlsdata.obj
 0002:0000bc84       ??_C@_17KCJGOCPB@?$AAJ?$AAu?$AAn?$AA?$AA@ 1004ec84     LIBCMT:nlsdata.obj
 0002:0000bc8c       ??_C@_17IJPCKHK@?$AAJ?$AAu?$AAl?$AA?$AA@ 1004ec8c     LIBCMT:nlsdata.obj
 0002:0000bc94       ??_C@_17ICPELBCN@?$AAA?$AAu?$AAg?$AA?$AA@ 1004ec94     LIBCMT:nlsdata.obj
 0002:0000bc9c       ??_C@_17HCHCOKMG@?$AAS?$AAe?$AAp?$AA?$AA@ 1004ec9c     LIBCMT:nlsdata.obj
 0002:0000bca4       ??_C@_17FNLKOI@?$AAO?$AAc?$AAt?$AA?$AA@ 1004eca4     LIBCMT:nlsdata.obj
 0002:0000bcac       ??_C@_17BBDMLCIG@?$AAN?$AAo?$AAv?$AA?$AA@ 1004ecac     LIBCMT:nlsdata.obj
 0002:0000bcb4       ??_C@_17EGKACKIF@?$AAD?$AAe?$AAc?$AA?$AA@ 1004ecb4     LIBCMT:nlsdata.obj
 0002:0000bcbc       ??_C@_1BA@EFMEIEBA@?$AAJ?$AAa?$AAn?$AAu?$AAa?$AAr?$AAy?$AA?$AA@ 1004ecbc     LIBCMT:nlsdata.obj
 0002:0000bccc       ??_C@_1BC@JGDDFFAM@?$AAF?$AAe?$AAb?$AAr?$AAu?$AAa?$AAr?$AAy?$AA?$AA@ 1004eccc     LIBCMT:nlsdata.obj
 0002:0000bce0       ??_C@_1M@IKEENEDF@?$AAM?$AAa?$AAr?$AAc?$AAh?$AA?$AA@ 1004ece0     LIBCMT:nlsdata.obj
 0002:0000bcec       ??_C@_1M@GJNLMHFD@?$AAA?$AAp?$AAr?$AAi?$AAl?$AA?$AA@ 1004ecec     LIBCMT:nlsdata.obj
 0002:0000bcf8       ??_C@_19EPFLPGAP@?$AAJ?$AAu?$AAn?$AAe?$AA?$AA@ 1004ecf8     LIBCMT:nlsdata.obj
 0002:0000bd04       ??_C@_19BIFMLPCD@?$AAJ?$AAu?$AAl?$AAy?$AA?$AA@ 1004ed04     LIBCMT:nlsdata.obj
 0002:0000bd10       ??_C@_1O@PAHLKOAC@?$AAA?$AAu?$AAg?$AAu?$AAs?$AAt?$AA?$AA@ 1004ed10     LIBCMT:nlsdata.obj
 0002:0000bd20       ??_C@_1BE@DKAAMBJL@?$AAS?$AAe?$AAp?$AAt?$AAe?$AAm?$AAb?$AAe?$AAr?$AA?$AA@ 1004ed20     LIBCMT:nlsdata.obj
 0002:0000bd34       ??_C@_1BA@EPANDLNG@?$AAO?$AAc?$AAt?$AAo?$AAb?$AAe?$AAr?$AA?$AA@ 1004ed34     LIBCMT:nlsdata.obj
 0002:0000bd44       ??_C@_1BC@BGLIFPF@?$AAN?$AAo?$AAv?$AAe?$AAm?$AAb?$AAe?$AAr?$AA?$AA@ 1004ed44     LIBCMT:nlsdata.obj
 0002:0000bd58       ??_C@_1BC@FEMKIFH@?$AAD?$AAe?$AAc?$AAe?$AAm?$AAb?$AAe?$AAr?$AA?$AA@ 1004ed58     LIBCMT:nlsdata.obj
 0002:0000bd6c       ??_C@_15ODEHAHHF@?$AAA?$AAM?$AA?$AA@ 1004ed6c     LIBCMT:nlsdata.obj
 0002:0000bd74       ??_C@_15CLMNNGEL@?$AAP?$AAM?$AA?$AA@ 1004ed74     LIBCMT:nlsdata.obj
 0002:0000bd7c       ??_C@_1BC@IEBCMHCM@?$AAM?$AAM?$AA?1?$AAd?$AAd?$AA?1?$AAy?$AAy?$AA?$AA@ 1004ed7c     LIBCMT:nlsdata.obj
 0002:0000bd90       ??_C@_1CI@KNAKOEBC@?$AAd?$AAd?$AAd?$AAd?$AA?0?$AA?5?$AAM?$AAM?$AAM?$AAM?$AA?5?$AAd?$AAd?$AA?0?$AA?5?$AAy?$AAy?$AAy?$AAy?$AA?$AA@ 1004ed90     LIBCMT:nlsdata.obj
 0002:0000bdb8       ??_C@_1BC@GDGBMEMK@?$AAH?$AAH?$AA?3?$AAm?$AAm?$AA?3?$AAs?$AAs?$AA?$AA@ 1004edb8     LIBCMT:nlsdata.obj
 0002:0000bdcc       ??_C@_1M@BMHNFIME@?$AAe?$AAn?$AA?9?$AAU?$AAS?$AA?$AA@ 1004edcc     LIBCMT:nlsdata.obj
 0002:0000bdd8       _LcidToLocaleNameTable     1004edd8     LIBCMT:winapinls.obj
 0002:0000c4f8       _LocaleNameToIndexTable    1004f4f8     LIBCMT:winapinls.obj
 0002:0000cc18       ??_C@_15EMKDOKLE@?$AAa?$AAr?$AA?$AA@ 1004fc18     LIBCMT:winapinls.obj
 0002:0000cc20       ??_C@_15KNPADPLH@?$AAb?$AAg?$AA?$AA@ 1004fc20     LIBCMT:winapinls.obj
 0002:0000cc28       ??_C@_15EDMHLDMO@?$AAc?$AAa?$AA?$AA@ 1004fc28     LIBCMT:winapinls.obj
 0002:0000cc30       ??_C@_1O@BPEAJADD@?$AAz?$AAh?$AA?9?$AAC?$AAH?$AAS?$AA?$AA@ 1004fc30     LIBCMT:winapinls.obj
 0002:0000cc40       ??_C@_15LJNHCMNK@?$AAc?$AAs?$AA?$AA@ 1004fc40     LIBCMT:winapinls.obj
 0002:0000cc48       ??_C@_15FOMCIDHG@?$AAd?$AAa?$AA?$AA@ 1004fc48     LIBCMT:winapinls.obj
 0002:0000cc50       ??_C@_15NBKABECB@?$AAd?$AAe?$AA?$AA@ 1004fc50     LIBCMT:winapinls.obj
 0002:0000cc58       ??_C@_15GHPEIIAO@?$AAe?$AAl?$AA?$AA@ 1004fc58     LIBCMT:winapinls.obj
 0002:0000cc60       ??_C@_15MNPNEAIF@?$AAe?$AAn?$AA?$AA@ 1004fc60     LIBCMT:winapinls.obj
 0002:0000cc68       ??_C@_15GPIOMPMH@?$AAe?$AAs?$AA?$AA@ 1004fc68     LIBCMT:winapinls.obj
 0002:0000cc70       ??_C@_15NGLOAKJC@?$AAf?$AAi?$AA?$AA@ 1004fc70     LIBCMT:winapinls.obj
 0002:0000cc78       ??_C@_15FBKGNKAM@?$AAf?$AAr?$AA?$AA@ 1004fc78     LIBCMT:winapinls.obj
 0002:0000cc80       ??_C@_15KGGCNEFK@?$AAh?$AAe?$AA?$AA@ 1004fc80     LIBCMT:winapinls.obj
 0002:0000cc88       ??_C@_15PGHLIDMF@?$AAh?$AAu?$AA?$AA@ 1004fc88     LIBCMT:winapinls.obj
 0002:0000cc90       ??_C@_15BIEMAPLM@?$AAi?$AAs?$AA?$AA@ 1004fc90     LIBCMT:winapinls.obj
 0002:0000cc98       ??_C@_15IFJLDHAF@?$AAi?$AAt?$AA?$AA@ 1004fc98     LIBCMT:winapinls.obj
 0002:0000cca0       ??_C@_15GEMIOCAG@?$AAj?$AAa?$AA?$AA@ 1004fca0     LIBCMT:winapinls.obj
 0002:0000cca8       ??_C@_15EPELEGJA@?$AAk?$AAo?$AA?$AA@ 1004fca8     LIBCMT:winapinls.obj
 0002:0000ccb0       ??_C@_15NDDHIMN@?$AAn?$AAl?$AA?$AA@ 1004fcb0     LIBCMT:winapinls.obj
 0002:0000ccb8       ??_C@_15BPIGNHCD@?$AAn?$AAo?$AA?$AA@ 1004fcb8     LIBCMT:winapinls.obj
 0002:0000ccc0       ??_C@_15DEOPBLCG@?$AAp?$AAl?$AA?$AA@ 1004fcc0     LIBCMT:winapinls.obj
 0002:0000ccc8       ??_C@_15KBECGEFG@?$AAp?$AAt?$AA?$AA@ 1004fcc8     LIBCMT:winapinls.obj
 0002:0000ccd0       ??_C@_15GLJCBFMD@?$AAr?$AAo?$AA?$AA@ 1004fcd0     LIBCMT:winapinls.obj
 0002:0000ccd8       ??_C@_15FEDGKCDI@?$AAr?$AAu?$AA?$AA@ 1004fcd8     LIBCMT:winapinls.obj
 0002:0000cce0       ??_C@_15GLKMLLHM@?$AAh?$AAr?$AA?$AA@ 1004fce0     LIBCMT:winapinls.obj
 0002:0000cce8       ??_C@_15CPKMFBDB@?$AAs?$AAk?$AA?$AA@ 1004fce8     LIBCMT:winapinls.obj
 0002:0000ccf0       ??_C@_15BAAIOGMK@?$AAs?$AAq?$AA?$AA@ 1004fcf0     LIBCMT:winapinls.obj
 0002:0000ccf8       ??_C@_15INNPNOHD@?$AAs?$AAv?$AA?$AA@ 1004fcf8     LIBCMT:winapinls.obj
 0002:0000cd00       ??_C@_15CABMMOGH@?$AAt?$AAh?$AA?$AA@ 1004fd00     LIBCMT:winapinls.obj
 0002:0000cd08       ??_C@_15BPLIHJJM@?$AAt?$AAr?$AA?$AA@ 1004fd08     LIBCMT:winapinls.obj
 0002:0000cd10       ??_C@_15NEOEKKDJ@?$AAu?$AAr?$AA?$AA@ 1004fd10     LIBCMT:winapinls.obj
 0002:0000cd18       ??_C@_15NFICGAJK@?$AAi?$AAd?$AA?$AA@ 1004fd18     LIBCMT:winapinls.obj
 0002:0000cd20       ??_C@_15PJPFLCCM@?$AAu?$AAk?$AA?$AA@ 1004fd20     LIBCMT:winapinls.obj
 0002:0000cd28       ??_C@_15HPJPHDM@?$AAb?$AAe?$AA?$AA@ 1004fd28     LIBCMT:winapinls.obj
 0002:0000cd30       ??_C@_15LCHLGJII@?$AAs?$AAl?$AA?$AA@ 1004fd30     LIBCMT:winapinls.obj
 0002:0000cd38       ??_C@_15PCFJPHHO@?$AAe?$AAt?$AA?$AA@ 1004fd38     LIBCMT:winapinls.obj
 0002:0000cd40       ??_C@_15HPFPGODN@?$AAl?$AAv?$AA?$AA@ 1004fd40     LIBCMT:winapinls.obj
 0002:0000cd48       ??_C@_15NFFGKGLG@?$AAl?$AAt?$AA?$AA@ 1004fd48     LIBCMT:winapinls.obj
 0002:0000cd50       ??_C@_15BDAKCCHN@?$AAf?$AAa?$AA?$AA@ 1004fd50     LIBCMT:winapinls.obj
 0002:0000cd58       ??_C@_15NFGIAIAJ@?$AAv?$AAi?$AA?$AA@ 1004fd58     LIBCMT:winapinls.obj
 0002:0000cd60       ??_C@_15LMKNDMHN@?$AAh?$AAy?$AA?$AA@ 1004fd60     LIBCMT:winapinls.obj
 0002:0000cd68       ??_C@_15IJBHMCFL@?$AAa?$AAz?$AA?$AA@ 1004fd68     LIBCMT:winapinls.obj
 0002:0000cd70       ??_C@_15EKOFJABL@?$AAe?$AAu?$AA?$AA@ 1004fd70     LIBCMT:winapinls.obj
 0002:0000cd78       ??_C@_15BGHADCNK@?$AAm?$AAk?$AA?$AA@ 1004fd78     LIBCMT:winapinls.obj
 0002:0000cd80       ??_C@_15JDNICKHM@?$AAa?$AAf?$AA?$AA@ 1004fd80     LIBCMT:winapinls.obj
 0002:0000cd88       ??_C@_15KPJEDBKD@?$AAk?$AAa?$AA?$AA@ 1004fd88     LIBCMT:winapinls.obj
 0002:0000cd90       ??_C@_15PDNFFFEO@?$AAf?$AAo?$AA?$AA@ 1004fd90     LIBCMT:winapinls.obj
 0002:0000cd98       ??_C@_15OMLEGLOC@?$AAh?$AAi?$AA?$AA@ 1004fd98     LIBCMT:winapinls.obj
 0002:0000cda0       ??_C@_15IDNNENKK@?$AAm?$AAs?$AA?$AA@ 1004fda0     LIBCMT:winapinls.obj
 0002:0000cda8       ??_C@_15MACJNBMH@?$AAk?$AAk?$AA?$AA@ 1004fda8     LIBCMT:winapinls.obj
 0002:0000cdb0       ??_C@_15DKDJEOND@?$AAk?$AAy?$AA?$AA@ 1004fdb0     LIBCMT:winapinls.obj
 0002:0000cdb8       ??_C@_15DFGDLJBG@?$AAs?$AAw?$AA?$AA@ 1004fdb8     LIBCMT:winapinls.obj
 0002:0000cdc0       ??_C@_15BBFAICNG@?$AAu?$AAz?$AA?$AA@ 1004fdc0     LIBCMT:winapinls.obj
 0002:0000cdc8       ??_C@_15DKNDCGEA@?$AAt?$AAt?$AA?$AA@ 1004fdc8     LIBCMT:winapinls.obj
 0002:0000cdd0       ??_C@_15MGIFMDPL@?$AAp?$AAa?$AA?$AA@ 1004fdd0     LIBCMT:winapinls.obj
 0002:0000cdd8       ??_C@_15HCNDBBA@?$AAg?$AAu?$AA?$AA@ 1004fdd8     LIBCMT:winapinls.obj
 0002:0000cde0       ??_C@_15FNBEIBON@?$AAt?$AAa?$AA?$AA@ 1004fde0     LIBCMT:winapinls.obj
 0002:0000cde8       ??_C@_15NCHGBGLK@?$AAt?$AAe?$AA?$AA@ 1004fde8     LIBCMT:winapinls.obj
 0002:0000cdf0       ??_C@_15PHPHCBPF@?$AAk?$AAn?$AA?$AA@ 1004fdf0     LIBCMT:winapinls.obj
 0002:0000cdf8       ??_C@_15DLGBCKMP@?$AAm?$AAr?$AA?$AA@ 1004fdf8     LIBCMT:winapinls.obj
 0002:0000ce00       ??_C@_15EABBLBFF@?$AAs?$AAa?$AA?$AA@ 1004fe00     LIBCMT:winapinls.obj
 0002:0000ce08       ??_C@_15CBKOMCOI@?$AAm?$AAn?$AA?$AA@ 1004fe08     LIBCMT:winapinls.obj
 0002:0000ce10       ??_C@_15CKDMCJAF@?$AAg?$AAl?$AA?$AA@ 1004fe10     LIBCMT:winapinls.obj
 0002:0000ce18       ??_C@_17CNJFBPG@?$AAk?$AAo?$AAk?$AA?$AA@ 1004fe18     LIBCMT:winapinls.obj
 0002:0000ce20       ??_C@_17FFBJICPL@?$AAs?$AAy?$AAr?$AA?$AA@ 1004fe20     LIBCMT:winapinls.obj
 0002:0000ce28       ??_C@_17KPNDCPAF@?$AAd?$AAi?$AAv?$AA?$AA@ 1004fe28     LIBCMT:winapinls.obj
 0002:0000ce30       ??_C@_11LOCGONAA@?$AA?$AA@ 1004fe30     LIBCMT:winapinls.obj
 0002:0000ce34       ??_C@_1M@OKAHONE@?$AAa?$AAr?$AA?9?$AAS?$AAA?$AA?$AA@ 1004fe34     LIBCMT:winapinls.obj
 0002:0000ce40       ??_C@_1M@FFFIGIGK@?$AAb?$AAg?$AA?9?$AAB?$AAG?$AA?$AA@ 1004fe40     LIBCMT:winapinls.obj
 0002:0000ce4c       ??_C@_1M@BJNKEDC@?$AAc?$AAa?$AA?9?$AAE?$AAS?$AA?$AA@ 1004fe4c     LIBCMT:winapinls.obj
 0002:0000ce58       ??_C@_1M@IJJHFJHA@?$AAc?$AAs?$AA?9?$AAC?$AAZ?$AA?$AA@ 1004fe58     LIBCMT:winapinls.obj
 0002:0000ce64       ??_C@_1M@CLPEOBGI@?$AAd?$AAa?$AA?9?$AAD?$AAK?$AA?$AA@ 1004fe64     LIBCMT:winapinls.obj
 0002:0000ce70       ??_C@_1M@MCMADGCB@?$AAd?$AAe?$AA?9?$AAD?$AAE?$AA?$AA@ 1004fe70     LIBCMT:winapinls.obj
 0002:0000ce7c       ??_C@_1M@OOCKEMAM@?$AAe?$AAl?$AA?9?$AAG?$AAR?$AA?$AA@ 1004fe7c     LIBCMT:winapinls.obj
 0002:0000ce88       ??_C@_1M@DDNJFGID@?$AAf?$AAi?$AA?9?$AAF?$AAI?$AA?$AA@ 1004fe88     LIBCMT:winapinls.obj
 0002:0000ce94       ??_C@_1M@GLIPPMAC@?$AAf?$AAr?$AA?9?$AAF?$AAR?$AA?$AA@ 1004fe94     LIBCMT:winapinls.obj
 0002:0000cea0       ??_C@_1M@GFMCHPE@?$AAh?$AAe?$AA?9?$AAI?$AAL?$AA?$AA@ 1004fea0     LIBCMT:winapinls.obj
 0002:0000ceac       ??_C@_1M@MHLPGNKM@?$AAh?$AAu?$AA?9?$AAH?$AAU?$AA?$AA@ 1004feac     LIBCMT:winapinls.obj
 0002:0000ceb8       ??_C@_1M@LPDDNNPN@?$AAi?$AAs?$AA?9?$AAI?$AAS?$AA?$AA@ 1004feb8     LIBCMT:winapinls.obj
 0002:0000cec4       ??_C@_1M@MADIPODN@?$AAi?$AAt?$AA?9?$AAI?$AAT?$AA?$AA@ 1004fec4     LIBCMT:winapinls.obj
 0002:0000ced0       ??_C@_1M@IHBJJGG@?$AAn?$AAl?$AA?9?$AAN?$AAL?$AA?$AA@ 1004fed0     LIBCMT:winapinls.obj
 0002:0000cedc       ??_C@_1M@EANAGDL@?$AAn?$AAb?$AA?9?$AAN?$AAO?$AA?$AA@ 1004fedc     LIBCMT:winapinls.obj
 0002:0000cee8       ??_C@_1M@NEIEMEGP@?$AAp?$AAl?$AA?9?$AAP?$AAL?$AA?$AA@ 1004fee8     LIBCMT:winapinls.obj
 0002:0000cef4       ??_C@_1M@BOCFIGEP@?$AAp?$AAt?$AA?9?$AAB?$AAR?$AA?$AA@ 1004fef4     LIBCMT:winapinls.obj
 0002:0000cf00       ??_C@_1M@IMPFOPBG@?$AAr?$AAo?$AA?9?$AAR?$AAO?$AA?$AA@ 1004ff00     LIBCMT:winapinls.obj
 0002:0000cf0c       ??_C@_1M@IDNNEJMM@?$AAr?$AAu?$AA?9?$AAR?$AAU?$AA?$AA@ 1004ff0c     LIBCMT:winapinls.obj
 0002:0000cf18       ??_C@_1M@LILEEOGM@?$AAh?$AAr?$AA?9?$AAH?$AAR?$AA?$AA@ 1004ff18     LIBCMT:winapinls.obj
 0002:0000cf24       ??_C@_1M@FKIFEHPB@?$AAs?$AAk?$AA?9?$AAS?$AAK?$AA?$AA@ 1004ff24     LIBCMT:winapinls.obj
 0002:0000cf30       ??_C@_1M@LJMAMNPJ@?$AAs?$AAq?$AA?9?$AAA?$AAL?$AA?$AA@ 1004ff30     LIBCMT:winapinls.obj
 0002:0000cf3c       ??_C@_1M@GIAKDKJK@?$AAs?$AAv?$AA?9?$AAS?$AAE?$AA?$AA@ 1004ff3c     LIBCMT:winapinls.obj
 0002:0000cf48       ??_C@_1M@MKJKIKCL@?$AAt?$AAh?$AA?9?$AAT?$AAH?$AA?$AA@ 1004ff48     LIBCMT:winapinls.obj
 0002:0000cf54       ??_C@_1M@MFLCCMPB@?$AAt?$AAr?$AA?9?$AAT?$AAR?$AA?$AA@ 1004ff54     LIBCMT:winapinls.obj
 0002:0000cf60       ??_C@_1M@OIJHDKJN@?$AAu?$AAr?$AA?9?$AAP?$AAK?$AA?$AA@ 1004ff60     LIBCMT:winapinls.obj
 0002:0000cf6c       ??_C@_1M@LHIPCIEK@?$AAi?$AAd?$AA?9?$AAI?$AAD?$AA?$AA@ 1004ff6c     LIBCMT:winapinls.obj
 0002:0000cf78       ??_C@_1M@MFMOBGI@?$AAu?$AAk?$AA?9?$AAU?$AAA?$AA?$AA@ 1004ff78     LIBCMT:winapinls.obj
 0002:0000cf84       ??_C@_1M@OBGLJIPL@?$AAb?$AAe?$AA?9?$AAB?$AAY?$AA?$AA@ 1004ff84     LIBCMT:winapinls.obj
 0002:0000cf90       ??_C@_1M@BCFAJEAD@?$AAs?$AAl?$AA?9?$AAS?$AAI?$AA?$AA@ 1004ff90     LIBCMT:winapinls.obj
 0002:0000cf9c       ??_C@_1M@FKFFEDDN@?$AAe?$AAt?$AA?9?$AAE?$AAE?$AA?$AA@ 1004ff9c     LIBCMT:winapinls.obj
 0002:0000cfa8       ??_C@_1M@KGKKAACI@?$AAl?$AAv?$AA?9?$AAL?$AAV?$AA?$AA@ 1004ffa8     LIBCMT:winapinls.obj
 0002:0000cfb4       ??_C@_1M@IFGBIJO@?$AAl?$AAt?$AA?9?$AAL?$AAT?$AA?$AA@ 1004ffb4     LIBCMT:winapinls.obj
 0002:0000cfc0       ??_C@_1M@FGEAHEDM@?$AAf?$AAa?$AA?9?$AAI?$AAR?$AA?$AA@ 1004ffc0     LIBCMT:winapinls.obj
 0002:0000cfcc       ??_C@_1M@KBMAIBFN@?$AAv?$AAi?$AA?9?$AAV?$AAN?$AA?$AA@ 1004ffcc     LIBCMT:winapinls.obj
 0002:0000cfd8       ??_C@_1M@GPCBKDJK@?$AAh?$AAy?$AA?9?$AAA?$AAM?$AA?$AA@ 1004ffd8     LIBCMT:winapinls.obj
 0002:0000cfe4       ??_C@_1BG@BECMDDJB@?$AAa?$AAz?$AA?9?$AAA?$AAZ?$AA?9?$AAL?$AAa?$AAt?$AAn?$AA?$AA@ 1004ffe4     LIBCMT:winapinls.obj
 0002:0000cffc       ??_C@_1M@MAOFCAEA@?$AAe?$AAu?$AA?9?$AAE?$AAS?$AA?$AA@ 1004fffc     LIBCMT:winapinls.obj
 0002:0000d008       ??_C@_1M@IGHABKPI@?$AAm?$AAk?$AA?9?$AAM?$AAK?$AA?$AA@ 10050008     LIBCMT:winapinls.obj
 0002:0000d014       ??_C@_1M@IAIGNEJG@?$AAt?$AAn?$AA?9?$AAZ?$AAA?$AA?$AA@ 10050014     LIBCMT:winapinls.obj
 0002:0000d020       ??_C@_1M@IIJCOJFA@?$AAx?$AAh?$AA?9?$AAZ?$AAA?$AA?$AA@ 10050020     LIBCMT:winapinls.obj
 0002:0000d02c       ??_C@_1M@LGPJHNJH@?$AAz?$AAu?$AA?9?$AAZ?$AAA?$AA?$AA@ 1005002c     LIBCMT:winapinls.obj
 0002:0000d038       ??_C@_1M@HOKAOIO@?$AAa?$AAf?$AA?9?$AAZ?$AAA?$AA?$AA@ 10050038     LIBCMT:winapinls.obj
 0002:0000d044       ??_C@_1M@DPCLHLIE@?$AAk?$AAa?$AA?9?$AAG?$AAE?$AA?$AA@ 10050044     LIBCMT:winapinls.obj
 0002:0000d050       ??_C@_1M@BLKMHJBI@?$AAf?$AAo?$AA?9?$AAF?$AAO?$AA?$AA@ 10050050     LIBCMT:winapinls.obj
 0002:0000d05c       ??_C@_1M@LGGJAPPB@?$AAh?$AAi?$AA?9?$AAI?$AAN?$AA?$AA@ 1005005c     LIBCMT:winapinls.obj
 0002:0000d068       ??_C@_1M@FIKPIHFE@?$AAm?$AAt?$AA?9?$AAM?$AAT?$AA?$AA@ 10050068     LIBCMT:winapinls.obj
 0002:0000d074       ??_C@_1M@HEGGPBFA@?$AAs?$AAe?$AA?9?$AAN?$AAO?$AA?$AA@ 10050074     LIBCMT:winapinls.obj
 0002:0000d080       ??_C@_1M@EIBJEEPA@?$AAm?$AAs?$AA?9?$AAM?$AAY?$AA?$AA@ 10050080     LIBCMT:winapinls.obj
 0002:0000d08c       ??_C@_1M@FHLBGMPP@?$AAk?$AAk?$AA?9?$AAK?$AAZ?$AA?$AA@ 1005008c     LIBCMT:winapinls.obj
 0002:0000d098       ??_C@_1M@NGJJLCGI@?$AAk?$AAy?$AA?9?$AAK?$AAG?$AA?$AA@ 10050098     LIBCMT:winapinls.obj
 0002:0000d0a4       ??_C@_1M@GIENNBFC@?$AAs?$AAw?$AA?9?$AAK?$AAE?$AA?$AA@ 100500a4     LIBCMT:winapinls.obj
 0002:0000d0b0       ??_C@_1BG@NDGMJIMJ@?$AAu?$AAz?$AA?9?$AAU?$AAZ?$AA?9?$AAL?$AAa?$AAt?$AAn?$AA?$AA@ 100500b0     LIBCMT:winapinls.obj
 0002:0000d0c8       ??_C@_1M@IDCCIHBC@?$AAt?$AAt?$AA?9?$AAR?$AAU?$AA?$AA@ 100500c8     LIBCMT:winapinls.obj
 0002:0000d0d4       ??_C@_1M@LOICPMOJ@?$AAb?$AAn?$AA?9?$AAI?$AAN?$AA?$AA@ 100500d4     LIBCMT:winapinls.obj
 0002:0000d0e0       ??_C@_1M@KPKKNEAH@?$AAp?$AAa?$AA?9?$AAI?$AAN?$AA?$AA@ 100500e0     LIBCMT:winapinls.obj
 0002:0000d0ec       ??_C@_1M@PJGPPBOG@?$AAg?$AAu?$AA?9?$AAI?$AAN?$AA?$AA@ 100500ec     LIBCMT:winapinls.obj
 0002:0000d0f8       ??_C@_1M@KMKMOPHI@?$AAt?$AAa?$AA?9?$AAI?$AAN?$AA?$AA@ 100500f8     LIBCMT:winapinls.obj
 0002:0000d104       ??_C@_1M@KFEHEPAC@?$AAt?$AAe?$AA?9?$AAI?$AAN?$AA?$AA@ 10050104     LIBCMT:winapinls.obj
 0002:0000d110       ??_C@_1M@CDCLMGHI@?$AAk?$AAn?$AA?9?$AAI?$AAN?$AA?$AA@ 10050110     LIBCMT:winapinls.obj
 0002:0000d11c       ??_C@_1M@MIODLDKF@?$AAm?$AAl?$AA?9?$AAI?$AAN?$AA?$AA@ 1005011c     LIBCMT:winapinls.obj
 0002:0000d128       ??_C@_1M@PBIEACPO@?$AAm?$AAr?$AA?9?$AAI?$AAN?$AA?$AA@ 10050128     LIBCMT:winapinls.obj
 0002:0000d134       ??_C@_1M@NIDEAGPH@?$AAs?$AAa?$AA?9?$AAI?$AAN?$AA?$AA@ 10050134     LIBCMT:winapinls.obj
 0002:0000d140       ??_C@_1M@FHIHCBIO@?$AAm?$AAn?$AA?9?$AAM?$AAN?$AA?$AA@ 10050140     LIBCMT:winapinls.obj
 0002:0000d14c       ??_C@_1M@JAIJPENP@?$AAc?$AAy?$AA?9?$AAG?$AAB?$AA?$AA@ 1005014c     LIBCMT:winapinls.obj
 0002:0000d158       ??_C@_1M@PHGFBEPN@?$AAg?$AAl?$AA?9?$AAE?$AAS?$AA?$AA@ 10050158     LIBCMT:winapinls.obj
 0002:0000d164       ??_C@_1O@KPIPDNCP@?$AAk?$AAo?$AAk?$AA?9?$AAI?$AAN?$AA?$AA@ 10050164     LIBCMT:winapinls.obj
 0002:0000d174       ??_C@_1O@KNHJLDJA@?$AAs?$AAy?$AAr?$AA?9?$AAS?$AAY?$AA?$AA@ 10050174     LIBCMT:winapinls.obj
 0002:0000d184       ??_C@_1O@MKEKBLAH@?$AAd?$AAi?$AAv?$AA?9?$AAM?$AAV?$AA?$AA@ 10050184     LIBCMT:winapinls.obj
 0002:0000d194       ??_C@_1O@OHDCKDDF@?$AAq?$AAu?$AAz?$AA?9?$AAB?$AAO?$AA?$AA@ 10050194     LIBCMT:winapinls.obj
 0002:0000d1a4       ??_C@_1M@LEPJNLFD@?$AAn?$AAs?$AA?9?$AAZ?$AAA?$AA?$AA@ 100501a4     LIBCMT:winapinls.obj
 0002:0000d1b0       ??_C@_1M@OMLEIIJB@?$AAm?$AAi?$AA?9?$AAN?$AAZ?$AA?$AA@ 100501b0     LIBCMT:winapinls.obj
 0002:0000d1bc       ??_C@_1M@PMPEAILG@?$AAa?$AAr?$AA?9?$AAI?$AAQ?$AA?$AA@ 100501bc     LIBCMT:winapinls.obj
 0002:0000d1c8       ??_C@_1M@CNKPNOEE@?$AAd?$AAe?$AA?9?$AAC?$AAH?$AA?$AA@ 100501c8     LIBCMT:winapinls.obj
 0002:0000d1d4       ??_C@_1M@LKMGMLKO@?$AAe?$AAn?$AA?9?$AAG?$AAB?$AA?$AA@ 100501d4     LIBCMT:winapinls.obj
 0002:0000d1e0       ??_C@_1M@PGKJFFGL@?$AAe?$AAs?$AA?9?$AAM?$AAX?$AA?$AA@ 100501e0     LIBCMT:winapinls.obj
 0002:0000d1ec       ??_C@_1M@DNNANBDC@?$AAf?$AAr?$AA?9?$AAB?$AAE?$AA?$AA@ 100501ec     LIBCMT:winapinls.obj
 0002:0000d1f8       ??_C@_1M@HLGMDFHM@?$AAi?$AAt?$AA?9?$AAC?$AAH?$AA?$AA@ 100501f8     LIBCMT:winapinls.obj
 0002:0000d204       ??_C@_1M@CLLBGJH@?$AAn?$AAl?$AA?9?$AAB?$AAE?$AA?$AA@ 10050204     LIBCMT:winapinls.obj
 0002:0000d210       ??_C@_1M@BODBOGLF@?$AAn?$AAn?$AA?9?$AAN?$AAO?$AA?$AA@ 10050210     LIBCMT:winapinls.obj
 0002:0000d21c       ??_C@_1M@HFFAHKAD@?$AAp?$AAt?$AA?9?$AAP?$AAT?$AA?$AA@ 1005021c     LIBCMT:winapinls.obj
 0002:0000d228       ??_C@_1BG@LNOAKHIE@?$AAs?$AAr?$AA?9?$AAS?$AAP?$AA?9?$AAL?$AAa?$AAt?$AAn?$AA?$AA@ 10050228     LIBCMT:winapinls.obj
 0002:0000d240       ??_C@_1M@HBMHBGAK@?$AAs?$AAv?$AA?9?$AAF?$AAI?$AA?$AA@ 10050240     LIBCMT:winapinls.obj
 0002:0000d24c       ??_C@_1BG@DGCJGJBE@?$AAa?$AAz?$AA?9?$AAA?$AAZ?$AA?9?$AAC?$AAy?$AAr?$AAl?$AA?$AA@ 1005024c     LIBCMT:winapinls.obj
 0002:0000d264       ??_C@_1M@KEJDAAHB@?$AAs?$AAe?$AA?9?$AAS?$AAE?$AA?$AA@ 10050264     LIBCMT:winapinls.obj
 0002:0000d270       ??_C@_1M@HEIBJJAD@?$AAm?$AAs?$AA?9?$AAB?$AAN?$AA?$AA@ 10050270     LIBCMT:winapinls.obj
 0002:0000d27c       ??_C@_1BG@PBGJMCEM@?$AAu?$AAz?$AA?9?$AAU?$AAZ?$AA?9?$AAC?$AAy?$AAr?$AAl?$AA?$AA@ 1005027c     LIBCMT:winapinls.obj
 0002:0000d294       ??_C@_1O@LAOBCMDF@?$AAq?$AAu?$AAz?$AA?9?$AAE?$AAC?$AA?$AA@ 10050294     LIBCMT:winapinls.obj
 0002:0000d2a4       ??_C@_1M@POEEMAIO@?$AAa?$AAr?$AA?9?$AAE?$AAG?$AA?$AA@ 100502a4     LIBCMT:winapinls.obj
 0002:0000d2b0       ??_C@_1M@EFAKDEDL@?$AAz?$AAh?$AA?9?$AAH?$AAK?$AA?$AA@ 100502b0     LIBCMT:winapinls.obj
 0002:0000d2bc       ??_C@_1M@HKKIJHGI@?$AAd?$AAe?$AA?9?$AAA?$AAT?$AA?$AA@ 100502bc     LIBCMT:winapinls.obj
 0002:0000d2c8       ??_C@_1M@KBFBEHJF@?$AAe?$AAn?$AA?9?$AAA?$AAU?$AA?$AA@ 100502c8     LIBCMT:winapinls.obj
 0002:0000d2d4       ??_C@_1M@MNPLFAAH@?$AAe?$AAs?$AA?9?$AAE?$AAS?$AA?$AA@ 100502d4     LIBCMT:winapinls.obj
 0002:0000d2e0       ??_C@_1M@HJOOJFMA@?$AAf?$AAr?$AA?9?$AAC?$AAA?$AA?$AA@ 100502e0     LIBCMT:winapinls.obj
 0002:0000d2ec       ??_C@_1BG@JPOFPNAB@?$AAs?$AAr?$AA?9?$AAS?$AAP?$AA?9?$AAC?$AAy?$AAr?$AAl?$AA?$AA@ 100502ec     LIBCMT:winapinls.obj
 0002:0000d304       ??_C@_1M@LNFOCMOB@?$AAs?$AAe?$AA?9?$AAF?$AAI?$AA?$AA@ 10050304     LIBCMT:winapinls.obj
 0002:0000d310       ??_C@_1O@MGJBOAMB@?$AAq?$AAu?$AAz?$AA?9?$AAP?$AAE?$AA?$AA@ 10050310     LIBCMT:winapinls.obj
 0002:0000d320       ??_C@_1M@GJINLBOK@?$AAa?$AAr?$AA?9?$AAL?$AAY?$AA?$AA@ 10050320     LIBCMT:winapinls.obj
 0002:0000d32c       ??_C@_1M@GGMNHJNL@?$AAz?$AAh?$AA?9?$AAS?$AAG?$AA?$AA@ 1005032c     LIBCMT:winapinls.obj
 0002:0000d338       ??_C@_1M@HOIKODND@?$AAd?$AAe?$AA?9?$AAL?$AAU?$AA?$AA@ 10050338     LIBCMT:winapinls.obj
 0002:0000d344       ??_C@_1M@DDOCCGFG@?$AAe?$AAn?$AA?9?$AAC?$AAA?$AA?$AA@ 10050344     LIBCMT:winapinls.obj
 0002:0000d350       ??_C@_1M@BNOEMJLF@?$AAe?$AAs?$AA?9?$AAG?$AAT?$AA?$AA@ 10050350     LIBCMT:winapinls.obj
 0002:0000d35c       ??_C@_1M@EOGNKEK@?$AAf?$AAr?$AA?9?$AAC?$AAH?$AA?$AA@ 1005035c     LIBCMT:winapinls.obj
 0002:0000d368       ??_C@_1M@FLIDJFHL@?$AAh?$AAr?$AA?9?$AAB?$AAA?$AA?$AA@ 10050368     LIBCMT:winapinls.obj
 0002:0000d374       ??_C@_1O@FMCELNAJ@?$AAs?$AAm?$AAj?$AA?9?$AAN?$AAO?$AA?$AA@ 10050374     LIBCMT:winapinls.obj
 0002:0000d384       ??_C@_1M@JHGLJMGJ@?$AAa?$AAr?$AA?9?$AAD?$AAZ?$AA?$AA@ 10050384     LIBCMT:winapinls.obj
 0002:0000d390       ??_C@_1M@JKKFDCNP@?$AAz?$AAh?$AA?9?$AAM?$AAO?$AA?$AA@ 10050390     LIBCMT:winapinls.obj
 0002:0000d39c       ??_C@_1M@GEEFALPE@?$AAd?$AAe?$AA?9?$AAL?$AAI?$AA?$AA@ 1005039c     LIBCMT:winapinls.obj
 0002:0000d3a8       ??_C@_1M@IGEOFBG@?$AAe?$AAn?$AA?9?$AAN?$AAZ?$AA?$AA@ 100503a8     LIBCMT:winapinls.obj
 0002:0000d3b4       ??_C@_1M@KDBONEHP@?$AAe?$AAs?$AA?9?$AAC?$AAR?$AA?$AA@ 100503b4     LIBCMT:winapinls.obj
 0002:0000d3c0       ??_C@_1M@FHMDOHNN@?$AAf?$AAr?$AA?9?$AAL?$AAU?$AA?$AA@ 100503c0     LIBCMT:winapinls.obj
 0002:0000d3cc       ??_C@_1BG@NFKKMAFG@?$AAb?$AAs?$AA?9?$AAB?$AAA?$AA?9?$AAL?$AAa?$AAt?$AAn?$AA?$AA@ 100503cc     LIBCMT:winapinls.obj
 0002:0000d3e4       ??_C@_1O@IMNBEMCI@?$AAs?$AAm?$AAj?$AA?9?$AAS?$AAE?$AA?$AA@ 100503e4     LIBCMT:winapinls.obj
 0002:0000d3f4       ??_C@_1M@DHHMBNDP@?$AAa?$AAr?$AA?9?$AAM?$AAA?$AA?$AA@ 100503f4     LIBCMT:winapinls.obj
 0002:0000d400       ??_C@_1M@BNBLJCGH@?$AAe?$AAn?$AA?9?$AAI?$AAE?$AA?$AA@ 10050400     LIBCMT:winapinls.obj
 0002:0000d40c       ??_C@_1M@GEPAFMDL@?$AAe?$AAs?$AA?9?$AAP?$AAA?$AA?$AA@ 1005040c     LIBCMT:winapinls.obj
 0002:0000d418       ??_C@_1M@OJONDMDL@?$AAf?$AAr?$AA?9?$AAM?$AAC?$AA?$AA@ 10050418     LIBCMT:winapinls.obj
 0002:0000d424       ??_C@_1BG@OBCNFJB@?$AAs?$AAr?$AA?9?$AAB?$AAA?$AA?9?$AAL?$AAa?$AAt?$AAn?$AA?$AA@ 10050424     LIBCMT:winapinls.obj
 0002:0000d43c       ??_C@_1O@KEMEEGPO@?$AAs?$AAm?$AAa?$AA?9?$AAN?$AAO?$AA?$AA@ 1005043c     LIBCMT:winapinls.obj
 0002:0000d44c       ??_C@_1M@ELMGFODK@?$AAa?$AAr?$AA?9?$AAT?$AAN?$AA?$AA@ 1005044c     LIBCMT:winapinls.obj
 0002:0000d458       ??_C@_1M@BHDLHFAF@?$AAe?$AAn?$AA?9?$AAZ?$AAA?$AA?$AA@ 10050458     LIBCMT:winapinls.obj
 0002:0000d464       ??_C@_1M@BMGIGLIF@?$AAe?$AAs?$AA?9?$AAD?$AAO?$AA?$AA@ 10050464     LIBCMT:winapinls.obj
 0002:0000d470       ??_C@_1BG@CMBHIPBE@?$AAs?$AAr?$AA?9?$AAB?$AAA?$AA?9?$AAC?$AAy?$AAr?$AAl?$AA?$AA@ 10050470     LIBCMT:winapinls.obj
 0002:0000d488       ??_C@_1O@HEDBLHNP@?$AAs?$AAm?$AAa?$AA?9?$AAS?$AAE?$AA?$AA@ 10050488     LIBCMT:winapinls.obj
 0002:0000d498       ??_C@_1M@DAGCADIM@?$AAa?$AAr?$AA?9?$AAO?$AAM?$AA?$AA@ 10050498     LIBCMT:winapinls.obj
 0002:0000d4a4       ??_C@_1M@FODLMICG@?$AAe?$AAn?$AA?9?$AAJ?$AAM?$AA?$AA@ 100504a4     LIBCMT:winapinls.obj
 0002:0000d4b0       ??_C@_1M@DNMLCIHB@?$AAe?$AAs?$AA?9?$AAV?$AAE?$AA?$AA@ 100504b0     LIBCMT:winapinls.obj
 0002:0000d4bc       ??_C@_1O@EOKHMKJK@?$AAs?$AAm?$AAs?$AA?9?$AAF?$AAI?$AA?$AA@ 100504bc     LIBCMT:winapinls.obj
 0002:0000d4cc       ??_C@_1M@CAFJMKOF@?$AAa?$AAr?$AA?9?$AAY?$AAE?$AA?$AA@ 100504cc     LIBCMT:winapinls.obj
 0002:0000d4d8       ??_C@_1M@CBFHIJLI@?$AAe?$AAn?$AA?9?$AAC?$AAB?$AA?$AA@ 100504d8     LIBCMT:winapinls.obj
 0002:0000d4e4       ??_C@_1M@BGNFLDN@?$AAe?$AAs?$AA?9?$AAC?$AAO?$AA?$AA@ 100504e4     LIBCMT:winapinls.obj
 0002:0000d4f0       ??_C@_1O@JMPHMAMC@?$AAs?$AAm?$AAn?$AA?9?$AAF?$AAI?$AA?$AA@ 100504f0     LIBCMT:winapinls.obj
 0002:0000d500       ??_C@_1M@JLANABKE@?$AAa?$AAr?$AA?9?$AAS?$AAY?$AA?$AA@ 10050500     LIBCMT:winapinls.obj
 0002:0000d50c       ??_C@_1M@HPKGCFGN@?$AAe?$AAn?$AA?9?$AAB?$AAZ?$AA?$AA@ 1005050c     LIBCMT:winapinls.obj
 0002:0000d518       ??_C@_1M@OLJCMLGM@?$AAe?$AAs?$AA?9?$AAP?$AAE?$AA?$AA@ 10050518     LIBCMT:winapinls.obj
 0002:0000d524       ??_C@_1M@MKKGFKLE@?$AAa?$AAr?$AA?9?$AAJ?$AAO?$AA?$AA@ 10050524     LIBCMT:winapinls.obj
 0002:0000d530       ??_C@_1M@EKPGLDNI@?$AAe?$AAn?$AA?9?$AAT?$AAT?$AA?$AA@ 10050530     LIBCMT:winapinls.obj
 0002:0000d53c       ??_C@_1M@OONGHFHE@?$AAe?$AAs?$AA?9?$AAA?$AAR?$AA?$AA@ 1005053c     LIBCMT:winapinls.obj
 0002:0000d548       ??_C@_1M@OOJFGBHE@?$AAa?$AAr?$AA?9?$AAL?$AAB?$AA?$AA@ 10050548     LIBCMT:winapinls.obj
 0002:0000d554       ??_C@_1M@GCEJHNEG@?$AAe?$AAn?$AA?9?$AAZ?$AAW?$AA?$AA@ 10050554     LIBCMT:winapinls.obj
 0002:0000d560       ??_C@_1M@JNOCAHJI@?$AAe?$AAs?$AA?9?$AAE?$AAC?$AA?$AA@ 10050560     LIBCMT:winapinls.obj
 0002:0000d56c       ??_C@_1M@JEFHPGGB@?$AAa?$AAr?$AA?9?$AAK?$AAW?$AA?$AA@ 1005056c     LIBCMT:winapinls.obj
 0002:0000d578       ??_C@_1M@MLKIBJOJ@?$AAe?$AAn?$AA?9?$AAP?$AAH?$AA?$AA@ 10050578     LIBCMT:winapinls.obj
 0002:0000d584       ??_C@_1M@BDNIPEND@?$AAe?$AAs?$AA?9?$AAC?$AAL?$AA?$AA@ 10050584     LIBCMT:winapinls.obj
 0002:0000d590       ??_C@_1M@MPNMEKBD@?$AAa?$AAr?$AA?9?$AAA?$AAE?$AA?$AA@ 10050590     LIBCMT:winapinls.obj
 0002:0000d59c       ??_C@_1M@KBJALCPI@?$AAe?$AAs?$AA?9?$AAU?$AAY?$AA?$AA@ 1005059c     LIBCMT:winapinls.obj
 0002:0000d5a8       ??_C@_1M@LLCCOAGA@?$AAa?$AAr?$AA?9?$AAB?$AAH?$AA?$AA@ 100505a8     LIBCMT:winapinls.obj
 0002:0000d5b4       ??_C@_1M@PBFNCDEL@?$AAe?$AAs?$AA?9?$AAP?$AAY?$AA?$AA@ 100505b4     LIBCMT:winapinls.obj
 0002:0000d5c0       ??_C@_1M@EDGINPNP@?$AAa?$AAr?$AA?9?$AAQ?$AAA?$AA?$AA@ 100505c0     LIBCMT:winapinls.obj
 0002:0000d5cc       ??_C@_1M@MKDBIIJI@?$AAe?$AAs?$AA?9?$AAB?$AAO?$AA?$AA@ 100505cc     LIBCMT:winapinls.obj
 0002:0000d5d8       ??_C@_1M@CPKKEBLD@?$AAe?$AAs?$AA?9?$AAS?$AAV?$AA?$AA@ 100505d8     LIBCMT:winapinls.obj
 0002:0000d5e4       ??_C@_1M@NDBGMMJL@?$AAe?$AAs?$AA?9?$AAH?$AAN?$AA?$AA@ 100505e4     LIBCMT:winapinls.obj
 0002:0000d5f0       ??_C@_1M@JIJIBHDP@?$AAe?$AAs?$AA?9?$AAN?$AAI?$AA?$AA@ 100505f0     LIBCMT:winapinls.obj
 0002:0000d5fc       ??_C@_1M@CGFMKEEK@?$AAe?$AAs?$AA?9?$AAP?$AAR?$AA?$AA@ 100505fc     LIBCMT:winapinls.obj
 0002:0000d608       ??_C@_1O@ICJHKIIK@?$AAz?$AAh?$AA?9?$AAC?$AAH?$AAT?$AA?$AA@ 10050608     LIBCMT:winapinls.obj
 0002:0000d618       ??_C@_15CLNEJCE@?$AAs?$AAr?$AA?$AA@ 10050618     LIBCMT:winapinls.obj
 0002:0000d620       ??_C@_1M@KAHEKEIG@?$AAa?$AAf?$AA?9?$AAz?$AAa?$AA?$AA@ 10050620     LIBCMT:winapinls.obj
 0002:0000d62c       ??_C@_1M@GIECOABL@?$AAa?$AAr?$AA?9?$AAa?$AAe?$AA?$AA@ 1005062c     LIBCMT:winapinls.obj
 0002:0000d638       ??_C@_1M@BMLMEKGI@?$AAa?$AAr?$AA?9?$AAb?$AAh?$AA?$AA@ 10050638     LIBCMT:winapinls.obj
 0002:0000d644       ??_C@_1M@DAPFDGGB@?$AAa?$AAr?$AA?9?$AAd?$AAz?$AA?$AA@ 10050644     LIBCMT:winapinls.obj
 0002:0000d650       ??_C@_1M@FJNKGKIG@?$AAa?$AAr?$AA?9?$AAe?$AAg?$AA?$AA@ 10050650     LIBCMT:winapinls.obj
 0002:0000d65c       ??_C@_1M@FLGKKCLO@?$AAa?$AAr?$AA?9?$AAi?$AAq?$AA?$AA@ 1005065c     LIBCMT:winapinls.obj
 0002:0000d668       ??_C@_1M@GNDIPALM@?$AAa?$AAr?$AA?9?$AAj?$AAo?$AA?$AA@ 10050668     LIBCMT:winapinls.obj
 0002:0000d674       ??_C@_1M@DDMJFMGJ@?$AAa?$AAr?$AA?9?$AAk?$AAw?$AA?$AA@ 10050674     LIBCMT:winapinls.obj
 0002:0000d680       ??_C@_1M@EJALMLHM@?$AAa?$AAr?$AA?9?$AAl?$AAb?$AA?$AA@ 10050680     LIBCMT:winapinls.obj
 0002:0000d68c       ??_C@_1M@MOBDBLOC@?$AAa?$AAr?$AA?9?$AAl?$AAy?$AA?$AA@ 1005068c     LIBCMT:winapinls.obj
 0002:0000d698       ??_C@_1M@JAOCLHDH@?$AAa?$AAr?$AA?9?$AAm?$AAa?$AA?$AA@ 10050698     LIBCMT:winapinls.obj
 0002:0000d6a4       ??_C@_1M@JHPMKJIE@?$AAa?$AAr?$AA?9?$AAo?$AAm?$AA?$AA@ 100506a4     LIBCMT:winapinls.obj
 0002:0000d6b0       ??_C@_1M@OEPGHFNH@?$AAa?$AAr?$AA?9?$AAq?$AAa?$AA?$AA@ 100506b0     LIBCMT:winapinls.obj
 0002:0000d6bc       ??_C@_1M@KJDONENM@?$AAa?$AAr?$AA?9?$AAs?$AAa?$AA?$AA@ 100506bc     LIBCMT:winapinls.obj
 0002:0000d6c8       ??_C@_1M@DMJDKLKM@?$AAa?$AAr?$AA?9?$AAs?$AAy?$AA?$AA@ 100506c8     LIBCMT:winapinls.obj
 0002:0000d6d4       ??_C@_1M@OMFIPEDC@?$AAa?$AAr?$AA?9?$AAt?$AAn?$AA?$AA@ 100506d4     LIBCMT:winapinls.obj
 0002:0000d6e0       ??_C@_1M@IHMHGAON@?$AAa?$AAr?$AA?9?$AAy?$AAe?$AA?$AA@ 100506e0     LIBCMT:winapinls.obj
 0002:0000d6ec       ??_C@_1BG@KDCPGJGB@?$AAa?$AAz?$AA?9?$AAa?$AAz?$AA?9?$AAc?$AAy?$AAr?$AAl?$AA?$AA@ 100506ec     LIBCMT:winapinls.obj
 0002:0000d704       ??_C@_1BG@IBCKDDOE@?$AAa?$AAz?$AA?9?$AAa?$AAz?$AA?9?$AAl?$AAa?$AAt?$AAn?$AA?$AA@ 10050704     LIBCMT:winapinls.obj
 0002:0000d71c       ??_C@_1M@EGPFDCPD@?$AAb?$AAe?$AA?9?$AAb?$AAy?$AA?$AA@ 1005071c     LIBCMT:winapinls.obj
 0002:0000d728       ??_C@_1M@PCMGMCGC@?$AAb?$AAg?$AA?9?$AAb?$AAg?$AA?$AA@ 10050728     LIBCMT:winapinls.obj
 0002:0000d734       ??_C@_1M@BJBMFGOB@?$AAb?$AAn?$AA?9?$AAi?$AAn?$AA?$AA@ 10050734     LIBCMT:winapinls.obj
 0002:0000d740       ??_C@_1BG@EAKMMACD@?$AAb?$AAs?$AA?9?$AAb?$AAa?$AA?9?$AAl?$AAa?$AAt?$AAn?$AA?$AA@ 10050740     LIBCMT:winapinls.obj
 0002:0000d758       ??_C@_1M@KGADAODK@?$AAc?$AAa?$AA?9?$AAe?$AAs?$AA?$AA@ 10050758     LIBCMT:winapinls.obj
 0002:0000d764       ??_C@_1M@COAJPDHI@?$AAc?$AAs?$AA?9?$AAc?$AAz?$AA?$AA@ 10050764     LIBCMT:winapinls.obj
 0002:0000d770       ??_C@_1M@DHBHFONH@?$AAc?$AAy?$AA?9?$AAg?$AAb?$AA?$AA@ 10050770     LIBCMT:winapinls.obj
 0002:0000d77c       ??_C@_1M@IMGKELGA@?$AAd?$AAa?$AA?9?$AAd?$AAk?$AA?$AA@ 1005077c     LIBCMT:winapinls.obj
 0002:0000d788       ??_C@_1M@NNDGDNGA@?$AAd?$AAe?$AA?9?$AAa?$AAt?$AA?$AA@ 10050788     LIBCMT:winapinls.obj
 0002:0000d794       ??_C@_1M@IKDBHEEM@?$AAd?$AAe?$AA?9?$AAc?$AAh?$AA?$AA@ 10050794     LIBCMT:winapinls.obj
 0002:0000d7a0       ??_C@_1M@GFFOJMCJ@?$AAd?$AAe?$AA?9?$AAd?$AAe?$AA?$AA@ 100507a0     LIBCMT:winapinls.obj
 0002:0000d7ac       ??_C@_1M@MDNLKBPM@?$AAd?$AAe?$AA?9?$AAl?$AAi?$AA?$AA@ 100507ac     LIBCMT:winapinls.obj
 0002:0000d7b8       ??_C@_1M@NJBEEJNL@?$AAd?$AAe?$AA?9?$AAl?$AAu?$AA?$AA@ 100507b8     LIBCMT:winapinls.obj
 0002:0000d7c4       ??_C@_1O@GNNELBAP@?$AAd?$AAi?$AAv?$AA?9?$AAm?$AAv?$AA?$AA@ 100507c4     LIBCMT:winapinls.obj
 0002:0000d7d4       ??_C@_1M@EJLEOGAE@?$AAe?$AAl?$AA?9?$AAg?$AAr?$AA?$AA@ 100507d4     LIBCMT:winapinls.obj
 0002:0000d7e0       ??_C@_1M@GMPONJN@?$AAe?$AAn?$AA?9?$AAa?$AAu?$AA?$AA@ 100507e0     LIBCMT:winapinls.obj
 0002:0000d7ec       ??_C@_1M@NIDIIPGF@?$AAe?$AAn?$AA?9?$AAb?$AAz?$AA?$AA@ 100507ec     LIBCMT:winapinls.obj
 0002:0000d7f8       ??_C@_1M@JEHMIMFO@?$AAe?$AAn?$AA?9?$AAc?$AAa?$AA?$AA@ 100507f8     LIBCMT:winapinls.obj
 0002:0000d804       ??_C@_1M@IGMJCDLA@?$AAe?$AAn?$AA?9?$AAc?$AAb?$AA?$AA@ 10050804     LIBCMT:winapinls.obj
 0002:0000d810       ??_C@_1M@BNFIGBKG@?$AAe?$AAn?$AA?9?$AAg?$AAb?$AA?$AA@ 10050810     LIBCMT:winapinls.obj
 0002:0000d81c       ??_C@_1M@LKIFDIGP@?$AAe?$AAn?$AA?9?$AAi?$AAe?$AA?$AA@ 1005081c     LIBCMT:winapinls.obj
 0002:0000d828       ??_C@_1M@PJKFGCCO@?$AAe?$AAn?$AA?9?$AAj?$AAm?$AA?$AA@ 10050828     LIBCMT:winapinls.obj
 0002:0000d834       ??_C@_1M@KPPKEPBO@?$AAe?$AAn?$AA?9?$AAn?$AAz?$AA?$AA@ 10050834     LIBCMT:winapinls.obj
 0002:0000d840       ??_C@_1M@GMDGLDOB@?$AAe?$AAn?$AA?9?$AAp?$AAh?$AA?$AA@ 10050840     LIBCMT:winapinls.obj
 0002:0000d84c       ??_C@_1M@ONGIBJNA@?$AAe?$AAn?$AA?9?$AAt?$AAt?$AA?$AA@ 1005084c     LIBCMT:winapinls.obj
 0002:0000d858       ??_C@_1M@LLODPCMM@?$AAe?$AAn?$AA?9?$AAu?$AAs?$AA?$AA@ 10050858     LIBCMT:winapinls.obj
 0002:0000d864       ??_C@_1M@LAKFNPAN@?$AAe?$AAn?$AA?9?$AAz?$AAa?$AA?$AA@ 10050864     LIBCMT:winapinls.obj
 0002:0000d870       ??_C@_1M@MFNHNHEO@?$AAe?$AAn?$AA?9?$AAz?$AAw?$AA?$AA@ 10050870     LIBCMT:winapinls.obj
 0002:0000d87c       ??_C@_1M@EJEINPHM@?$AAe?$AAs?$AA?9?$AAa?$AAr?$AA?$AA@ 1005087c     LIBCMT:winapinls.obj
 0002:0000d888       ??_C@_1M@GNKPCCJA@?$AAe?$AAs?$AA?9?$AAb?$AAo?$AA?$AA@ 10050888     LIBCMT:winapinls.obj
 0002:0000d894       ??_C@_1M@LEEGFONL@?$AAe?$AAs?$AA?9?$AAc?$AAl?$AA?$AA@ 10050894     LIBCMT:winapinls.obj
 0002:0000d8a0       ??_C@_1M@KGPDPBDF@?$AAe?$AAs?$AA?9?$AAc?$AAo?$AA?$AA@ 100508a0     LIBCMT:winapinls.obj
 0002:0000d8ac       ??_C@_1M@EIAHOHH@?$AAe?$AAs?$AA?9?$AAc?$AAr?$AA?$AA@ 100508ac     LIBCMT:winapinls.obj
 0002:0000d8b8       ??_C@_1M@LLPGMBIN@?$AAe?$AAs?$AA?9?$AAd?$AAo?$AA?$AA@ 100508b8     LIBCMT:winapinls.obj
 0002:0000d8c4       ??_C@_1M@DKHMKNJA@?$AAe?$AAs?$AA?9?$AAe?$AAc?$AA?$AA@ 100508c4     LIBCMT:winapinls.obj
 0002:0000d8d0       ??_C@_1M@GKGFPKAP@?$AAe?$AAs?$AA?9?$AAe?$AAs?$AA?$AA@ 100508d0     LIBCMT:winapinls.obj
 0002:0000d8dc       ??_C@_1M@LKHKGDLN@?$AAe?$AAs?$AA?9?$AAg?$AAt?$AA?$AA@ 100508dc     LIBCMT:winapinls.obj
 0002:0000d8e8       ??_C@_1M@HEIIGGJD@?$AAe?$AAs?$AA?9?$AAh?$AAn?$AA?$AA@ 100508e8     LIBCMT:winapinls.obj
 0002:0000d8f4       ??_C@_1M@FBDHPPGD@?$AAe?$AAs?$AA?9?$AAm?$AAx?$AA?$AA@ 100508f4     LIBCMT:winapinls.obj
 0002:0000d900       ??_C@_1M@DPAGLNDH@?$AAe?$AAs?$AA?9?$AAn?$AAi?$AA?$AA@ 10050900     LIBCMT:winapinls.obj
 0002:0000d90c       ??_C@_1M@MDGOPGDD@?$AAe?$AAs?$AA?9?$AAp?$AAa?$AA?$AA@ 1005090c     LIBCMT:winapinls.obj
 0002:0000d918       ??_C@_1M@EMAMGBGE@?$AAe?$AAs?$AA?9?$AAp?$AAe?$AA?$AA@ 10050918     LIBCMT:winapinls.obj
 0002:0000d924       ??_C@_1M@IBMCAOEC@?$AAe?$AAs?$AA?9?$AAp?$AAr?$AA?$AA@ 10050924     LIBCMT:winapinls.obj
 0002:0000d930       ??_C@_1M@FGMDIJED@?$AAe?$AAs?$AA?9?$AAp?$AAy?$AA?$AA@ 10050930     LIBCMT:winapinls.obj
 0002:0000d93c       ??_C@_1M@IIDEOLLL@?$AAe?$AAs?$AA?9?$AAs?$AAv?$AA?$AA@ 1005093c     LIBCMT:winapinls.obj
 0002:0000d948       ??_C@_1M@GAOBIPA@?$AAe?$AAs?$AA?9?$AAu?$AAy?$AA?$AA@ 10050948     LIBCMT:winapinls.obj
 0002:0000d954       ??_C@_1M@JKFFICHJ@?$AAe?$AAs?$AA?9?$AAv?$AAe?$AA?$AA@ 10050954     LIBCMT:winapinls.obj
 0002:0000d960       ??_C@_1M@PNMLOJDF@?$AAe?$AAt?$AA?9?$AAe?$AAe?$AA?$AA@ 10050960     LIBCMT:winapinls.obj
 0002:0000d96c       ??_C@_1M@GHHLIKEI@?$AAe?$AAu?$AA?9?$AAe?$AAs?$AA?$AA@ 1005096c     LIBCMT:winapinls.obj
 0002:0000d978       ??_C@_1M@PBNONODE@?$AAf?$AAa?$AA?9?$AAi?$AAr?$AA?$AA@ 10050978     LIBCMT:winapinls.obj
 0002:0000d984       ??_C@_1M@JEEHPMIL@?$AAf?$AAi?$AA?9?$AAf?$AAi?$AA?$AA@ 10050984     LIBCMT:winapinls.obj
 0002:0000d990       ??_C@_1M@LMDCNDBA@?$AAf?$AAo?$AA?9?$AAf?$AAo?$AA?$AA@ 10050990     LIBCMT:winapinls.obj
 0002:0000d99c       ??_C@_1M@JKEOHLDK@?$AAf?$AAr?$AA?9?$AAb?$AAe?$AA?$AA@ 1005099c     LIBCMT:winapinls.obj
 0002:0000d9a8       ??_C@_1M@NOHADPMI@?$AAf?$AAr?$AA?9?$AAc?$AAa?$AA?$AA@ 100509a8     LIBCMT:winapinls.obj
 0002:0000d9b4       ??_C@_1M@KDHIHAEC@?$AAf?$AAr?$AA?9?$AAc?$AAh?$AA?$AA@ 100509b4     LIBCMT:winapinls.obj
 0002:0000d9c0       ??_C@_1M@MMBBFGAK@?$AAf?$AAr?$AA?9?$AAf?$AAr?$AA?$AA@ 100509c0     LIBCMT:winapinls.obj
 0002:0000d9cc       ??_C@_1M@PAFNENNF@?$AAf?$AAr?$AA?9?$AAl?$AAu?$AA?$AA@ 100509cc     LIBCMT:winapinls.obj
 0002:0000d9d8       ??_C@_1M@EOHDJGDD@?$AAf?$AAr?$AA?9?$AAm?$AAc?$AA?$AA@ 100509d8     LIBCMT:winapinls.obj
 0002:0000d9e4       ??_C@_1M@FAPLLOPF@?$AAg?$AAl?$AA?9?$AAe?$AAs?$AA?$AA@ 100509e4     LIBCMT:winapinls.obj
 0002:0000d9f0       ??_C@_1M@FOPBFLOO@?$AAg?$AAu?$AA?9?$AAi?$AAn?$AA?$AA@ 100509f0     LIBCMT:winapinls.obj
 0002:0000d9fc       ??_C@_1M@KBMCINPM@?$AAh?$AAe?$AA?9?$AAi?$AAl?$AA?$AA@ 100509fc     LIBCMT:winapinls.obj
 0002:0000da08       ??_C@_1M@BBPHKFPJ@?$AAh?$AAi?$AA?9?$AAi?$AAn?$AA?$AA@ 10050a08     LIBCMT:winapinls.obj
 0002:0000da14       ??_C@_1M@PMBNDPHD@?$AAh?$AAr?$AA?9?$AAb?$AAa?$AA?$AA@ 10050a14     LIBCMT:winapinls.obj
 0002:0000da20       ??_C@_1M@BPCKOEGE@?$AAh?$AAr?$AA?9?$AAh?$AAr?$AA?$AA@ 10050a20     LIBCMT:winapinls.obj
 0002:0000da2c       ??_C@_1M@GACBMHKE@?$AAh?$AAu?$AA?9?$AAh?$AAu?$AA?$AA@ 10050a2c     LIBCMT:winapinls.obj
 0002:0000da38       ??_C@_1M@MILPAJJC@?$AAh?$AAy?$AA?9?$AAa?$AAm?$AA?$AA@ 10050a38     LIBCMT:winapinls.obj
 0002:0000da44       ??_C@_1M@BABBICEC@?$AAi?$AAd?$AA?9?$AAi?$AAd?$AA?$AA@ 10050a44     LIBCMT:winapinls.obj
 0002:0000da50       ??_C@_1M@BIKNHHPF@?$AAi?$AAs?$AA?9?$AAi?$AAs?$AA?$AA@ 10050a50     LIBCMT:winapinls.obj
 0002:0000da5c       ??_C@_1M@NMPCJPHE@?$AAi?$AAt?$AA?9?$AAc?$AAh?$AA?$AA@ 10050a5c     LIBCMT:winapinls.obj
 0002:0000da68       ??_C@_1M@GHKGFEDF@?$AAi?$AAt?$AA?9?$AAi?$AAt?$AA?$AA@ 10050a68     LIBCMT:winapinls.obj
 0002:0000da74       ??_C@_1M@NIEJCJJA@?$AAj?$AAa?$AA?9?$AAj?$AAp?$AA?$AA@ 10050a74     LIBCMT:winapinls.obj
 0002:0000da80       ??_C@_1M@JILFNBIM@?$AAk?$AAa?$AA?9?$AAg?$AAe?$AA?$AA@ 10050a80     LIBCMT:winapinls.obj
 0002:0000da8c       ??_C@_1M@PACPMGPH@?$AAk?$AAk?$AA?9?$AAk?$AAz?$AA?$AA@ 10050a8c     LIBCMT:winapinls.obj
 0002:0000da98       ??_C@_1M@IELFGMHA@?$AAk?$AAn?$AA?9?$AAi?$AAn?$AA?$AA@ 10050a98     LIBCMT:winapinls.obj
 0002:0000daa4       ??_C@_1O@IBBJHCH@?$AAk?$AAo?$AAk?$AA?9?$AAi?$AAn?$AA?$AA@ 10050aa4     LIBCMT:winapinls.obj
 0002:0000dab4       ??_C@_1M@DMHAEOGC@?$AAk?$AAo?$AA?9?$AAk?$AAr?$AA?$AA@ 10050ab4     LIBCMT:winapinls.obj
 0002:0000dac0       ??_C@_1M@HBAHBIGA@?$AAk?$AAy?$AA?9?$AAk?$AAg?$AA?$AA@ 10050ac0     LIBCMT:winapinls.obj
 0002:0000dacc       ??_C@_1M@KPMILCJG@?$AAl?$AAt?$AA?9?$AAl?$AAt?$AA?$AA@ 10050acc     LIBCMT:winapinls.obj
 0002:0000dad8       ??_C@_1M@BDEKKCA@?$AAl?$AAv?$AA?9?$AAl?$AAv?$AA?$AA@ 10050ad8     LIBCMT:winapinls.obj
 0002:0000dae4       ??_C@_1M@ELCKCCJJ@?$AAm?$AAi?$AA?9?$AAn?$AAz?$AA?$AA@ 10050ae4     LIBCMT:winapinls.obj
 0002:0000daf0       ??_C@_1M@CBOOLAPA@?$AAm?$AAk?$AA?9?$AAm?$AAk?$AA?$AA@ 10050af0     LIBCMT:winapinls.obj
 0002:0000dafc       ??_C@_1M@GPHNBJKN@?$AAm?$AAl?$AA?9?$AAi?$AAn?$AA?$AA@ 10050afc     LIBCMT:winapinls.obj
 0002:0000db08       ??_C@_1M@PABJILIG@?$AAm?$AAn?$AA?9?$AAm?$AAn?$AA?$AA@ 10050b08     LIBCMT:winapinls.obj
 0002:0000db14       ??_C@_1M@FGBKKIPG@?$AAm?$AAr?$AA?9?$AAi?$AAn?$AA?$AA@ 10050b14     LIBCMT:winapinls.obj
 0002:0000db20       ??_C@_1M@NDBPDDAL@?$AAm?$AAs?$AA?9?$AAb?$AAn?$AA?$AA@ 10050b20     LIBCMT:winapinls.obj
 0002:0000db2c       ??_C@_1M@OPIHOOPI@?$AAm?$AAs?$AA?9?$AAm?$AAy?$AA?$AA@ 10050b2c     LIBCMT:winapinls.obj
 0002:0000db38       ??_C@_1M@PPDBCNFM@?$AAm?$AAt?$AA?9?$AAm?$AAt?$AA?$AA@ 10050b38     LIBCMT:winapinls.obj
 0002:0000db44       ??_C@_1M@KDJDKMDD@?$AAn?$AAb?$AA?9?$AAn?$AAo?$AA?$AA@ 10050b44     LIBCMT:winapinls.obj
 0002:0000db50       ??_C@_1M@KFCFLMJP@?$AAn?$AAl?$AA?9?$AAb?$AAe?$AA?$AA@ 10050b50     LIBCMT:winapinls.obj
 0002:0000db5c       ??_C@_1M@KPOPDDGO@?$AAn?$AAl?$AA?9?$AAn?$AAl?$AA?$AA@ 10050b5c     LIBCMT:winapinls.obj
 0002:0000db68       ??_C@_1M@LJKPEMLN@?$AAn?$AAn?$AA?9?$AAn?$AAo?$AA?$AA@ 10050b68     LIBCMT:winapinls.obj
 0002:0000db74       ??_C@_1M@BDGHHBFL@?$AAn?$AAs?$AA?9?$AAz?$AAa?$AA?$AA@ 10050b74     LIBCMT:winapinls.obj
 0002:0000db80       ??_C@_1M@IDEHOAP@?$AAp?$AAa?$AA?9?$AAi?$AAn?$AA?$AA@ 10050b80     LIBCMT:winapinls.obj
 0002:0000db8c       ??_C@_1M@HDBKGOGH@?$AAp?$AAl?$AA?9?$AAp?$AAl?$AA?$AA@ 10050b8c     LIBCMT:winapinls.obj
 0002:0000db98       ??_C@_1M@LJLLCMEH@?$AAp?$AAt?$AA?9?$AAb?$AAr?$AA?$AA@ 10050b98     LIBCMT:winapinls.obj
 0002:0000dba4       ??_C@_1M@NCMONAAL@?$AAp?$AAt?$AA?9?$AAp?$AAt?$AA?$AA@ 10050ba4     LIBCMT:winapinls.obj
 0002:0000dbb0       ??_C@_1O@EAKMAJDN@?$AAq?$AAu?$AAz?$AA?9?$AAb?$AAo?$AA?$AA@ 10050bb0     LIBCMT:winapinls.obj
 0002:0000dbc0       ??_C@_1O@BHHPIGDN@?$AAq?$AAu?$AAz?$AA?9?$AAe?$AAc?$AA?$AA@ 10050bc0     LIBCMT:winapinls.obj
 0002:0000dbd0       ??_C@_1O@GBAPEKMJ@?$AAq?$AAu?$AAz?$AA?9?$AAp?$AAe?$AA?$AA@ 10050bd0     LIBCMT:winapinls.obj
 0002:0000dbe0       ??_C@_1M@CLGLEFBO@?$AAr?$AAo?$AA?9?$AAr?$AAo?$AA?$AA@ 10050be0     LIBCMT:winapinls.obj
 0002:0000dbec       ??_C@_1M@CEEDODME@?$AAr?$AAu?$AA?9?$AAr?$AAu?$AA?$AA@ 10050bec     LIBCMT:winapinls.obj
 0002:0000dbf8       ??_C@_1M@HPKKKMPP@?$AAs?$AAa?$AA?9?$AAi?$AAn?$AA?$AA@ 10050bf8     LIBCMT:winapinls.obj
 0002:0000dc04       ??_C@_1M@BKMAIGOJ@?$AAs?$AAe?$AA?9?$AAf?$AAi?$AA?$AA@ 10050c04     LIBCMT:winapinls.obj
 0002:0000dc10       ??_C@_1M@NDPIFLFI@?$AAs?$AAe?$AA?9?$AAn?$AAo?$AA?$AA@ 10050c10     LIBCMT:winapinls.obj
 0002:0000dc1c       ??_C@_1M@DANKKHJ@?$AAs?$AAe?$AA?9?$AAs?$AAe?$AA?$AA@ 10050c1c     LIBCMT:winapinls.obj
 0002:0000dc28       ??_C@_1M@PNBLONPJ@?$AAs?$AAk?$AA?9?$AAs?$AAk?$AA?$AA@ 10050c28     LIBCMT:winapinls.obj
 0002:0000dc34       ??_C@_1M@LFMODOAL@?$AAs?$AAl?$AA?9?$AAs?$AAi?$AA?$AA@ 10050c34     LIBCMT:winapinls.obj
 0002:0000dc40       ??_C@_1O@DFKOMPG@?$AAs?$AAm?$AAa?$AA?9?$AAn?$AAo?$AA?$AA@ 10050c40     LIBCMT:winapinls.obj
 0002:0000dc50       ??_C@_1O@NDKPBNNH@?$AAs?$AAm?$AAa?$AA?9?$AAs?$AAe?$AA?$AA@ 10050c50     LIBCMT:winapinls.obj
 0002:0000dc60       ??_C@_1O@PLLKBHAB@?$AAs?$AAm?$AAj?$AA?9?$AAn?$AAo?$AA?$AA@ 10050c60     LIBCMT:winapinls.obj
 0002:0000dc70       ??_C@_1O@CLEPOGCA@?$AAs?$AAm?$AAj?$AA?9?$AAs?$AAe?$AA?$AA@ 10050c70     LIBCMT:winapinls.obj
 0002:0000dc80       ??_C@_1O@DLGJGKMK@?$AAs?$AAm?$AAn?$AA?9?$AAf?$AAi?$AA?$AA@ 10050c80     LIBCMT:winapinls.obj
 0002:0000dc90       ??_C@_1O@OJDJGAJC@?$AAs?$AAm?$AAs?$AA?9?$AAf?$AAi?$AA?$AA@ 10050c90     LIBCMT:winapinls.obj
 0002:0000dca0       ??_C@_1M@BOFOGHPB@?$AAs?$AAq?$AA?9?$AAa?$AAl?$AA?$AA@ 10050ca0     LIBCMT:winapinls.obj
 0002:0000dcac       ??_C@_1BG@LJBBIPGB@?$AAs?$AAr?$AA?9?$AAb?$AAa?$AA?9?$AAc?$AAy?$AAr?$AAl?$AA?$AA@ 10050cac     LIBCMT:winapinls.obj
 0002:0000dcc4       ??_C@_1BG@JLBENFOE@?$AAs?$AAr?$AA?9?$AAb?$AAa?$AA?9?$AAl?$AAa?$AAt?$AAn?$AA?$AA@ 10050cc4     LIBCMT:winapinls.obj
 0002:0000dcdc       ??_C@_1BG@KODPNHE@?$AAs?$AAr?$AA?9?$AAs?$AAp?$AA?9?$AAc?$AAy?$AAr?$AAl?$AA?$AA@ 10050cdc     LIBCMT:winapinls.obj
 0002:0000dcf4       ??_C@_1BG@CIOGKHPB@?$AAs?$AAr?$AA?9?$AAs?$AAp?$AA?9?$AAl?$AAa?$AAt?$AAn?$AA?$AA@ 10050cf4     LIBCMT:winapinls.obj
 0002:0000dd0c       ??_C@_1M@NGFJLMAC@?$AAs?$AAv?$AA?9?$AAf?$AAi?$AA?$AA@ 10050d0c     LIBCMT:winapinls.obj
 0002:0000dd18       ??_C@_1M@MPJEJAJC@?$AAs?$AAv?$AA?9?$AAs?$AAe?$AA?$AA@ 10050d18     LIBCMT:winapinls.obj
 0002:0000dd24       ??_C@_1M@MPNDHLFK@?$AAs?$AAw?$AA?9?$AAk?$AAe?$AA?$AA@ 10050d24     LIBCMT:winapinls.obj
 0002:0000dd30       ??_C@_1O@KOHBJJI@?$AAs?$AAy?$AAr?$AA?9?$AAs?$AAy?$AA?$AA@ 10050d30     LIBCMT:winapinls.obj
 0002:0000dd40       ??_C@_1M@LDCEFHA@?$AAt?$AAa?$AA?9?$AAi?$AAn?$AA?$AA@ 10050d40     LIBCMT:winapinls.obj
 0002:0000dd4c       ??_C@_1M@CNJOFAK@?$AAt?$AAe?$AA?9?$AAi?$AAn?$AA?$AA@ 10050d4c     LIBCMT:winapinls.obj
 0002:0000dd58       ??_C@_1M@GNAECACD@?$AAt?$AAh?$AA?9?$AAt?$AAh?$AA?$AA@ 10050d58     LIBCMT:winapinls.obj
 0002:0000dd64       ??_C@_1M@CHBIHOJO@?$AAt?$AAn?$AA?9?$AAz?$AAa?$AA?$AA@ 10050d64     LIBCMT:winapinls.obj
 0002:0000dd70       ??_C@_1M@GCCMIGPJ@?$AAt?$AAr?$AA?9?$AAt?$AAr?$AA?$AA@ 10050d70     LIBCMT:winapinls.obj
 0002:0000dd7c       ??_C@_1M@CELMCNBK@?$AAt?$AAt?$AA?9?$AAr?$AAu?$AA?$AA@ 10050d7c     LIBCMT:winapinls.obj
 0002:0000dd88       ??_C@_1M@KLMCELGA@?$AAu?$AAk?$AA?9?$AAu?$AAa?$AA?$AA@ 10050d88     LIBCMT:winapinls.obj
 0002:0000dd94       ??_C@_1M@EPAJJAJF@?$AAu?$AAr?$AA?9?$AAp?$AAk?$AA?$AA@ 10050d94     LIBCMT:winapinls.obj
 0002:0000dda0       ??_C@_1BG@GEGPMCDJ@?$AAu?$AAz?$AA?9?$AAu?$AAz?$AA?9?$AAc?$AAy?$AAr?$AAl?$AA?$AA@ 10050da0     LIBCMT:winapinls.obj
 0002:0000ddb8       ??_C@_1BG@EGGKJILM@?$AAu?$AAz?$AA?9?$AAu?$AAz?$AA?9?$AAl?$AAa?$AAt?$AAn?$AA?$AA@ 10050db8     LIBCMT:winapinls.obj
 0002:0000ddd0       ??_C@_1M@GFOCLFF@?$AAv?$AAi?$AA?9?$AAv?$AAn?$AA?$AA@ 10050dd0     LIBCMT:winapinls.obj
 0002:0000dddc       ??_C@_1M@CPAMEDFI@?$AAx?$AAh?$AA?9?$AAz?$AAa?$AA?$AA@ 10050ddc     LIBCMT:winapinls.obj
 0002:0000dde8       ??_C@_1O@EBKIFIGN@?$AAz?$AAh?$AA?9?$AAc?$AAh?$AAs?$AA?$AA@ 10050de8     LIBCMT:winapinls.obj
 0002:0000ddf8       ??_C@_1O@NMHPGANE@?$AAz?$AAh?$AA?9?$AAc?$AAh?$AAt?$AA?$AA@ 10050df8     LIBCMT:winapinls.obj
 0002:0000de08       ??_C@_1M@LPINJOMC@?$AAz?$AAh?$AA?9?$AAc?$AAn?$AA?$AA@ 10050e08     LIBCMT:winapinls.obj
 0002:0000de14       ??_C@_1M@OCJEJODD@?$AAz?$AAh?$AA?9?$AAh?$AAk?$AA?$AA@ 10050e14     LIBCMT:winapinls.obj
 0002:0000de20       ??_C@_1M@DNDLJINH@?$AAz?$AAh?$AA?9?$AAm?$AAo?$AA?$AA@ 10050e20     LIBCMT:winapinls.obj
 0002:0000de2c       ??_C@_1M@MBFDNDND@?$AAz?$AAh?$AA?9?$AAs?$AAg?$AA?$AA@ 10050e2c     LIBCMT:winapinls.obj
 0002:0000de38       ??_C@_1M@IMEPLEPE@?$AAz?$AAh?$AA?9?$AAt?$AAw?$AA?$AA@ 10050e38     LIBCMT:winapinls.obj
 0002:0000de44       ??_C@_1M@BBGHNHJP@?$AAz?$AAu?$AA?9?$AAz?$AAa?$AA?$AA@ 10050e44     LIBCMT:winapinls.obj
 0002:0000de50       ___newctype                10050e50     LIBCMT:ctype.obj
 0002:0000e150       __wctype                   10051150     LIBCMT:ctype.obj
 0002:0000e358       ___newclmap                10051358     LIBCMT:ctype.obj
 0002:0000e4d8       ___newcumap                100514d8     LIBCMT:ctype.obj
 0002:0000e658       ___lc_category             10051658     LIBCMT:wsetloca.obj
 0002:0000e6a0       ??_C@_1O@GIFLHMA@?$AAL?$AAC?$AA_?$AAA?$AAL?$AAL?$AA?$AA@ 100516a0     LIBCMT:wsetloca.obj
 0002:0000e6b0       ??_C@_1BG@PPOMIBNJ@?$AAL?$AAC?$AA_?$AAC?$AAO?$AAL?$AAL?$AAA?$AAT?$AAE?$AA?$AA@ 100516b0     LIBCMT:wsetloca.obj
 0002:0000e6c8       ??_C@_1BC@FFJGAPJM@?$AAL?$AAC?$AA_?$AAC?$AAT?$AAY?$AAP?$AAE?$AA?$AA@ 100516c8     LIBCMT:wsetloca.obj
 0002:0000e6dc       ??_C@_1BI@PCKFNJFB@?$AAL?$AAC?$AA_?$AAM?$AAO?$AAN?$AAE?$AAT?$AAA?$AAR?$AAY?$AA?$AA@ 100516dc     LIBCMT:wsetloca.obj
 0002:0000e6f4       ??_C@_1BG@ENIEDKID@?$AAL?$AAC?$AA_?$AAN?$AAU?$AAM?$AAE?$AAR?$AAI?$AAC?$AA?$AA@ 100516f4     LIBCMT:wsetloca.obj
 0002:0000e70c       ??_C@_1BA@HAAOMIIG@?$AAL?$AAC?$AA_?$AAT?$AAI?$AAM?$AAE?$AA?$AA@ 1005170c     LIBCMT:wsetloca.obj
 0002:0000e7a0       ??_C@_15NBPDDFIP@?$AA?$DN?$AA?$DL?$AA?$AA@ 100517a0     LIBCMT:wsetloca.obj
 0002:0000e7a8       ??_C@_13PJJBFPED@?$AA?$DL?$AA?$AA@ 100517a8     LIBCMT:wsetloca.obj
 0002:0000e7ac       ??_C@_13NMPKAAJP@?$AA?$DN?$AA?$AA@ 100517ac     LIBCMT:wsetloca.obj
 0002:0000e7b0       ??_C@_13FHBKNHDA@?$AAC?$AA?$AA@ 100517b0     LIBCMT:wsetloca.obj
 0002:0000e7b4       ??_C@_17MBJJLFDM@?$AA_?$AA?4?$AA?0?$AA?$AA@ 100517b4     LIBCMT:wsetloca.obj
 0002:0000e7bc       ??_C@_13ENNFDPBH@?$AA_?$AA?$AA@ 100517bc     LIBCMT:wsetloca.obj
 0002:0000e7c0       ??_C@_13JOFGPIOO@?$AA?4?$AA?$AA@ 100517c0     LIBCMT:wsetloca.obj
 0002:0000e7c4       ??_C@_06PGGFOGJG@1?$CDSNAN?$AA@ 100517c4     LIBCMT:x10fout.obj
 0002:0000e7cc       ??_C@_05PHHOCPM@1?$CDIND?$AA@ 100517cc     LIBCMT:x10fout.obj
 0002:0000e7d4       ??_C@_05DNEBIAHO@1?$CDINF?$AA@ 100517d4     LIBCMT:x10fout.obj
 0002:0000e7dc       ??_C@_06IMKFLFPG@1?$CDQNAN?$AA@ 100517dc     LIBCMT:x10fout.obj
 0002:0000e7e4       ??_C@_0M@HHGEPIBF@CreateFile2?$AA@ 100517e4     LIBCMT:wopen.obj
 0002:0000e7f0       ??_C@_1BA@BALFACEM@?$AAC?$AAO?$AAN?$AAO?$AAU?$AAT?$AA$?$AA?$AA@ 100517f0     LIBCMT:initcon.obj
 0002:0000e800       ___rg_language             10051800     LIBCMT:getqloc.obj
 0002:0000eb0c       ??_C@_1BC@LLOKLNP@?$AAa?$AAm?$AAe?$AAr?$AAi?$AAc?$AAa?$AAn?$AA?$AA@ 10051b0c     LIBCMT:getqloc.obj
 0002:0000eb20       ??_C@_1CC@HEIGCDGG@?$AAa?$AAm?$AAe?$AAr?$AAi?$AAc?$AAa?$AAn?$AA?5?$AAe?$AAn?$AAg?$AAl?$AAi?$AAs?$AAh?$AA?$AA@ 10051b20     LIBCMT:getqloc.obj
 0002:0000eb44       ??_C@_1CC@IHCNOMIN@?$AAa?$AAm?$AAe?$AAr?$AAi?$AAc?$AAa?$AAn?$AA?9?$AAe?$AAn?$AAg?$AAl?$AAi?$AAs?$AAh?$AA?$AA@ 10051b44     LIBCMT:getqloc.obj
 0002:0000eb68       ??_C@_1BG@GKAGPCGG@?$AAa?$AAu?$AAs?$AAt?$AAr?$AAa?$AAl?$AAi?$AAa?$AAn?$AA?$AA@ 10051b68     LIBCMT:getqloc.obj
 0002:0000eb80       ??_C@_1BA@GMENCENF@?$AAb?$AAe?$AAl?$AAg?$AAi?$AAa?$AAn?$AA?$AA@ 10051b80     LIBCMT:getqloc.obj
 0002:0000eb90       ??_C@_1BC@PJMIIAAN@?$AAc?$AAa?$AAn?$AAa?$AAd?$AAi?$AAa?$AAn?$AA?$AA@ 10051b90     LIBCMT:getqloc.obj
 0002:0000eba4       ??_C@_17NOIMNFBF@?$AAc?$AAh?$AAh?$AA?$AA@ 10051ba4     LIBCMT:getqloc.obj
 0002:0000ebac       ??_C@_17GGDALCHA@?$AAc?$AAh?$AAi?$AA?$AA@ 10051bac     LIBCMT:getqloc.obj
 0002:0000ebb4       ??_C@_1BA@NPNJKIBL@?$AAc?$AAh?$AAi?$AAn?$AAe?$AAs?$AAe?$AA?$AA@ 10051bb4     LIBCMT:getqloc.obj
 0002:0000ebc4       ??_C@_1CC@DINBAMMJ@?$AAc?$AAh?$AAi?$AAn?$AAe?$AAs?$AAe?$AA?9?$AAh?$AAo?$AAn?$AAg?$AAk?$AAo?$AAn?$AAg?$AA?$AA@ 10051bc4     LIBCMT:getqloc.obj
 0002:0000ebe8       ??_C@_1CG@IOBJPACO@?$AAc?$AAh?$AAi?$AAn?$AAe?$AAs?$AAe?$AA?9?$AAs?$AAi?$AAm?$AAp?$AAl?$AAi?$AAf?$AAi?$AAe?$AAd?$AA?$AA@ 10051be8     LIBCMT:getqloc.obj
 0002:0000ec10       ??_C@_1CE@GAJNDCKG@?$AAc?$AAh?$AAi?$AAn?$AAe?$AAs?$AAe?$AA?9?$AAs?$AAi?$AAn?$AAg?$AAa?$AAp?$AAo?$AAr?$AAe?$AA?$AA@ 10051c10     LIBCMT:getqloc.obj
 0002:0000ec34       ??_C@_1CI@PAJPIOOD@?$AAc?$AAh?$AAi?$AAn?$AAe?$AAs?$AAe?$AA?9?$AAt?$AAr?$AAa?$AAd?$AAi?$AAt?$AAi?$AAo?$AAn?$AAa?$AAl?$AA?$AA@ 10051c34     LIBCMT:getqloc.obj
 0002:0000ec5c       ??_C@_1BM@NILJBMMD@?$AAd?$AAu?$AAt?$AAc?$AAh?$AA?9?$AAb?$AAe?$AAl?$AAg?$AAi?$AAa?$AAn?$AA?$AA@ 10051c5c     LIBCMT:getqloc.obj
 0002:0000ec78       ??_C@_1CC@OOJPJNEJ@?$AAe?$AAn?$AAg?$AAl?$AAi?$AAs?$AAh?$AA?9?$AAa?$AAm?$AAe?$AAr?$AAi?$AAc?$AAa?$AAn?$AA?$AA@ 10051c78     LIBCMT:getqloc.obj
 0002:0000ec9c       ??_C@_1BI@IOLFEEM@?$AAe?$AAn?$AAg?$AAl?$AAi?$AAs?$AAh?$AA?9?$AAa?$AAu?$AAs?$AA?$AA@ 10051c9c     LIBCMT:getqloc.obj
 0002:0000ecb4       ??_C@_1BO@HFFNLENJ@?$AAe?$AAn?$AAg?$AAl?$AAi?$AAs?$AAh?$AA?9?$AAb?$AAe?$AAl?$AAi?$AAz?$AAe?$AA?$AA@ 10051cb4     LIBCMT:getqloc.obj
 0002:0000ecd4       ??_C@_1BI@HAPKJMPO@?$AAe?$AAn?$AAg?$AAl?$AAi?$AAs?$AAh?$AA?9?$AAc?$AAa?$AAn?$AA?$AA@ 10051cd4     LIBCMT:getqloc.obj
 0002:0000ecec       ??_C@_1CE@HLNDMIOJ@?$AAe?$AAn?$AAg?$AAl?$AAi?$AAs?$AAh?$AA?9?$AAc?$AAa?$AAr?$AAi?$AAb?$AAb?$AAe?$AAa?$AAn?$AA?$AA@ 10051cec     LIBCMT:getqloc.obj
 0002:0000ed10       ??_C@_1BI@LDHJHHAC@?$AAe?$AAn?$AAg?$AAl?$AAi?$AAs?$AAh?$AA?9?$AAi?$AAr?$AAe?$AA?$AA@ 10051d10     LIBCMT:getqloc.obj
 0002:0000ed28       ??_C@_1CA@NJMMCFOC@?$AAe?$AAn?$AAg?$AAl?$AAi?$AAs?$AAh?$AA?9?$AAj?$AAa?$AAm?$AAa?$AAi?$AAc?$AAa?$AA?$AA@ 10051d28     LIBCMT:getqloc.obj
 0002:0000ed48       ??_C@_1BG@BHJEBBGG@?$AAe?$AAn?$AAg?$AAl?$AAi?$AAs?$AAh?$AA?9?$AAn?$AAz?$AA?$AA@ 10051d48     LIBCMT:getqloc.obj
 0002:0000ed60       ??_C@_1CK@FGOEJJCO@?$AAe?$AAn?$AAg?$AAl?$AAi?$AAs?$AAh?$AA?9?$AAs?$AAo?$AAu?$AAt?$AAh?$AA?5?$AAa?$AAf?$AAr?$AAi?$AAc?$AAa?$AA?$AA@ 10051d60     LIBCMT:getqloc.obj
 0002:0000ed8c       ??_C@_1DE@PDBJPCJ@?$AAe?$AAn?$AAg?$AAl?$AAi?$AAs?$AAh?$AA?9?$AAt?$AAr?$AAi?$AAn?$AAi?$AAd?$AAa?$AAd?$AA?5?$AAy?$AA?5?$AAt?$AAo?$AAb?$AAa?$AAg?$AAo?$AA?$AA@ 10051d8c     LIBCMT:getqloc.obj
 0002:0000edc0       ??_C@_1BG@JGCANDME@?$AAe?$AAn?$AAg?$AAl?$AAi?$AAs?$AAh?$AA?9?$AAu?$AAk?$AA?$AA@ 10051dc0     LIBCMT:getqloc.obj
 0002:0000edd8       ??_C@_1BG@DINKMLE@?$AAe?$AAn?$AAg?$AAl?$AAi?$AAs?$AAh?$AA?9?$AAu?$AAs?$AA?$AA@ 10051dd8     LIBCMT:getqloc.obj
 0002:0000edf0       ??_C@_1BI@NMFDBHJE@?$AAe?$AAn?$AAg?$AAl?$AAi?$AAs?$AAh?$AA?9?$AAu?$AAs?$AAa?$AA?$AA@ 10051df0     LIBCMT:getqloc.obj
 0002:0000ee08       ??_C@_1BO@OIHKJKII@?$AAf?$AAr?$AAe?$AAn?$AAc?$AAh?$AA?9?$AAb?$AAe?$AAl?$AAg?$AAi?$AAa?$AAn?$AA?$AA@ 10051e08     LIBCMT:getqloc.obj
 0002:0000ee28       ??_C@_1CA@NKAELJKI@?$AAf?$AAr?$AAe?$AAn?$AAc?$AAh?$AA?9?$AAc?$AAa?$AAn?$AAa?$AAd?$AAi?$AAa?$AAn?$AA?$AA@ 10051e28     LIBCMT:getqloc.obj
 0002:0000ee48       ??_C@_1CE@MGKCNLGN@?$AAf?$AAr?$AAe?$AAn?$AAc?$AAh?$AA?9?$AAl?$AAu?$AAx?$AAe?$AAm?$AAb?$AAo?$AAu?$AAr?$AAg?$AA?$AA@ 10051e48     LIBCMT:getqloc.obj
 0002:0000ee6c       ??_C@_1BK@CEGEAILM@?$AAf?$AAr?$AAe?$AAn?$AAc?$AAh?$AA?9?$AAs?$AAw?$AAi?$AAs?$AAs?$AA?$AA@ 10051e6c     LIBCMT:getqloc.obj
 0002:0000ee88       ??_C@_1CA@PAFKEOCC@?$AAg?$AAe?$AAr?$AAm?$AAa?$AAn?$AA?9?$AAa?$AAu?$AAs?$AAt?$AAr?$AAi?$AAa?$AAn?$AA?$AA@ 10051e88     LIBCMT:getqloc.obj
 0002:0000eea8       ??_C@_1CI@HCFHGOFD@?$AAg?$AAe?$AAr?$AAm?$AAa?$AAn?$AA?9?$AAl?$AAi?$AAc?$AAh?$AAt?$AAe?$AAn?$AAs?$AAt?$AAe?$AAi?$AAn?$AA?$AA@ 10051ea8     LIBCMT:getqloc.obj
 0002:0000eed0       ??_C@_1CE@FEDDNPDG@?$AAg?$AAe?$AAr?$AAm?$AAa?$AAn?$AA?9?$AAl?$AAu?$AAx?$AAe?$AAm?$AAb?$AAo?$AAu?$AAr?$AAg?$AA?$AA@ 10051ed0     LIBCMT:getqloc.obj
 0002:0000eef4       ??_C@_1BK@LIMINNMN@?$AAg?$AAe?$AAr?$AAm?$AAa?$AAn?$AA?9?$AAs?$AAw?$AAi?$AAs?$AAs?$AA?$AA@ 10051ef4     LIBCMT:getqloc.obj
 0002:0000ef10       ??_C@_1BM@LGMDBEPD@?$AAi?$AAr?$AAi?$AAs?$AAh?$AA?9?$AAe?$AAn?$AAg?$AAl?$AAi?$AAs?$AAh?$AA?$AA@ 10051f10     LIBCMT:getqloc.obj
 0002:0000ef2c       ??_C@_1BM@NNCFBAEE@?$AAi?$AAt?$AAa?$AAl?$AAi?$AAa?$AAn?$AA?9?$AAs?$AAw?$AAi?$AAs?$AAs?$AA?$AA@ 10051f2c     LIBCMT:getqloc.obj
 0002:0000ef48       ??_C@_1BE@FEDJNPIB@?$AAn?$AAo?$AAr?$AAw?$AAe?$AAg?$AAi?$AAa?$AAn?$AA?$AA@ 10051f48     LIBCMT:getqloc.obj
 0002:0000ef5c       ??_C@_1CC@CILKDEIE@?$AAn?$AAo?$AAr?$AAw?$AAe?$AAg?$AAi?$AAa?$AAn?$AA?9?$AAb?$AAo?$AAk?$AAm?$AAa?$AAl?$AA?$AA@ 10051f5c     LIBCMT:getqloc.obj
 0002:0000ef80       ??_C@_1CE@DHMMHEPL@?$AAn?$AAo?$AAr?$AAw?$AAe?$AAg?$AAi?$AAa?$AAn?$AA?9?$AAn?$AAy?$AAn?$AAo?$AAr?$AAs?$AAk?$AA?$AA@ 10051f80     LIBCMT:getqloc.obj
 0002:0000efa4       ??_C@_1CK@OPNMHECD@?$AAp?$AAo?$AAr?$AAt?$AAu?$AAg?$AAu?$AAe?$AAs?$AAe?$AA?9?$AAb?$AAr?$AAa?$AAz?$AAi?$AAl?$AAi?$AAa?$AAn?$AA?$AA@ 10051fa4     LIBCMT:getqloc.obj
 0002:0000efd0       ??_C@_1CE@KEEHCDB@?$AAs?$AAp?$AAa?$AAn?$AAi?$AAs?$AAh?$AA?9?$AAa?$AAr?$AAg?$AAe?$AAn?$AAt?$AAi?$AAn?$AAa?$AA?$AA@ 10051fd0     LIBCMT:getqloc.obj
 0002:0000eff4       ??_C@_1CA@GIAOLHJD@?$AAs?$AAp?$AAa?$AAn?$AAi?$AAs?$AAh?$AA?9?$AAb?$AAo?$AAl?$AAi?$AAv?$AAi?$AAa?$AA?$AA@ 10051ff4     LIBCMT:getqloc.obj
 0002:0000f014       ??_C@_1BM@OJNDFNPD@?$AAs?$AAp?$AAa?$AAn?$AAi?$AAs?$AAh?$AA?9?$AAc?$AAh?$AAi?$AAl?$AAe?$AA?$AA@ 10052014     LIBCMT:getqloc.obj
 0002:0000f030       ??_C@_1CC@OCOLPALL@?$AAs?$AAp?$AAa?$AAn?$AAi?$AAs?$AAh?$AA?9?$AAc?$AAo?$AAl?$AAo?$AAm?$AAb?$AAi?$AAa?$AA?$AA@ 10052030     LIBCMT:getqloc.obj
 0002:0000f054       ??_C@_1CG@BPOFMKBB@?$AAs?$AAp?$AAa?$AAn?$AAi?$AAs?$AAh?$AA?9?$AAc?$AAo?$AAs?$AAt?$AAa?$AA?5?$AAr?$AAi?$AAc?$AAa?$AA?$AA@ 10052054     LIBCMT:getqloc.obj
 0002:0000f07c       ??_C@_1DG@IGOBAPBB@?$AAs?$AAp?$AAa?$AAn?$AAi?$AAs?$AAh?$AA?9?$AAd?$AAo?$AAm?$AAi?$AAn?$AAi?$AAc?$AAa?$AAn?$AA?5?$AAr?$AAe?$AAp?$AAu?$AAb?$AAl?$AAi?$AAc?$AA?$AA@ 1005207c     LIBCMT:getqloc.obj
 0002:0000f0b4       ??_C@_1CA@JHAPGEGI@?$AAs?$AAp?$AAa?$AAn?$AAi?$AAs?$AAh?$AA?9?$AAe?$AAc?$AAu?$AAa?$AAd?$AAo?$AAr?$AA?$AA@ 100520b4     LIBCMT:getqloc.obj
 0002:0000f0d4       ??_C@_1CI@LAPALJPP@?$AAs?$AAp?$AAa?$AAn?$AAi?$AAs?$AAh?$AA?9?$AAe?$AAl?$AA?5?$AAs?$AAa?$AAl?$AAv?$AAa?$AAd?$AAo?$AAr?$AA?$AA@ 100520d4     LIBCMT:getqloc.obj
 0002:0000f0fc       ??_C@_1CE@PDGBOFOM@?$AAs?$AAp?$AAa?$AAn?$AAi?$AAs?$AAh?$AA?9?$AAg?$AAu?$AAa?$AAt?$AAe?$AAm?$AAa?$AAl?$AAa?$AA?$AA@ 100520fc     LIBCMT:getqloc.obj
 0002:0000f120       ??_C@_1CC@NBEBAODI@?$AAs?$AAp?$AAa?$AAn?$AAi?$AAs?$AAh?$AA?9?$AAh?$AAo?$AAn?$AAd?$AAu?$AAr?$AAa?$AAs?$AA?$AA@ 10052120     LIBCMT:getqloc.obj
 0002:0000f144       ??_C@_1CA@LLKGHBMF@?$AAs?$AAp?$AAa?$AAn?$AAi?$AAs?$AAh?$AA?9?$AAm?$AAe?$AAx?$AAi?$AAc?$AAa?$AAn?$AA?$AA@ 10052144     LIBCMT:getqloc.obj
 0002:0000f164       ??_C@_1BO@LKNDOIGD@?$AAs?$AAp?$AAa?$AAn?$AAi?$AAs?$AAh?$AA?9?$AAm?$AAo?$AAd?$AAe?$AAr?$AAn?$AA?$AA@ 10052164     LIBCMT:getqloc.obj
 0002:0000f184       ??_C@_1CE@NMDMOEEB@?$AAs?$AAp?$AAa?$AAn?$AAi?$AAs?$AAh?$AA?9?$AAn?$AAi?$AAc?$AAa?$AAr?$AAa?$AAg?$AAu?$AAa?$AA?$AA@ 10052184     LIBCMT:getqloc.obj
 0002:0000f1a8       ??_C@_1BO@LLCBEJGB@?$AAs?$AAp?$AAa?$AAn?$AAi?$AAs?$AAh?$AA?9?$AAp?$AAa?$AAn?$AAa?$AAm?$AAa?$AA?$AA@ 100521a8     LIBCMT:getqloc.obj
 0002:0000f1c8       ??_C@_1CC@FKPGGIHO@?$AAs?$AAp?$AAa?$AAn?$AAi?$AAs?$AAh?$AA?9?$AAp?$AAa?$AAr?$AAa?$AAg?$AAu?$AAa?$AAy?$AA?$AA@ 100521c8     LIBCMT:getqloc.obj
 0002:0000f1ec       ??_C@_1BK@CDEIHOOP@?$AAs?$AAp?$AAa?$AAn?$AAi?$AAs?$AAh?$AA?9?$AAp?$AAe?$AAr?$AAu?$AA?$AA@ 100521ec     LIBCMT:getqloc.obj
 0002:0000f208       ??_C@_1CI@GAHAKKGP@?$AAs?$AAp?$AAa?$AAn?$AAi?$AAs?$AAh?$AA?9?$AAp?$AAu?$AAe?$AAr?$AAt?$AAo?$AA?5?$AAr?$AAi?$AAc?$AAo?$AA?$AA@ 10052208     LIBCMT:getqloc.obj
 0002:0000f230       ??_C@_1CA@NKJBCAGP@?$AAs?$AAp?$AAa?$AAn?$AAi?$AAs?$AAh?$AA?9?$AAu?$AAr?$AAu?$AAg?$AAu?$AAa?$AAy?$AA?$AA@ 10052230     LIBCMT:getqloc.obj
 0002:0000f250       ??_C@_1CE@ODILCONM@?$AAs?$AAp?$AAa?$AAn?$AAi?$AAs?$AAh?$AA?9?$AAv?$AAe?$AAn?$AAe?$AAz?$AAu?$AAe?$AAl?$AAa?$AA?$AA@ 10052250     LIBCMT:getqloc.obj
 0002:0000f274       ??_C@_1CA@OBNMCGFO@?$AAs?$AAw?$AAe?$AAd?$AAi?$AAs?$AAh?$AA?9?$AAf?$AAi?$AAn?$AAl?$AAa?$AAn?$AAd?$AA?$AA@ 10052274     LIBCMT:getqloc.obj
 0002:0000f294       ??_C@_1M@PIPDDPPI@?$AAs?$AAw?$AAi?$AAs?$AAs?$AA?$AA@ 10052294     LIBCMT:getqloc.obj
 0002:0000f2a0       ??_C@_15GMFIMNFM@?$AAu?$AAs?$AA?$AA@ 100522a0     LIBCMT:getqloc.obj
 0002:0000f2a8       ??_C@_17HAEBFAGL@?$AAu?$AAs?$AAa?$AA?$AA@ 100522a8     LIBCMT:getqloc.obj
 0002:0000f2b0       ___rg_country              100522b0     LIBCMT:getqloc.obj
 0002:0000f3c4       ??_C@_1BA@DPFJEPHB@?$AAa?$AAm?$AAe?$AAr?$AAi?$AAc?$AAa?$AA?$AA@ 100523c4     LIBCMT:getqloc.obj
 0002:0000f3d4       ??_C@_1BA@ELOGGFK@?$AAb?$AAr?$AAi?$AAt?$AAa?$AAi?$AAn?$AA?$AA@ 100523d4     LIBCMT:getqloc.obj
 0002:0000f3e4       ??_C@_1M@GHBGIGDA@?$AAc?$AAh?$AAi?$AAn?$AAa?$AA?$AA@ 100523e4     LIBCMT:getqloc.obj
 0002:0000f3f0       ??_C@_1M@NCHEJOPO@?$AAc?$AAz?$AAe?$AAc?$AAh?$AA?$AA@ 100523f0     LIBCMT:getqloc.obj
 0002:0000f3fc       ??_C@_1BA@BKPAPBLA@?$AAe?$AAn?$AAg?$AAl?$AAa?$AAn?$AAd?$AA?$AA@ 100523fc     LIBCMT:getqloc.obj
 0002:0000f40c       ??_C@_1BM@HKBCKIPC@?$AAg?$AAr?$AAe?$AAa?$AAt?$AA?5?$AAb?$AAr?$AAi?$AAt?$AAa?$AAi?$AAn?$AA?$AA@ 1005240c     LIBCMT:getqloc.obj
 0002:0000f428       ??_C@_1BA@PPCHPGJB@?$AAh?$AAo?$AAl?$AAl?$AAa?$AAn?$AAd?$AA?$AA@ 10052428     LIBCMT:getqloc.obj
 0002:0000f438       ??_C@_1BE@JBMPEGDG@?$AAh?$AAo?$AAn?$AAg?$AA?9?$AAk?$AAo?$AAn?$AAg?$AA?$AA@ 10052438     LIBCMT:getqloc.obj
 0002:0000f44c       ??_C@_1BI@KOELBBPJ@?$AAn?$AAe?$AAw?$AA?9?$AAz?$AAe?$AAa?$AAl?$AAa?$AAn?$AAd?$AA?$AA@ 1005244c     LIBCMT:getqloc.obj
 0002:0000f464       ??_C@_15HIEBHAIO@?$AAn?$AAz?$AA?$AA@ 10052464     LIBCMT:getqloc.obj
 0002:0000f46c       ??_C@_1BC@CHBCPFPI@?$AAp?$AAr?$AA?5?$AAc?$AAh?$AAi?$AAn?$AAa?$AA?$AA@ 1005246c     LIBCMT:getqloc.obj
 0002:0000f480       ??_C@_1BC@JAOIIFKD@?$AAp?$AAr?$AA?9?$AAc?$AAh?$AAi?$AAn?$AAa?$AA?$AA@ 10052480     LIBCMT:getqloc.obj
 0002:0000f494       ??_C@_1BI@BEHPPHKC@?$AAp?$AAu?$AAe?$AAr?$AAt?$AAo?$AA?9?$AAr?$AAi?$AAc?$AAo?$AA?$AA@ 10052494     LIBCMT:getqloc.obj
 0002:0000f4ac       ??_C@_1O@PAEOFKDI@?$AAs?$AAl?$AAo?$AAv?$AAa?$AAk?$AA?$AA@ 100524ac     LIBCMT:getqloc.obj
 0002:0000f4bc       ??_C@_1BK@FIHMCKAM@?$AAs?$AAo?$AAu?$AAt?$AAh?$AA?5?$AAa?$AAf?$AAr?$AAi?$AAc?$AAa?$AA?$AA@ 100524bc     LIBCMT:getqloc.obj
 0002:0000f4d8       ??_C@_1BI@NAEOODKB@?$AAs?$AAo?$AAu?$AAt?$AAh?$AA?5?$AAk?$AAo?$AAr?$AAe?$AAa?$AA?$AA@ 100524d8     LIBCMT:getqloc.obj
 0002:0000f4f0       ??_C@_1BK@FBDGGIFF@?$AAs?$AAo?$AAu?$AAt?$AAh?$AA?9?$AAa?$AAf?$AAr?$AAi?$AAc?$AAa?$AA?$AA@ 100524f0     LIBCMT:getqloc.obj
 0002:0000f50c       ??_C@_1BI@GHLEJDPK@?$AAs?$AAo?$AAu?$AAt?$AAh?$AA?9?$AAk?$AAo?$AAr?$AAe?$AAa?$AA?$AA@ 1005250c     LIBCMT:getqloc.obj
 0002:0000f524       ??_C@_1CE@PLHLOMJF@?$AAt?$AAr?$AAi?$AAn?$AAi?$AAd?$AAa?$AAd?$AA?5?$AA?$CG?$AA?5?$AAt?$AAo?$AAb?$AAa?$AAg?$AAo?$AA?$AA@ 10052524     LIBCMT:getqloc.obj
 0002:0000f548       ??_C@_1BO@MODIMHHI@?$AAu?$AAn?$AAi?$AAt?$AAe?$AAd?$AA?9?$AAk?$AAi?$AAn?$AAg?$AAd?$AAo?$AAm?$AA?$AA@ 10052548     LIBCMT:getqloc.obj
 0002:0000f568       ??_C@_1BM@FFHJONBJ@?$AAu?$AAn?$AAi?$AAt?$AAe?$AAd?$AA?9?$AAs?$AAt?$AAa?$AAt?$AAe?$AAs?$AA?$AA@ 10052568     LIBCMT:getqloc.obj
 0002:0000f584       ___rg_language_count       10052584     LIBCMT:getqloc.obj
 0002:0000f588       ___rg_country_count        10052588     LIBCMT:getqloc.obj
 0002:0000f58c       ??_C@_17DNCLJFIF@?$AAA?$AAC?$AAP?$AA?$AA@ 1005258c     LIBCMT:getqloc.obj
 0002:0000f594       ??_C@_17CIKBIHLH@?$AAO?$AAC?$AAP?$AA?$AA@ 10052594     LIBCMT:getqloc.obj
 0002:0000f59c       ___rglangidNotDefault      1005259c     LIBCMT:getqloc_downlevel.obj
 0002:0000f5b0       __real@00000000            100525b0     LIBCMT:wcstoq.obj
 0002:0000f5b8       __load_config_used         100525b8     LIBCMT:loadcfg.obj
 0002:00010d20       ___safe_se_handler_table   10053d20     <linker-defined>
 0002:00010e30       ___rtc_iaa                 10053e30     LIBCMT:initsect.obj
 0002:00010f34       ___rtc_izz                 10053f34     LIBCMT:initsect.obj
 0002:00011038       ___rtc_taa                 10054038     LIBCMT:initsect.obj
 0002:0001113c       ___rtc_tzz                 1005413c     LIBCMT:initsect.obj
 0003:00000688       _Pos_PID_P                 10055688     Pos_PID_data.obj
 0003:00002050       _pci20041digout            10057050     xpctarget.obj
 0003:00002054       _nipcdio24cnfg             10057054     xpctarget.obj
 0003:00002058       _rtddm6604cnfg             10057058     xpctarget.obj
 0003:0000208c       _DefaultCOMIOBase          1005708c     xpcruntime:xpcimports.obj
 0003:0000209c       _DefaultCOMIRQ             1005709c     xpcruntime:xpcimports.obj
 0003:000020b0       __fltused                  100570b0     LIBCMT:fpinit.obj
 0003:000020b4       __ldused                   100570b4     LIBCMT:fpinit.obj
 0003:000020c0       __iob                      100570c0     LIBCMT:_file.obj
 0003:00002340       ___isa_enabled             10057340     LIBCMT:cpu_disp.obj
 0003:00002344       ___security_cookie         10057344     LIBCMT:gs_cookie.obj
 0003:00002348       ___security_cookie_complement 10057348     LIBCMT:gs_cookie.obj
 0003:00002520       ___nullstring              10057520     LIBCMT:output.obj
 0003:00002524       ___wnullstring             10057524     LIBCMT:output.obj
 0003:00002530       __cfltcvt_tab              10057530     LIBCMT:cmiscdat.obj
 0003:00002680       __mbctype                  10057680     LIBCMT:mbctype.obj
 0003:00002788       __mbcasemap                10057788     LIBCMT:mbctype.obj
 0003:00002888       ___initialmbcinfo          10057888     LIBCMT:mbctype.obj
 0003:00002aac       ___ptmbcinfo               10057aac     LIBCMT:mbctype.obj
 0003:00002ba0       ___badioinfo               10057ba0     LIBCMT:ioinit.obj
 0003:00002be0       __lookuptrailbytes         10057be0     LIBCMT:read.obj
 0003:00002ce0       __d_inf                    10057ce0     LIBCMT:util.obj
 0003:00002ce8       __d_ind                    10057ce8     LIBCMT:util.obj
 0003:00002cf0       __d_max                    10057cf0     LIBCMT:util.obj
 0003:00002cf8       __d_min                    10057cf8     LIBCMT:util.obj
 0003:00002d00       __d_mzero                  10057d00     LIBCMT:util.obj
 0003:00002e0c       ___abort_behavior          10057e0c     LIBCMT:abort.obj
 0003:00002e10       ___flsindex                10057e10     LIBCMT:tidtable.obj
 0003:00002e20       ___mb_cur_max              10057e20     LIBCMT:nlsdata.obj
 0003:00002e24       ___wclocalestr             10057e24     LIBCMT:nlsdata.obj
 0003:00002e28       ___lc_time_c               10057e28     LIBCMT:nlsdata.obj
 0003:00002f8c       ___ptlocinfo               10057f8c     LIBCMT:nlsdata.obj
 0003:00002f90       ___initiallocinfo          10057f90     LIBCMT:nlsdata.obj
 0003:00003048       ___initiallocalestructinfo 10058048     LIBCMT:nlsdata.obj
 0003:00003050       ___globallocalestatus      10058050     LIBCMT:glstatus.obj
 0003:00003060       __NLG_Destination          10058060     LIBCMT:exsup.obj
 0003:00003070       __matherr_flag             10058070     LIBCMT:matherr.obj
 0003:00003078       ___lconv                   10058078     LIBCMT:lconv.obj
 0003:0000307c       ___lconv_static_decimal    1005807c     LIBCMT:lconv.obj
 0003:00003080       ___lconv_c                 10058080     LIBCMT:lconv.obj
 0003:000030d0       ___lconv_static_W_decimal  100580d0     LIBCMT:lconv.obj
 0003:000030d4       __pctype                   100580d4     LIBCMT:ctype.obj
 0003:000030d8       __pwctype                  100580d8     LIBCMT:ctype.obj
 0003:00003110       __confh                    10058110     LIBCMT:initcon.obj
 0003:00003118       __pow10pos                 10058118     LIBCMT:constpow.obj
 0003:00003278       __pow10neg                 10058278     LIBCMT:constpow.obj
 0003:000033e0       __HUGE                     100583e0     LIBCMT:huge.obj
 0003:0000393c       ___isa_available_default   1005893c     rt_logging.obj
 0003:0000394c       _pci20098PortA             1005894c     xpctarget.obj
 0003:00003950       _pci20098PortB             10058950     xpctarget.obj
 0003:00003954       _siepowercan_firmware_initialized 10058954     xpctarget.obj
 0003:00003958       _siepowercan_port1_configured 10058958     xpctarget.obj
 0003:0000395c       _siepowercan_port2_configured 1005895c     xpctarget.obj
 0003:00003960       _CANAC2_FIRMWARE_LOADED    10058960     xpctarget.obj
 0003:00003964       _rs232ports                10058964     xpctarget.obj
 0003:00003974       _NI_AT_MIO_16F_5_commreg2  10058974     xpctarget.obj
 0003:00003978       _RTD_DM6430_init           10058978     xpctarget.obj
 0003:0000397c       _RTD_DM6420_init           1005897c     xpctarget.obj
 0003:00003980       _CANAC2_FIRMWARE_LOADED_mb1 10058980     xpctarget.obj
 0003:00003984       _CANAC2_FIRMWARE_LOADED_mb2 10058984     xpctarget.obj
 0003:00003988       _CANAC2_FIRMWARE_LOADED_mb3 10058988     xpctarget.obj
 0003:0000398c       _xmlsize                   1005898c     xpctarget.obj
 0003:00003fd0       ___fastflag                10058fd0     LIBCMT:fpinit.obj
 0003:000042f8       __C_Exit_Done              100592f8     LIBCMT:crt0dat.obj
 0003:000042fc       ___argc                    100592fc     LIBCMT:crt0dat.obj
 0003:00004300       ___argv                    10059300     LIBCMT:crt0dat.obj
 0003:00004304       ___wargv                   10059304     LIBCMT:crt0dat.obj
 0003:00004308       __environ                  10059308     LIBCMT:crt0dat.obj
 0003:0000430c       __wenviron                 1005930c     LIBCMT:crt0dat.obj
 0003:00004310       __pgmptr                   10059310     LIBCMT:crt0dat.obj
 0003:00004314       __wpgmptr                  10059314     LIBCMT:crt0dat.obj
 0003:00004318       __umaskval                 10059318     LIBCMT:crt0dat.obj
 0003:0000431c       __exitflag                 1005931c     LIBCMT:crt0dat.obj
 0003:00004320       __C_Termination_Done       10059320     LIBCMT:crt0dat.obj
 0003:00004324       ___winitenv                10059324     LIBCMT:crt0dat.obj
 0003:00004328       ___initenv                 10059328     LIBCMT:crt0dat.obj
 0003:0000432c       __cflush                   1005932c     LIBCMT:_file.obj
 0003:00004330       ___isa_available           10059330     LIBCMT:cpu_disp.obj
 0003:00004334       ___favor                   10059334     LIBCMT:cpu_disp.obj
 0003:0000433c       __aenvptr                  1005933c     LIBCMT:dllcrt0.obj
 0003:00004340       __wenvptr                  10059340     LIBCMT:dllcrt0.obj
 0003:00004344       ?_pnhHeap@@3P6AHI@ZA       10059344     LIBCMT:handler.obj
 0003:00004348       ___app_type                10059348     LIBCMT:crt0msg.obj
 0003:00004978       __newmode                  10059978     LIBCMT:_newmode.obj
 0003:0000497c       __crtheap                  1005997c     LIBCMT:heapinit.obj
 0003:00004980       ___pInvalidArgHandler      10059980     LIBCMT:invarg.obj
 0003:00004984       __stdbuf                   10059984     LIBCMT:_sftbuf.obj
 0003:00004ae0       __maxwait                  10059ae0     LIBCMT:crtheap.obj
 0003:00004ae4       ?__pInconsistency@@3P6AXXZA 10059ae4     LIBCMT:hooks.obj
 0003:00004ae8       ___pPurecall               10059ae8     LIBCMT:inithelp.obj
 0003:00004b04       ___mbcodepage              10059b04     LIBCMT:mbctype.obj
 0003:00004b08       ___ismbcodepage            10059b08     LIBCMT:mbctype.obj
 0003:00004b0c       ___mbulinfo                10059b0c     LIBCMT:mbctype.obj
 0003:00004b18       ___mblocalename            10059b18     LIBCMT:mbctype.obj
 0003:00004b20       ___pioinfo                 10059b20     LIBCMT:ioinit.obj
 0003:00004c20       ___error_mode              10059c20     LIBCMT:errmode.obj
 0003:00004d40       __outputformat             10059d40     LIBCMT:outputformat.obj
 0003:00004d48       __commode                  10059d48     LIBCMT:ncommode.obj
 0003:00004d4c       ___lconv_static_null       10059d4c     LIBCMT:lconv.obj
 0003:00004d50       ___lconv_static_W_null     10059d50     LIBCMT:lconv.obj
 0003:00004d54       ___locale_changed          10059d54     LIBCMT:wsetloca.obj
 0003:00004d58       __fmode                    10059d58     LIBCMT:txtmode.obj
 0003:00004d60       _CANAC2_2_receiveindex_mb3 10059d60     <common>
 0003:00007e34       _CANAC2_2_receivemaxindex_mb3 1005ce34     <common>
 0003:00007e40       _CANAC2_2_sendindex_mb3    1005ce40     <common>
 0003:00008160       _CANAC2_2_sendmaxindex_mb3 1005d160     <common>
 0003:00008180       _CANAC2_1_receiveindex_mb3 1005d180     <common>
 0003:000084a0       _CANAC2_1_receivemaxindex_mb3 1005d4a0     <common>
 0003:000084c0       _CANAC2_1_sendindex_mb3    1005d4c0     <common>
 0003:000087e0       _CANAC2_1_sendmaxindex_mb3 1005d7e0     <common>
 0003:00008800       _CANAC2_2_receive_mb3      1005d800     <common>
 0003:00008b20       _CANAC2_2_send_mb3         1005db20     <common>
 0003:00008e40       _CANAC2_1_receive_mb3      1005de40     <common>
 0003:00009160       _CANAC2_1_send_mb3         1005e160     <common>
 0003:00009480       _CANAC2_2_receiveindex_mb2 1005e480     <common>
 0003:000097a0       _CANAC2_2_receivemaxindex_mb2 1005e7a0     <common>
 0003:000097c0       _CANAC2_2_sendindex_mb2    1005e7c0     <common>
 0003:00009ae0       _CANAC2_2_sendmaxindex_mb2 1005eae0     <common>
 0003:00009b00       _CANAC2_1_receiveindex_mb2 1005eb00     <common>
 0003:00009e20       _CANAC2_1_receivemaxindex_mb2 1005ee20     <common>
 0003:00009e40       _CANAC2_1_sendindex_mb2    1005ee40     <common>
 0003:0000a160       _CANAC2_1_sendmaxindex_mb2 1005f160     <common>
 0003:0000a180       _CANAC2_2_receive_mb2      1005f180     <common>
 0003:0000a4a0       _CANAC2_2_send_mb2         1005f4a0     <common>
 0003:0000a7c0       _CANAC2_1_receive_mb2      1005f7c0     <common>
 0003:0000aae0       _CANAC2_1_send_mb2         1005fae0     <common>
 0003:0000ae00       _CANAC2_2_receiveindex_mb1 1005fe00     <common>
 0003:0000b120       _CANAC2_2_receivemaxindex_mb1 10060120     <common>
 0003:0000b140       _CANAC2_2_sendindex_mb1    10060140     <common>
 0003:0000b460       _CANAC2_2_sendmaxindex_mb1 10060460     <common>
 0003:0000b480       _CANAC2_1_receiveindex_mb1 10060480     <common>
 0003:0000b7a0       _CANAC2_1_receivemaxindex_mb1 100607a0     <common>
 0003:0000b7c0       _CANAC2_1_sendindex_mb1    100607c0     <common>
 0003:0000bae0       _CANAC2_1_sendmaxindex_mb1 10060ae0     <common>
 0003:0000bb00       _CANAC2_2_receive_mb1      10060b00     <common>
 0003:0000be20       _CANAC2_2_send_mb1         10060e20     <common>
 0003:0000c140       _CANAC2_1_receive_mb1      10061140     <common>
 0003:0000c460       _CANAC2_1_send_mb1         10061460     <common>
 0003:0000c780       _CANAC2_2_receiveindex     10061780     <common>
 0003:0000caa0       _CANAC2_2_receivemaxindex  10061aa0     <common>
 0003:0000cac0       _CANAC2_2_sendindex        10061ac0     <common>
 0003:0000cde0       _CANAC2_2_sendmaxindex     10061de0     <common>
 0003:0000ce00       _CANAC2_1_receiveindex     10061e00     <common>
 0003:0000d120       _CANAC2_1_receivemaxindex  10062120     <common>
 0003:0000d140       _CANAC2_1_sendindex        10062140     <common>
 0003:0000d460       _CANAC2_1_sendmaxindex     10062460     <common>
 0003:0000d480       _CANAC2_2_receive          10062480     <common>
 0003:0000d7a0       _CANAC2_2_send             100627a0     <common>
 0003:0000dac0       _CANAC2_1_receive          10062ac0     <common>
 0003:0000dde0       _CANAC2_1_send             10062de0     <common>
 0003:0000e100       _siepowercan_can_object_buffer_port2 10063100     <common>
 0003:00012120       _siepowercan_can_object_buffer_port1 10067120     <common>
 0003:00016120       _rtNaNF                    1006b120     <common>
 0003:00016134       _rtMinusInfF               1006b134     <common>
 0003:00016138       _rtInfF                    1006b138     <common>
 0003:00016140       _rtNaN                     1006b140     <common>
 0003:00016148       _rtMinusInf                1006b148     <common>
 0003:00016150       _rtInf                     1006b150     <common>
 0003:00016160       _Pos_PID_M_                1006b160     <common>
 0003:00019900       _Pos_PID_DW                1006e900     <common>
 0003:00019aa0       _Pos_PID_X                 1006eaa0     <common>
 0003:00019ae0       _Pos_PID_B                 1006eae0     <common>
 0003:00019d90       _xpceaddEvent              1006ed90     <common>
 0003:00019de0       _xpceDeRegisterISR         1006ede0     <common>
 0003:00019de4       _xpceRegisterISR           1006ede4     <common>
 0003:00019de8       _xpcIsModelInit            1006ede8     <common>
 0003:00019dec       _xpcGetElapsedTime         1006edec     <common>
 0003:00019df0       _xpcBusyWait               1006edf0     <common>
 0003:00019df4       _xpcFreePhysicalMemory     1006edf4     <common>
 0003:00019df8       _xpcAllocPhysicalMemory    1006edf8     <common>
 0003:00019dfc       _xpcReserveMemoryRegion    1006edfc     <common>
 0003:00019e00       _xpcOutpB                  1006ee00     <common>
 0003:00019e04       _xpcOutpW                  1006ee04     <common>
 0003:00019e08       _xpcOutpDW                 1006ee08     <common>
 0003:00019e0c       _xpcInpB                   1006ee0c     <common>
 0003:00019e10       _xpcInpW                   1006ee10     <common>
 0003:00019e14       _xpcInpDW                  1006ee14     <common>
 0003:00019e18       _slTestRegAssessment       1006ee18     <common>
 0003:00019e1c       _slTestTerminate           1006ee1c     <common>
 0003:00019e20       _slTestEvalOnFail          1006ee20     <common>
 0003:00019e24       _slTestLogAssessments      1006ee24     <common>
 0003:00019e28       _slTestInitialize          1006ee28     <common>
 0003:00019e2c       _unRegisterPTPTimeRead     1006ee2c     <common>
 0003:00019e30       _registerPTPTimeRead       1006ee30     <common>
 0003:00019e34       _slrteGetCurrentStepSize   1006ee34     <common>
 0003:00019e38       _slrteSetStepSizeDelta     1006ee38     <common>
 0003:00019e3c       _xpceGetIntTimerGranularityNS 1006ee3c     <common>
 0003:00019e40       _sendToAsyncQueueTgtAppSvc 1006ee40     <common>
 0003:00019e44       _terminateToAsyncQueueTgtAppSvc 1006ee44     <common>
 0003:00019e48       _startToAsyncQueueTgtAppSvc 1006ee48     <common>
 0003:00019e4c       _getStatusFlags            1006ee4c     <common>
 0003:00019e50       _getCommService            1006ee50     <common>
 0003:00019e54       _getMemoryService          1006ee54     <common>
 0003:00019e58       _StreamVideo               1006ee58     <common>
 0003:00019e5c       _StopVideoDisplay          1006ee5c     <common>
 0003:00019e60       _StartVideoDisplay         1006ee60     <common>
 0003:00019e64       _DestroyVideoDisplay       1006ee64     <common>
 0003:00019e68       _CreateVideoDisplay        1006ee68     <common>
 0003:00019e6c       _ConvertUImage             1006ee6c     <common>
 0003:00019e70       _StopVideo                 1006ee70     <common>
 0003:00019e74       _ReadFrameBuffer           1006ee74     <common>
 0003:00019e78       _StartVideo                1006ee78     <common>
 0003:00019e7c       _GetVideoConfigs           1006ee7c     <common>
 0003:00019e80       _FindUsbVideoDevice        1006ee80     <common>
 0003:00019e84       _xpceDeleteSemaphore       1006ee84     <common>
 0003:00019e88       _xpceSignalSemaphore       1006ee88     <common>
 0003:00019e8c       _xpceWaitSemaphore         1006ee8c     <common>
 0003:00019e90       _xpceCreateSemaphore       1006ee90     <common>
 0003:00019e94       _TBGiveSpinFast            1006ee94     <common>
 0003:00019e98       _TBTakeSpinFast            1006ee98     <common>
 0003:00019e9c       _TBDeleteSpin              1006ee9c     <common>
 0003:00019ea0       _TBCreateSpin              1006eea0     <common>
 0003:00019ea4       _xpceScopeAcqOK            1006eea4     <common>
 0003:00019ea8       _rl32eRestartAcquisition   1006eea8     <common>
 0003:00019eac       _rl32eSetTargetScopeSigFt  1006eeac     <common>
 0003:00019eb0       _rl32eSetTargetScope       1006eeb0     <common>
 0003:00019eb4       _xpceFSScopeSet            1006eeb4     <common>
 0003:00019eb8       _rl32eSetScope             1006eeb8     <common>
 0003:00019ebc       _rl32eAddSignal            1006eebc     <common>
 0003:00019ec0       _rl32eGetSignalNo          1006eec0     <common>
 0003:00019ec4       _rl32eDefScope             1006eec4     <common>
 0003:00019ec8       _rl32eScopeExists          1006eec8     <common>
 0003:00019ecc       _xpceUDPClose              1006eecc     <common>
 0003:00019ed0       _xpceUDPReceive            1006eed0     <common>
 0003:00019ed4       _xpceUDPSend               1006eed4     <common>
 0003:00019ed8       _xpceUDPOpenReceive        1006eed8     <common>
 0003:00019edc       _xpceUDPOpenSend           1006eedc     <common>
 0003:00019ee0       _rl32eSendBlock            1006eee0     <common>
 0003:00019ee4       _rl32eLineStatus           1006eee4     <common>
 0003:00019ee8       _rl32eReceiveBufferCount   1006eee8     <common>
 0003:00019eec       _rl32eReceiveChar          1006eeec     <common>
 0003:00019ef0       _rl32eSendChar             1006eef0     <common>
 0003:00019ef4       _rl32eCloseCOMPort         1006eef4     <common>
 0003:00019ef8       _rl32eInitCOMPort          1006eef8     <common>
 0003:00019efc       _xpceGetParamDims          1006eefc     <common>
 0003:00019f00       _xpceGetParameter          1006ef00     <common>
 0003:00019f04       _xpceSetParameter          1006ef04     <common>
 0003:00019f08       _xpceGetSignalValue        1006ef08     <common>
 0003:00019f0c       _xpceAssignPCIInterrupt    1006ef0c     <common>
 0003:00019f10       _rl32eGetPCIInfoAtSlot     1006ef10     <common>
 0003:00019f14       _rl32eGetPCIInfo           1006ef14     <common>
 0003:00019f18       _rl32eShowPCIInfo          1006ef18     <common>
 0003:00019f1c       _rl32eShowPCIDev           1006ef1c     <common>
 0003:00019f20       _xpceGetTET                1006ef20     <common>
 0003:00019f24       _xpceFTSubtract            1006ef24     <common>
 0003:00019f28       _xpceFTAdd                 1006ef28     <common>
 0003:00019f2c       _xpceFTReadTime            1006ef2c     <common>
 0003:00019f30       ___unguarded_readlc_active 1006ef30     <common>
 0003:00019f40       ___setlc_active            1006ef40     <common>
 0003:00019f44       __nhandle                  1006ef44     <common>
 0003:00019f60       _encodedKERNEL32Functions  1006ef60     <common>
 0003:0001a008       __debugger_hook_dummy      1006f008     <common>
 0003:0001a014       __pDestructExceptionObject 1006f014     <common>
 0003:0001a020       __acmdln                   1006f020     <common>
 0003:0001a040       __bufin                    1006f040     <common>
 0003:0001b37c       ___piob                    1007037c     <common>
 0003:0001b380       __nstream                  10070380     <common>
 0003:0001b384       ___dyn_tls_init_callback   10070384     <common>
 0003:0001b394       ___onexitend               10070394     <common>
 0003:0001b398       ___onexitbegin             10070398     <common>
 0003:0001b39c       ___mbctype_initialized     1007039c     <common>
 0003:0001b3a0       ___env_initialized         100703a0     <common>
 0004:00000000       __imp__GetModuleHandleA@4  10071000     kernel32:KERNEL32.dll
 0004:00000004       __imp__GetProcAddress@8    10071004     kernel32:KERNEL32.dll
 0004:00000008       __imp__HeapAlloc@12        10071008     kernel32:KERNEL32.dll
 0004:0000000c       __imp__IsDebuggerPresent@0 1007100c     kernel32:KERNEL32.dll
 0004:00000010       __imp__IsProcessorFeaturePresent@4 10071010     kernel32:KERNEL32.dll
 0004:00000014       __imp__EncodePointer@4     10071014     kernel32:KERNEL32.dll
 0004:00000018       __imp__DecodePointer@4     10071018     kernel32:KERNEL32.dll
 0004:0000001c       __imp__GetLastError@0      1007101c     kernel32:KERNEL32.dll
 0004:00000020       __imp__ExitProcess@4       10071020     kernel32:KERNEL32.dll
 0004:00000024       __imp__GetModuleHandleExW@12 10071024     kernel32:KERNEL32.dll
 0004:00000028       __imp__AreFileApisANSI@0   10071028     kernel32:KERNEL32.dll
 0004:0000002c       __imp__MultiByteToWideChar@24 1007102c     kernel32:KERNEL32.dll
 0004:00000030       __imp__WideCharToMultiByte@32 10071030     kernel32:KERNEL32.dll
 0004:00000034       __imp__HeapFree@12         10071034     kernel32:KERNEL32.dll
 0004:00000038       __imp__HeapReAlloc@16      10071038     kernel32:KERNEL32.dll
 0004:0000003c       __imp__EnterCriticalSection@4 1007103c     kernel32:KERNEL32.dll
 0004:00000040       __imp__LeaveCriticalSection@4 10071040     kernel32:KERNEL32.dll
 0004:00000044       __imp__GetStdHandle@4      10071044     kernel32:KERNEL32.dll
 0004:00000048       __imp__GetFileType@4       10071048     kernel32:KERNEL32.dll
 0004:0000004c       __imp__GetModuleFileNameW@12 1007104c     kernel32:KERNEL32.dll
 0004:00000050       __imp__WriteConsoleW@20    10071050     kernel32:KERNEL32.dll
 0004:00000054       __imp__GetCommandLineA@0   10071054     kernel32:KERNEL32.dll
 0004:00000058       __imp__GetCurrentThreadId@0 10071058     kernel32:KERNEL32.dll
 0004:0000005c       __imp__WriteFile@20        1007105c     kernel32:KERNEL32.dll
 0004:00000060       __imp__GetProcessHeap@0    10071060     kernel32:KERNEL32.dll
 0004:00000064       __imp__UnhandledExceptionFilter@4 10071064     kernel32:KERNEL32.dll
 0004:00000068       __imp__SetUnhandledExceptionFilter@4 10071068     kernel32:KERNEL32.dll
 0004:0000006c       __imp__SetLastError@4      1007106c     kernel32:KERNEL32.dll
 0004:00000070       __imp__InitializeCriticalSectionAndSpinCount@8 10071070     kernel32:KERNEL32.dll
 0004:00000074       __imp__CreateEventW@16     10071074     kernel32:KERNEL32.dll
 0004:00000078       __imp__Sleep@4             10071078     kernel32:KERNEL32.dll
 0004:0000007c       __imp__GetCurrentProcess@0 1007107c     kernel32:KERNEL32.dll
 0004:00000080       __imp__TerminateProcess@8  10071080     kernel32:KERNEL32.dll
 0004:00000084       __imp__TlsAlloc@0          10071084     kernel32:KERNEL32.dll
 0004:00000088       __imp__TlsGetValue@4       10071088     kernel32:KERNEL32.dll
 0004:0000008c       __imp__TlsSetValue@8       1007108c     kernel32:KERNEL32.dll
 0004:00000090       __imp__TlsFree@4           10071090     kernel32:KERNEL32.dll
 0004:00000094       __imp__GetStartupInfoW@4   10071094     kernel32:KERNEL32.dll
 0004:00000098       __imp__GetTickCount@0      10071098     kernel32:KERNEL32.dll
 0004:0000009c       __imp__GetModuleHandleW@4  1007109c     kernel32:KERNEL32.dll
 0004:000000a0       __imp__CreateSemaphoreW@16 100710a0     kernel32:KERNEL32.dll
 0004:000000a4       __imp__DeleteCriticalSection@4 100710a4     kernel32:KERNEL32.dll
 0004:000000a8       __imp__FatalAppExitA@8     100710a8     kernel32:KERNEL32.dll
 0004:000000ac       __imp__SetConsoleCtrlHandler@8 100710ac     kernel32:KERNEL32.dll
 0004:000000b0       __imp__FreeLibrary@4       100710b0     kernel32:KERNEL32.dll
 0004:000000b4       __imp__LoadLibraryExW@12   100710b4     kernel32:KERNEL32.dll
 0004:000000b8       __imp__IsValidCodePage@4   100710b8     kernel32:KERNEL32.dll
 0004:000000bc       __imp__GetACP@0            100710bc     kernel32:KERNEL32.dll
 0004:000000c0       __imp__GetOEMCP@0          100710c0     kernel32:KERNEL32.dll
 0004:000000c4       __imp__GetCPInfo@8         100710c4     kernel32:KERNEL32.dll
 0004:000000c8       __imp__CloseHandle@4       100710c8     kernel32:KERNEL32.dll
 0004:000000cc       __imp__RtlUnwind@16        100710cc     kernel32:KERNEL32.dll
 0004:000000d0       __imp__ReadFile@20         100710d0     kernel32:KERNEL32.dll
 0004:000000d4       __imp__GetConsoleMode@8    100710d4     kernel32:KERNEL32.dll
 0004:000000d8       __imp__ReadConsoleW@20     100710d8     kernel32:KERNEL32.dll
 0004:000000dc       __imp__GetConsoleCP@0      100710dc     kernel32:KERNEL32.dll
 0004:000000e0       __imp__DeleteFileW@4       100710e0     kernel32:KERNEL32.dll
 0004:000000e4       __imp__SetFilePointerEx@20 100710e4     kernel32:KERNEL32.dll
 0004:000000e8       __imp__RaiseException@16   100710e8     kernel32:KERNEL32.dll
 0004:000000ec       __imp__OutputDebugStringW@4 100710ec     kernel32:KERNEL32.dll
 0004:000000f0       __imp__GetCurrentThread@0  100710f0     kernel32:KERNEL32.dll
 0004:000000f4       __imp__GetModuleFileNameA@12 100710f4     kernel32:KERNEL32.dll
 0004:000000f8       __imp__QueryPerformanceCounter@4 100710f8     kernel32:KERNEL32.dll
 0004:000000fc       __imp__GetCurrentProcessId@0 100710fc     kernel32:KERNEL32.dll
 0004:00000100       __imp__GetSystemTimeAsFileTime@4 10071100     kernel32:KERNEL32.dll
 0004:00000104       __imp__GetEnvironmentStringsW@0 10071104     kernel32:KERNEL32.dll
 0004:00000108       __imp__FreeEnvironmentStringsW@4 10071108     kernel32:KERNEL32.dll
 0004:0000010c       __imp__HeapSize@12         1007110c     kernel32:KERNEL32.dll
 0004:00000110       __imp__GetDateFormatW@24   10071110     kernel32:KERNEL32.dll
 0004:00000114       __imp__GetTimeFormatW@24   10071114     kernel32:KERNEL32.dll
 0004:00000118       __imp__CompareStringW@24   10071118     kernel32:KERNEL32.dll
 0004:0000011c       __imp__LCMapStringW@24     1007111c     kernel32:KERNEL32.dll
 0004:00000120       __imp__GetLocaleInfoW@16   10071120     kernel32:KERNEL32.dll
 0004:00000124       __imp__IsValidLocale@8     10071124     kernel32:KERNEL32.dll
 0004:00000128       __imp__GetUserDefaultLCID@0 10071128     kernel32:KERNEL32.dll
 0004:0000012c       __imp__EnumSystemLocalesW@8 1007112c     kernel32:KERNEL32.dll
 0004:00000130       __imp__GetStringTypeW@16   10071130     kernel32:KERNEL32.dll
 0004:00000134       __imp__FlushFileBuffers@4  10071134     kernel32:KERNEL32.dll
 0004:00000138       __imp__SetStdHandle@8      10071138     kernel32:KERNEL32.dll
 0004:0000013c       __imp__CreateFileW@28      1007113c     kernel32:KERNEL32.dll
 0004:00000140       __imp__SetEndOfFile@4      10071140     kernel32:KERNEL32.dll
 0004:00000144       \177KERNEL32_NULL_THUNK_DATA 10071144     kernel32:KERNEL32.dll
 0004:000001b0       __IMPORT_DESCRIPTOR_KERNEL32 100711b0     kernel32:KERNEL32.dll
 0004:000001c4       __NULL_IMPORT_DESCRIPTOR   100711c4     kernel32:KERNEL32.dll

 entry point at        0001:0001831a

