 Registration_Estimation_xpc

 Timestamp is 584a54e1 (Fri Dec 09 01:53:21 2016)

 Preferred load address is 10000000

 Start         Length     Name                   Class
 0001:00000000 00040356H .text$mn                CODE
 0002:00000000 00000104H .CRT$XCA                DATA
 0002:00000104 00000104H .CRT$XCZ                DATA
 0002:00000208 00000104H .CRT$XIA                DATA
 0002:0000030c 00000118H .CRT$XIC                DATA
 0002:00000424 00000104H .CRT$XIZ                DATA
 0002:00000528 00000104H .CRT$XPA                DATA
 0002:0000062c 00000109H .CRT$XPX                DATA
 0002:00000738 00000104H .CRT$XPXA               DATA
 0002:0000083c 00000104H .CRT$XPZ                DATA
 0002:00000940 00000104H .CRT$XTA                DATA
 0002:00000a44 00000104H .CRT$XTZ                DATA
 0002:00000b50 0000cce9H .rdata                  DATA
 0002:0000d83c 000001c4H .rdata$debug            DATA
 0002:0000da00 0000010eH .rdata$sxdata           DATA
 0002:0000db10 00000104H .rtc$IAA                DATA
 0002:0000dc14 00000104H .rtc$IZZ                DATA
 0002:0000dd18 00000104H .rtc$TAA                DATA
 0002:0000de1c 00000104H .rtc$TZZ                DATA
 0002:0000df20 00000991H .xdata$x                DATA
 0002:0000e8c0 00000227H .edata                  DATA
 0003:00000000 00002f9aH .data                   DATA
 0003:00002fa0 00017ce4H .bss                    DATA
 0004:00000000 000001b0H .idata$5                DATA
 0004:000001b0 00000014H .idata$2                DATA
 0004:000001c4 00000014H .idata$3                DATA
 0004:000001d8 000001b0H .idata$4                DATA
 0004:00000388 0000076bH .idata$6                DATA

  Address         Publics by Value              Rva+Base       Lib:Object

 0000:00000000       __except_list              00000000     <absolute>
 0000:00000000       ___guard_fids_table        00000000     <absolute>
 0000:00000000       ___guard_fids_count        00000000     <absolute>
 0000:00000000       ___guard_flags             00000000     <absolute>
 0000:00000003       ___safe_se_handler_count   00000003     <absolute>
 0000:00000000       ___ImageBase               10000000     <linker-defined>
 0001:00000330       _MdlInitialize             10001330 f   Registration_Estimation.obj
 0001:00000340       _MdlInitializeSampleTimes  10001340 f   Registration_Estimation.obj
 0001:00000350       _MdlInitializeSizes        10001350 f   Registration_Estimation.obj
 0001:00000360       _MdlOutputs                10001360 f   Registration_Estimation.obj
 0001:00000370       _MdlStart                  10001370 f   Registration_Estimation.obj
 0001:00000380       _MdlTerminate              10001380 f   Registration_Estimation.obj
 0001:00000390       _MdlUpdate                 10001390 f   Registration_Estimation.obj
 0001:00000470       _Registration_Estimation   10001470 f   Registration_Estimation.obj
 0001:00004400       _Registration_Estimation_GetCAPIStaticMap 10005400 f   Registration_Estimation_capi.obj
 0001:00004410       _Registration_Estimation_InitializeDataMapInfo 10005410 f   Registration_Estimation_capi.obj
 0001:000044a0       _TgtConnBackgroundTask     100054a0 f   Registration_Estimation_tgtconn.obj
 0001:000044b0       _TgtConnInit               100054b0 f   Registration_Estimation_tgtconn.obj
 0001:000044d0       _TgtConnPostStep           100054d0 f   Registration_Estimation_tgtconn.obj
 0001:000044e0       _TgtConnPreStep            100054e0 f   Registration_Estimation_tgtconn.obj
 0001:000044f0       _TgtConnTerm               100054f0 f   Registration_Estimation_tgtconn.obj
 0001:00004500       _rtGetInf                  10005500 f   rtGetInf.obj
 0001:00004530       _rtGetInfF                 10005530 f   rtGetInf.obj
 0001:00004550       _rtGetMinusInf             10005550 f   rtGetInf.obj
 0001:00004580       _rtGetMinusInfF            10005580 f   rtGetInf.obj
 0001:000045a0       _rtGetNaN                  100055a0 f   rtGetNaN.obj
 0001:000045d0       _rtGetNaNF                 100055d0 f   rtGetNaN.obj
 0001:00004f00       _rt_CreateLogVar           10005f00 f   rt_logging.obj
 0001:00004f90       _rt_CreateLogVarWithConvert 10005f90 f   rt_logging.obj
 0001:00005910       _rt_CreateStructLogVar     10006910 f   rt_logging.obj
 0001:00006680       _rt_GetMxIdFromDTypeId     10007680 f   rt_logging.obj
 0001:000066b0       _rt_GetMxIdFromDTypeIdForRSim 100076b0 f   rt_logging.obj
 0001:00008ff0       _rt_StartDataLogging       10009ff0 f   rt_logging.obj
 0001:000094b0       _rt_StartDataLoggingWithStartTime 1000a4b0 f   rt_logging.obj
 0001:00009e10       _rt_StopDataLogging        1000ae10 f   rt_logging.obj
 0001:00009e30       _rt_StopDataLoggingImpl    1000ae30 f   rt_logging.obj
 0001:0000a150       _rt_UpdateLogVar           1000b150 f   rt_logging.obj
 0001:0000b510       _rt_UpdateStructLogVar     1000c510 f   rt_logging.obj
 0001:0000b5a0       _rt_UpdateTXXFYLogVars     1000c5a0 f   rt_logging.obj
 0001:0000b8e0       _rt_UpdateTXYLogVars       1000c8e0 f   rt_logging.obj
 0001:0000bb30       _rt_CleanUpForStateLogWithMMI 1000cb30 f   rt_logging_mmi.obj
 0001:0000bc40       _rt_FillStateSigInfoFromMMI 1000cc40 f   rt_logging_mmi.obj
 0001:0000bff0       _rt_mxCreateCharMatrixFromStrings 1000cff0 f   rt_matrx.obj
 0001:0000c140       _rt_mxCreateDoubleMatrix   1000d140 f   rt_matrx.obj
 0001:0000c1a0       _rt_mxCreateNumericArray   1000d1a0 f   rt_matrx.obj
 0001:0000c220       _rt_mxCreateString         1000d220 f   rt_matrx.obj
 0001:0000c2b0       _rt_mxDuplicateArray       1000d2b0 f   rt_matrx.obj
 0001:0000c310       _rt_mxGetDimensions        1000d310 f   rt_matrx.obj
 0001:0000c350       _rt_mxGetEps               1000d350 f   rt_matrx.obj
 0001:0000c360       _rt_mxGetString            1000d360 f   rt_matrx.obj
 0001:0000c3e0       _rtIsInf                   1000d3e0 f   rt_nonfinite.obj
 0001:0000c420       _rtIsInfF                  1000d420 f   rt_nonfinite.obj
 0001:0000c460       _rtIsNaN                   1000d460 f   rt_nonfinite.obj
 0001:0000c480       _rtIsNaNF                  1000d480 f   rt_nonfinite.obj
 0001:0000c4a0       _rt_InitInfAndNaN          1000d4a0 f   rt_nonfinite.obj
 0001:0000c500       _rtPrintfNoOp              1000d500 f   rt_printf.obj
 0001:0000c510       _rtwCAPI_CountSysRan       1000d510 f   rtw_modelmap_utils.obj
 0001:0000c5b0       _rtwCAPI_EncodePath        1000d5b0 f   rtw_modelmap_utils.obj
 0001:0000c6a0       _rtwCAPI_FillSysRan        1000d6a0 f   rtw_modelmap_utils.obj
 0001:0000c790       _rtwCAPI_FreeFullPaths     1000d790 f   rtw_modelmap_utils.obj
 0001:0000c820       _rtwCAPI_GetFullStateBlockPath 1000d820 f   rtw_modelmap_utils.obj
 0001:0000c9d0       _rtwCAPI_GetNumContStateRecords 1000d9d0 f   rtw_modelmap_utils.obj
 0001:0000ca90       _rtwCAPI_GetNumSigLogRecords 1000da90 f   rtw_modelmap_utils.obj
 0001:0000cae0       _rtwCAPI_GetNumSigLogRecordsForRTWLogging 1000dae0 f   rtw_modelmap_utils.obj
 0001:0000cb70       _rtwCAPI_GetNumStateRecords 1000db70 f   rtw_modelmap_utils.obj
 0001:0000cbc0       _rtwCAPI_GetNumStateRecordsForRTWLogging 1000dbc0 f   rtw_modelmap_utils.obj
 0001:0000cc50       _rtwCAPI_GetSigAddrFromMap 1000dc50 f   rtw_modelmap_utils.obj
 0001:0000cd10       _rtwCAPI_GetSigLogRecordInfo 1000dd10 f   rtw_modelmap_utils.obj
 0001:0000d140       _rtwCAPI_GetStateRecordInfo 1000e140 f   rtw_modelmap_utils.obj
 0001:0000d5f0       _rtwCAPI_GetStateWidth     1000e5f0 f   rtw_modelmap_utils.obj
 0001:0000d650       _rtwCAPI_HasStates         1000e650 f   rtw_modelmap_utils.obj
 0001:0000d6c0       _rtwCAPI_UpdateFullPaths   1000e6c0 f   rtw_modelmap_utils.obj
 0001:0000d8a0       _DllMain@12                1000e8a0 f   xpctarget.obj
 0001:0000d8b0       _Registration_Estimation_ChangeStepSize 1000e8b0 f   xpctarget.obj
 0001:0000d900       _SLRTSetErrorStatus        1000e900 f   xpctarget.obj
 0001:0000d920       _changeStepSize            1000e920 f   xpctarget.obj
 0001:0000d970       _getDLMVersion             1000e970 f   xpctarget.obj
 0001:0000d980       _getRefMdlPath             1000e980 f   xpctarget.obj
 0001:0000da00       _getRefMdlSignalNumber     1000ea00 f   xpctarget.obj
 0001:0000dab0       _getrlmdlinfo              1000eab0 f   xpctarget.obj
 0001:0000dc90       _updateDiscreteEvents      1000ec90 f   xpctarget.obj
 0001:0000dca0       _getNumRef                 1000eca0 f   appmappingData.obj
 0001:0000e0e0       _xpcudpbytereceive         1000f0e0 f   xpcudpbytereceive.obj
 0001:0000e130       _encconteccnt328mpci       1000f130 f   encconteccnt328mpci.obj
 0001:0000f7d0       _dopci8255                 100107d0 f   dopci8255.obj
 0001:00010ad0       _dacbpcidda0x12            10011ad0 f   dacbpcidda0x12.obj
 0001:00011670       _GetPCIDeviceFull          10012670 f   xpcruntime:xpcimports.obj
 0001:000116a0       _ShowPCIDevice             100126a0 f   xpcruntime:xpcimports.obj
 0001:00011d10       _xpcGetPciConfigAtSlot     10012d10 f   xpcruntime:xpcimports.obj
 0001:00011f90       _xpcInitProcs              10012f90 f   xpcruntime:xpcimports.obj
 0001:00012af0       _xpceuploadevent           10013af0 f   xpcruntime:xpcimports.obj
 0001:00012af1       __heap_alloc               10013af1 f i LIBCMT:malloc.obj
 0001:00012b2e       _malloc                    10013b2e f   LIBCMT:malloc.obj
 0001:00012bc0       __get_printf_count_output  10013bc0 f   LIBCMT:printf.obj
 0001:00012bd5       __printf_l                 10013bd5 f   LIBCMT:printf.obj
 0001:00012bec       __printf_p                 10013bec f   LIBCMT:printf.obj
 0001:00012c02       __printf_p_l               10013c02 f   LIBCMT:printf.obj
 0001:00012c19       __printf_s_l               10013c19 f   LIBCMT:printf.obj
 0001:00012c30       __set_printf_count_output  10013c30 f   LIBCMT:printf.obj
 0001:00012c58       _printf                    10013c58 f   LIBCMT:printf.obj
 0001:00012d07       _printf_s                  10013d07 f   LIBCMT:printf.obj
 0001:00012d20       _ceil                      10013d20 f   LIBCMT:ceil_pentium4.obj
 0001:00012d60       __ceil_pentium4            10013d60 f   LIBCMT:ceil_pentium4.obj
 0001:00012e40       _memset                    10013e40 f   LIBCMT:memset.obj
 0001:00012ed0       __fpmath                   10013ed0 f   LIBCMT:fpinit.obj
 0001:00012ee7       ___setfflag                10013ee7 f   LIBCMT:fpinit.obj
 0001:00012efa       __cfltcvt_init             10013efa f   LIBCMT:fpinit.obj
 0001:00012f5a       ___raise_securityfailure   10013f5a f   LIBCMT:gs_report.obj
 0001:00012f97       ___report_gsfailure        10013f97 f   LIBCMT:gs_report.obj
 0001:00013092       ___report_rangecheckfailure 10014092 f   LIBCMT:gs_report.obj
 0001:0001309e       ___report_securityfailure  1001409e f   LIBCMT:gs_report.obj
 0001:0001316e       ___report_securityfailureEx 1001416e f   LIBCMT:gs_report.obj
 0001:00013284       ___copy_path_to_wide_string 10014284 f   LIBCMT:crt0dat.obj
 0001:00013336       ___copy_to_char            10014336 f   LIBCMT:crt0dat.obj
 0001:000133eb       ___crtCorExitProcess       100143eb f   LIBCMT:crt0dat.obj
 0001:0001341f       ___crtExitProcess          1001441f f   LIBCMT:crt0dat.obj
 0001:00013435       ___freeCrtMemory           10014435 f   LIBCMT:crt0dat.obj
 0001:00013542       __amsg_exit                10014542 f   LIBCMT:crt0dat.obj
 0001:0001355e       __c_exit                   1001455e f   LIBCMT:crt0dat.obj
 0001:0001356d       __cexit                    1001456d f   LIBCMT:crt0dat.obj
 0001:0001357c       __cinit                    1001457c f   LIBCMT:crt0dat.obj
 0001:00013600       __exit                     10014600 f   LIBCMT:crt0dat.obj
 0001:00013614       __exit_app                 10014614 f   LIBCMT:crt0dat.obj
 0001:00013622       __get_pgmptr               10014622 f   LIBCMT:crt0dat.obj
 0001:00013651       __get_wpgmptr              10014651 f   LIBCMT:crt0dat.obj
 0001:00013680       __init_pointers            10014680 f   LIBCMT:crt0dat.obj
 0001:000136ee       __initterm_e               100146ee f   LIBCMT:crt0dat.obj
 0001:00013710       __lockexit                 10014710 f   LIBCMT:crt0dat.obj
 0001:00013719       __unlockexit               10014719 f   LIBCMT:crt0dat.obj
 0001:00013851       _exit                      10014851 f   LIBCMT:crt0dat.obj
 0001:00013865       _calloc                    10014865 f   LIBCMT:calloc.obj
 0001:000138a5       _free                      100148a5 f   LIBCMT:free.obj
 0001:000138dd       _realloc                   100148dd f   LIBCMT:realloc.obj
 0001:00013990       _memmove                   10014990 f   LIBCMT:memmove.obj
 0001:00013fe0       _strchr                    10014fe0 f   LIBCMT:strchr.obj
 0001:0001404e       ___from_strstr_to_strchr   1001504e     LIBCMT:strchr.obj
 0001:00014110       _strncat                   10015110 f   LIBCMT:strncat.obj
 0001:00014250       _strncpy                   10015250 f   LIBCMT:strncpy.obj
 0001:00014374       ___initstdio               10015374 f   LIBCMT:_file.obj
 0001:000143e7       ___endstdio                100153e7 f   LIBCMT:_file.obj
 0001:0001440e       ___iob_func                1001540e f   LIBCMT:_file.obj
 0001:00014414       __lock_file                10015414 f   LIBCMT:_file.obj
 0001:00014453       __lock_file2               10015453 f   LIBCMT:_file.obj
 0001:00014483       __unlock_file              10015483 f   LIBCMT:_file.obj
 0001:000144bd       __unlock_file2             100154bd f   LIBCMT:_file.obj
 0001:000144ea       __fclose_nolock            100154ea f   LIBCMT:fclose.obj
 0001:00014556       _fclose                    10015556 f   LIBCMT:fclose.obj
 0001:000145cd       __fsopen                   100155cd f   LIBCMT:fopen.obj
 0001:00014691       _fopen                     10015691 f   LIBCMT:fopen.obj
 0001:000146a6       _fopen_s                   100156a6 f   LIBCMT:fopen.obj
 0001:000146eb       __fprintf_l                100156eb f   LIBCMT:fprintf.obj
 0001:00014705       __fprintf_p                10015705 f   LIBCMT:fprintf.obj
 0001:0001471e       __fprintf_p_l              1001571e f   LIBCMT:fprintf.obj
 0001:00014738       __fprintf_s_l              10015738 f   LIBCMT:fprintf.obj
 0001:00014752       _fprintf                   10015752 f   LIBCMT:fprintf.obj
 0001:00014864       _fprintf_s                 10015864 f   LIBCMT:fprintf.obj
 0001:0001487d       __fread_nolock             1001587d f   LIBCMT:fread.obj
 0001:00014898       __fread_nolock_s           10015898 f   LIBCMT:fread.obj
 0001:00014a5d       _fread                     10015a5d f   LIBCMT:fread.obj
 0001:00014a78       _fread_s                   10015a78 f   LIBCMT:fread.obj
 0001:00014b09       __fwrite_nolock            10015b09 f   LIBCMT:fwrite.obj
 0001:00014c62       _fwrite                    10015c62 f   LIBCMT:fwrite.obj
 0001:00014ce4       __unlink                   10015ce4 f   LIBCMT:unlink.obj
 0001:00014ced       _remove                    10015ced f   LIBCMT:unlink.obj
 0001:00014d2f       _rewind                    10015d2f f   LIBCMT:rewind.obj
 0001:00014dee       __scprintf                 10015dee f   LIBCMT:sprintf.obj
 0001:00014e01       __scprintf_l               10015e01 f   LIBCMT:sprintf.obj
 0001:00014e18       __scprintf_p               10015e18 f   LIBCMT:sprintf.obj
 0001:00014e2b       __scprintf_p_l             10015e2b f   LIBCMT:sprintf.obj
 0001:00014e42       __snprintf_s               10015e42 f   LIBCMT:sprintf.obj
 0001:00014e61       __snprintf_s_l             10015e61 f   LIBCMT:sprintf.obj
 0001:00014e81       __sprintf_l                10015e81 f   LIBCMT:sprintf.obj
 0001:00014e9b       __sprintf_p                10015e9b f   LIBCMT:sprintf.obj
 0001:00014eb7       __sprintf_p_l              10015eb7 f   LIBCMT:sprintf.obj
 0001:00014ed4       __sprintf_s_l              10015ed4 f   LIBCMT:sprintf.obj
 0001:00014ef1       _sprintf                   10015ef1 f   LIBCMT:sprintf.obj
 0001:00014f75       _sprintf_s                 10015f75 f   LIBCMT:sprintf.obj
 0001:00014f91       _ldexp                     10015f91 f   LIBCMT:ldexp.obj
 0001:0001517d       @__security_check_cookie@4 1001617d f   LIBCMT:secchk.obj
 0001:00015190       __ftoui3                   10016190 f   LIBCMT:ftol3.obj
 0001:0001519f       __ftoul3                   1001619f f   LIBCMT:ftol3.obj
 0001:000151ae       __ftol3                    100161ae f   LIBCMT:ftol3.obj
 0001:000151bb       __ftol3_NaN                100161bb f   LIBCMT:ftol3.obj
 0001:000151d3       __ftol3_work               100161d3 f   LIBCMT:ftol3.obj
 0001:00015259       __ftol3_common             10016259 f   LIBCMT:ftol3.obj
 0001:0001531b       __ftol3_arg_error          1001631b f   LIBCMT:ftol3.obj
 0001:0001532d       __ftol3_except             1001632d f   LIBCMT:ftol3.obj
 0001:0001536f       __dtoui3                   1001636f f   LIBCMT:ftol3.obj
 0001:0001537e       __dtoul3                   1001637e f   LIBCMT:ftol3.obj
 0001:0001538d       __dtol3                    1001638d f   LIBCMT:ftol3.obj
 0001:0001539a       __dtol3_NaN                1001639a f   LIBCMT:ftol3.obj
 0001:000153b7       __dtol3_work               100163b7 f   LIBCMT:ftol3.obj
 0001:0001549c       __ultod3                   1001649c f   LIBCMT:ftol3.obj
 0001:0001552d       __ltod3                    1001652d f   LIBCMT:ftol3.obj
 0001:00015560       _memcpy                    10016560 f   LIBCMT:memcpy.obj
 0001:00015ba4       ___isa_available_init      10016ba4 f   LIBCMT:cpu_disp.obj
 0001:00015d1d       __invoke_watson_if_error   10016d1d f i LIBCMT:wassert.obj
 0001:00015d3d       __wassert                  10016d3d f   LIBCMT:wassert.obj
 0001:000163e1       __CRT_INIT@12              100173e1 f   LIBCMT:dllcrt0.obj
 0001:00016553       __DllMainCRTStartup@12     10017553 f   LIBCMT:dllcrt0.obj
 0001:00016684       ___DllXcptFilter           10017684 f   LIBCMT:dllcrt0.obj
 0001:000166a9       ?_query_new_handler@@YAP6AHI@ZXZ 100176a9 f   LIBCMT:handler.obj
 0001:000166b6       ?_set_new_handler@@YAP6AHI@ZH@Z 100176b6 f   LIBCMT:handler.obj
 0001:000166bf       ?_set_new_handler@@YAP6AHI@ZP6AHI@Z@Z 100176bf f   LIBCMT:handler.obj
 0001:000166f4       __callnewh                 100176f4 f   LIBCMT:handler.obj
 0001:0001671a       __initp_heap_handler       1001771a f   LIBCMT:handler.obj
 0001:00016727       __FF_MSGBANNER             10017727 f   LIBCMT:crt0msg.obj
 0001:00016760       __GET_RTERRMSG             10017760 f   LIBCMT:crt0msg.obj
 0001:00016784       __NMSG_WRITE               10017784 f   LIBCMT:crt0msg.obj
 0001:00016941       ___doserrno                10017941 f   LIBCMT:dosmap.obj
 0001:00016954       __dosmaperr                10017954 f   LIBCMT:dosmap.obj
 0001:00016975       __errno                    10017975 f   LIBCMT:dosmap.obj
 0001:00016988       __get_doserrno             10017988 f   LIBCMT:dosmap.obj
 0001:000169ab       __get_errno                100179ab f   LIBCMT:dosmap.obj
 0001:000169ce       __get_errno_from_oserr     100179ce f   LIBCMT:dosmap.obj
 0001:00016a0f       __set_doserrno             10017a0f f   LIBCMT:dosmap.obj
 0001:00016a2e       __set_errno                10017a2e f   LIBCMT:dosmap.obj
 0001:00016a4d       __get_heap_handle          10017a4d f   LIBCMT:heapinit.obj
 0001:00016a53       __heap_init                10017a53 f   LIBCMT:heapinit.obj
 0001:00016a68       __heap_term                10017a68 f   LIBCMT:heapinit.obj
 0001:00016a70       ?_invalid_parameter@@YAXPBG00II@Z 10017a70 f   LIBCMT:invarg.obj
 0001:00016a75       ?_invoke_watson@@YAXPBG00II@Z 10017a75 f   LIBCMT:invarg.obj
 0001:00016a8d       __call_reportfault         10017a8d f   LIBCMT:invarg.obj
 0001:00016bb2       __get_invalid_parameter_handler 10017bb2 f   LIBCMT:invarg.obj
 0001:00016bbf       __initp_misc_invarg        10017bbf f   LIBCMT:invarg.obj
 0001:00016bcc       __invalid_parameter        10017bcc f   LIBCMT:invarg.obj
 0001:00016bf7       __invalid_parameter_noinfo 10017bf7 f   LIBCMT:invarg.obj
 0001:00016c07       __invalid_parameter_noinfo_noreturn 10017c07 f   LIBCMT:invarg.obj
 0001:00016c22       __invoke_watson            10017c22 f   LIBCMT:invarg.obj
 0001:00016c4d       __set_invalid_parameter_handler 10017c4d f   LIBCMT:invarg.obj
 0001:00016c72       __vprintf_l                10017c72 f   LIBCMT:vprintf.obj
 0001:00016c8d       __vprintf_p                10017c8d f   LIBCMT:vprintf.obj
 0001:00016ca7       __vprintf_p_l              10017ca7 f   LIBCMT:vprintf.obj
 0001:00016cc2       __vprintf_s_l              10017cc2 f   LIBCMT:vprintf.obj
 0001:00016cdd       _vprintf                   10017cdd f   LIBCMT:vprintf.obj
 0001:00016cf7       _vprintf_helper            10017cf7 f   LIBCMT:vprintf.obj
 0001:00016d84       _vprintf_s                 10017d84 f   LIBCMT:vprintf.obj
 0001:00016d9e       __ftbuf                    10017d9e f   LIBCMT:_sftbuf.obj
 0001:00016dcf       __stbuf                    10017dcf f   LIBCMT:_sftbuf.obj
 0001:00016e75       ??0_LocaleUpdate@@QAE@PAUlocaleinfo_struct@@@Z 10017e75 f i LIBCMT:output.obj
 0001:00016efd       ??1_LocaleUpdate@@QAE@XZ   10017efd f i LIBCMT:output.obj
 0001:00016f0b       ?GetLocaleT@_LocaleUpdate@@QAEPAUlocaleinfo_struct@@XZ 10017f0b f i LIBCMT:output.obj
 0001:00016f0e       __output_l                 10017f0e f   LIBCMT:output.obj
 0001:00017a8e       _get_int64_arg             10018a8e f i LIBCMT:output.obj
 0001:00017aa1       _get_int_arg               10018aa1 f i LIBCMT:output.obj
 0001:00017ab1       _get_short_arg             10018ab1 f i LIBCMT:output.obj
 0001:00017bb0       __SEH_prolog4              10018bb0 f   LIBCMT:sehprolg4.obj
 0001:00017bf5       __SEH_epilog4              10018bf5 f   LIBCMT:sehprolg4.obj
 0001:00017c50       __except_handler4          10018c50 f   LIBCMT:chandler4.obj
 0001:00017de4       ___libm_error_support      10018de4 f   LIBCMT:libm_error.obj
 0001:000180cc       ___libm_setusermatherr     100190cc f   LIBCMT:libm_error.obj
 0001:000180f8       __sse2_mathfcns_init       100190f8 f   LIBCMT:mathfcns.obj
 0001:00018107       __set_SSE2_enable          10019107 f   LIBCMT:mathfcns.obj
 0001:00018126       __ceil_default             10019126 f   LIBCMT:ceil.obj
 0001:000181fd       __VEC_memset               100191fd f   LIBCMT:p4_memset.obj
 0001:000182c5       ?strrchr@@YAPADPADH@Z      100192c5 f i LIBCMT:cvt.obj
 0001:000182ce       __cfltcvt                  100192ce f   LIBCMT:cvt.obj
 0001:000182ef       __cfltcvt_l                100192ef f   LIBCMT:cvt.obj
 0001:00018375       __cftoa                    10019375 f   LIBCMT:cvt.obj
 0001:00018393       __cftoa_l                  10019393 f   LIBCMT:cvt.obj
 0001:000186ef       __cftoe                    100196ef f   LIBCMT:cvt.obj
 0001:0001885e       __cftoe_l                  1001985e f   LIBCMT:cvt.obj
 0001:0001892c       __cftof                    1001992c f   LIBCMT:cvt.obj
 0001:00018a33       __cftof_l                  10019a33 f   LIBCMT:cvt.obj
 0001:00018af4       __cftog                    10019af4 f   LIBCMT:cvt.obj
 0001:00018b12       __cftog_l                  10019b12 f   LIBCMT:cvt.obj
 0001:00018c11       __cropzeros                10019c11 f   LIBCMT:cvt.obj
 0001:00018c22       __cropzeros_l              10019c22 f   LIBCMT:cvt.obj
 0001:00018ca2       __fassign                  10019ca2 f   LIBCMT:cvt.obj
 0001:00018cba       __fassign_l                10019cba f   LIBCMT:cvt.obj
 0001:00018cfc       __forcdecpt                10019cfc f   LIBCMT:cvt.obj
 0001:00018d0d       __forcdecpt_l              10019d0d f   LIBCMT:cvt.obj
 0001:00018d81       __positive                 10019d81 f   LIBCMT:cvt.obj
 0001:00018dc3       __setdefaultprecision      10019dc3 f   LIBCMT:fp8.obj
 0001:00018dea       __initp_misc_cfltcvt_tab   10019dea f   LIBCMT:cmiscdat.obj
 0001:00018e09       __crt_debugger_hook        10019e09 f   LIBCMT:dbghook.obj
 0001:00018e3e       ___crtCloseThreadpoolTimer 10019e3e f   LIBCMT:winapisupp.obj
 0001:00018e55       ___crtCloseThreadpoolWait  10019e55 f   LIBCMT:winapisupp.obj
 0001:00018e6c       ___crtCreateEventExW       10019e6c f   LIBCMT:winapisupp.obj
 0001:00018ea7       ___crtCreateSemaphoreExW   10019ea7 f   LIBCMT:winapisupp.obj
 0001:00018ee1       ___crtCreateSymbolicLinkW  10019ee1 f   LIBCMT:winapisupp.obj
 0001:00018f0a       ___crtCreateThreadpoolTimer 10019f0a f   LIBCMT:winapisupp.obj
 0001:00018f2b       ___crtCreateThreadpoolWait 10019f2b f   LIBCMT:winapisupp.obj
 0001:00018f4c       ___crtFlsAlloc             10019f4c f   LIBCMT:winapisupp.obj
 0001:00018f6a       ___crtFlsFree              10019f6a f   LIBCMT:winapisupp.obj
 0001:00018f89       ___crtFlsGetValue          10019f89 f   LIBCMT:winapisupp.obj
 0001:00018fa8       ___crtFlsSetValue          10019fa8 f   LIBCMT:winapisupp.obj
 0001:00018fca       ___crtFlushProcessWriteBuffers 10019fca f   LIBCMT:winapisupp.obj
 0001:00018fda       ___crtFreeLibraryWhenCallbackReturns 10019fda f   LIBCMT:winapisupp.obj
 0001:00018ff4       ___crtGetCurrentProcessorNumber 10019ff4 f   LIBCMT:winapisupp.obj
 0001:00019006       ___crtGetFileInformationByHandleEx 1001a006 f   LIBCMT:winapisupp.obj
 0001:00019032       ___crtGetLogicalProcessorInformation 1001a032 f   LIBCMT:winapisupp.obj
 0001:00019058       ___crtGetShowWindowMode    1001a058 f   LIBCMT:winapisupp.obj
 0001:0001907b       ___crtGetTickCount64       1001a07b f   LIBCMT:winapisupp.obj
 0001:00019093       ___crtInitializeCriticalSectionEx 1001a093 f   LIBCMT:winapisupp.obj
 0001:000190c1       ___crtIsPackagedApp        1001a0c1 f   LIBCMT:winapisupp.obj
 0001:00019101       ___crtLoadWinApiPointers   1001a101 f   LIBCMT:winapisupp.obj
 0001:0001938c       ___crtSetFileInformationByHandle 1001a38c f   LIBCMT:winapisupp.obj
 0001:000193b8       ___crtSetThreadStackGuarantee 1001a3b8 f   LIBCMT:winapisupp.obj
 0001:000193d3       ___crtSetThreadpoolTimer   1001a3d3 f   LIBCMT:winapisupp.obj
 0001:000193f3       ___crtSetThreadpoolWait    1001a3f3 f   LIBCMT:winapisupp.obj
 0001:00019410       ___crtSetUnhandledExceptionFilter 1001a410 f   LIBCMT:winapisupp.obj
 0001:0001941e       ___crtSleep                1001a41e f   LIBCMT:winapisupp.obj
 0001:0001942c       ___crtTerminateProcess     1001a42c f   LIBCMT:winapisupp.obj
 0001:00019441       ___crtUnhandledException   1001a441 f   LIBCMT:winapisupp.obj
 0001:00019457       ___crtWaitForThreadpoolTimerCallbacks 1001a457 f   LIBCMT:winapisupp.obj
 0001:00019471       __RTC_Initialize           1001a471 f   LIBCMT:initsect.obj
 0001:00019491       __RTC_Terminate            1001a491 f   LIBCMT:initsect.obj
 0001:000194b1       __lock                     1001a4b1 f   LIBCMT:mlock.obj
 0001:000194e5       __lockerr_exit             1001a4e5 f   LIBCMT:mlock.obj
 0001:00019505       __mtdeletelocks            1001a505 f   LIBCMT:mlock.obj
 0001:00019559       __mtinitlocknum            1001a559 f   LIBCMT:mlock.obj
 0001:00019602       __mtinitlocks              1001a602 f   LIBCMT:mlock.obj
 0001:0001963b       __unlock                   1001a63b f   LIBCMT:mlock.obj
 0001:00019650       __FindPESection            1001a650 f   LIBCMT:pesect.obj
 0001:000196a0       __IsNonwritableInCurrentImage 1001a6a0 f   LIBCMT:pesect.obj
 0001:00019760       __ValidateImageBase        1001a760 f   LIBCMT:pesect.obj
 0001:00019791       ___onexitinit              1001a791 f   LIBCMT:onexit.obj
 0001:000197c0       __onexit                   1001a7c0 f   LIBCMT:onexit.obj
 0001:000198bc       _atexit                    1001a8bc f   LIBCMT:onexit.obj
 0001:000198d1       __calloc_crt               1001a8d1 f   LIBCMT:crtheap.obj
 0001:00019919       __malloc_crt               1001a919 f   LIBCMT:crtheap.obj
 0001:00019960       __realloc_crt              1001a960 f   LIBCMT:crtheap.obj
 0001:000199aa       __recalloc_crt             1001a9aa f   LIBCMT:crtheap.obj
 0001:000199f8       __set_malloc_crt_max_wait  1001a9f8 f   LIBCMT:crtheap.obj
 0001:00019a0b       _wait_a_bit                1001aa0b f i LIBCMT:crtheap.obj
 0001:00019a2f       ?_inconsistency@@YAXXZ     1001aa2f f   LIBCMT:hooks.obj
 0001:00019a67       ?terminate@@YAXXZ          1001aa67 f   LIBCMT:hooks.obj
 0001:00019a9b       ?unexpected@@YAXXZ         1001aa9b f   LIBCMT:hooks.obj
 0001:00019aae       __initp_eh_hooks           1001aaae f   LIBCMT:hooks.obj
 0001:00019abf       ___getlocaleinfo           1001aabf f   LIBCMT:inithelp.obj
 0001:00019c98       __initp_misc_purevirt      1001ac98 f   LIBCMT:inithelp.obj
 0001:00019ca5       ___fpecode                 1001aca5 f   LIBCMT:winsig.obj
 0001:00019cae       ___get_sigabrt             1001acae f   LIBCMT:winsig.obj
 0001:00019cbb       ___pxcptinfoptrs           1001acbb f   LIBCMT:winsig.obj
 0001:00019cc4       __initp_misc_winsig        1001acc4 f   LIBCMT:winsig.obj
 0001:00019d85       _raise                     1001ad85 f   LIBCMT:winsig.obj
 0001:00019f7a       _signal                    1001af7a f   LIBCMT:winsig.obj
 0001:0001a1d1       __initp_misc_rand_s        1001b1d1 f   LIBCMT:rand_s.obj
 0001:0001a1de       _rand_s                    1001b1de f   LIBCMT:rand_s.obj
 0001:0001a2e4       ___initmbctable            1001b2e4 f   LIBCMT:mbctype.obj
 0001:0001a59b       ___updatetmbcinfo          1001b59b f   LIBCMT:mbctype.obj
 0001:0001a641       __getmbcp                  1001b641 f   LIBCMT:mbctype.obj
 0001:0001a672       __setmbcp                  1001b672 f   LIBCMT:mbctype.obj
 0001:0001a81a       __setmbcp_nolock           1001b81a f   LIBCMT:mbctype.obj
 0001:0001aa05       __calloc_impl              1001ba05 f   LIBCMT:calloc_impl.obj
 0001:0001aa7f       __fcloseall                1001ba7f f   LIBCMT:closeall.obj
 0001:0001ab1c       __fflush_nolock            1001bb1c f   LIBCMT:fflush.obj
 0001:0001ab62       __flush                    1001bb62 f   LIBCMT:fflush.obj
 0001:0001abc6       __flushall                 1001bbc6 f   LIBCMT:fflush.obj
 0001:0001abcf       _fflush                    1001bbcf f   LIBCMT:fflush.obj
 0001:0001ad0c       __fileno                   1001bd0c f   LIBCMT:fileno.obj
 0001:0001ad30       __close                    1001bd30 f   LIBCMT:close.obj
 0001:0001ae0b       __close_nolock             1001be0b f   LIBCMT:close.obj
 0001:0001aea5       __freebuf                  1001bea5 f   LIBCMT:_freebuf.obj
 0001:0001aed5       __getstream                1001bed5 f   LIBCMT:stream.obj
 0001:0001aff4       __openfile                 1001bff4 f   LIBCMT:_open.obj
 0001:0001b270       __local_unwind4            1001c270 f   LIBCMT:exsup4.obj
 0001:0001b346       __seh_longjmp_unwind4@4    1001c346 f   LIBCMT:exsup4.obj
 0001:0001b362       @_EH4_CallFilterFunc@8     1001c362 f   LIBCMT:exsup4.obj
 0001:0001b379       @_EH4_TransferToHandler@8  1001c379 f   LIBCMT:exsup4.obj
 0001:0001b392       @_EH4_GlobalUnwind2@8      1001c392 f   LIBCMT:exsup4.obj
 0001:0001b3ab       @_EH4_LocalUnwind@16       1001c3ab f   LIBCMT:exsup4.obj
 0001:0001b3c2       __vfprintf_l               1001c3c2 f   LIBCMT:vfprintf.obj
 0001:0001b3e0       __vfprintf_p               1001c3e0 f   LIBCMT:vfprintf.obj
 0001:0001b3fd       __vfprintf_p_l             1001c3fd f   LIBCMT:vfprintf.obj
 0001:0001b41b       __vfprintf_s_l             1001c41b f   LIBCMT:vfprintf.obj
 0001:0001b439       _vfprintf                  1001c439 f   LIBCMT:vfprintf.obj
 0001:0001b456       _vfprintf_helper           1001c456 f   LIBCMT:vfprintf.obj
 0001:0001b567       _vfprintf_s                1001c567 f   LIBCMT:vfprintf.obj
 0001:0001b584       __ioinit                   1001c584 f   LIBCMT:ioinit.obj
 0001:0001b838       __ioterm                   1001c838 f   LIBCMT:ioinit.obj
 0001:0001b88a       __filbuf                   1001c88a f   LIBCMT:_filbuf.obj
 0001:0001b9ab       _memcpy_s                  1001c9ab f   LIBCMT:memcpy_s.obj
 0001:0001ba2a       __read                     1001ca2a f   LIBCMT:read.obj
 0001:0001bb3e       __read_nolock              1001cb3e f   LIBCMT:read.obj
 0001:0001c2cf       __flsbuf                   1001d2cf f   LIBCMT:_flsbuf.obj
 0001:0001c41e       __write                    1001d41e f   LIBCMT:write.obj
 0001:0001c50d       __write_nolock             1001d50d f   LIBCMT:write.obj
 0001:0001cd72       __wremove                  1001dd72 f   LIBCMT:wunlink.obj
 0001:0001cda0       __wunlink                  1001dda0 f   LIBCMT:wunlink.obj
 0001:0001cda9       __lseek                    1001dda9 f   LIBCMT:lseek.obj
 0001:0001ce98       __lseek_nolock             1001de98 f   LIBCMT:lseek.obj
 0001:0001cf3f       __vscprintf                1001df3f f   LIBCMT:vsprintf.obj
 0001:0001cf59       __vscprintf_helper         1001df59 f   LIBCMT:vsprintf.obj
 0001:0001cfb5       __vscprintf_l              1001dfb5 f   LIBCMT:vsprintf.obj
 0001:0001cfd0       __vscprintf_p              1001dfd0 f   LIBCMT:vsprintf.obj
 0001:0001cfea       __vscprintf_p_l            1001dfea f   LIBCMT:vsprintf.obj
 0001:0001d005       __vsprintf_l               1001e005 f   LIBCMT:vsprintf.obj
 0001:0001d089       _vsprintf                  1001e089 f   LIBCMT:vsprintf.obj
 0001:0001d0a1       __vsnprintf_c              1001e0a1 f   LIBCMT:vsnprnc.obj
 0001:0001d0c8       __vsnprintf_c_l            1001e0c8 f   LIBCMT:vsnprnc.obj
 0001:0001d0f0       __vsnprintf_helper         1001e0f0 f   LIBCMT:vsnprnc.obj
 0001:0001d1ba       __vsnprintf_s              1001e1ba f   LIBCMT:vsnprnc.obj
 0001:0001d1d8       __vsnprintf_s_l            1001e1d8 f   LIBCMT:vsnprnc.obj
 0001:0001d2d8       __vsprintf_p               1001e2d8 f   LIBCMT:vsnprnc.obj
 0001:0001d2ff       __vsprintf_p_l             1001e2ff f   LIBCMT:vsnprnc.obj
 0001:0001d327       __vsprintf_s_l             1001e327 f   LIBCMT:vsnprnc.obj
 0001:0001d39c       _vsprintf_s                1001e39c f   LIBCMT:vsnprnc.obj
 0001:0001d3b7       __chgsign                  1001e3b7 f   LIBCMT:ieeemisc.obj
 0001:0001d3e4       __chgsignf                 1001e3e4 f   LIBCMT:ieeemisc.obj
 0001:0001d405       __copysign                 1001e405 f   LIBCMT:ieeemisc.obj
 0001:0001d42d       __copysignf                1001e42d f   LIBCMT:ieeemisc.obj
 0001:0001d449       __finite                   1001e449 f   LIBCMT:ieeemisc.obj
 0001:0001d461       __fpclass                  1001e461 f   LIBCMT:ieeemisc.obj
 0001:0001d4fd       __isnan                    1001e4fd f   LIBCMT:ieeemisc.obj
 0001:0001d530       __logb                     1001e530 f   LIBCMT:ieeemisc.obj
 0001:0001d611       __nextafter                1001e611 f   LIBCMT:ieeemisc.obj
 0001:0001d8b1       __scalb                    1001e8b1 f   LIBCMT:ieeemisc.obj
 0001:0001d8c9       __add_exp                  1001e8c9 f   LIBCMT:util.obj
 0001:0001d8f8       __decomp                   1001e8f8 f   LIBCMT:util.obj
 0001:0001d9ca       __get_exp                  1001e9ca f   LIBCMT:util.obj
 0001:0001d9e3       __set_bexp                 1001e9e3 f   LIBCMT:util.obj
 0001:0001da0c       __set_exp                  1001ea0c f   LIBCMT:util.obj
 0001:0001da3b       __sptype                   1001ea3b f   LIBCMT:util.obj
 0001:0001da96       __errcode                  1001ea96 f   LIBCMT:fpexcept.obj
 0001:0001dac8       __except1                  1001eac8 f   LIBCMT:fpexcept.obj
 0001:0001db90       __except2                  1001eb90 f   LIBCMT:fpexcept.obj
 0001:0001dc90       __handle_exc               1001ec90 f   LIBCMT:fpexcept.obj
 0001:0001de6e       __handle_qnan1             1001ee6e f   LIBCMT:fpexcept.obj
 0001:0001debe       __handle_qnan2             1001eebe f   LIBCMT:fpexcept.obj
 0001:0001df1e       __raise_exc                1001ef1e f   LIBCMT:fpexcept.obj
 0001:0001df3f       __raise_exc_ex             1001ef3f f   LIBCMT:fpexcept.obj
 0001:0001e224       __raise_excf               1001f224 f   LIBCMT:fpexcept.obj
 0001:0001e245       __set_errno_from_matherr   1001f245 f   LIBCMT:fpexcept.obj
 0001:0001e272       __umatherr                 1001f272 f   LIBCMT:fpexcept.obj
 0001:0001e312       ___clrfp_sse2              1001f312 f   LIBCMT:fpctrl.obj
 0001:0001e333       ___ctrlfp_sse2             1001f333 f   LIBCMT:fpctrl.obj
 0001:0001e36c       ___fclrf_sse2              1001f36c f   LIBCMT:fpctrl.obj
 0001:0001e389       ___get_fpsr_sse2           1001f389 f   LIBCMT:fpctrl.obj
 0001:0001e3a5       ___set_fpsr_sse2           1001f3a5 f   LIBCMT:fpctrl.obj
 0001:0001e41b       ___set_statfp_sse2         1001f41b f   LIBCMT:fpctrl.obj
 0001:0001e434       ___statfp_sse2             1001f434 f   LIBCMT:fpctrl.obj
 0001:0001e449       __clrfp                    1001f449 f   LIBCMT:fpctrl.obj
 0001:0001e45a       __ctrlfp                   1001f45a f   LIBCMT:fpctrl.obj
 0001:0001e485       __set_statfp               1001f485 f   LIBCMT:fpctrl.obj
 0001:0001e4dd       __statfp                   1001f4dd f   LIBCMT:fpctrl.obj
 0001:0001e4ed       _wcscat_s                  1001f4ed f   LIBCMT:wcscat_s.obj
 0001:0001e559       _wcscpy_s                  1001f559 f   LIBCMT:wcscpy_s.obj
 0001:0001e5b5       _wcslen                    1001f5b5 f   LIBCMT:wcslen.obj
 0001:0001e5ce       _wcsncat_s                 1001f5ce f   LIBCMT:wcsncat_s.obj
 0001:0001e69c       __set_abort_behavior       1001f69c f   LIBCMT:abort.obj
 0001:0001e6bb       _abort                     1001f6bb f   LIBCMT:abort.obj
 0001:0001e6fe       ___set_app_type            1001f6fe f   LIBCMT:errmode.obj
 0001:0001e70b       __set_error_mode           1001f70b f   LIBCMT:errmode.obj
 0001:0001e867       __i64tow_s                 1001f867 f   LIBCMT:xtows.obj
 0001:0001e898       __itow_s                   1001f898 f   LIBCMT:xtows.obj
 0001:0001e8c1       __ltow_s                   1001f8c1 f   LIBCMT:xtows.obj
 0001:0001e8eb       __ui64tow_s                1001f8eb f   LIBCMT:xtows.obj
 0001:0001e906       __ultow_s                  1001f906 f   LIBCMT:xtows.obj
 0001:0001ea11       _setvbuf                   1001fa11 f   LIBCMT:setvbuf.obj
 0001:0001eb17       __fwprintf_l               1001fb17 f   LIBCMT:fwprintf.obj
 0001:0001eb31       __fwprintf_p               1001fb31 f   LIBCMT:fwprintf.obj
 0001:0001eb4a       __fwprintf_p_l             1001fb4a f   LIBCMT:fwprintf.obj
 0001:0001eb64       __fwprintf_s_l             1001fb64 f   LIBCMT:fwprintf.obj
 0001:0001eb7e       _fwprintf                  1001fb7e f   LIBCMT:fwprintf.obj
 0001:0001ec12       _fwprintf_s                1001fc12 f   LIBCMT:fwprintf.obj
 0001:0001ec2b       __vsnwprintf_s             1001fc2b f   LIBCMT:vswprnc.obj
 0001:0001ec49       __vsnwprintf_s_l           1001fc49 f   LIBCMT:vswprnc.obj
 0001:0001ed4d       __vswprintf_c              1001fd4d f   LIBCMT:vswprnc.obj
 0001:0001ed74       __vswprintf_c_l            1001fd74 f   LIBCMT:vswprnc.obj
 0001:0001ed9c       __vswprintf_helper         1001fd9c f   LIBCMT:vswprnc.obj
 0001:0001ee97       __vswprintf_p              1001fe97 f   LIBCMT:vswprnc.obj
 0001:0001eebe       __vswprintf_p_l            1001febe f   LIBCMT:vswprnc.obj
 0001:0001eee6       __vswprintf_s_l            1001fee6 f   LIBCMT:vswprnc.obj
 0001:0001ef5d       _vswprintf_s               1001ff5d f   LIBCMT:vswprnc.obj
 0001:0001ef78       ___crtMessageBoxW          1001ff78 f   LIBCMT:crtmboxw.obj
 0001:0001f15e       ___crtMessageBoxWaitThreadW@4 1002015e f   LIBCMT:crtmboxw.obj
 0001:0001f17c       __XcptFilter               1002017c f   LIBCMT:winxfltr.obj
 0001:0001f2d7       ___CppXcptFilter           100202d7 f   LIBCMT:winxfltr.obj
 0001:0001f329       ___get_flsindex            10020329 f   LIBCMT:tidtable.obj
 0001:0001f32f       ___threadhandle            1002032f f   LIBCMT:tidtable.obj
 0001:0001f335       ___threadid                10020335 f   LIBCMT:tidtable.obj
 0001:0001f33b       __freefls@4                1002033b f   LIBCMT:tidtable.obj
 0001:0001f470       __freeptd                  10020470 f   LIBCMT:tidtable.obj
 0001:0001f4a6       __getptd                   100204a6 f   LIBCMT:tidtable.obj
 0001:0001f4be       __getptd_noexit            100204be f   LIBCMT:tidtable.obj
 0001:0001f52d       __initptd                  1002052d f   LIBCMT:tidtable.obj
 0001:0001f5e0       __mtinit                   100205e0 f   LIBCMT:tidtable.obj
 0001:0001f656       __mtterm                   10020656 f   LIBCMT:tidtable.obj
 0001:0001f673       __set_pgmptr               10020673 f i LIBCMT:stdargv.obj
 0001:0001f680       __setargv                  10020680 f   LIBCMT:stdargv.obj
 0001:0001f8af       __setenvp                  100208af f   LIBCMT:stdenvp.obj
 0001:0001f990       ___security_init_cookie    10020990 f   LIBCMT:gs_support.obj
 0001:0001fa2c       ___crtGetEnvironmentStringsA 10020a2c f   LIBCMT:a_env.obj
 0001:0001fac0       _strlen                    10020ac0 f   LIBCMT:strlen.obj
 0001:0001fb4b       _wcsncpy_s                 10020b4b f   LIBCMT:wcsncpy_s.obj
 0001:0001fc09       __output_s_l               10020c09 f   LIBCMT:outputs.obj
 0001:00020891       __output_p_l               10021891 f   LIBCMT:outputp.obj
 0001:00021bc9       __validate_param_reuseA    10022bc9 f   LIBCMT:outputp.obj
 0001:00021cff       _get_crtdouble_arg         10022cff f i LIBCMT:outputp.obj
 0001:00021dfe       __isatty                   10022dfe f   LIBCMT:isatty.obj
 0001:00021e52       ___addlocaleref            10022e52 f   LIBCMT:localref.obj
 0001:00021ee7       ___freetlocinfo            10022ee7 f   LIBCMT:localref.obj
 0001:00022041       ___removelocaleref         10023041 f   LIBCMT:localref.obj
 0001:000220e1       ___updatetlocinfo          100230e1 f   LIBCMT:localref.obj
 0001:00022161       __updatetlocinfoEx_nolock  10023161 f   LIBCMT:localref.obj
 0001:000221ac       ___iswcsym                 100231ac f i LIBCMT:_wctype.obj
 0001:000221d0       ___iswcsymf                100231d0 f i LIBCMT:_wctype.obj
 0001:000221f4       __isleadbyte_l             100231f4 f i LIBCMT:_wctype.obj
 0001:0002222e       __iswalnum_l               1002322e f i LIBCMT:_wctype.obj
 0001:00022242       __iswalpha_l               10023242 f i LIBCMT:_wctype.obj
 0001:00022256       __iswblank_l               10023256 f i LIBCMT:_wctype.obj
 0001:00022271       __iswcntrl_l               10023271 f i LIBCMT:_wctype.obj
 0001:00022282       __iswcsym_l                10023282 f i LIBCMT:_wctype.obj
 0001:000222a6       __iswcsymf_l               100232a6 f i LIBCMT:_wctype.obj
 0001:000222ca       __iswdigit_l               100232ca f i LIBCMT:_wctype.obj
 0001:000222db       __iswgraph_l               100232db f i LIBCMT:_wctype.obj
 0001:000222ef       __iswlower_l               100232ef f i LIBCMT:_wctype.obj
 0001:00022300       __iswprint_l               10023300 f i LIBCMT:_wctype.obj
 0001:00022314       __iswpunct_l               10023314 f i LIBCMT:_wctype.obj
 0001:00022325       __iswspace_l               10023325 f i LIBCMT:_wctype.obj
 0001:00022336       __iswupper_l               10023336 f i LIBCMT:_wctype.obj
 0001:00022347       __iswxdigit_l              10023347 f i LIBCMT:_wctype.obj
 0001:0002235b       _isleadbyte                1002335b f i LIBCMT:_wctype.obj
 0001:0002236c       _iswalnum                  1002336c f i LIBCMT:_wctype.obj
 0001:00022380       _iswalpha                  10023380 f i LIBCMT:_wctype.obj
 0001:00022394       _iswascii                  10023394 f i LIBCMT:_wctype.obj
 0001:000223a6       _iswblank                  100233a6 f i LIBCMT:_wctype.obj
 0001:000223c1       _iswcntrl                  100233c1 f i LIBCMT:_wctype.obj
 0001:000223d2       _iswdigit                  100233d2 f i LIBCMT:_wctype.obj
 0001:000223e3       _iswgraph                  100233e3 f i LIBCMT:_wctype.obj
 0001:000223f7       _iswlower                  100233f7 f i LIBCMT:_wctype.obj
 0001:00022408       _iswprint                  10023408 f i LIBCMT:_wctype.obj
 0001:0002241c       _iswpunct                  1002341c f i LIBCMT:_wctype.obj
 0001:0002242d       _iswspace                  1002342d f i LIBCMT:_wctype.obj
 0001:0002243e       _iswupper                  1002343e f i LIBCMT:_wctype.obj
 0001:0002244f       _iswxdigit                 1002344f f i LIBCMT:_wctype.obj
 0001:00022463       __wctomb_l                 10023463 f   LIBCMT:wctomb.obj
 0001:000224b2       __wctomb_s_l               100234b2 f   LIBCMT:wctomb.obj
 0001:000225d6       _wctomb                    100235d6 f   LIBCMT:wctomb.obj
 0001:00022609       _wctomb_s                  10023609 f   LIBCMT:wctomb.obj
 0001:00022630       __aulldvrm                 10023630 f   LIBCMT:ulldvrm.obj
 0001:000226c5       __matherr                  100236c5 f   LIBCMT:matherr.obj
 0001:000226c8       __frnd                     100236c8 f   LIBCMT:frnd.obj
 0001:000226dc       ___isascii                 100236dc f i LIBCMT:_ctype.obj
 0001:000226ec       ___iscsym                  100236ec f i LIBCMT:_ctype.obj
 0001:0002270c       ___iscsymf                 1002370c f i LIBCMT:_ctype.obj
 0001:00022729       ___toascii                 10023729 f i LIBCMT:_ctype.obj
 0001:00022734       __isalnum_l                10023734 f i LIBCMT:_ctype.obj
 0001:0002278c       __isalpha_l                1002378c f i LIBCMT:_ctype.obj
 0001:000227e4       __isblank_l                100237e4 f i LIBCMT:_ctype.obj
 0001:0002283e       __iscntrl_l                1002383e f i LIBCMT:_ctype.obj
 0001:00022890       __iscsym_l                 10023890 f i LIBCMT:_ctype.obj
 0001:000228b1       __iscsymf_l                100238b1 f i LIBCMT:_ctype.obj
 0001:000228d2       __isdigit_l                100238d2 f i LIBCMT:_ctype.obj
 0001:00022924       __isgraph_l                10023924 f i LIBCMT:_ctype.obj
 0001:0002297c       __islower_l                1002397c f i LIBCMT:_ctype.obj
 0001:000229ce       __isprint_l                100239ce f i LIBCMT:_ctype.obj
 0001:00022a26       __ispunct_l                10023a26 f i LIBCMT:_ctype.obj
 0001:00022a78       __isspace_l                10023a78 f i LIBCMT:_ctype.obj
 0001:00022aca       __isupper_l                10023aca f i LIBCMT:_ctype.obj
 0001:00022b1c       __isxdigit_l               10023b1c f i LIBCMT:_ctype.obj
 0001:00022b74       _isalnum                   10023b74 f i LIBCMT:_ctype.obj
 0001:00022ba1       _isalpha                   10023ba1 f i LIBCMT:_ctype.obj
 0001:00022bce       _isblank                   10023bce f i LIBCMT:_ctype.obj
 0001:00022c03       _iscntrl                   10023c03 f i LIBCMT:_ctype.obj
 0001:00022c2e       _isdigit                   10023c2e f i LIBCMT:_ctype.obj
 0001:00022c59       _isgraph                   10023c59 f i LIBCMT:_ctype.obj
 0001:00022c86       _islower                   10023c86 f i LIBCMT:_ctype.obj
 0001:00022cb1       _isprint                   10023cb1 f i LIBCMT:_ctype.obj
 0001:00022cde       _ispunct                   10023cde f i LIBCMT:_ctype.obj
 0001:00022d09       _isspace                   10023d09 f i LIBCMT:_ctype.obj
 0001:00022d34       _isupper                   10023d34 f i LIBCMT:_ctype.obj
 0001:00022d5f       _isxdigit                  10023d5f f i LIBCMT:_ctype.obj
 0001:00022d8c       __tolower                  10023d8c f   LIBCMT:tolower.obj
 0001:00022d97       __tolower_l                10023d97 f   LIBCMT:tolower.obj
 0001:00022eda       _tolower                   10023eda f   LIBCMT:tolower.obj
 0001:00022f06       _strcpy_s                  10023f06 f   LIBCMT:strcpy_s.obj
 0001:00022f60       _strrchr                   10023f60 f   LIBCMT:strrchr.obj
 0001:00023097       __fptostr                  10024097 f   LIBCMT:_fptostr.obj
 0001:00023147       ___crt_atoflt_l            10024147 f   LIBCMT:atodbl.obj
 0001:000231eb       __atodbl                   100241eb f   LIBCMT:atodbl.obj
 0001:00023200       __atodbl_l                 10024200 f   LIBCMT:atodbl.obj
 0001:0002328e       __atoflt                   1002428e f   LIBCMT:atodbl.obj
 0001:000232a3       __atoflt_l                 100242a3 f   LIBCMT:atodbl.obj
 0001:000232bb       __atoldbl                  100242bb f   LIBCMT:atodbl.obj
 0001:000232d0       __atoldbl_l                100242d0 f   LIBCMT:atodbl.obj
 0001:0002335f       ___dtold                   1002435f f   LIBCMT:cfout.obj
 0001:00023427       __fltout2                  10024427 f   LIBCMT:cfout.obj
 0001:000234c0       __alldvrm                  100244c0 f   LIBCMT:lldvrm.obj
 0001:000235a0       __aullshr                  100245a0 f   LIBCMT:ullshr.obj
 0001:000235bf       __get_output_format        100245bf f   LIBCMT:outputformat.obj
 0001:000235c5       __set_output_format        100245c5 f   LIBCMT:outputformat.obj
 0001:000235f7       __controlfp_s              100245f7 f   LIBCMT:contrlfp.obj
 0001:00023654       __fptrap                   10024654 f   LIBCMT:crt0fp.obj
 0001:0002365d       __msize                    1002465d f   LIBCMT:msize.obj
 0001:0002368e       __recalloc                 1002468e f   LIBCMT:recalloc.obj
 0001:000236f7       _strncpy_s                 100246f7 f   LIBCMT:strncpy_s.obj
 0001:0002387f       __MallocaIsSizeInRange     1002487f f i LIBCMT:a_loc.obj
 0001:00023890       __MarkAllocaS              10024890 f i LIBCMT:a_loc.obj
 0001:000238a4       ___crtGetLocaleInfoA       100248a4 f   LIBCMT:a_loc.obj
 0001:000238de       __freea                    100248de f i LIBCMT:a_loc.obj
 0001:000238fc       _GetTableIndexFromLcid     100248fc f   LIBCMT:winapinls.obj
 0001:00023931       _GetTableIndexFromLocaleName 10024931 f   LIBCMT:winapinls.obj
 0001:0002397f       ___crtCompareStringEx      1002497f f   LIBCMT:winapinls.obj
 0001:000239cb       ___crtDownlevelLCIDToLocaleName 100249cb f   LIBCMT:winapinls.obj
 0001:00023a47       ___crtDownlevelLocaleNameToLCID 10024a47 f   LIBCMT:winapinls.obj
 0001:00023a85       ___crtEnumSystemLocalesEx  10024a85 f   LIBCMT:winapinls.obj
 0001:00023ac2       ___crtGetDateFormatEx      10024ac2 f   LIBCMT:winapinls.obj
 0001:00023b0b       ___crtGetLocaleInfoEx      10024b0b f   LIBCMT:winapinls.obj
 0001:00023b3a       ___crtGetTimeFormatEx      10024b3a f   LIBCMT:winapinls.obj
 0001:00023b6f       ___crtGetUserDefaultLocaleName 10024b6f f   LIBCMT:winapinls.obj
 0001:00023b9a       ___crtIsValidLocaleName    10024b9a f   LIBCMT:winapinls.obj
 0001:00023bc5       ___crtLCMapStringEx        10024bc5 f   LIBCMT:winapinls.obj
 0001:00023c11       ___wcsnicmp_ascii          10024c11 f   LIBCMT:winapinls.obj
 0001:00023ea3       ___crtLCMapStringA         10024ea3 f   LIBCMT:a_map.obj
 0001:00023fe1       ___crtGetStringTypeA       10024fe1 f   LIBCMT:a_str.obj
 0001:00024021       __commit                   10025021 f   LIBCMT:commit.obj
 0001:0002410a       ___lock_fhandle            1002510a f   LIBCMT:osfinfo.obj
 0001:00024198       __alloc_osfhnd             10025198 f   LIBCMT:osfinfo.obj
 0001:00024341       __free_osfhnd              10025341 f   LIBCMT:osfinfo.obj
 0001:000243c7       __get_osfhandle            100253c7 f   LIBCMT:osfinfo.obj
 0001:0002442e       __open_osfhandle           1002542e f   LIBCMT:osfinfo.obj
 0001:00024544       __set_osfhnd               10025544 f   LIBCMT:osfinfo.obj
 0001:000245c6       __unlock_fhandle           100255c6 f   LIBCMT:osfinfo.obj
 0001:000245ec       __open                     100255ec f   LIBCMT:open.obj
 0001:0002469c       __sopen                    1002569c f   LIBCMT:open.obj
 0001:000246cf       __sopen_helper             100256cf f   LIBCMT:open.obj
 0001:00024798       __sopen_nolock             10025798 f   LIBCMT:open.obj
 0001:000247e6       __sopen_s                  100257e6 f   LIBCMT:open.obj
 0001:00024804       __mbsnbcmp                 10025804 f   LIBCMT:mbsnbcmp.obj
 0001:0002481c       __mbsnbcmp_l               1002581c f   LIBCMT:mbsnbcmp.obj
 0001:00024933       __mbsnbicmp                10025933 f   LIBCMT:mbsnbicm.obj
 0001:0002494b       __mbsnbicmp_l              1002594b f   LIBCMT:mbsnbicm.obj
 0001:00024b10       __global_unwind2           10025b10 f   LIBCMT:exsup.obj
 0001:00024b75       __local_unwind2            10025b75 f   LIBCMT:exsup.obj
 0001:00024bf9       __abnormal_termination     10025bf9 f   LIBCMT:exsup.obj
 0001:00024c1c       __NLG_Notify1              10025c1c f   LIBCMT:exsup.obj
 0001:00024c25       __NLG_Notify               10025c25 f   LIBCMT:exsup.obj
 0001:00024c3c       __NLG_Dispatch             10025c3c     LIBCMT:exsup.obj
 0001:00024c3c       __NLG_Dispatch2            10025c3c     LIBCMT:exsup.obj
 0001:00024c44       __NLG_Call                 10025c44 f   LIBCMT:exsup.obj
 0001:00024c46       __NLG_Return2              10025c46     LIBCMT:exsup.obj
 0001:00024c47       __getbuf                   10025c47 f   LIBCMT:_getbuf.obj
 0001:00024c8d       __lseeki64                 10025c8d f   LIBCMT:lseeki64.obj
 0001:00024d89       __lseeki64_nolock          10025d89 f   LIBCMT:lseeki64.obj
 0001:00024dfc       __mbtowc_l                 10025dfc f   LIBCMT:mbtowc.obj
 0001:00024ef1       _mbtowc                    10025ef1 f   LIBCMT:mbtowc.obj
 0001:00024f09       __putwch                   10025f09 f   LIBCMT:putwch.obj
 0001:00024f55       __putwch_nolock            10025f55 f   LIBCMT:putwch.obj
 0001:00024fa0       __alloca_probe             10025fa0 f   LIBCMT:chkstk.obj
 0001:00024fa0       __chkstk                   10025fa0 f   LIBCMT:chkstk.obj
 0001:00024fcb       __vfwprintf_l              10025fcb f   LIBCMT:vfwprint.obj
 0001:00024fe9       __vfwprintf_p              10025fe9 f   LIBCMT:vfwprint.obj
 0001:00025006       __vfwprintf_p_l            10026006 f   LIBCMT:vfwprint.obj
 0001:00025024       __vfwprintf_s_l            10026024 f   LIBCMT:vfwprint.obj
 0001:00025042       _vfwprintf                 10026042 f   LIBCMT:vfwprint.obj
 0001:0002505f       _vfwprintf_helper          1002605f f   LIBCMT:vfwprint.obj
 0001:000250f2       _vfwprintf_s               100260f2 f   LIBCMT:vfwprint.obj
 0001:0002510f       __woutput_l                1002610f f   LIBCMT:woutput.obj
 0001:00025dee       __woutput_s_l              10026dee f   LIBCMT:woutputs.obj
 0001:00026b05       __validate_param_reuseW    10027b05 f   LIBCMT:woutputp.obj
 0001:00026c7d       __woutput_p_l              10027c7d f   LIBCMT:woutputp.obj
 0001:000280a6       __ismbbalnum               100290a6 f   LIBCMT:ismbbyte.obj
 0001:000280bf       __ismbbalnum_l             100290bf f   LIBCMT:ismbbyte.obj
 0001:000280d9       __ismbbalpha               100290d9 f   LIBCMT:ismbbyte.obj
 0001:000280f2       __ismbbalpha_l             100290f2 f   LIBCMT:ismbbyte.obj
 0001:0002810c       __ismbbblank               1002910c f   LIBCMT:ismbbyte.obj
 0001:0002812d       __ismbbblank_l             1002912d f   LIBCMT:ismbbyte.obj
 0001:0002814f       __ismbbgraph               1002914f f   LIBCMT:ismbbyte.obj
 0001:00028168       __ismbbgraph_l             10029168 f   LIBCMT:ismbbyte.obj
 0001:00028182       __ismbbkalnum              10029182 f   LIBCMT:ismbbyte.obj
 0001:00028198       __ismbbkalnum_l            10029198 f   LIBCMT:ismbbyte.obj
 0001:000281af       __ismbbkana                100291af f   LIBCMT:ismbbyte.obj
 0001:000281c0       __ismbbkana_l              100291c0 f   LIBCMT:ismbbyte.obj
 0001:0002820c       __ismbbkprint              1002920c f   LIBCMT:ismbbyte.obj
 0001:00028222       __ismbbkprint_l            10029222 f   LIBCMT:ismbbyte.obj
 0001:00028239       __ismbbkpunct              10029239 f   LIBCMT:ismbbyte.obj
 0001:0002824f       __ismbbkpunct_l            1002924f f   LIBCMT:ismbbyte.obj
 0001:00028266       __ismbblead                10029266 f   LIBCMT:ismbbyte.obj
 0001:0002827c       __ismbblead_l              1002927c f   LIBCMT:ismbbyte.obj
 0001:00028293       __ismbbprint               10029293 f   LIBCMT:ismbbyte.obj
 0001:000282ac       __ismbbprint_l             100292ac f   LIBCMT:ismbbyte.obj
 0001:000282c6       __ismbbpunct               100292c6 f   LIBCMT:ismbbyte.obj
 0001:000282dc       __ismbbpunct_l             100292dc f   LIBCMT:ismbbyte.obj
 0001:000282f3       __ismbbtrail               100292f3 f   LIBCMT:ismbbyte.obj
 0001:00028309       __ismbbtrail_l             10029309 f   LIBCMT:ismbbyte.obj
 0001:00028546       __strtol_l                 10029546 f   LIBCMT:strtol.obj
 0001:00028561       __strtoul_l                10029561 f   LIBCMT:strtol.obj
 0001:0002857c       _strtol                    1002957c f   LIBCMT:strtol.obj
 0001:000285a6       _strtoul                   100295a6 f   LIBCMT:strtol.obj
 0001:000285d0       ___free_lconv_mon          100295d0 f   LIBCMT:initmon.obj
 0001:000286cc       ___init_monetary           100296cc f   LIBCMT:initmon.obj
 0001:00028aa5       ___free_lconv_num          10029aa5 f   LIBCMT:initnum.obj
 0001:00028b0c       ___init_numeric            10029b0c f   LIBCMT:initnum.obj
 0001:00028d4a       ___free_lc_time            10029d4a f   LIBCMT:inittime.obj
 0001:000290ca       ___init_time               1002a0ca f   LIBCMT:inittime.obj
 0001:00029939       _localeconv                1002a939 f   LIBCMT:lconv.obj
 0001:0002995f       __iswctype_l               1002a95f f   LIBCMT:iswctype.obj
 0001:00029971       _is_wctype                 1002a971 f   LIBCMT:iswctype.obj
 0001:0002997a       _iswctype                  1002a97a f   LIBCMT:iswctype.obj
 0001:000299d0       ____lc_codepage_func       1002a9d0 f   LIBCMT:initctyp.obj
 0001:000299f6       ____lc_collate_cp_func     1002a9f6 f   LIBCMT:initctyp.obj
 0001:00029a1c       ____lc_locale_name_func    1002aa1c f   LIBCMT:initctyp.obj
 0001:00029a44       ____mb_cur_max_func        1002aa44 f   LIBCMT:initctyp.obj
 0001:00029a6a       ____mb_cur_max_l_func      1002aa6a f   LIBCMT:initctyp.obj
 0001:00029a81       ___init_ctype              1002aa81 f   LIBCMT:initctyp.obj
 0001:00029e19       ___pctype_func             1002ae19 f   LIBCMT:ctype.obj
 0001:00029e42       ___pwctype_func            1002ae42 f   LIBCMT:ctype.obj
 0001:00029e48       __isctype                  1002ae48 f   LIBCMT:isctype.obj
 0001:00029e77       __isctype_l                1002ae77 f   LIBCMT:isctype.obj
 0001:00029f28       ___init_dummy              1002af28 f   LIBCMT:wsetloca.obj
 0001:00029f2b       __locterm                  1002af2b f   LIBCMT:wsetloca.obj
 0001:00029f7d       ____setlc_active_func      1002af7d f   LIBCMT:wsetloca.obj
 0001:00029f83       ____unguarded_readlc_active_add_func 1002af83 f   LIBCMT:wsetloca.obj
 0001:00029f89       ___copy_locale_name        1002af89 f   LIBCMT:wsetloca.obj
 0001:00029fed       ___create_locale           1002afed f   LIBCMT:wsetloca.obj
 0001:00029ff6       ___free_locale             1002aff6 f   LIBCMT:wsetloca.obj
 0001:00029ffb       ___get_current_locale      1002affb f   LIBCMT:wsetloca.obj
 0001:0002a000       ___lc_lctowcs              1002b000 f   LIBCMT:wsetloca.obj
 0001:0002a06e       ___lc_wcstolc              1002b06e f   LIBCMT:wsetloca.obj
 0001:0002a19a       __configthreadlocale       1002b19a f   LIBCMT:wsetloca.obj
 0001:0002a220       __create_locale            1002b220 f   LIBCMT:wsetloca.obj
 0001:0002a282       __expandlocale             1002b282 f   LIBCMT:wsetloca.obj
 0001:0002a579       __free_locale              1002b579 f   LIBCMT:wsetloca.obj
 0001:0002a630       __get_current_locale       1002b630 f   LIBCMT:wsetloca.obj
 0001:0002a6df       __wcreate_locale           1002b6df f   LIBCMT:wsetloca.obj
 0001:0002a7b6       __wcscats                  1002b7b6 f   LIBCMT:wsetloca.obj
 0001:0002a7f5       __wsetlocale               1002b7f5 f   LIBCMT:wsetloca.obj
 0001:0002b137       __CopyMan                  1002c137 f i LIBCMT:intrncvt.obj
 0001:0002b154       __FillZeroMan              1002c154 f i LIBCMT:intrncvt.obj
 0001:0002b163       __IncMan                   1002c163 f i LIBCMT:intrncvt.obj
 0001:0002b1c5       __IsZeroMan                1002c1c5 f i LIBCMT:intrncvt.obj
 0001:0002b1e2       __RoundMan                 1002c1e2 f i LIBCMT:intrncvt.obj
 0001:0002b2e3       __ShrMan                   1002c2e3 f i LIBCMT:intrncvt.obj
 0001:0002b371       __ZeroTail                 1002c371 f i LIBCMT:intrncvt.obj
 0001:0002b3b9       ___addl                    1002c3b9 f i LIBCMT:intrncvt.obj
 0001:0002b3dd       __ld12cvt                  1002c3dd f i LIBCMT:intrncvt.obj
 0001:0002b948       __ld12tod                  1002c948 f   LIBCMT:intrncvt.obj
 0001:0002beba       __ld12tof                  1002ceba f   LIBCMT:intrncvt.obj
 0001:0002c42c       __ld12told                 1002d42c f   LIBCMT:intrncvt.obj
 0001:0002c4fb       ___STRINGTOLD_L            1002d4fb f   LIBCMT:strgtold.obj
 0001:0002c556       ___ld12mul                 1002d556 f i LIBCMT:strgtold.obj
 0001:0002c822       ___multtenpow12            1002d822 f i LIBCMT:strgtold.obj
 0001:0002cb75       ___shl_12                  1002db75 f i LIBCMT:strgtold.obj
 0001:0002cba6       ___shr_12                  1002dba6 f i LIBCMT:strgtold.obj
 0001:0002cbd6       ___strgtold12_l            1002dbd6 f   LIBCMT:strgtold.obj
 0001:0002d37e       _$I10_OUTPUT               1002e37e f   LIBCMT:x10fout.obj
 0001:0002dd52       ___add_12                  1002ed52 f i LIBCMT:x10fout.obj
 0001:0002defe       ___control87_2             1002eefe f   LIBCMT:ieee87.obj
 0001:0002e572       __clearfp                  1002f572 f   LIBCMT:ieee87.obj
 0001:0002e652       __control87                1002f652 f i LIBCMT:ieee87.obj
 0001:0002e954       __controlfp                1002f954 f   LIBCMT:ieee87.obj
 0001:0002ec5f       __fpreset                  1002fc5f f   LIBCMT:ieee87.obj
 0001:0002ed2c       __set_controlfp            1002fd2c f   LIBCMT:ieee87.obj
 0001:0002ed9f       __statusfp                 1002fd9f f   LIBCMT:ieee87.obj
 0001:0002ee39       __statusfp2                1002fe39 f   LIBCMT:ieee87.obj
 0001:0002eea0       __alloca_probe_16          1002fea0 f   LIBCMT:alloca16.obj
 0001:0002eeb6       __alloca_probe_8           1002feb6     LIBCMT:alloca16.obj
 0001:0002eecc       _wcsnlen                   1002fecc f   LIBCMT:wcslen_s.obj
 0001:0002ef73       __wopen                    1002ff73 f   LIBCMT:wopen.obj
 0001:0002f023       __wsopen                   10030023 f   LIBCMT:wopen.obj
 0001:0002f056       __wsopen_helper            10030056 f   LIBCMT:wopen.obj
 0001:0002f11f       __wsopen_nolock            1003011f f   LIBCMT:wopen.obj
 0001:0002f872       __wsopen_s                 10030872 f   LIBCMT:wopen.obj
 0001:0002f890       _strncmp                   10030890 f   LIBCMT:strncmp.obj
 0001:0002f908       __strnicmp                 10030908 f   LIBCMT:strnicmp.obj
 0001:0002f973       __strnicmp_l               10030973 f   LIBCMT:strnicmp.obj
 0001:0002fa24       ___termconout              10030a24 f   LIBCMT:initcon.obj
 0001:0002fa3b       ___initconout              10030a3b f   LIBCMT:initcon.obj
 0001:0002fa5a       __fputwc_nolock            10030a5a f   LIBCMT:fputwc.obj
 0001:0002fbe0       _fputwc                    10030be0 f   LIBCMT:fputwc.obj
 0001:0002fc57       _putwc                     10030c57 f   LIBCMT:fputwc.obj
 0001:0002fe41       __wcstol_l                 10030e41 f   LIBCMT:wcstol.obj
 0001:0002fe59       __wcstoul_l                10030e59 f   LIBCMT:wcstol.obj
 0001:0002fe71       _wcstol                    10030e71 f   LIBCMT:wcstol.obj
 0001:0002fe89       _wcstoul                   10030e89 f   LIBCMT:wcstol.obj
 0001:0002fea1       ___init_collate            10030ea1 f   LIBCMT:initcoll.obj
 0001:0002ffc1       _memcmp                    10030fc1 f   LIBCMT:memcmp.obj
 0001:00032ed5       _wcscmp                    10033ed5 f   LIBCMT:wcscmp.obj
 0001:00032f13       _wcscspn                   10033f13 f   LIBCMT:wcscspn.obj
 0001:00032f5e       _wcsncmp                   10033f5e f   LIBCMT:wcsncmp.obj
 0001:00032f94       _wcspbrk                   10033f94 f   LIBCMT:wcspbrk.obj
 0001:00033598       ___get_qualified_locale    10034598 f   LIBCMT:getqloc.obj
 0001:00033e08       ___get_qualified_locale_downlevel 10034e08 f   LIBCMT:getqloc_downlevel.obj
 0001:00034024       ___mtold12                 10035024 f   LIBCMT:mantold.obj
 0001:00034204       __chsize                   10035204 f   LIBCMT:chsize.obj
 0001:0003421e       __chsize_nolock            1003521e f   LIBCMT:chsize.obj
 0001:000343d4       __chsize_s                 100353d4 f   LIBCMT:chsize.obj
 0001:000344c2       __get_fmode                100354c2 f   LIBCMT:setmode.obj
 0001:000344ec       __set_fmode                100354ec f   LIBCMT:setmode.obj
 0001:00034527       __setmode                  10035527 f   LIBCMT:setmode.obj
 0001:0003462c       __setmode_nolock           1003562c f   LIBCMT:setmode.obj
 0001:00034700       ___ascii_strnicmp          10035700 f   LIBCMT:_strnicm.obj
 0001:00034761       __flswbuf                  10035761 f   LIBCMT:_flswbuf.obj
 0001:000348c3       __wchartodigit             100358c3 f   LIBCMT:wchtodig.obj
 0001:00034a62       __wtoi                     10035a62 f   LIBCMT:wtox.obj
 0001:00034a6b       __wtoi64                   10035a6b f   LIBCMT:wtox.obj
 0001:00034a7f       __wtoi64_l                 10035a7f f   LIBCMT:wtox.obj
 0001:00034a96       __wtoi_l                   10035a96 f   LIBCMT:wtox.obj
 0001:00034a9f       __wtol                     10035a9f f   LIBCMT:wtox.obj
 0001:00034ab3       __wtol_l                   10035ab3 f   LIBCMT:wtox.obj
 0001:00034aca       __wtoll                    10035aca f   LIBCMT:wtox.obj
 0001:00034ade       __wtoll_l                  10035ade f   LIBCMT:wtox.obj
 0001:00034af5       _wcschr                    10035af5 f   LIBCMT:wcschr.obj
 0001:00034ba3       __wcsicmp                  10035ba3 f   LIBCMT:wcsicmp.obj
 0001:00034c36       __wcsicmp_l                10035c36 f   LIBCMT:wcsicmp.obj
 0001:00034d11       __wcsnicmp                 10035d11 f   LIBCMT:wcsnicmp.obj
 0001:00034dc7       __wcsnicmp_l               10035dc7 f   LIBCMT:wcsnicmp.obj
 0001:00035190       __wcstof_l                 10036190 f   LIBCMT:wcstoq.obj
 0001:00035243       __wcstoi64                 10036243 f   LIBCMT:wcstoq.obj
 0001:0003526d       __wcstoi64_l               1003626d f   LIBCMT:wcstoq.obj
 0001:00035288       __wcstoimax_l              10036288 f   LIBCMT:wcstoq.obj
 0001:00035291       __wcstold_l                10036291 f   LIBCMT:wcstoq.obj
 0001:0003529a       __wcstoll_l                1003629a f   LIBCMT:wcstoq.obj
 0001:000352a3       __wcstoui64                100362a3 f   LIBCMT:wcstoq.obj
 0001:000352cd       __wcstoui64_l              100362cd f   LIBCMT:wcstoq.obj
 0001:000352e8       __wcstoull_l               100362e8 f   LIBCMT:wcstoq.obj
 0001:000352f1       __wcstoumax_l              100362f1 f   LIBCMT:wcstoq.obj
 0001:000352fa       _wcstof                    100362fa f   LIBCMT:wcstoq.obj
 0001:0003530f       _wcstoimax                 1003630f f   LIBCMT:wcstoq.obj
 0001:00035318       _wcstold                   10036318 f   LIBCMT:wcstoq.obj
 0001:00035321       _wcstoll                   10036321 f   LIBCMT:wcstoq.obj
 0001:0003532a       _wcstoull                  1003632a f   LIBCMT:wcstoq.obj
 0001:00035333       _wcstoumax                 10036333 f   LIBCMT:wcstoq.obj
 0001:0003533c       __towlower_l               1003633c f   LIBCMT:towlower.obj
 0001:000353ed       _towlower                  100363ed f   LIBCMT:towlower.obj
 0001:000353fe       __wcstod_l                 100363fe f   LIBCMT:wcstod.obj
 0001:000354f9       _wcstod                    100364f9 f   LIBCMT:wcstod.obj
 0001:00035510       __allmul                   10036510 f   LIBCMT:llmul.obj
 0001:00035544       ___crtLCMapStringW         10036544 f   LIBCMT:w_map.obj
 0001:00035573       __wfltin2                  10036573 f   LIBCMT:wcfin.obj
 0001:00035620       ___WSTRINGTOLD_L           10036620 f   LIBCMT:wstrgtold.obj
 0001:0003567b       ___wstrgtold12_l           1003667b f   LIBCMT:wstrgtold.obj
 0001:00035ecc       _GetModuleHandleA@4        10036ecc f   kernel32:KERNEL32.dll
 0001:00035ed2       _GetProcAddress@8          10036ed2 f   kernel32:KERNEL32.dll
 0001:00035ed8       _HeapAlloc@12              10036ed8 f   kernel32:KERNEL32.dll
 0001:00035ede       _IsDebuggerPresent@0       10036ede f   kernel32:KERNEL32.dll
 0001:00035ee4       _IsProcessorFeaturePresent@4 10036ee4 f   kernel32:KERNEL32.dll
 0001:00035eea       _EncodePointer@4           10036eea f   kernel32:KERNEL32.dll
 0001:00035ef0       _DecodePointer@4           10036ef0 f   kernel32:KERNEL32.dll
 0001:00035ef6       _GetLastError@0            10036ef6 f   kernel32:KERNEL32.dll
 0001:00035efc       _ExitProcess@4             10036efc f   kernel32:KERNEL32.dll
 0001:00035f02       _GetModuleHandleExW@12     10036f02 f   kernel32:KERNEL32.dll
 0001:00035f08       _AreFileApisANSI@0         10036f08 f   kernel32:KERNEL32.dll
 0001:00035f0e       _MultiByteToWideChar@24    10036f0e f   kernel32:KERNEL32.dll
 0001:00035f14       _WideCharToMultiByte@32    10036f14 f   kernel32:KERNEL32.dll
 0001:00035f1a       _HeapFree@12               10036f1a f   kernel32:KERNEL32.dll
 0001:00035f20       _HeapReAlloc@16            10036f20 f   kernel32:KERNEL32.dll
 0001:00035f26       _EnterCriticalSection@4    10036f26 f   kernel32:KERNEL32.dll
 0001:00035f2c       _LeaveCriticalSection@4    10036f2c f   kernel32:KERNEL32.dll
 0001:00035f32       _GetStdHandle@4            10036f32 f   kernel32:KERNEL32.dll
 0001:00035f38       _GetFileType@4             10036f38 f   kernel32:KERNEL32.dll
 0001:00035f3e       _GetModuleFileNameW@12     10036f3e f   kernel32:KERNEL32.dll
 0001:00035f44       _WriteConsoleW@20          10036f44 f   kernel32:KERNEL32.dll
 0001:00035f4a       _GetCommandLineA@0         10036f4a f   kernel32:KERNEL32.dll
 0001:00035f50       _GetCurrentThreadId@0      10036f50 f   kernel32:KERNEL32.dll
 0001:00035f56       _WriteFile@20              10036f56 f   kernel32:KERNEL32.dll
 0001:00035f5c       _GetProcessHeap@0          10036f5c f   kernel32:KERNEL32.dll
 0001:00035f62       _UnhandledExceptionFilter@4 10036f62 f   kernel32:KERNEL32.dll
 0001:00035f68       _SetUnhandledExceptionFilter@4 10036f68 f   kernel32:KERNEL32.dll
 0001:00035f6e       _SetLastError@4            10036f6e f   kernel32:KERNEL32.dll
 0001:00035f74       _InitializeCriticalSectionAndSpinCount@8 10036f74 f   kernel32:KERNEL32.dll
 0001:00035f7a       _CreateEventW@16           10036f7a f   kernel32:KERNEL32.dll
 0001:00035f80       _Sleep@4                   10036f80 f   kernel32:KERNEL32.dll
 0001:00035f86       _GetCurrentProcess@0       10036f86 f   kernel32:KERNEL32.dll
 0001:00035f8c       _TerminateProcess@8        10036f8c f   kernel32:KERNEL32.dll
 0001:00035f92       _TlsAlloc@0                10036f92 f   kernel32:KERNEL32.dll
 0001:00035f98       _TlsGetValue@4             10036f98 f   kernel32:KERNEL32.dll
 0001:00035f9e       _TlsSetValue@8             10036f9e f   kernel32:KERNEL32.dll
 0001:00035fa4       _TlsFree@4                 10036fa4 f   kernel32:KERNEL32.dll
 0001:00035faa       _GetStartupInfoW@4         10036faa f   kernel32:KERNEL32.dll
 0001:00035fb0       _GetTickCount@0            10036fb0 f   kernel32:KERNEL32.dll
 0001:00035fb6       _GetModuleHandleW@4        10036fb6 f   kernel32:KERNEL32.dll
 0001:00035fbc       _CreateSemaphoreW@16       10036fbc f   kernel32:KERNEL32.dll
 0001:00035fc2       _DeleteCriticalSection@4   10036fc2 f   kernel32:KERNEL32.dll
 0001:00035fc8       _FatalAppExitA@8           10036fc8 f   kernel32:KERNEL32.dll
 0001:00035fce       _SetConsoleCtrlHandler@8   10036fce f   kernel32:KERNEL32.dll
 0001:00035fd4       _FreeLibrary@4             10036fd4 f   kernel32:KERNEL32.dll
 0001:00035fda       _LoadLibraryExW@12         10036fda f   kernel32:KERNEL32.dll
 0001:00035fe0       _IsValidCodePage@4         10036fe0 f   kernel32:KERNEL32.dll
 0001:00035fe6       _GetACP@0                  10036fe6 f   kernel32:KERNEL32.dll
 0001:00035fec       _GetOEMCP@0                10036fec f   kernel32:KERNEL32.dll
 0001:00035ff2       _GetCPInfo@8               10036ff2 f   kernel32:KERNEL32.dll
 0001:00035ff8       _CloseHandle@4             10036ff8 f   kernel32:KERNEL32.dll
 0001:00035ffe       _RtlUnwind@16              10036ffe f   kernel32:KERNEL32.dll
 0001:00036004       _ReadFile@20               10037004 f   kernel32:KERNEL32.dll
 0001:0003600a       _GetConsoleMode@8          1003700a f   kernel32:KERNEL32.dll
 0001:00036010       _ReadConsoleW@20           10037010 f   kernel32:KERNEL32.dll
 0001:00036016       _GetConsoleCP@0            10037016 f   kernel32:KERNEL32.dll
 0001:0003601c       _DeleteFileW@4             1003701c f   kernel32:KERNEL32.dll
 0001:00036022       _SetFilePointerEx@20       10037022 f   kernel32:KERNEL32.dll
 0001:00036028       _RaiseException@16         10037028 f   kernel32:KERNEL32.dll
 0001:0003602e       _OutputDebugStringW@4      1003702e f   kernel32:KERNEL32.dll
 0001:00036034       _GetCurrentThread@0        10037034 f   kernel32:KERNEL32.dll
 0001:0003603a       _GetModuleFileNameA@12     1003703a f   kernel32:KERNEL32.dll
 0001:00036040       _QueryPerformanceCounter@4 10037040 f   kernel32:KERNEL32.dll
 0001:00036046       _GetCurrentProcessId@0     10037046 f   kernel32:KERNEL32.dll
 0001:0003604c       _GetSystemTimeAsFileTime@4 1003704c f   kernel32:KERNEL32.dll
 0001:00036052       _GetEnvironmentStringsW@0  10037052 f   kernel32:KERNEL32.dll
 0001:00036058       _FreeEnvironmentStringsW@4 10037058 f   kernel32:KERNEL32.dll
 0001:0003605e       _HeapSize@12               1003705e f   kernel32:KERNEL32.dll
 0001:00036064       _GetDateFormatW@24         10037064 f   kernel32:KERNEL32.dll
 0001:0003606a       _GetTimeFormatW@24         1003706a f   kernel32:KERNEL32.dll
 0001:00036070       _CompareStringW@24         10037070 f   kernel32:KERNEL32.dll
 0001:00036076       _LCMapStringW@24           10037076 f   kernel32:KERNEL32.dll
 0001:0003607c       _GetLocaleInfoW@16         1003707c f   kernel32:KERNEL32.dll
 0001:00036082       _IsValidLocale@8           10037082 f   kernel32:KERNEL32.dll
 0001:00036088       _GetUserDefaultLCID@0      10037088 f   kernel32:KERNEL32.dll
 0001:0003608e       _EnumSystemLocalesW@8      1003708e f   kernel32:KERNEL32.dll
 0001:00036094       _GetStringTypeW@16         10037094 f   kernel32:KERNEL32.dll
 0001:0003609a       _FlushFileBuffers@4        1003709a f   kernel32:KERNEL32.dll
 0001:000360a0       _SetStdHandle@8            100370a0 f   kernel32:KERNEL32.dll
 0001:000360a6       _CreateFileW@28            100370a6 f   kernel32:KERNEL32.dll
 0001:000360ac       _SetEndOfFile@4            100370ac f   kernel32:KERNEL32.dll
 0002:00000000       ___xc_a                    10042000     LIBCMT:crt0init.obj
 0002:00000104       ___xc_z                    10042104     LIBCMT:crt0init.obj
 0002:00000208       ___xi_a                    10042208     LIBCMT:crt0init.obj
 0002:00000424       ___xi_z                    10042424     LIBCMT:crt0init.obj
 0002:00000528       ___xp_a                    10042528     LIBCMT:crt0init.obj
 0002:0000083c       ___xp_z                    1004283c     LIBCMT:crt0init.obj
 0002:00000940       ___xt_a                    10042940     LIBCMT:crt0init.obj
 0002:00000a44       ___xt_z                    10042a44     LIBCMT:crt0init.obj
 0002:00000b88       _Registration_Estimation_M 10042b88     Registration_Estimation.obj
 0002:00000b8c       ??_C@_0BI@PEBACBDB@Error?5creating?5scope?53?6?$AA@ 10042b8c     Registration_Estimation.obj
 0002:00000ba8       ??_C@_0N@GMLOCEOH@count_to_mm1?$AA@ 10042ba8     Registration_Estimation.obj
 0002:00000bb8       ??_C@_09LIAEOFKL@Xdata?4dat?$AA@ 10042bb8     Registration_Estimation.obj
 0002:00000bc4       ??_C@_0BI@PBFPDHLE@Error?5creating?5scope?54?6?$AA@ 10042bc4     Registration_Estimation.obj
 0002:00000be0       ??_C@_0M@OJGPAKGO@count_to_mm?$AA@ 10042be0     Registration_Estimation.obj
 0002:00000bf0       ??_C@_09FHMGIOJF@Ydata?4dat?$AA@ 10042bf0     Registration_Estimation.obj
 0002:00000bfc       ??_C@_0BI@PAJNFNID@Error?5creating?5scope?55?6?$AA@ 10042bfc     Registration_Estimation.obj
 0002:00000c18       ??_C@_0BA@IBIFMAKE@Data?5Store?5Read?$AA@ 10042c18     Registration_Estimation.obj
 0002:00000c2c       ??_C@_06KFNFIEK@?$CF15?46f?$AA@ 10042c2c     Registration_Estimation.obj
 0002:00000c34       ??_C@_0BI@PCNLODNK@Error?5creating?5scope?56?6?$AA@ 10042c34     Registration_Estimation.obj
 0002:00000c50       ??_C@_0BB@BHGHOFID@Data?5Store?5Read1?$AA@ 10042c50     Registration_Estimation.obj
 0002:00000c64       ??_C@_0BI@PHJEPFFP@Error?5creating?5scope?51?6?$AA@ 10042c64     Registration_Estimation.obj
 0002:00000c80       ??_C@_0N@EHJDHHCE@count_to_mm2?$AA@ 10042c80     Registration_Estimation.obj
 0002:00000c90       ??_C@_09LMPBDFJG@Zdata?4dat?$AA@ 10042c90     Registration_Estimation.obj
 0002:00000c9c       ??_C@_0BI@PFNCELAG@Error?5creating?5scope?52?6?$AA@ 10042c9c     Registration_Estimation.obj
 0002:00000cb8       ??_C@_0BE@FCJPLBLD@Byte?5Unpacking?51?1s3?$AA@ 10042cb8     Registration_Estimation.obj
 0002:00000cd0       ??_C@_0BI@PDBJIJON@Error?5creating?5scope?57?6?$AA@ 10042cd0     Registration_Estimation.obj
 0002:00000cec       ??_C@_0BE@JELKHHOB@MATLAB?5Function2?1p1?$AA@ 10042cec     Registration_Estimation.obj
 0002:00000d04       ??_C@_0BI@PIEFMONA@Error?5creating?5scope?58?6?$AA@ 10042d04     Registration_Estimation.obj
 0002:00000d20       ??_C@_0BE@JLOMDMND@MATLAB?5Function3?1p3?$AA@ 10042d20     Registration_Estimation.obj
 0002:00000d38       ??_C@_0BI@PJIHKEOH@Error?5creating?5scope?59?6?$AA@ 10042d38     Registration_Estimation.obj
 0002:00000d54       ??_C@_0BC@OJJPBDHH@FixedStepDiscrete?$AA@ 10042d54     Registration_Estimation.obj
 0002:00000d6c       ??_C@_04EPKDLPPB@tout?$AA@ 10042d6c     Registration_Estimation.obj
 0002:00000d72       ??_C@_00CNPNBAHC@?$AA@     10042d72     Registration_Estimation.obj
 0002:00000d74       ??_C@_03HBFGMJOD@rt_?$AA@  10042d74     Registration_Estimation.obj
 0002:00000d78       ??_C@_09JLALMMJD@Receive?51?$AA@ 10042d78     Registration_Estimation.obj
 0002:00000d84       ??_C@_0CC@ILKEJCDN@Registration_Estimation?1Receive?5@ 10042d84     Registration_Estimation.obj
 0002:00000dac       ??_C@_0BA@JCPIANNA@CNT32?98M?$CIPCI?$CJ?53?$AA@ 10042dac     Registration_Estimation.obj
 0002:00000dc0       ??_C@_0CI@DPODKGMH@Registration_Estimation?1CNT32?98M@ 10042dc0     Registration_Estimation.obj
 0002:00000df0       ??_C@_0BA@ILODDMJB@CNT32?98M?$CIPCI?$CJ?52?$AA@ 10042df0     Registration_Estimation.obj
 0002:00000e04       ??_C@_0CI@CGPIJHIG@Registration_Estimation?1CNT32?98M@ 10042e04     Registration_Estimation.obj
 0002:00000e34       ??_C@_0BA@KAMOGPFC@CNT32?98M?$CIPCI?$CJ?51?$AA@ 10042e34     Registration_Estimation.obj
 0002:00000e48       ??_C@_0CI@NNFMEEF@Registration_Estimation?1CNT32?98M@ 10042e48     Registration_Estimation.obj
 0002:00000e78       ??_C@_0BA@KOPDHJJN@PCI?9DDA?508?512?53?$AA@ 10042e78     Registration_Estimation.obj
 0002:00000e8c       ??_C@_0CI@DOINCIK@Registration_Estimation?1PCI?9DDA?5@ 10042e8c     Registration_Estimation.obj
 0002:00000ebc       ??_C@_0BA@OBLCOPFK@PCI?9DDA?508?512?54?$AA@ 10042ebc     Registration_Estimation.obj
 0002:00000ed0       ??_C@_0CI@EMKJEEEN@Registration_Estimation?1PCI?9DDA?5@ 10042ed0     Registration_Estimation.obj
 0002:00000f00       ??_C@_0BA@PIKJNOBL@PCI?9DDA?508?512?55?$AA@ 10042f00     Registration_Estimation.obj
 0002:00000f14       ??_C@_0CI@FFLCHFAM@Registration_Estimation?1PCI?9DDA?5@ 10042f14     Registration_Estimation.obj
 0002:00000f44       ??_C@_0O@GDKFENNN@PCI?9DDA08?512?5?$AA@ 10042f44     Registration_Estimation.obj
 0002:00000f54       ??_C@_0CG@JMBLJABD@Registration_Estimation?1PCI?9DDA0@ 10042f54     Registration_Estimation.obj
 0002:00000f88       __real@3ca0000000000000    10042f88     Registration_Estimation.obj
 0002:00000f98       __real@3defffffffffffff    10042f98     Registration_Estimation.obj
 0002:00000fa8       __real@3e00000000200000    10042fa8     Registration_Estimation.obj
 0002:00000fb8       __real@3f50624dd2f1a9fc    10042fb8     Registration_Estimation.obj
 0002:00000fc8       __real@3ff0000000000000    10042fc8     Registration_Estimation.obj
 0002:00000fd8       __real@4008000000000000    10042fd8     Registration_Estimation.obj
 0002:00000fe8       __real@4014000000000000    10042fe8     Registration_Estimation.obj
 0002:00000ff8       __real@4051800000000000    10042ff8     Registration_Estimation.obj
 0002:00001008       __real@409f400000000000    10043008     Registration_Estimation.obj
 0002:00001018       __real@40c3880000000000    10043018     Registration_Estimation.obj
 0002:00001028       __real@40d3880000000000    10043028     Registration_Estimation.obj
 0002:00001038       __real@4190000000000000    10043038     Registration_Estimation.obj
 0002:00001048       __real@41f0000000000000    10043048     Registration_Estimation.obj
 0002:00001058       __real@bf847ae147ae147b    10043058     Registration_Estimation.obj
 0002:00001068       __real@bff0000000000000    10043068     Registration_Estimation.obj
 0002:00001080       __xmm@00000000000000003f50624dd2f1a9fc 10043080     Registration_Estimation.obj
 0002:000010a0       __xmm@00000001000000010000000100000001 100430a0     Registration_Estimation.obj
 0002:000010c0       __xmm@000001e1000000220000004100000001 100430c0     Registration_Estimation.obj
 0002:000010e0       __xmm@41f00000000000000000000000000000 100430e0     Registration_Estimation.obj
 0002:00001100       __xmm@7fffffffffffffff7fffffffffffffff 10043100     Registration_Estimation.obj
 0002:000025dc       ??_C@_0BD@KDGDPNDI@MATLAB?5Function?1p1?$AA@ 100445dc     Registration_Estimation_capi.obj
 0002:000025f4       ??_C@_04BKKAELJL@motX?$AA@ 100445f4     Registration_Estimation_capi.obj
 0002:000025fc       ??_C@_0BD@IIEOKOPL@MATLAB?5Function?1p2?$AA@ 100445fc     Registration_Estimation_capi.obj
 0002:00002614       ??_C@_04DLLHKNK@motY?$AA@  10044614     Registration_Estimation_capi.obj
 0002:0000261c       ??_C@_0BB@BJOHOPHO@MATLAB?5Function1?$AA@ 1004461c     Registration_Estimation_capi.obj
 0002:00002630       ??_C@_08MKNAGGCH@Signal?51?$AA@ 10044630     Registration_Estimation_capi.obj
 0002:0000263c       ??_C@_0BE@LPJHCECC@MATLAB?5Function2?1p2?$AA@ 1004463c     Registration_Estimation_capi.obj
 0002:00002654       ??_C@_0BE@KJNKFOFB@MATLAB?5Function3?1p1?$AA@ 10044654     Registration_Estimation_capi.obj
 0002:0000266c       ??_C@_0BE@ICPHANJC@MATLAB?5Function3?1p2?$AA@ 1004466c     Registration_Estimation_capi.obj
 0002:00002684       ??_C@_03LCFCCKMA@Abs?$AA@  10044684     Registration_Estimation_capi.obj
 0002:00002688       ??_C@_08LJDLLPJB@Y?5enable?$AA@ 10044688     Registration_Estimation_capi.obj
 0002:00002694       ??_C@_04FNILJHCI@Abs1?$AA@ 10044694     Registration_Estimation_capi.obj
 0002:0000269c       ??_C@_08GBPNJCEO@X?5Enable?$AA@ 1004469c     Registration_Estimation_capi.obj
 0002:000026a8       ??_C@_04HGKGMEOL@Abs2?$AA@ 100446a8     Registration_Estimation_capi.obj
 0002:000026b0       ??_C@_0BB@DMEKLGEA@Data?5Store?5Read2?$AA@ 100446b0     Registration_Estimation_capi.obj
 0002:000026c4       ??_C@_0BB@CFFBIHAB@Data?5Store?5Read3?$AA@ 100446c4     Registration_Estimation_capi.obj
 0002:000026d8       ??_C@_07NBIGLNNE@Voltage?$AA@ 100446d8     Registration_Estimation_capi.obj
 0002:000026e4       ??_C@_09KGGNCPDB@VoltageY?5?$AA@ 100446e4     Registration_Estimation_capi.obj
 0002:000026f0       ??_C@_08EHDCJHMC@Voltage1?$AA@ 100446f0     Registration_Estimation_capi.obj
 0002:000026fc       ??_C@_09DAEBENAE@x?5Voltage?$AA@ 100446fc     Registration_Estimation_capi.obj
 0002:00002708       ??_C@_08GMBPMEAB@Voltage2?$AA@ 10044708     Registration_Estimation_capi.obj
 0002:00002714       ??_C@_06NCIFHNFG@Y?5Data?$AA@ 10044714     Registration_Estimation_capi.obj
 0002:0000271c       ??_C@_06HEPCHGOC@X?5Data?$AA@ 1004471c     Registration_Estimation_capi.obj
 0002:00002724       ??_C@_0BB@BHLBHFIE@Byte?5Unpacking?51?$AA@ 10044724     Registration_Estimation_capi.obj
 0002:00002738       ??_C@_09GDHNBGIO@orce?5Data?$AA@ 10044738     Registration_Estimation_capi.obj
 0002:00002744       ??_C@_06JMEOMOEA@counts?$AA@ 10044744     Registration_Estimation_capi.obj
 0002:0000274c       ??_C@_0N@GFDFJHHC@Receive?51?1p1?$AA@ 1004474c     Registration_Estimation_capi.obj
 0002:0000275c       ??_C@_0N@EOBIMELB@Receive?51?1p2?$AA@ 1004475c     Registration_Estimation_capi.obj
 0002:0000276c       ??_C@_04LGKGJOPM@Sign?$AA@ 1004476c     Registration_Estimation_capi.obj
 0002:00002774       ??_C@_05HCOABPBL@Sign1?$AA@ 10044774     Registration_Estimation_capi.obj
 0002:0000277c       ??_C@_05FJMNEMNI@Sign2?$AA@ 1004477c     Registration_Estimation_capi.obj
 0002:00002784       ??_C@_04JMNNLCJG@Sum1?$AA@ 10044784     Registration_Estimation_capi.obj
 0002:0000278c       ??_C@_04LHPAOBFF@Sum2?$AA@ 1004478c     Registration_Estimation_capi.obj
 0002:00002794       ??_C@_04KOOLNABE@Sum3?$AA@ 10044794     Registration_Estimation_capi.obj
 0002:0000279c       ??_C@_0BC@HLOAMCHO@Data?5Store?5Memory?$AA@ 1004479c     Registration_Estimation_capi.obj
 0002:000027b4       ??_C@_0N@DKJJGJMJ@InitialValue?$AA@ 100447b4     Registration_Estimation_capi.obj
 0002:000027c4       ??_C@_0BD@HBJLLLEL@Data?5Store?5Memory1?$AA@ 100447c4     Registration_Estimation_capi.obj
 0002:000027dc       ??_C@_0BD@FKLGOIII@Data?5Store?5Memory2?$AA@ 100447dc     Registration_Estimation_capi.obj
 0002:000027f4       ??_C@_0BD@EDKNNJMJ@Data?5Store?5Memory3?$AA@ 100447f4     Registration_Estimation_capi.obj
 0002:0000280c       ??_C@_0BB@GDNBGGCP@encoder?5offsets1?$AA@ 1004480c     Registration_Estimation_capi.obj
 0002:00002820       ??_C@_05LPIJGKJ@Value?$AA@ 10044820     Registration_Estimation_capi.obj
 0002:00002828       ??_C@_0BB@EIPMDFOM@encoder?5offsets2?$AA@ 10044828     Registration_Estimation_capi.obj
 0002:0000283c       ??_C@_0BB@FBOHAEKN@encoder?5offsets3?$AA@ 1004483c     Registration_Estimation_capi.obj
 0002:00002850       ??_C@_04OMOMKKFL@Gain?$AA@ 10044850     Registration_Estimation_capi.obj
 0002:00002858       ??_C@_02KKFPAPOP@P1?$AA@   10044858     Registration_Estimation_capi.obj
 0002:0000285c       ??_C@_02IBHCFMCM@P2?$AA@   1004485c     Registration_Estimation_capi.obj
 0002:00002860       ??_C@_02JIGJGNGN@P3?$AA@   10044860     Registration_Estimation_capi.obj
 0002:00002864       ??_C@_02NHCIPLKK@P4?$AA@   10044864     Registration_Estimation_capi.obj
 0002:00002868       ??_C@_02MODDMKOL@P5?$AA@   10044868     Registration_Estimation_capi.obj
 0002:0000286c       ??_C@_02OFBOJJCI@P6?$AA@   1004486c     Registration_Estimation_capi.obj
 0002:00002870       ??_C@_02PMAFKIGJ@P7?$AA@   10044870     Registration_Estimation_capi.obj
 0002:00002874       ??_C@_02HLJNLEKG@P8?$AA@   10044874     Registration_Estimation_capi.obj
 0002:00002878       ??_C@_02GCIGIFOH@P9?$AA@   10044878     Registration_Estimation_capi.obj
 0002:0000287c       ??_C@_03OPFJJGBF@P10?$AA@  1004487c     Registration_Estimation_capi.obj
 0002:00002880       ??_C@_03PGECKHFE@P11?$AA@  10044880     Registration_Estimation_capi.obj
 0002:00002884       ??_C@_03NNGPPEJH@P12?$AA@  10044884     Registration_Estimation_capi.obj
 0002:00002888       ??_C@_03MEHEMFNG@P13?$AA@  10044888     Registration_Estimation_capi.obj
 0002:0000288c       ??_C@_03ILDFFDBB@P14?$AA@  1004488c     Registration_Estimation_capi.obj
 0002:00002890       ??_C@_03JCCOGCFA@P15?$AA@  10044890     Registration_Estimation_capi.obj
 0002:00002894       ??_C@_03LJADDBJD@P16?$AA@  10044894     Registration_Estimation_capi.obj
 0002:00002898       ??_C@_03KABIAANC@P17?$AA@  10044898     Registration_Estimation_capi.obj
 0002:0000289c       ??_C@_03CHIABMBN@P18?$AA@  1004489c     Registration_Estimation_capi.obj
 0002:000028a0       ??_C@_03DOJLCNFM@P19?$AA@  100448a0     Registration_Estimation_capi.obj
 0002:000028a4       ??_C@_03ONBPCIEM@P20?$AA@  100448a4     Registration_Estimation_capi.obj
 0002:000028a8       ??_C@_03PEAEBJAN@P21?$AA@  100448a8     Registration_Estimation_capi.obj
 0002:000028ac       ??_C@_03NPCJEKMO@P22?$AA@  100448ac     Registration_Estimation_capi.obj
 0002:000028b0       ??_C@_03MGDCHLIP@P23?$AA@  100448b0     Registration_Estimation_capi.obj
 0002:000028b4       ??_C@_03IJHDONEI@P24?$AA@  100448b4     Registration_Estimation_capi.obj
 0002:000028b8       ??_C@_03JAGINMAJ@P25?$AA@  100448b8     Registration_Estimation_capi.obj
 0002:000028bc       ??_C@_03LLEFIPMK@P26?$AA@  100448bc     Registration_Estimation_capi.obj
 0002:000028c0       ??_C@_03KCFOLOIL@P27?$AA@  100448c0     Registration_Estimation_capi.obj
 0002:000028c4       ??_C@_03CFMGKCEE@P28?$AA@  100448c4     Registration_Estimation_capi.obj
 0002:000028c8       ??_C@_03DMNNJDAF@P29?$AA@  100448c8     Registration_Estimation_capi.obj
 0002:000028cc       ??_C@_03OMNNECHL@P30?$AA@  100448cc     Registration_Estimation_capi.obj
 0002:000028d0       ??_C@_03PFMGHDDK@P31?$AA@  100448d0     Registration_Estimation_capi.obj
 0002:000028d4       ??_C@_03NOOLCAPJ@P32?$AA@  100448d4     Registration_Estimation_capi.obj
 0002:000028d8       ??_C@_03MHPABBLI@P33?$AA@  100448d8     Registration_Estimation_capi.obj
 0002:000028dc       ??_C@_03IILBIHHP@P34?$AA@  100448dc     Registration_Estimation_capi.obj
 0002:000028e0       ??_C@_03JBKKLGDO@P35?$AA@  100448e0     Registration_Estimation_capi.obj
 0002:000028e4       ??_C@_06BNJCAIGJ@double?$AA@ 100448e4     Registration_Estimation_capi.obj
 0002:000028ec       ??_C@_06CNMIJIPB@real_T?$AA@ 100448ec     Registration_Estimation_capi.obj
 0002:000028f4       ??_C@_0O@PPAIJIHF@unsigned?5char?$AA@ 100448f4     Registration_Estimation_capi.obj
 0002:00002904       ??_C@_07NCEHLPOC@uint8_T?$AA@ 10044904     Registration_Estimation_capi.obj
 0002:00002910       ??_C@_05KNFBNCOH@float?$AA@ 10044910     Registration_Estimation_capi.obj
 0002:00002918       ??_C@_0CJ@GGPBKPNK@Could?5not?5start?5ToAsyncQueue?5app@ 10044918     Registration_Estimation_tgtconn.obj
 0002:000031b0       ??_C@_0DJ@FHKINPLE@Unexpected?5itemKind?5?$DN?5DATA_ITEM?5@ 100451b0     rt_logging.obj
 0002:000031f4       ??_C@_0DA@IEHFPFCJ@Unexpected?5itemKind?$DN?$CFd?5in?5rt_Pro@ 100451f4     rt_logging.obj
 0002:00003230       ??_C@_0DA@IFLHJPBO@Unexpected?5itemKind?$DN?$CFd?5in?5rt_Pro@ 10045230     rt_logging.obj
 0002:0000326c       ??_C@_0DA@IAPIIJJL@Unexpected?5itemKind?$DN?$CFd?5in?5rt_Pro@ 1004526c     rt_logging.obj
 0002:000032a8       ??_C@_0BE@LCIGPJIG@MATLAB?55?40?5MAT?9file?$AA@ 100452a8     rt_logging.obj
 0002:000032c0       ??_C@_0FB@PCJEAJIB@?$CK?$CK?$CK?5Log?5variable?5?$CFs?5has?5wrapped?5@ 100452c0     rt_logging.obj
 0002:00003328       ??_C@_0MG@NKMLMOGF@?$CK?$CK?$CK?5To?5avoid?5wrapping?0?5explicitl@ 10045328     rt_logging.obj
 0002:00003418       ??_C@_0N@IPAEOLLP@_rtw_tmw?4tmw?$AA@ 10045418     rt_logging.obj
 0002:00003428       ??_C@_04HDOCAJNK@?$CFs?$CFs?$AA@ 10045428     rt_logging.obj
 0002:00003430       ??_C@_03ELIABIOC@w?$CLb?$AA@ 10045430     rt_logging.obj
 0002:00003434       ??_C@_0BF@JPILDDFA@?$CK?$CK?$CK?5Error?5opening?5?$CFs?$AA@ 10045434     rt_logging.obj
 0002:00003450       ??_C@_0BK@EEMDELA@unable?5to?5open?5data?5file?6?$AA@ 10045450     rt_logging.obj
 0002:00003470       ??_C@_04CGFJFPFD@none?$AA@ 10045470     rt_logging.obj
 0002:00003478       ??_C@_0EE@LCGFPNON@?$CK?$CK?$CK?5Error?5creating?5signals?5struc@ 10045478     rt_logging.obj
 0002:000034cc       ??_C@_0CE@NHECEDMK@?$CK?$CK?$CK?5Error?5creating?5log?5variable?5@ 100454cc     rt_logging.obj
 0002:000034f8       ??_C@_0DB@IOCGKAGH@?$CK?$CK?$CK?5Errors?5occurred?5when?5startin@ 100454f8     rt_logging.obj
 0002:00003534       ??_C@_0BO@BBLOGEBK@?$CK?$CK?$CK?5Memory?5allocation?5error?4?6?$AA@ 10045534     rt_logging.obj
 0002:00003558       ??_C@_0N@LGFBAGEL@?5?$CIreal?5part?$CJ?$AA@ 10045558     rt_logging.obj
 0002:00003568       ??_C@_0KH@CGNMHNFE@?5?5?5?5varName?5?5?5?5?5?5?5?5?5?5?$DN?5?$CFs?$CFs?6?5?5?5?5@ 10045568     rt_logging.obj
 0002:00003630       ??_C@_0LE@OALKKEFM@?5?5?5?5varName?5?5?5?5?5?5?5?5?5?5?$DN?5?$CFs?5?$CIcompl@ 10045630     rt_logging.obj
 0002:00003708       ??_C@_0KF@JDDLEOKO@?5?5?5?5varName?5?5?5?5?5?5?5?5?5?5?$DN?5?$CFs?6?5?5?5?5nR@ 10045708     rt_logging.obj
 0002:000037d0       ??_C@_0DP@HPDMIOFM@?$CK?$CK?$CK?5Using?5a?5default?5buffer?5of?5si@ 100457d0     rt_logging.obj
 0002:00003820       ??_C@_0KE@JEFOLKNF@?6?$CK?$CK?$CK?5Memory?5required?5to?5log?5vari@ 10045820     rt_logging.obj
 0002:000038e8       ??_C@_0JP@DKLMHCBI@?$CK?$CK?$CK?5Details?3?6?5?5?5?5?5?5?5varName?5?5?5?5?5@ 100458e8     rt_logging.obj
 0002:000039a8       ??_C@_0CM@CAMILBED@?$CK?$CK?$CK?5Error?5allocating?5memory?5for?5@ 100459a8     rt_logging.obj
 0002:000039dc       ??_C@_0DF@BBCNMOPM@?$CK?$CK?$CK?5Error?5allocating?5memory?5for?5@ 100459dc     rt_logging.obj
 0002:00003a20       ??_C@_0JP@DBCLPCCI@?$CK?$CK?$CK?5Details?3?6?5?5?5?5?5?5?5varName?5?5?5?5?5@ 10045a20     rt_logging.obj
 0002:00003ae0       ??_C@_0FK@DPGAOBGA@?$CK?$CK?$CK?5Error?5allocating?5memory?5for?5@ 10045ae0     rt_logging.obj
 0002:00003b4c       ??_C@_0BI@GGDNPHLJ@?$CK?$CK?$CK?5Error?5writing?5to?5?$CFs?$AA@ 10045b4c     rt_logging.obj
 0002:00003b68       ??_C@_0CB@IBGJGELG@?$CK?$CK?$CK?5Error?5writing?5?$CFs?5due?5to?3?5?$CFs?6@ 10045b68     rt_logging.obj
 0002:00003b90       ??_C@_0CN@FLMCHCPB@?$CK?$CK?$CK?5Error?5writing?5log?5variable?5?$CF@ 10045b90     rt_logging.obj
 0002:00003bc8       ??_C@_0DH@GAJCNOJP@?$CK?$CK?$CK?5Error?5writing?5structure?5log?5@ 10045bc8     rt_logging.obj
 0002:00003c0c       ??_C@_0BD@POEALECL@?$CK?$CK?5created?5?$CFs?5?$CK?$CK?6?6?$AA@ 10045c0c     rt_logging.obj
 0002:00003c28       __real@0000000000000000    10045c28     rt_logging.obj
 0002:00003c38       __real@4020000000000000    10045c38     rt_logging.obj
 0002:00003c48       __real@41dfffffffc00000    10045c48     rt_logging.obj
 0002:00003c58       __real@41efffffffe00000    10045c58     rt_logging.obj
 0002:00003c68       __real@4330000000000000    10045c68     rt_logging.obj
 0002:00003c78       __real@8000000000000000    10045c78     rt_logging.obj
 0002:00003c88       __real@bfbf9add3afd2773    10045c88     rt_logging.obj
 0002:00003c98       __real@c000000000000000    10045c98     rt_logging.obj
 0002:00003cb0       __xmm@20202020202020202020202020202020 10045cb0     rt_logging.obj
 0002:00003ce0       __real@3cb0000000000000    10045ce0     rt_matrx.obj
 0002:00003cf0       __real@3fe0000000000000    10045cf0     rt_matrx.obj
 0002:00003cfc       ??_C@_0BI@INNPNFJN@Memory?5Allocation?5Error?$AA@ 10045cfc     rtw_modelmap_utils.obj
 0002:00003d18       ??_C@_1HC@OAPLBLFC@?$AAC?$AA?3?$AA?2?$AAP?$AAR?$AAO?$AAG?$AAR?$AAA?$AA?$HO?$AA1?$AA?2?$AAM?$AAA?$AAT?$AAL?$AAA?$AAB?$AA?2?$AAR?$AA2?$AA0?$AA1?$AA6?$AAa?$AA?2?$AAr?$AAt?$AAw?$AA?2?$AAc?$AA?2@ 10045d18     rtw_modelmap_utils.obj
 0002:00003da0       ??_C@_1CI@OEAJCJND@?$AAj?$AA?5?$AA?$DN?$AA?$DN?$AA?5?$AAe?$AAn?$AAc?$AAo?$AAd?$AAe?$AAd?$AAP?$AAa?$AAt?$AAh?$AAL?$AAe?$AAn?$AA?$AA@ 10045da0     rtw_modelmap_utils.obj
 0002:00003dd0       ??_C@_1DC@NFAOIFKB@?$AAe?$AAn?$AAc?$AAo?$AAd?$AAe?$AAd?$AAP?$AAa?$AAt?$AAh?$AA?$FL?$AAj?$AA?9?$AA1?$AA?$FN?$AA?5?$AA?$DN?$AA?$DN?$AA?5?$AA?8?$AA?2?$AA0?$AA?8?$AA?$AA@ 10045dd0     rtw_modelmap_utils.obj
 0002:00003e0c       ??_C@_1DI@FLNJGPEE@?$AAs?$AAi?$AAg?$AAC?$AAo?$AAm?$AAp?$AAl?$AAe?$AAx?$AAi?$AAt?$AAy?$AA?$FL?$AA?$CK?$AAs?$AAi?$AAg?$AAI?$AAd?$AAx?$AA?$FN?$AA?5?$AA?$CB?$AA?$DN?$AA?5?$AA1?$AA?$AA@ 10045e0c     rtw_modelmap_utils.obj
 0002:00003e50       ??_C@_1KI@OFELMGBG@?$AA?$CI?$AA?$CI?$AA?$CI?$AAd?$AAa?$AAt?$AAa?$AAT?$AAy?$AAp?$AAe?$AAM?$AAa?$AAp?$AA?$CJ?$AA?$FL?$AA?$CI?$AA?$CI?$AA?$CI?$AAs?$AAt?$AAa?$AAt?$AAe?$AAs?$AA?$CJ?$AA?$FL?$AA?$CI?$AAi?$AA?$CJ?$AA?$FN?$AA?4@ 10045e50     rtw_modelmap_utils.obj
 0002:00003f1c       ??_C@_1DA@ILCMPHNE@?$AAf?$AAu?$AAl?$AAl?$AAP?$AAa?$AAt?$AAh?$AA?5?$AA?$CB?$AA?$DN?$AA?5?$AA?$CI?$AA?$CI?$AAv?$AAo?$AAi?$AAd?$AA?5?$AA?$CK?$AA?$CJ?$AA0?$AA?$CJ?$AA?$AA@ 10045f1c     rtw_modelmap_utils.obj
 0002:00003f58       ??_C@_1CI@OEPPFCCA@?$AAp?$AAa?$AAt?$AAh?$AA?5?$AA?$CB?$AA?$DN?$AA?5?$AA?$CI?$AA?$CI?$AAv?$AAo?$AAi?$AAd?$AA?5?$AA?$CK?$AA?$CJ?$AA0?$AA?$CJ?$AA?$AA@ 10045f58     rtw_modelmap_utils.obj
 0002:00003f88       ??_C@_1FK@GLJIMFHB@?$AA?$CI?$AA?$CI?$AAm?$AAm?$AAi?$AA?$CJ?$AA?9?$AA?$DO?$AAI?$AAn?$AAs?$AAt?$AAa?$AAn?$AAc?$AAe?$AAM?$AAa?$AAp?$AA?4?$AAf?$AAu?$AAl?$AAl?$AAP?$AAa?$AAt?$AAh?$AA?$CJ?$AA?5?$AA?$DN?$AA?$DN@ 10045f88     rtw_modelmap_utils.obj
 0002:00003ff4       ??_C@_1DG@HPCJGNCE@?$AAm?$AAm?$AAi?$AAP?$AAa?$AAt?$AAh?$AA?$FL?$AAp?$AAa?$AAt?$AAh?$AAL?$AAe?$AAn?$AA?9?$AA1?$AA?$FN?$AA?5?$AA?$DN?$AA?$DN?$AA?5?$AA?8?$AA?2?$AA0?$AA?8?$AA?$AA@ 10045ff4     rtw_modelmap_utils.obj
 0002:00004034       ??_C@_1DM@DBAOGGOO@?$AAm?$AAm?$AAi?$AAP?$AAa?$AAt?$AAh?$AA?$FL?$AAm?$AAm?$AAi?$AAP?$AAa?$AAt?$AAh?$AAL?$AAe?$AAn?$AA?9?$AA1?$AA?$FN?$AA?5?$AA?$DN?$AA?$DN?$AA?5?$AA?8?$AA?2?$AA0?$AA?8?$AA?$AA@ 10046034     rtw_modelmap_utils.obj
 0002:0000407c       ??_C@_1DC@LHIAKAFE@?$AAb?$AAl?$AAo?$AAc?$AAk?$AAP?$AAa?$AAt?$AAh?$AA?5?$AA?$CB?$AA?$DN?$AA?5?$AA?$CI?$AA?$CI?$AAv?$AAo?$AAi?$AAd?$AA?5?$AA?$CK?$AA?$CJ?$AA0?$AA?$CJ?$AA?$AA@ 1004607c     rtw_modelmap_utils.obj
 0002:000040b8       ??_C@_1GI@KIEJKPGC@?$AAf?$AAu?$AAl?$AAl?$AAS?$AAt?$AAa?$AAt?$AAe?$AAB?$AAl?$AAo?$AAc?$AAk?$AAP?$AAa?$AAt?$AAh?$AA?$FL?$AAf?$AAu?$AAl?$AAl?$AAS?$AAt?$AAa?$AAt?$AAe?$AAB?$AAl?$AAo?$AAc@ 100460b8     rtw_modelmap_utils.obj
 0002:00004138       ??_C@_1EE@DNPIBJHC@?$AA?$CI?$AA?$CI?$AAd?$AAi?$AAm?$AAM?$AAa?$AAp?$AA?$CJ?$AA?$FL?$AA?$CI?$AAm?$AAa?$AAp?$AAI?$AAd?$AAx?$AA?$CJ?$AA?$FN?$AA?4?$AAn?$AAu?$AAm?$AAD?$AAi?$AAm?$AAs?$AA?$CJ?$AA?5?$AA?$DN?$AA?$DN?$AA?5@ 10046138     rtw_modelmap_utils.obj
 0002:0000418c       ??_C@_06JFOKFOED@CSTATE?$AA@ 1004618c     rtw_modelmap_utils.obj
 0002:00004194       ??_C@_06FAENGAMN@DSTATE?$AA@ 10046194     rtw_modelmap_utils.obj
 0002:0000419c       ??_C@_1BI@LEBJNOGG@?$AAc?$AAs?$AAv?$AAI?$AAd?$AAx?$AA?5?$AA?$DO?$AA?$DN?$AA?5?$AA0?$AA?$AA@ 1004619c     rtw_modelmap_utils.obj
 0002:000041b8       ??_C@_1BA@KDMGHCHP@?$AAT?$AAI?$AAD?$AA?$DN?$AA?$DN?$AA?9?$AA1?$AA?$AA@ 100461b8     rtw_modelmap_utils.obj
 0002:000041cc       ??_C@_1DM@DHGKBPCE@?$AAs?$AAi?$AAg?$AAP?$AAa?$AAt?$AAh?$AA?$FL?$AAs?$AAi?$AAg?$AAP?$AAa?$AAt?$AAh?$AAL?$AAe?$AAn?$AA?9?$AA1?$AA?$FN?$AA?5?$AA?$DN?$AA?$DN?$AA?5?$AA?8?$AA?2?$AA0?$AA?8?$AA?$AA@ 100461cc     rtw_modelmap_utils.obj
 0002:00004214       _serialfifoground          10046214     xpc_datatype_ground.obj
 0002:00004220       _bcmsg1553ground           10046220     xpc_datatype_ground.obj
 0002:00004230       _bcstatground              10046230     xpc_datatype_ground.obj
 0002:00004248       _bmmsg1553ground           10046248     xpc_datatype_ground.obj
 0002:00004268       _ptsetfilename             10046268     xpctarget.obj
 0002:0000426c       _xmlfile                   1004626c     xpctarget.obj
 0002:00004274       ??_C@_0BI@CLOLHENL@Registration_Estimation?$AA@ 10046274     xpctarget.obj
 0002:00004290       ??_C@_0L@CHBJKKFC@xpceSetVar?$AA@ 10046290     xpctarget.obj
 0002:000042a0       ??_C@_03ICACBPID@6?44?$AA@ 100462a0     xpctarget.obj
 0002:000042a8       __real@3fb999999999999a    100462a8     xpctarget.obj
 0002:000042b8       __real@408f400000000000    100462b8     xpctarget.obj
 0002:000042c8       _Registration_Estimation_BIOMAP 100462c8     appmappingData.obj
 0002:00004460       _Registration_Estimation_LBLMAP 10046460     appmappingData.obj
 0002:000045f8       _Registration_Estimation_SIDMAP 100465f8     appmappingData.obj
 0002:00004790       _Registration_Estimation_SBIO 10046790     appmappingData.obj
 0002:00004818       _Registration_Estimation_SLBL 10046818     appmappingData.obj
 0002:000048a0       _Registration_Estimation_PTIDSMAP 100468a0     appmappingData.obj
 0002:00004da8       _Registration_Estimation_PTNAMESMAP 10046da8     appmappingData.obj
 0002:000052b0       _Registration_Estimation_SPTMAP 100472b0     appmappingData.obj
 0002:00005534       _Registration_Estimation_dtmap 10047534     appmappingData.obj
 0002:00005550       _appInfo                   10047550     appmappingData.obj
 0002:00005960       ??_C@_0ED@LKHIFFLC@Wrong?5number?5of?5input?5arguments?5@ 10047960     xpcudpbytereceive.obj
 0002:000059b0       ??_C@_0CN@MHEKKFIE@Output?5port?5width?5argument?5must?5@ 100479b0     xpcudpbytereceive.obj
 0002:000059e8       ??_C@_0DC@KNMLNALJ@Error?5in?5udpbytereceive?3?5memory?5@ 100479e8     xpcudpbytereceive.obj
 0002:00005a24       ??_C@_0CI@CAMPNCMJ@Error?3?5No?5UDP?5channel?5free?5or?5UD@ 10047a24     xpcudpbytereceive.obj
 0002:00005a54       ??_C@_0BE@CKBAIFD@encconteccnt328mpci?$AA@ 10047a54     encconteccnt328mpci.obj
 0002:00005a6c       ??_C@_0CG@PDPCNMMO@?$CFs?3?5?$CFd?5input?5args?5expected?0?5?$CFd?5p@ 10047a6c     encconteccnt328mpci.obj
 0002:00005a9c       ??_C@_07GNCCFEIM@?$CFs?$CI?$CFd?$CJ?6?$AA@ 10047a9c     encconteccnt328mpci.obj
 0002:00005aa8       ??_C@_0CE@CLLJOMGM@?$CFs?$CI?$CFd?$CJ?5Sample?5Time?5?$CFf?5?$CIChannel?5?$CF@ 10047aa8     encconteccnt328mpci.obj
 0002:00005ad4       ??_C@_0CK@NDIIACOD@?$CFs?$CI?$CFd?$CJ?5PCI?5Bus?5?$CFd?5?5?5Slot?5?$CFd?5?5?5Ch@ 10047ad4     encconteccnt328mpci.obj
 0002:00005b08       ??_C@_0CO@OADOCJBA@?$CFs?3?5CNT32?98M?$CIPCI?$CJ?5not?5found?5at?5b@ 10047b08     encconteccnt328mpci.obj
 0002:00005b40       ??_C@_0CB@GGINOLOG@?5?5?5Initial?5Value?3?50x?$CFx?5Load?3?5?$CFd?6@ 10047b40     encconteccnt328mpci.obj
 0002:00005b68       ??_C@_0BL@JCCHIDDO@?5?5?5Start?5Method?3?5?$CFd?5?$CI0x?$CFx?$CJ?$AA@ 10047b68     encconteccnt328mpci.obj
 0002:00005b88       ??_C@_0BL@ONAHILHM@?5?5?5Stop?5Method?3?5?$CFd?5?$CI0x?$CFx?$CJ?6?$AA@ 10047b88     encconteccnt328mpci.obj
 0002:00005ba8       ??_C@_0BO@DJDJGILF@?5?5?5Input?5Signal?3?50x?$CFx?5?$CI0x?$CFx?$CJ?6?$AA@ 10047ba8     encconteccnt328mpci.obj
 0002:00005bd0       ??_C@_0GI@GFJKDDOK@?5?5?5Input?5Signal?5Overloaded?5?$CIStar@ 10047bd0     encconteccnt328mpci.obj
 0002:00005c4c       ??_C@_0DK@GPOKCJIM@?5?5?5Rise?1Fall?1Match?50?1Match?51?5?5?5P@ 10047c4c     encconteccnt328mpci.obj
 0002:00005c94       ??_C@_0CD@KKOOHPOD@?5?5?5Zero?9Clear?3?5?$CFd?1?$CFd?1?$CFd?1?$CFd?5?$CI0x?$CFx@ 10047c94     encconteccnt328mpci.obj
 0002:00005cc0       ??_C@_0DC@FPLMBIJB@?5?5?5Match?50?5Overloaded?5?$CIPreset?1Ze@ 10047cc0     encconteccnt328mpci.obj
 0002:00005cfc       ??_C@_0DC@LHKLIIDA@?5?5?5Match?51?5Overloaded?5?$CIPreset?1Ze@ 10047cfc     encconteccnt328mpci.obj
 0002:00005d38       ??_C@_0BO@EIIFPMDO@?5?5?5Digital?5Filter?3?5?$CFd?5?$CI0x?$CFx?$CJ?6?$AA@ 10047d38     encconteccnt328mpci.obj
 0002:00005d5c       ??_C@_0BL@OJPKOPMK@?5?5?5Index?5Logic?3?5?$CFd?5?$CI0x?$CFx?$CJ?6?$AA@ 10047d5c     encconteccnt328mpci.obj
 0002:00005d7c       ??_C@_0BL@JKPAGFND@?5?5?5Pulse?5Input?3?5?$CFd?5?$CI0x?$CFx?$CJ?6?$AA@ 10047d7c     encconteccnt328mpci.obj
 0002:00005d9c       ??_C@_0BJ@GNILLNEI@?5?5?5Direction?3?5?$CFd?5?$CI0x?$CFx?$CJ?6?$AA@ 10047d9c     encconteccnt328mpci.obj
 0002:00005dbc       ??_C@_0BO@DKFKJOII@?5?5?5Operation?5Mode?3?5?$CFd?5?$CI0x?$CFx?$CJ?6?$AA@ 10047dbc     encconteccnt328mpci.obj
 0002:00005de0       ??_C@_0BH@DBDDMMGO@?5?5?5COUNTER?5MODE?3?50x?$CFx?6?$AA@ 10047de0     encconteccnt328mpci.obj
 0002:00005dfc       ??_C@_0BG@PGOHHDMJ@?5?5?5Preset?5Value?3?50x?$CFx?$AA@ 10047dfc     encconteccnt328mpci.obj
 0002:00005e18       ??_C@_0BH@OBCHHCLB@?5?5?5Match?50?5Value?3?50x?$CFx?$AA@ 10047e18     encconteccnt328mpci.obj
 0002:00005e34       ??_C@_0BI@PPJDJHAK@?5?5?5Match?51?5Value?3?50x?$CFx?6?$AA@ 10047e34     encconteccnt328mpci.obj
 0002:00005e50       ??_C@_0CB@BHICGGII@?5?5?5One?5Shot?5Duration?3?5?$CFd?5?$CI0x?$CFx?$CJ?6@ 10047e50     encconteccnt328mpci.obj
 0002:00005e78       ??_C@_0FK@MHKNLCPD@?5?5?5Output?5Signal?5?$CIMatch?50?11?5Abno@ 10047e78     encconteccnt328mpci.obj
 0002:00005ee4       ??_C@_0BB@JCAIALPL@?5?5?5OUTPUT?3?50x?$CFx?6?$AA@ 10047ee4     encconteccnt328mpci.obj
 0002:00005ef8       ??_C@_0BM@KEHJNHBI@?5?5?5Index?5Enable?3?5?$CFd?5?$CI0x?$CFx?$CJ?6?$AA@ 10047ef8     encconteccnt328mpci.obj
 0002:00005f1c       ??_C@_0BC@PJJJOOAA@?5?5?5Z?9PULSE?3?50x?$CFx?6?$AA@ 10047f1c     encconteccnt328mpci.obj
 0002:00005f34       ??_C@_0CH@LIFPIGPB@?5?5?5Enable?5Digital?5Input?3?5?$CFd?5Outp@ 10047f34     encconteccnt328mpci.obj
 0002:00005f64       ??_C@_0DF@HCJHNGFD@?5?5?5Digital?5Output?5Initial?5Value?3@ 10047f64     encconteccnt328mpci.obj
 0002:00005fa4       ??_C@_0CP@CNANCOON@?5?5?5External?5Output?5Signal?5Overlo@ 10047fa4     encconteccnt328mpci.obj
 0002:00005fdc       ??_C@_0BC@MPAJBIJ@CB?5PCI?9DAS1602?116?$AA@ 10047fdc     dopci8255.obj
 0002:00005ff4       ??_C@_0P@HKDMEDDF@CB?5PCI?9DAS1200?$AA@ 10047ff4     dopci8255.obj
 0002:00006008       ??_C@_0BC@NLEKMPOI@CB?5PCI?9DAS1200?1JR?$AA@ 10048008     dopci8255.obj
 0002:00006020       ??_C@_0O@OECMNDND@CB?5PCI?9DIO48H?$AA@ 10048020     dopci8255.obj
 0002:00006030       ??_C@_0BA@MBPMNBMJ@CB?5PCI?9DDA02?112?$AA@ 10048030     dopci8255.obj
 0002:00006044       ??_C@_0BA@EOLMCEGJ@CB?5PCI?9DDA04?112?$AA@ 10048044     dopci8255.obj
 0002:00006058       ??_C@_0BA@ILEMMJGI@CB?5PCI?9DDA08?112?$AA@ 10048058     dopci8255.obj
 0002:0000606c       ??_C@_0O@MIFNHFGL@CB?5PCI?9DIO24H?$AA@ 1004806c     dopci8255.obj
 0002:0000607c       ??_C@_0O@BMNICGAE@CB?5PCI?9DIO96H?$AA@ 1004807c     dopci8255.obj
 0002:0000608c       ??_C@_0N@PCCDCCJA@CB?5PCI?9DIO24?$AA@ 1004808c     dopci8255.obj
 0002:0000609c       ??_C@_0BC@GIJMFEIN@CB?5PCI?9DAS1602?112?$AA@ 1004809c     dopci8255.obj
 0002:000060b4       ??_C@_0M@DJFFBOOL@NI?5PCI?96503?$AA@ 100480b4     dopci8255.obj
 0002:000060c4       ??_C@_0O@CJHADKHB@NI?5PCI?9DIO?996?$AA@ 100480c4     dopci8255.obj
 0002:000060d4       ??_C@_0M@PLHAOKFN@NI?5PXI?96508?$AA@ 100480d4     dopci8255.obj
 0002:000060e4       ??_C@_0N@NMILOOOH@NI?5PCI?96025E?$AA@ 100480e4     dopci8255.obj
 0002:000060f4       ??_C@_0BA@CMHAIHFM@CB?5PCI?9DUAL?9AC5?$AA@ 100480f4     dopci8255.obj
 0002:00006108       ??_C@_0BA@KFJABEMN@CB?5PCI?9DDA02?116?$AA@ 10048108     dopci8255.obj
 0002:0000611c       ??_C@_0BA@CKNAOBGN@CB?5PCI?9DDA04?116?$AA@ 1004811c     dopci8255.obj
 0002:00006130       ??_C@_0BA@OPCAAMGM@CB?5PCI?9DDA08?116?$AA@ 10048130     dopci8255.obj
 0002:00006144       ??_C@_0BB@IGAELBME@CB?5PCIM?9DDA06?116?$AA@ 10048144     dopci8255.obj
 0002:00006158       ??_C@_0BD@IPMBHKCA@CB?5PCIM?9DAS1602?116?$AA@ 10048158     dopci8255.obj
 0002:00006170       ??_C@_0N@MMEAKPPD@CB?5PCI?9DIO96?$AA@ 10048170     dopci8255.obj
 0002:00006180       ??_C@_0BE@MDOBOAKD@CB?5?$CIMC?$CJ?5PCI?9DAS1001?$AA@ 10048180     dopci8255.obj
 0002:00006198       ??_C@_0BE@OIMMLDGA@CB?5?$CIMC?$CJ?5PCI?9DAS1002?$AA@ 10048198     dopci8255.obj
 0002:000061b0       ??_C@_0BI@IHCNPKCM@No?5?$CFs?5at?5bus?5?$CFd?5slot?5?$CFd?$AA@ 100481b0     dopci8255.obj
 0002:000061cc       ??_C@_0CJ@MHHCOHM@Board?5base?5address?5came?5up?50?0?5ca@ 100481cc     dopci8255.obj
 0002:00006200       ??_C@_0BG@EPCOHGPO@?$CFs?3?5board?5not?5present?$AA@ 10048200     dacbpcidda0x12.obj
 0002:0000621c       ??_C@_0CI@NFFNBHJA@?$CFs?5?$CIbus?5?$CFd?0?5slot?5?$CFd?$CJ?3?5board?5not?5@ 1004821c     dacbpcidda0x12.obj
 0002:00006250       __real@3ee4f8b588e368f1    10048250     dacbpcidda0x12.obj
 0002:00006260       __real@4004000000000000    10048260     dacbpcidda0x12.obj
 0002:00006270       __real@4024000000000000    10048270     dacbpcidda0x12.obj
 0002:00006280       __real@4034000000000000    10048280     dacbpcidda0x12.obj
 0002:00006290       __real@40b0000000000000    10048290     dacbpcidda0x12.obj
 0002:000062a0       __real@40f0000000000000    100482a0     dacbpcidda0x12.obj
 0002:000062ac       ??_C@_0CC@DMFKNLL@VendorId?5?$DN?50x?$CFx?0?5DeviceId?5?$DN?50x?$CFx@ 100482ac     xpcruntime:xpcimports.obj
 0002:000062d0       ??_C@_0DH@OHCBLNMG@Subsystem?5Device?5ID?5?$DN?50x?$CFx?6Subsy@ 100482d0     xpcruntime:xpcimports.obj
 0002:00006308       ??_C@_0BD@MMMMEFCM@Class?5Code?5?$DN?50x?$CFx?6?$AA@ 10048308     xpcruntime:xpcimports.obj
 0002:0000631c       ??_C@_0BE@OLDDDNHM@InterruptLine?5?$DN?5?$CFd?6?$AA@ 1004831c     xpcruntime:xpcimports.obj
 0002:00006330       ??_C@_0BF@OLKLEKBD@bus?5?$DN?5?$CFd?0?5slot?5?$DN?5?$CFd?6?$AA@ 10048330     xpcruntime:xpcimports.obj
 0002:00006348       ??_C@_0CE@DGLLGDFH@?5?5?5?5Phys?5?5?5Virtual?5?5?5Length?5IO?1M@ 10048348     xpcruntime:xpcimports.obj
 0002:0000636c       ??_C@_0BI@FEOPLEMG@?$CF08x?5?$CF08x?5?$CF08x?5?5?5?5?5?5?$CFc?6?$AA@ 1004836c     xpcruntime:xpcimports.obj
 0002:00006384       ??_C@_0BB@BNNCEDPC@rl32eScopeExists?$AA@ 10048384     xpcruntime:xpcimports.obj
 0002:00006398       ??_C@_0BM@FJBFEGFG@rl32eScopeExists?5not?5found?6?$AA@ 10048398     xpcruntime:xpcimports.obj
 0002:000063b4       ??_C@_0O@BNNGKJEA@rl32eDefScope?$AA@ 100483b4     xpcruntime:xpcimports.obj
 0002:000063c4       ??_C@_0BJ@CDNOENKA@rl32eDefScope?5not?5found?6?$AA@ 100483c4     xpcruntime:xpcimports.obj
 0002:000063e0       ??_C@_0P@CKNKILDP@rl32eAddSignal?$AA@ 100483e0     xpcruntime:xpcimports.obj
 0002:000063f0       ??_C@_0BK@GMJAJBAI@rl32eAddSignal?5not?5found?6?$AA@ 100483f0     xpcruntime:xpcimports.obj
 0002:0000640c       ??_C@_0BB@LDMIHGCE@rl32eGetSignalNo?$AA@ 1004840c     xpcruntime:xpcimports.obj
 0002:00006420       ??_C@_0BM@LGAMBAID@rl32eGetSignalNo?5not?5found?6?$AA@ 10048420     xpcruntime:xpcimports.obj
 0002:0000643c       ??_C@_0O@CFDGALBP@rl32eSetScope?$AA@ 1004843c     xpcruntime:xpcimports.obj
 0002:0000644c       ??_C@_0BJ@JCLHHIN@rl32eSetScope?5not?5found?6?$AA@ 1004844c     xpcruntime:xpcimports.obj
 0002:00006468       ??_C@_0P@IKMCBMHH@xpceFSScopeSet?$AA@ 10048468     xpcruntime:xpcimports.obj
 0002:00006478       ??_C@_0BK@JODJPNNH@xpceFSScopeSet?5not?5found?6?$AA@ 10048478     xpcruntime:xpcimports.obj
 0002:00006494       ??_C@_0BE@DLACEEJM@rl32eSetTargetScope?$AA@ 10048494     xpcruntime:xpcimports.obj
 0002:000064a8       ??_C@_0BP@JCHFMKPJ@rl32eSetTargetScope?5not?5found?6?$AA@ 100484a8     xpcruntime:xpcimports.obj
 0002:000064c8       ??_C@_0BJ@LIDLNDHC@rl32eSetTargetScopeSigFt?$AA@ 100484c8     xpcruntime:xpcimports.obj
 0002:000064e4       ??_C@_0CE@JLGHCFHI@rl32eSetTargetScopeSigFt?5not?5fou@ 100484e4     xpcruntime:xpcimports.obj
 0002:00006508       ??_C@_0BI@JAPOIDNG@rl32eRestartAcquisition?$AA@ 10048508     xpcruntime:xpcimports.obj
 0002:00006520       ??_C@_0CD@LLBEFFBO@rl32eRestartAcquisition?5not?5foun@ 10048520     xpcruntime:xpcimports.obj
 0002:00006544       ??_C@_0P@IEIIADJB@xpceScopeAcqOK?$AA@ 10048544     xpcruntime:xpcimports.obj
 0002:00006554       ??_C@_0BK@NJCKNFPN@xpceScopeAcqOK?5not?5found?6?$AA@ 10048554     xpcruntime:xpcimports.obj
 0002:00006570       ??_C@_0BA@IJINKAHF@xpceRegisterISR?$AA@ 10048570     xpcruntime:xpcimports.obj
 0002:00006580       ??_C@_0BL@NNDLOEJE@xpceRegisterISR?5not?5found?6?$AA@ 10048580     xpcruntime:xpcimports.obj
 0002:0000659c       ??_C@_0BC@NLBADGKF@xpceDeRegisterISR?$AA@ 1004859c     xpcruntime:xpcimports.obj
 0002:000065b0       ??_C@_0BN@DCAIKFFD@xpceDeRegisterISR?5not?5found?6?$AA@ 100485b0     xpcruntime:xpcimports.obj
 0002:000065d0       ??_C@_0P@CPGPNKEB@xpceFTReadTime?$AA@ 100485d0     xpcruntime:xpcimports.obj
 0002:000065e0       ??_C@_0BK@NMABIODN@xpceFTReadTime?5not?5found?6?$AA@ 100485e0     xpcruntime:xpcimports.obj
 0002:000065fc       ??_C@_09PHNHCHFH@xpceFTAdd?$AA@ 100485fc     xpcruntime:xpcimports.obj
 0002:00006608       ??_C@_0BF@FJLEIILA@xpceFTAdd?5not?5found?6?$AA@ 10048608     xpcruntime:xpcimports.obj
 0002:00006620       ??_C@_0P@KEODBLHO@xpceFTSubtract?$AA@ 10048620     xpcruntime:xpcimports.obj
 0002:00006630       ??_C@_0BK@HONODOKP@xpceFTSubtract?5not?5found?6?$AA@ 10048630     xpcruntime:xpcimports.obj
 0002:0000664c       ??_C@_07JPMEPILD@xpcInpB?$AA@ 1004864c     xpcruntime:xpcimports.obj
 0002:00006654       ??_C@_0BD@PGABEJOL@xpcInpB?5not?5found?6?$AA@ 10048654     xpcruntime:xpcimports.obj
 0002:00006668       ??_C@_07KIHBBOKH@xpcInpW?$AA@ 10048668     xpcruntime:xpcimports.obj
 0002:00006670       ??_C@_0BD@FPCJFMCC@xpcInpW?5not?5found?6?$AA@ 10048670     xpcruntime:xpcimports.obj
 0002:00006684       ??_C@_08KDIAJBOP@xpcInpDW?$AA@ 10048684     xpcruntime:xpcimports.obj
 0002:00006690       ??_C@_0BE@PIELDNIL@xpcInpDW?5not?5found?6?$AA@ 10048690     xpcruntime:xpcimports.obj
 0002:000066a4       ??_C@_08PJFMOIGO@xpcOutpB?$AA@ 100486a4     xpcruntime:xpcimports.obj
 0002:000066b0       ??_C@_0BE@HCKNCEKF@xpcOutpB?5not?5found?6?$AA@ 100486b0     xpcruntime:xpcimports.obj
 0002:000066c4       ??_C@_08MOOJAOHK@xpcOutpW?$AA@ 100486c4     xpcruntime:xpcimports.obj
 0002:000066d0       ??_C@_0BE@NLIFDBGM@xpcOutpW?5not?5found?6?$AA@ 100486d0     xpcruntime:xpcimports.obj
 0002:000066e4       ??_C@_09FLIEKHJG@xpcOutpDW?$AA@ 100486e4     xpcruntime:xpcimports.obj
 0002:000066f0       ??_C@_0BF@GJKLPNHB@xpcOutpDW?5not?5found?6?$AA@ 100486f0     xpcruntime:xpcimports.obj
 0002:00006708       ??_C@_0BH@EHOLELHH@xpcReserveMemoryRegion?$AA@ 10048708     xpcruntime:xpcimports.obj
 0002:00006720       ??_C@_0CC@KAAAGPI@xpcReserveMemoryRegion?5not?5found@ 10048720     xpcruntime:xpcimports.obj
 0002:00006744       ??_C@_0BA@JGPMHGAF@rl32eShowPCIDev?$AA@ 10048744     xpcruntime:xpcimports.obj
 0002:00006754       ??_C@_0BL@DDFFLNHI@rl32eShowPCIDev?5not?5found?6?$AA@ 10048754     xpcruntime:xpcimports.obj
 0002:00006770       ??_C@_0BB@KBCOJPFB@rl32eShowPCIInfo?$AA@ 10048770     xpcruntime:xpcimports.obj
 0002:00006784       ??_C@_0BM@IFDMAGLO@rl32eShowPCIInfo?5not?5found?6?$AA@ 10048784     xpcruntime:xpcimports.obj
 0002:000067a0       ??_C@_0BA@BGPAADB@rl32eGetPCIInfo?$AA@ 100487a0     xpcruntime:xpcimports.obj
 0002:000067b0       ??_C@_0BL@IGOMLDCK@rl32eGetPCIInfo?5not?5found?6?$AA@ 100487b0     xpcruntime:xpcimports.obj
 0002:000067cc       ??_C@_0BG@NJPFKFDP@rl32eGetPCIInfoAtSlot?$AA@ 100487cc     xpcruntime:xpcimports.obj
 0002:000067e4       ??_C@_0CB@BBKIPMLA@rl32eGetPCIInfoAtSlot?5not?5found?6@ 100487e4     xpcruntime:xpcimports.obj
 0002:00006808       ??_C@_0BH@OKBOPNFG@xpceAssignPCIInterrupt?$AA@ 10048808     xpcruntime:xpcimports.obj
 0002:00006820       ??_C@_0CC@CDNDNJBJ@xpceAssignPCIInterrupt?5not?5found@ 10048820     xpcruntime:xpcimports.obj
 0002:00006844       ??_C@_0BB@FCHHFAAH@rl32eInitCOMPort?$AA@ 10048844     xpcruntime:xpcimports.obj
 0002:00006858       ??_C@_0BM@DDJGKAHB@rl32eInitCOMPort?5not?5found?6?$AA@ 10048858     xpcruntime:xpcimports.obj
 0002:00006874       ??_C@_0BC@CHEEFCP@rl32eCloseCOMPort?$AA@ 10048874     xpcruntime:xpcimports.obj
 0002:00006888       ??_C@_0BN@KCOFELEM@rl32eCloseCOMPort?5not?5found?6?$AA@ 10048888     xpcruntime:xpcimports.obj
 0002:000068a8       ??_C@_0O@LLJGKFOG@rl32eSendChar?$AA@ 100488a8     xpcruntime:xpcimports.obj
 0002:000068b8       ??_C@_0BJ@JCJKDACJ@rl32eSendChar?5not?5found?6?$AA@ 100488b8     xpcruntime:xpcimports.obj
 0002:000068d4       ??_C@_0BB@OMFKCOEK@rl32eReceiveChar?$AA@ 100488d4     xpcruntime:xpcimports.obj
 0002:000068e8       ??_C@_0BM@HGAIOAND@rl32eReceiveChar?5not?5found?6?$AA@ 100488e8     xpcruntime:xpcimports.obj
 0002:00006904       ??_C@_0BI@PKEJFHMJ@rl32eReceiveBufferCount?$AA@ 10048904     xpcruntime:xpcimports.obj
 0002:0000691c       ??_C@_0CD@LNMOFLAH@rl32eReceiveBufferCount?5not?5foun@ 1004891c     xpcruntime:xpcimports.obj
 0002:00006940       ??_C@_0BA@CFIJOJPK@rl32eLineStatus?$AA@ 10048940     xpcruntime:xpcimports.obj
 0002:00006950       ??_C@_0BL@PLIDKKGI@rl32eLineStatus?5not?5found?6?$AA@ 10048950     xpcruntime:xpcimports.obj
 0002:0000696c       ??_C@_0P@MDMKIJF@rl32eSendBlock?$AA@ 1004896c     xpcruntime:xpcimports.obj
 0002:0000697c       ??_C@_0BK@KNBNFIKH@rl32eSendBlock?5not?5found?6?$AA@ 1004897c     xpcruntime:xpcimports.obj
 0002:00006998       ??_C@_0BD@PCKOKHO@xpceGetSignalValue?$AA@ 10048998     xpcruntime:xpcimports.obj
 0002:000069ac       ??_C@_0BO@GCBDJHMB@xpceGetSignalValue?5not?5found?6?$AA@ 100489ac     xpcruntime:xpcimports.obj
 0002:000069cc       ??_C@_0BB@BJONJAGA@xpceSetParameter?$AA@ 100489cc     xpcruntime:xpcimports.obj
 0002:000069e0       ??_C@_0BM@BJIKDLHA@xpceSetParameter?5not?5found?6?$AA@ 100489e0     xpcruntime:xpcimports.obj
 0002:000069fc       ??_C@_0BB@GNFDFMCM@xpceGetParameter?$AA@ 100489fc     xpcruntime:xpcimports.obj
 0002:00006a10       ??_C@_0BM@POHNKBC@xpceGetParameter?5not?5found?6?$AA@ 10048a10     xpcruntime:xpcimports.obj
 0002:00006a2c       ??_C@_0BB@CEIJLFCD@xpceGetParamDims?$AA@ 10048a2c     xpcruntime:xpcimports.obj
 0002:00006a40       ??_C@_0BM@OABDBKAO@xpceGetParamDims?5not?5found?6?$AA@ 10048a40     xpcruntime:xpcimports.obj
 0002:00006a5c       ??_C@_0L@OCBLLHBM@xpceGetTET?$AA@ 10048a5c     xpcruntime:xpcimports.obj
 0002:00006a68       ??_C@_0BG@HNOFBOB@xpceGetTET?5not?5found?6?$AA@ 10048a68     xpcruntime:xpcimports.obj
 0002:00006a80       ??_C@_0BA@FHMIOKFL@xpceUDPOpenSend?$AA@ 10048a80     xpcruntime:xpcimports.obj
 0002:00006a90       ??_C@_0BL@HNLPFEK@xpceUDPOpenSend?5not?5found?6?$AA@ 10048a90     xpcruntime:xpcimports.obj
 0002:00006aac       ??_C@_0BD@BCELJJJL@xpceUDPOpenReceive?$AA@ 10048aac     xpcruntime:xpcimports.obj
 0002:00006ac0       ??_C@_0BO@IFKJBHKC@xpceUDPOpenReceive?5not?5found?6?$AA@ 10048ac0     xpcruntime:xpcimports.obj
 0002:00006ae0       ??_C@_0M@OFPFLJGN@xpceUDPSend?$AA@ 10048ae0     xpcruntime:xpcimports.obj
 0002:00006aec       ??_C@_0BH@NOIKLPAB@xpceUDPSend?5not?5found?6?$AA@ 10048aec     xpcruntime:xpcimports.obj
 0002:00006b04       ??_C@_0P@PLFDECIN@xpceUDPReceive?$AA@ 10048b04     xpcruntime:xpcimports.obj
 0002:00006b14       ??_C@_0BK@OPJMLDLH@xpceUDPReceive?5not?5found?6?$AA@ 10048b14     xpcruntime:xpcimports.obj
 0002:00006b30       ??_C@_0N@IEHPMFME@xpceUDPClose?$AA@ 10048b30     xpcruntime:xpcimports.obj
 0002:00006b40       ??_C@_0BI@FHPFHECO@xpceUDPClose?5not?5found?6?$AA@ 10048b40     xpcruntime:xpcimports.obj
 0002:00006b58       ??_C@_0P@OKGNGAGH@xpcIsModelInit?$AA@ 10048b58     xpcruntime:xpcimports.obj
 0002:00006b68       ??_C@_0BK@DHEMLBIM@xpcIsModelInit?5not?5found?6?$AA@ 10048b68     xpcruntime:xpcimports.obj
 0002:00006b84       ??_C@_0BH@KJJLCAOJ@xpcAllocPhysicalMemory?$AA@ 10048b84     xpcruntime:xpcimports.obj
 0002:00006b9c       ??_C@_0CC@MOJPNHKL@xpcAllocPhysicalMemory?5not?5found@ 10048b9c     xpcruntime:xpcimports.obj
 0002:00006bc0       ??_C@_0BG@CBNPGAEL@xpcFreePhysicalMemory?$AA@ 10048bc0     xpcruntime:xpcimports.obj
 0002:00006bd8       ??_C@_0CB@PKJEBPOG@xpcFreePhysicalMemory?5not?5found?6@ 10048bd8     xpcruntime:xpcimports.obj
 0002:00006bfc       ??_C@_0BC@JGKNLICL@xpcGetElapsedTime?$AA@ 10048bfc     xpcruntime:xpcimports.obj
 0002:00006c10       ??_C@_0BN@OEOAHCIO@xpcGetElapsedTime?5not?5found?6?$AA@ 10048c10     xpcruntime:xpcimports.obj
 0002:00006c30       ??_C@_0M@ICBLMODA@xpcBusyWait?$AA@ 10048c30     xpcruntime:xpcimports.obj
 0002:00006c3c       ??_C@_0BH@FBOPECBI@xpcBusyWait?5not?5found?6?$AA@ 10048c3c     xpcruntime:xpcimports.obj
 0002:00006c54       ??_C@_0N@LKKJEKKA@TBCreateSpin?$AA@ 10048c54     xpcruntime:xpcimports.obj
 0002:00006c64       ??_C@_0BI@FHKMLKOE@TBCreateSpin?5not?5found?6?$AA@ 10048c64     xpcruntime:xpcimports.obj
 0002:00006c7c       ??_C@_0N@HOAJHNBD@TBDeleteSpin?$AA@ 10048c7c     xpcruntime:xpcimports.obj
 0002:00006c8c       ??_C@_0BI@BKCPAAG@TBDeleteSpin?5not?5found?6?$AA@ 10048c8c     xpcruntime:xpcimports.obj
 0002:00006ca4       ??_C@_0P@DAHDDBJG@TBTakeSpinFast?$AA@ 10048ca4     xpcruntime:xpcimports.obj
 0002:00006cb4       ??_C@_0BK@NKAIBHGB@TBTakeSpinFast?5not?5found?6?$AA@ 10048cb4     xpcruntime:xpcimports.obj
 0002:00006cd0       ??_C@_0P@FKNAAELA@TBGiveSpinFast?$AA@ 10048cd0     xpcruntime:xpcimports.obj
 0002:00006ce0       ??_C@_0BK@KGPJBJND@TBGiveSpinFast?5not?5found?6?$AA@ 10048ce0     xpcruntime:xpcimports.obj
 0002:00006cfc       ??_C@_0BE@IIGBFDHK@xpceCreateSemaphore?$AA@ 10048cfc     xpcruntime:xpcimports.obj
 0002:00006d10       ??_C@_0BP@KFBAFFKJ@xpceCreateSemaphore?5not?5found?6?$AA@ 10048d10     xpcruntime:xpcimports.obj
 0002:00006d30       ??_C@_0BC@IFNIONKJ@xpceWaitSemaphore?$AA@ 10048d30     xpcruntime:xpcimports.obj
 0002:00006d44       ??_C@_0BN@NMFAADIO@xpceWaitSemaphore?5not?5found?6?$AA@ 10048d44     xpcruntime:xpcimports.obj
 0002:00006d64       ??_C@_0BE@NNDIOBKE@xpceSignalSemaphore?$AA@ 10048d64     xpcruntime:xpcimports.obj
 0002:00006d78       ??_C@_0BP@LBANMHJP@xpceSignalSemaphore?5not?5found?6?$AA@ 10048d78     xpcruntime:xpcimports.obj
 0002:00006d98       ??_C@_0BE@MEBEKOIM@xpceDeleteSemaphore?$AA@ 10048d98     xpcruntime:xpcimports.obj
 0002:00006dac       ??_C@_0BP@OFNCKOJH@xpceDeleteSemaphore?5not?5found?6?$AA@ 10048dac     xpcruntime:xpcimports.obj
 0002:00006dcc       ??_C@_0BD@MFNDMBOF@FindUsbVideoDevice?$AA@ 10048dcc     xpcruntime:xpcimports.obj
 0002:00006de0       ??_C@_0BO@POKLDHMI@FindUsbVideoDevice?5not?5found?6?$AA@ 10048de0     xpcruntime:xpcimports.obj
 0002:00006e00       ??_C@_0BA@PLPAPNAB@GetVideoConfigs?$AA@ 10048e00     xpcruntime:xpcimports.obj
 0002:00006e10       ??_C@_0BL@DALDHKHC@GetVideoConfigs?5not?5found?6?$AA@ 10048e10     xpcruntime:xpcimports.obj
 0002:00006e2c       ??_C@_0L@GBAEMHMH@StartVideo?$AA@ 10048e2c     xpcruntime:xpcimports.obj
 0002:00006e38       ??_C@_0BG@HDCELEBP@StartVideo?5not?5found?6?$AA@ 10048e38     xpcruntime:xpcimports.obj
 0002:00006e50       ??_C@_0BA@FDNPOCLN@ReadFrameBuffer?$AA@ 10048e50     xpcruntime:xpcimports.obj
 0002:00006e60       ??_C@_0BL@JHGHPNBI@ReadFrameBuffer?5not?5found?6?$AA@ 10048e60     xpcruntime:xpcimports.obj
 0002:00006e7c       ??_C@_09FAHCLKAG@StopVideo?$AA@ 10048e7c     xpcruntime:xpcimports.obj
 0002:00006e88       ??_C@_0BF@NKGKKADL@StopVideo?5not?5found?6?$AA@ 10048e88     xpcruntime:xpcimports.obj
 0002:00006ea0       ??_C@_0O@MCPKDLLL@ConvertUImage?$AA@ 10048ea0     xpcruntime:xpcimports.obj
 0002:00006eb0       ??_C@_0BJ@PHJKOAFL@ConvertUImage?5not?5found?6?$AA@ 10048eb0     xpcruntime:xpcimports.obj
 0002:00006ecc       ??_C@_0BD@NKCBPBJJ@CreateVideoDisplay?$AA@ 10048ecc     xpcruntime:xpcimports.obj
 0002:00006ee0       ??_C@_0BO@HPPLLNFP@CreateVideoDisplay?5not?5found?6?$AA@ 10048ee0     xpcruntime:xpcimports.obj
 0002:00006f00       ??_C@_0BE@KJCKGPHA@DestroyVideoDisplay?$AA@ 10048f00     xpcruntime:xpcimports.obj
 0002:00006f14       ??_C@_0BP@FMGLJAIJ@DestroyVideoDisplay?5not?5found?6?$AA@ 10048f14     xpcruntime:xpcimports.obj
 0002:00006f34       ??_C@_0BC@HCMIMIDN@StartVideoDisplay?$AA@ 10048f34     xpcruntime:xpcimports.obj
 0002:00006f48       ??_C@_0BN@EFIEBGOO@StartVideoDisplay?5not?5found?6?$AA@ 10048f48     xpcruntime:xpcimports.obj
 0002:00006f68       ??_C@_0BB@JBBLMILG@StopVideoDisplay?$AA@ 10048f68     xpcruntime:xpcimports.obj
 0002:00006f7c       ??_C@_0BM@DBJBPLEL@StopVideoDisplay?5not?5found?6?$AA@ 10048f7c     xpcruntime:xpcimports.obj
 0002:00006f98       ??_C@_0M@MFJEGMHC@StreamVideo?$AA@ 10048f98     xpcruntime:xpcimports.obj
 0002:00006fa4       ??_C@_0BH@OINCDMLA@StreamVideo?5not?5found?6?$AA@ 10048fa4     xpcruntime:xpcimports.obj
 0002:00006fbc       ??_C@_0N@IGGLCIGE@xpceaddEvent?$AA@ 10048fbc     xpcruntime:xpcimports.obj
 0002:00006fcc       ??_C@_0BI@NHJNFMKH@xpceaddEvent?5not?5found?6?$AA@ 10048fcc     xpcruntime:xpcimports.obj
 0002:00006fe4       ??_C@_0BB@LCMHHHFN@getMemoryService?$AA@ 10048fe4     xpcruntime:xpcimports.obj
 0002:00006ff8       ??_C@_0BM@MPLCNIIE@getMemoryService?5not?5found?6?$AA@ 10048ff8     xpcruntime:xpcimports.obj
 0002:00007014       ??_C@_0P@KIKONDKK@getCommService?$AA@ 10049014     xpcruntime:xpcimports.obj
 0002:00007024       ??_C@_0BK@NCECBKNM@getCommService?5not?5found?6?$AA@ 10049024     xpcruntime:xpcimports.obj
 0002:00007040       ??_C@_0P@GDLHFECE@getStatusFlags?$AA@ 10049040     xpcruntime:xpcimports.obj
 0002:00007050       ??_C@_0BK@NEKDLJHG@getStatusFlags?5not?5found?6?$AA@ 10049050     xpcruntime:xpcimports.obj
 0002:0000706c       ??_C@_0BL@CDFCLKOL@startToAsyncQueueTgtAppSvc?$AA@ 1004906c     xpcruntime:xpcimports.obj
 0002:00007088       ??_C@_0CG@JGOFFKEL@startToAsyncQueueTgtAppSvc?5not?5f@ 10049088     xpcruntime:xpcimports.obj
 0002:000070b0       ??_C@_0BP@IJNGPPPE@terminateToAsyncQueueTgtAppSvc?$AA@ 100490b0     xpcruntime:xpcimports.obj
 0002:000070d0       ??_C@_0CK@NDEMAMKF@terminateToAsyncQueueTgtAppSvc?5n@ 100490d0     xpcruntime:xpcimports.obj
 0002:000070fc       ??_C@_0BK@IDACEHAO@sendToAsyncQueueTgtAppSvc?$AA@ 100490fc     xpcruntime:xpcimports.obj
 0002:00007118       ??_C@_0CF@PNCKPEHN@sendToAsyncQueueTgtAppSvc?5not?5fo@ 10049118     xpcruntime:xpcimports.obj
 0002:00007140       ??_C@_0BN@HJOHIFOM@xpceGetIntTimerGranularityNS?$AA@ 10049140     xpcruntime:xpcimports.obj
 0002:00007160       ??_C@_0CI@OADDPMKB@xpceGetIntTimerGranularityNS?5not@ 10049160     xpcruntime:xpcimports.obj
 0002:00007188       ??_C@_0BG@CCHICKPN@slrteSetStepSizeDelta?$AA@ 10049188     xpcruntime:xpcimports.obj
 0002:000071a0       ??_C@_0CB@MKHINEIJ@slrteSetStepSizeDelta?5not?5found?6@ 100491a0     xpcruntime:xpcimports.obj
 0002:000071c4       ??_C@_0BI@CLNBLDKJ@slrteGetCurrentStepSize?$AA@ 100491c4     xpcruntime:xpcimports.obj
 0002:000071dc       ??_C@_0CD@GIOJPGJA@slrteGetCurrentStepSize?5not?5foun@ 100491dc     xpcruntime:xpcimports.obj
 0002:00007200       ??_C@_0BE@FCLCBOC@registerPTPTimeRead?$AA@ 10049200     xpcruntime:xpcimports.obj
 0002:00007214       ??_C@_0BP@LHPKAJIP@registerPTPTimeRead?5not?5found?6?$AA@ 10049214     xpcruntime:xpcimports.obj
 0002:00007234       ??_C@_0BG@KIGCDDJI@unRegisterPTPTimeRead?$AA@ 10049234     xpcruntime:xpcimports.obj
 0002:0000724c       ??_C@_0CB@MLFFBFCM@unRegisterPTPTimeRead?5not?5found?6@ 1004924c     xpcruntime:xpcimports.obj
 0002:00007270       ??_C@_0BB@IPMDDBHK@slTestInitialize?$AA@ 10049270     xpcruntime:xpcimports.obj
 0002:00007284       ??_C@_0BM@LAJFCCJH@slTestInitialize?5not?5found?6?$AA@ 10049284     xpcruntime:xpcimports.obj
 0002:000072a0       ??_C@_0BF@OOMPMEBC@slTestLogAssessments?$AA@ 100492a0     xpcruntime:xpcimports.obj
 0002:000072b8       ??_C@_0CA@FGJCEBAG@slTestLogAssessments?5not?5found?6?$AA@ 100492b8     xpcruntime:xpcimports.obj
 0002:000072d8       ??_C@_0BB@HJHKONHO@slTestEvalOnFail?$AA@ 100492d8     xpcruntime:xpcimports.obj
 0002:000072ec       ??_C@_0BM@JIKCFFNJ@slTestEvalOnFail?5not?5found?6?$AA@ 100492ec     xpcruntime:xpcimports.obj
 0002:00007308       ??_C@_0BA@LBHLABFP@slTestTerminate?$AA@ 10049308     xpcruntime:xpcimports.obj
 0002:00007318       ??_C@_0BL@EMFGKAPA@slTestTerminate?5not?5found?6?$AA@ 10049318     xpcruntime:xpcimports.obj
 0002:00007334       ??_C@_0BE@JPNPBBEO@slTestRegAssessment?$AA@ 10049334     xpcruntime:xpcimports.obj
 0002:00007348       ??_C@_0BP@FBDEJJJH@slTestRegAssessment?5not?5found?6?$AA@ 10049348     xpcruntime:xpcimports.obj
 0002:000073b8       __FPinit                   100493b8     LIBCMT:fpinit.obj
 0002:000073c4       ??_C@_1BI@BGOHAHKC@?$AAm?$AAs?$AAc?$AAo?$AAr?$AAe?$AAe?$AA?4?$AAd?$AAl?$AAl?$AA?$AA@ 100493c4     LIBCMT:crt0dat.obj
 0002:000073dc       ??_C@_0P@MIGLKIOC@CorExitProcess?$AA@ 100493dc     LIBCMT:crt0dat.obj
 0002:00007474       ??_C@_17LGKOMLJ@?$AA?4?$AA?4?$AA?4?$AA?$AA@ 10049474     LIBCMT:wassert.obj
 0002:0000747c       ??_C@_13LBAGMAIH@?$AA?6?$AA?$AA@ 1004947c     LIBCMT:wassert.obj
 0002:00007480       ??_C@_15IABLJNFO@?$AA?6?$AA?6?$AA?$AA@ 10049480     LIBCMT:wassert.obj
 0002:00007488       ??_C@_1CE@OJBNHDMO@?$AAA?$AAs?$AAs?$AAe?$AAr?$AAt?$AAi?$AAo?$AAn?$AA?5?$AAf?$AAa?$AAi?$AAl?$AAe?$AAd?$AA?$CB?$AA?$AA@ 10049488     LIBCMT:wassert.obj
 0002:000074ac       ??_C@_1BE@PHKBBGE@?$AAP?$AAr?$AAo?$AAg?$AAr?$AAa?$AAm?$AA?3?$AA?5?$AA?$AA@ 100494ac     LIBCMT:wassert.obj
 0002:000074c0       ??_C@_1CO@EAEJAADC@?$AA?$DM?$AAp?$AAr?$AAo?$AAg?$AAr?$AAa?$AAm?$AA?5?$AAn?$AAa?$AAm?$AAe?$AA?5?$AAu?$AAn?$AAk?$AAn?$AAo?$AAw?$AAn?$AA?$DO?$AA?$AA@ 100494c0     LIBCMT:wassert.obj
 0002:000074f0       ??_C@_1O@HEMHKNDC@?$AAF?$AAi?$AAl?$AAe?$AA?3?$AA?5?$AA?$AA@ 100494f0     LIBCMT:wassert.obj
 0002:00007500       ??_C@_1O@KCAFKHJE@?$AAL?$AAi?$AAn?$AAe?$AA?3?$AA?5?$AA?$AA@ 10049500     LIBCMT:wassert.obj
 0002:00007510       ??_C@_1BK@PEDCIPMA@?$AAE?$AAx?$AAp?$AAr?$AAe?$AAs?$AAs?$AAi?$AAo?$AAn?$AA?3?$AA?5?$AA?$AA@ 10049510     LIBCMT:wassert.obj
 0002:00007530       ??_C@_1OA@EGMLFBHJ@?$AAF?$AAo?$AAr?$AA?5?$AAi?$AAn?$AAf?$AAo?$AAr?$AAm?$AAa?$AAt?$AAi?$AAo?$AAn?$AA?5?$AAo?$AAn?$AA?5?$AAh?$AAo?$AAw?$AA?5?$AAy?$AAo?$AAu?$AAr?$AA?5?$AAp?$AAr?$AAo?$AAg@ 10049530     LIBCMT:wassert.obj
 0002:00007610       ??_C@_1HK@POCJMFGK@?$AA?$CI?$AAP?$AAr?$AAe?$AAs?$AAs?$AA?5?$AAR?$AAe?$AAt?$AAr?$AAy?$AA?5?$AAt?$AAo?$AA?5?$AAd?$AAe?$AAb?$AAu?$AAg?$AA?5?$AAt?$AAh?$AAe?$AA?5?$AAa?$AAp?$AAp?$AAl?$AAi?$AAc@ 10049610     LIBCMT:wassert.obj
 0002:00007690       ??_C@_1EK@MBDPDCGA@?$AAM?$AAi?$AAc?$AAr?$AAo?$AAs?$AAo?$AAf?$AAt?$AA?5?$AAV?$AAi?$AAs?$AAu?$AAa?$AAl?$AA?5?$AAC?$AA?$CL?$AA?$CL?$AA?5?$AAR?$AAu?$AAn?$AAt?$AAi?$AAm?$AAe?$AA?5?$AAL?$AAi?$AAb@ 10049690     LIBCMT:wassert.obj
 0002:000076dc       __pDefaultRawDllMain       100496dc     LIBCMT:dllcrt0.obj
 0002:000076dc       __pRawDllMain              100496dc     LIBCMT:dllcrt0.obj
 0002:000076e0       ?ProcessDetach@NativeDll@<CrtImplementationDetails>@@0IB 100496e0     LIBCMT:handler.obj
 0002:000076e4       ?ProcessAttach@NativeDll@<CrtImplementationDetails>@@0IB 100496e4     LIBCMT:handler.obj
 0002:000076e8       ?ThreadAttach@NativeDll@<CrtImplementationDetails>@@0IB 100496e8     LIBCMT:handler.obj
 0002:000076ec       ?ThreadDetach@NativeDll@<CrtImplementationDetails>@@0IB 100496ec     LIBCMT:handler.obj
 0002:000076f0       ?ProcessVerifier@NativeDll@<CrtImplementationDetails>@@0IB 100496f0     LIBCMT:handler.obj
 0002:000077b0       ??_C@_1FK@PGACCAFB@?$AAR?$AA6?$AA0?$AA0?$AA2?$AA?$AN?$AA?6?$AA?9?$AA?5?$AAf?$AAl?$AAo?$AAa?$AAt?$AAi?$AAn?$AAg?$AA?5?$AAp?$AAo?$AAi?$AAn?$AAt?$AA?5?$AAs?$AAu?$AAp?$AAp?$AAo?$AAr?$AAt?$AA?5@ 100497b0     LIBCMT:crt0msg.obj
 0002:00007810       ??_C@_1FE@LLNEDJMD@?$AAR?$AA6?$AA0?$AA0?$AA8?$AA?$AN?$AA?6?$AA?9?$AA?5?$AAn?$AAo?$AAt?$AA?5?$AAe?$AAn?$AAo?$AAu?$AAg?$AAh?$AA?5?$AAs?$AAp?$AAa?$AAc?$AAe?$AA?5?$AAf?$AAo?$AAr?$AA?5?$AAa?$AAr@ 10049810     LIBCMT:crt0msg.obj
 0002:00007868       ??_C@_1FI@HONFMGBI@?$AAR?$AA6?$AA0?$AA0?$AA9?$AA?$AN?$AA?6?$AA?9?$AA?5?$AAn?$AAo?$AAt?$AA?5?$AAe?$AAn?$AAo?$AAu?$AAg?$AAh?$AA?5?$AAs?$AAp?$AAa?$AAc?$AAe?$AA?5?$AAf?$AAo?$AAr?$AA?5?$AAe?$AAn@ 10049868     LIBCMT:crt0msg.obj
 0002:000078c0       ??_C@_1EG@BEHAGFJD@?$AAR?$AA6?$AA0?$AA1?$AA0?$AA?$AN?$AA?6?$AA?9?$AA?5?$AAa?$AAb?$AAo?$AAr?$AAt?$AA?$CI?$AA?$CJ?$AA?5?$AAh?$AAa?$AAs?$AA?5?$AAb?$AAe?$AAe?$AAn?$AA?5?$AAc?$AAa?$AAl?$AAl?$AAe?$AAd@ 100498c0     LIBCMT:crt0msg.obj
 0002:00007908       ??_C@_1FI@LOGNIKDM@?$AAR?$AA6?$AA0?$AA1?$AA6?$AA?$AN?$AA?6?$AA?9?$AA?5?$AAn?$AAo?$AAt?$AA?5?$AAe?$AAn?$AAo?$AAu?$AAg?$AAh?$AA?5?$AAs?$AAp?$AAa?$AAc?$AAe?$AA?5?$AAf?$AAo?$AAr?$AA?5?$AAt?$AAh@ 10049908     LIBCMT:crt0msg.obj
 0002:00007960       ??_C@_1FK@BEOGODMC@?$AAR?$AA6?$AA0?$AA1?$AA7?$AA?$AN?$AA?6?$AA?9?$AA?5?$AAu?$AAn?$AAe?$AAx?$AAp?$AAe?$AAc?$AAt?$AAe?$AAd?$AA?5?$AAm?$AAu?$AAl?$AAt?$AAi?$AAt?$AAh?$AAr?$AAe?$AAa?$AAd?$AA?5@ 10049960     LIBCMT:crt0msg.obj
 0002:000079c0       ??_C@_1EC@JIBHAOPH@?$AAR?$AA6?$AA0?$AA1?$AA8?$AA?$AN?$AA?6?$AA?9?$AA?5?$AAu?$AAn?$AAe?$AAx?$AAp?$AAe?$AAc?$AAt?$AAe?$AAd?$AA?5?$AAh?$AAe?$AAa?$AAp?$AA?5?$AAe?$AAr?$AAr?$AAo?$AAr?$AA?$AN?$AA?6@ 100499c0     LIBCMT:crt0msg.obj
 0002:00007a08       ??_C@_1FC@ECHBIFBC@?$AAR?$AA6?$AA0?$AA1?$AA9?$AA?$AN?$AA?6?$AA?9?$AA?5?$AAu?$AAn?$AAa?$AAb?$AAl?$AAe?$AA?5?$AAt?$AAo?$AA?5?$AAo?$AAp?$AAe?$AAn?$AA?5?$AAc?$AAo?$AAn?$AAs?$AAo?$AAl?$AAe?$AA?5@ 10049a08     LIBCMT:crt0msg.obj
 0002:00007a60       ??_C@_1GK@FHCKBEFA@?$AAR?$AA6?$AA0?$AA2?$AA4?$AA?$AN?$AA?6?$AA?9?$AA?5?$AAn?$AAo?$AAt?$AA?5?$AAe?$AAn?$AAo?$AAu?$AAg?$AAh?$AA?5?$AAs?$AAp?$AAa?$AAc?$AAe?$AA?5?$AAf?$AAo?$AAr?$AA?5?$AA_?$AAo@ 10049a60     LIBCMT:crt0msg.obj
 0002:00007ad0       ??_C@_1EM@MAADIHMB@?$AAR?$AA6?$AA0?$AA2?$AA5?$AA?$AN?$AA?6?$AA?9?$AA?5?$AAp?$AAu?$AAr?$AAe?$AA?5?$AAv?$AAi?$AAr?$AAt?$AAu?$AAa?$AAl?$AA?5?$AAf?$AAu?$AAn?$AAc?$AAt?$AAi?$AAo?$AAn?$AA?5?$AAc@ 10049ad0     LIBCMT:crt0msg.obj
 0002:00007b20       ??_C@_1GK@MCAAGJMO@?$AAR?$AA6?$AA0?$AA2?$AA6?$AA?$AN?$AA?6?$AA?9?$AA?5?$AAn?$AAo?$AAt?$AA?5?$AAe?$AAn?$AAo?$AAu?$AAg?$AAh?$AA?5?$AAs?$AAp?$AAa?$AAc?$AAe?$AA?5?$AAf?$AAo?$AAr?$AA?5?$AAs?$AAt@ 10049b20     LIBCMT:crt0msg.obj
 0002:00007b90       ??_C@_1GK@MFGOKLAG@?$AAR?$AA6?$AA0?$AA2?$AA7?$AA?$AN?$AA?6?$AA?9?$AA?5?$AAn?$AAo?$AAt?$AA?5?$AAe?$AAn?$AAo?$AAu?$AAg?$AAh?$AA?5?$AAs?$AAp?$AAa?$AAc?$AAe?$AA?5?$AAf?$AAo?$AAr?$AA?5?$AAl?$AAo@ 10049b90     LIBCMT:crt0msg.obj
 0002:00007c00       ??_C@_1EK@HHFLMAOL@?$AAR?$AA6?$AA0?$AA2?$AA8?$AA?$AN?$AA?6?$AA?9?$AA?5?$AAu?$AAn?$AAa?$AAb?$AAl?$AAe?$AA?5?$AAt?$AAo?$AA?5?$AAi?$AAn?$AAi?$AAt?$AAi?$AAa?$AAl?$AAi?$AAz?$AAe?$AA?5?$AAh?$AAe@ 10049c00     LIBCMT:crt0msg.obj
 0002:00007c4c       ??_C@_1DO@BMFCDCD@?$AAR?$AA6?$AA0?$AA3?$AA0?$AA?$AN?$AA?6?$AA?9?$AA?5?$AAC?$AAR?$AAT?$AA?5?$AAn?$AAo?$AAt?$AA?5?$AAi?$AAn?$AAi?$AAt?$AAi?$AAa?$AAl?$AAi?$AAz?$AAe?$AAd?$AA?$AN?$AA?6?$AA?$AA@ 10049c4c     LIBCMT:crt0msg.obj
 0002:00007c90       ??_C@_1MG@ENCOOIDF@?$AAR?$AA6?$AA0?$AA3?$AA1?$AA?$AN?$AA?6?$AA?9?$AA?5?$AAA?$AAt?$AAt?$AAe?$AAm?$AAp?$AAt?$AA?5?$AAt?$AAo?$AA?5?$AAi?$AAn?$AAi?$AAt?$AAi?$AAa?$AAl?$AAi?$AAz?$AAe?$AA?5?$AAt@ 10049c90     LIBCMT:crt0msg.obj
 0002:00007d58       ??_C@_1GG@GOPILAJP@?$AAR?$AA6?$AA0?$AA3?$AA2?$AA?$AN?$AA?6?$AA?9?$AA?5?$AAn?$AAo?$AAt?$AA?5?$AAe?$AAn?$AAo?$AAu?$AAg?$AAh?$AA?5?$AAs?$AAp?$AAa?$AAc?$AAe?$AA?5?$AAf?$AAo?$AAr?$AA?5?$AAl?$AAo@ 10049d58     LIBCMT:crt0msg.obj
 0002:00007dc0       ??_C@_1BOO@KGEDBGAJ@?$AAR?$AA6?$AA0?$AA3?$AA3?$AA?$AN?$AA?6?$AA?9?$AA?5?$AAA?$AAt?$AAt?$AAe?$AAm?$AAp?$AAt?$AA?5?$AAt?$AAo?$AA?5?$AAu?$AAs?$AAe?$AA?5?$AAM?$AAS?$AAI?$AAL?$AA?5?$AAc?$AAo?$AAd@ 10049dc0     LIBCMT:crt0msg.obj
 0002:00007fb0       ??_C@_1GG@MKFPEKFO@?$AAR?$AA6?$AA0?$AA3?$AA4?$AA?$AN?$AA?6?$AA?9?$AA?5?$AAi?$AAn?$AAc?$AAo?$AAn?$AAs?$AAi?$AAs?$AAt?$AAe?$AAn?$AAt?$AA?5?$AAo?$AAn?$AAe?$AAx?$AAi?$AAt?$AA?5?$AAb?$AAe?$AAg@ 10049fb0     LIBCMT:crt0msg.obj
 0002:00008018       ??_C@_1BO@BFCDCGC@?$AAD?$AAO?$AAM?$AAA?$AAI?$AAN?$AA?5?$AAe?$AAr?$AAr?$AAo?$AAr?$AA?$AN?$AA?6?$AA?$AA@ 1004a018     LIBCMT:crt0msg.obj
 0002:00008038       ??_C@_1BK@KMOMNAAI@?$AAS?$AAI?$AAN?$AAG?$AA?5?$AAe?$AAr?$AAr?$AAo?$AAr?$AA?$AN?$AA?6?$AA?$AA@ 1004a038     LIBCMT:crt0msg.obj
 0002:00008054       ??_C@_1BM@JBBEPPHI@?$AAT?$AAL?$AAO?$AAS?$AAS?$AA?5?$AAe?$AAr?$AAr?$AAo?$AAr?$AA?$AN?$AA?6?$AA?$AA@ 1004a054     LIBCMT:crt0msg.obj
 0002:00008070       ??_C@_15JNBOKNOG@?$AA?$AN?$AA?6?$AA?$AA@ 1004a070     LIBCMT:crt0msg.obj
 0002:00008078       ??_C@_1BO@BKOMIGKJ@?$AAr?$AAu?$AAn?$AAt?$AAi?$AAm?$AAe?$AA?5?$AAe?$AAr?$AAr?$AAo?$AAr?$AA?5?$AA?$AA@ 1004a078     LIBCMT:crt0msg.obj
 0002:00008098       ??_C@_1DE@JNGNBFGO@?$AAR?$AAu?$AAn?$AAt?$AAi?$AAm?$AAe?$AA?5?$AAE?$AAr?$AAr?$AAo?$AAr?$AA?$CB?$AA?6?$AA?6?$AAP?$AAr?$AAo?$AAg?$AAr?$AAa?$AAm?$AA?3?$AA?5?$AA?$AA@ 1004a098     LIBCMT:crt0msg.obj
 0002:000080cc       ??_C@_06OJHGLDPL@?$CInull?$CJ?$AA@ 1004a0cc     LIBCMT:output.obj
 0002:000080d4       ??_C@_1O@CEDCILHN@?$AA?$CI?$AAn?$AAu?$AAl?$AAl?$AA?$CJ?$AA?$AA@ 1004a0d4     LIBCMT:output.obj
 0002:000080e8       ___lookuptable             1004a0e8     LIBCMT:output.obj
 0002:000081b0       ??_C@_03MGHMBJCF@log?$AA@  1004a1b0     LIBCMT:libm_error.obj
 0002:000081b4       ??_C@_05HGHHAHAP@log10?$AA@ 1004a1b4     LIBCMT:libm_error.obj
 0002:000081bc       ??_C@_03KHJOGHMM@exp?$AA@  1004a1bc     LIBCMT:libm_error.obj
 0002:000081c0       ??_C@_03JGHBODFD@pow?$AA@  1004a1c0     LIBCMT:libm_error.obj
 0002:000081c4       ??_C@_04FIHNOPOL@asin?$AA@ 1004a1c4     LIBCMT:libm_error.obj
 0002:000081cc       ??_C@_04PDIFKINK@acos?$AA@ 1004a1cc     LIBCMT:libm_error.obj
 0002:000081d4       ??_C@_05EOHGHCHD@exp10?$AA@ 1004a1d4     LIBCMT:libm_error.obj
 0002:000081dc       ??_C@_04MLLJIGOK@atan?$AA@ 1004a1dc     LIBCMT:libm_error.obj
 0002:000081e4       ??_C@_04GFPJNGEK@ceil?$AA@ 1004a1e4     LIBCMT:libm_error.obj
 0002:000081ec       ??_C@_05PBJFFIGL@floor?$AA@ 1004a1ec     LIBCMT:libm_error.obj
 0002:000081f4       ??_C@_04EHEDPDJG@modf?$AA@ 1004a1f4     LIBCMT:libm_error.obj
 0002:000081fc       ??_C@_03BLEJJJBH@sin?$AA@  1004a1fc     LIBCMT:libm_error.obj
 0002:00008200       ??_C@_03LALBNOCG@cos?$AA@  1004a200     LIBCMT:libm_error.obj
 0002:00008204       ??_C@_03IIINPABG@tan?$AA@  1004a204     LIBCMT:libm_error.obj
 0002:00008208       ??_C@_04EIAKFFMI@sqrt?$AA@ 1004a208     LIBCMT:libm_error.obj
 0002:00008210       ??_C@_05KLBDPFGC@e?$CL000?$AA@ 1004a210     LIBCMT:cvt.obj
 0002:00008218       ??_C@_1BK@MGMFAEKH@?$AAk?$AAe?$AAr?$AAn?$AAe?$AAl?$AA3?$AA2?$AA?4?$AAd?$AAl?$AAl?$AA?$AA@ 1004a218     LIBCMT:winapisupp.obj
 0002:00008234       ??_C@_08KNHFBNJ@FlsAlloc?$AA@ 1004a234     LIBCMT:winapisupp.obj
 0002:00008240       ??_C@_07PEJMOBNF@FlsFree?$AA@ 1004a240     LIBCMT:winapisupp.obj
 0002:00008248       ??_C@_0M@GDNOONDI@FlsGetValue?$AA@ 1004a248     LIBCMT:winapisupp.obj
 0002:00008254       ??_C@_0M@JCPCPOEF@FlsSetValue?$AA@ 1004a254     LIBCMT:winapisupp.obj
 0002:00008260       ??_C@_0BM@HCFOFFN@InitializeCriticalSectionEx?$AA@ 1004a260     LIBCMT:winapisupp.obj
 0002:0000827c       ??_C@_0P@DLHPPCNH@CreateEventExW?$AA@ 1004a27c     LIBCMT:winapisupp.obj
 0002:0000828c       ??_C@_0BD@KIEEOEEH@CreateSemaphoreExW?$AA@ 1004a28c     LIBCMT:winapisupp.obj
 0002:000082a0       ??_C@_0BI@BKLFFAPO@SetThreadStackGuarantee?$AA@ 1004a2a0     LIBCMT:winapisupp.obj
 0002:000082b8       ??_C@_0BG@OGFAJCKC@CreateThreadpoolTimer?$AA@ 1004a2b8     LIBCMT:winapisupp.obj
 0002:000082d0       ??_C@_0BD@LPLEMMDI@SetThreadpoolTimer?$AA@ 1004a2d0     LIBCMT:winapisupp.obj
 0002:000082e4       ??_C@_0CA@FMNJENH@WaitForThreadpoolTimerCallbacks?$AA@ 1004a2e4     LIBCMT:winapisupp.obj
 0002:00008304       ??_C@_0BF@DCFCCNOC@CloseThreadpoolTimer?$AA@ 1004a304     LIBCMT:winapisupp.obj
 0002:0000831c       ??_C@_0BF@FLABGKKM@CreateThreadpoolWait?$AA@ 1004a31c     LIBCMT:winapisupp.obj
 0002:00008334       ??_C@_0BC@MGCOHNA@SetThreadpoolWait?$AA@ 1004a334     LIBCMT:winapisupp.obj
 0002:00008348       ??_C@_0BE@OCIOMIMP@CloseThreadpoolWait?$AA@ 1004a348     LIBCMT:winapisupp.obj
 0002:0000835c       ??_C@_0BJ@LKGHFHBO@FlushProcessWriteBuffers?$AA@ 1004a35c     LIBCMT:winapisupp.obj
 0002:00008378       ??_C@_0BP@KALKKPMO@FreeLibraryWhenCallbackReturns?$AA@ 1004a378     LIBCMT:winapisupp.obj
 0002:00008398       ??_C@_0BK@DFNBACLA@GetCurrentProcessorNumber?$AA@ 1004a398     LIBCMT:winapisupp.obj
 0002:000083b4       ??_C@_0BP@KHGALBC@GetLogicalProcessorInformation?$AA@ 1004a3b4     LIBCMT:winapisupp.obj
 0002:000083d4       ??_C@_0BE@FKKLLFLM@CreateSymbolicLinkW?$AA@ 1004a3d4     LIBCMT:winapisupp.obj
 0002:000083e8       ??_C@_0BJ@OHNKDLIJ@SetDefaultDllDirectories?$AA@ 1004a3e8     LIBCMT:winapisupp.obj
 0002:00008404       ??_C@_0BE@LJANKFHF@EnumSystemLocalesEx?$AA@ 1004a404     LIBCMT:winapisupp.obj
 0002:00008418       ??_C@_0BA@IHGNDAEB@CompareStringEx?$AA@ 1004a418     LIBCMT:winapisupp.obj
 0002:00008428       ??_C@_0BA@EPCJIIPD@GetDateFormatEx?$AA@ 1004a428     LIBCMT:winapisupp.obj
 0002:00008438       ??_C@_0BA@ONOKGCMP@GetLocaleInfoEx?$AA@ 1004a438     LIBCMT:winapisupp.obj
 0002:00008448       ??_C@_0BA@CIJJKCJJ@GetTimeFormatEx?$AA@ 1004a448     LIBCMT:winapisupp.obj
 0002:00008458       ??_C@_0BJ@PBCCBIPI@GetUserDefaultLocaleName?$AA@ 1004a458     LIBCMT:winapisupp.obj
 0002:00008474       ??_C@_0BC@CELBKLLA@IsValidLocaleName?$AA@ 1004a474     LIBCMT:winapisupp.obj
 0002:00008488       ??_C@_0O@KKBNKAPF@LCMapStringEx?$AA@ 1004a488     LIBCMT:winapisupp.obj
 0002:00008498       ??_C@_0BE@JOGNEJCI@GetCurrentPackageId?$AA@ 1004a498     LIBCMT:winapisupp.obj
 0002:000084ac       ??_C@_0P@CDHHOHKP@GetTickCount64?$AA@ 1004a4ac     LIBCMT:winapisupp.obj
 0002:000084bc       ??_C@_0BO@KPCLFDJJ@GetFileInformationByHandleExW?$AA@ 1004a4bc     LIBCMT:winapisupp.obj
 0002:000084dc       ??_C@_0BM@MHIDLABK@SetFileInformationByHandleW?$AA@ 1004a4dc     LIBCMT:winapisupp.obj
 0002:000084f8       ??_C@_1BK@GAEMIDIL@?$AAA?$AAD?$AAV?$AAA?$AAP?$AAI?$AA3?$AA2?$AA?4?$AAD?$AAL?$AAL?$AA?$AA@ 1004a4f8     LIBCMT:rand_s.obj
 0002:00008514       ??_C@_0BC@JEAENNKH@SystemFunction036?$AA@ 1004a514     LIBCMT:rand_s.obj
 0002:00008538       ??_C@_1M@HPNHIDJI@?$AAj?$AAa?$AA?9?$AAJ?$AAP?$AA?$AA@ 1004a538     LIBCMT:mbctype.obj
 0002:00008544       ??_C@_1M@BIBDDEMK@?$AAz?$AAh?$AA?9?$AAC?$AAN?$AA?$AA@ 1004a544     LIBCMT:mbctype.obj
 0002:00008550       ??_C@_1M@JLOOOEGK@?$AAk?$AAo?$AA?9?$AAK?$AAR?$AA?$AA@ 1004a550     LIBCMT:mbctype.obj
 0002:0000855c       ??_C@_1M@CLNBBOPM@?$AAz?$AAh?$AA?9?$AAT?$AAW?$AA?$AA@ 1004a55c     LIBCMT:mbctype.obj
 0002:00008588       ??_C@_04FJHINJAO@tanh?$AA@ 1004a588     LIBCMT:fpexcept.obj
 0002:00008590       ??_C@_05KNGEOGJB@atan2?$AA@ 1004a590     LIBCMT:fpexcept.obj
 0002:00008598       ??_C@_04ODHECPBC@fabs?$AA@ 1004a598     LIBCMT:fpexcept.obj
 0002:000085a0       ??_C@_05CEJMAHNP@ldexp?$AA@ 1004a5a0     LIBCMT:fpexcept.obj
 0002:000085a8       ??_C@_05KBKMEMPO@_cabs?$AA@ 1004a5a8     LIBCMT:fpexcept.obj
 0002:000085b0       ??_C@_06MEIMCGCF@_hypot?$AA@ 1004a5b0     LIBCMT:fpexcept.obj
 0002:000085b8       ??_C@_04KEPJIHGP@fmod?$AA@ 1004a5b8     LIBCMT:fpexcept.obj
 0002:000085c0       ??_C@_05GKKHEGJL@frexp?$AA@ 1004a5c0     LIBCMT:fpexcept.obj
 0002:000085c8       ??_C@_03MJLDFKDL@_y0?$AA@  1004a5c8     LIBCMT:fpexcept.obj
 0002:000085cc       ??_C@_03NAKIGLHK@_y1?$AA@  1004a5cc     LIBCMT:fpexcept.obj
 0002:000085d0       ??_C@_03ONILCKOB@_yn?$AA@  1004a5d0     LIBCMT:fpexcept.obj
 0002:000085d4       ??_C@_05JGDBENOH@_logb?$AA@ 1004a5d4     LIBCMT:fpexcept.obj
 0002:000085dc       ??_C@_0L@KDOEJCKC@_nextafter?$AA@ 1004a5dc     LIBCMT:fpexcept.obj
 0002:000085e8       ??_C@_04COOMCNPB@sinh?$AA@ 1004a5e8     LIBCMT:fpexcept.obj
 0002:000085f0       ??_C@_04HPJJNFIM@cosh?$AA@ 1004a5f0     LIBCMT:fpexcept.obj
 0002:000085f8       ??_C@_1BG@GOEBHBDC@?$AAU?$AAS?$AAE?$AAR?$AA3?$AA2?$AA?4?$AAD?$AAL?$AAL?$AA?$AA@ 1004a5f8     LIBCMT:crtmboxw.obj
 0002:00008610       ??_C@_0M@DLDCCGNP@MessageBoxW?$AA@ 1004a610     LIBCMT:crtmboxw.obj
 0002:0000861c       ??_C@_0BA@HNOPNCHB@GetActiveWindow?$AA@ 1004a61c     LIBCMT:crtmboxw.obj
 0002:0000862c       ??_C@_0BD@HHGDFDBJ@GetLastActivePopup?$AA@ 1004a62c     LIBCMT:crtmboxw.obj
 0002:00008640       ??_C@_0BK@DEKFELLI@GetUserObjectInformationW?$AA@ 1004a640     LIBCMT:crtmboxw.obj
 0002:0000865c       ??_C@_0BI@DFKBFLJE@GetProcessWindowStation?$AA@ 1004a65c     LIBCMT:crtmboxw.obj
 0002:00008678       __XcptActTab               1004a678     LIBCMT:winxfltr.obj
 0002:00008708       __XcptActTabCount          1004a708     LIBCMT:winxfltr.obj
 0002:0000870c       __XcptActTabSize           1004a70c     LIBCMT:winxfltr.obj
 0002:00008710       __First_FPE_Indx           1004a710     LIBCMT:winxfltr.obj
 0002:00008714       __Num_FPE                  1004a714     LIBCMT:winxfltr.obj
 0002:00008718       ___lookuptable_s           1004a718     LIBCMT:outputs.obj
 0002:00008774       ??_C@_03KOEHGMDN@Sun?$AA@  1004a774     LIBCMT:nlsdata.obj
 0002:00008778       ??_C@_03PDAGKDH@Mon?$AA@   1004a778     LIBCMT:nlsdata.obj
 0002:0000877c       ??_C@_03NAGEINEP@Tue?$AA@  1004a77c     LIBCMT:nlsdata.obj
 0002:00008780       ??_C@_03MHOMLAJA@Wed?$AA@  1004a780     LIBCMT:nlsdata.obj
 0002:00008784       ??_C@_03IOFIKPDN@Thu?$AA@  1004a784     LIBCMT:nlsdata.obj
 0002:00008788       ??_C@_03IDIOELNC@Fri?$AA@  1004a788     LIBCMT:nlsdata.obj
 0002:0000878c       ??_C@_03FEFJNEK@Sat?$AA@   1004a78c     LIBCMT:nlsdata.obj
 0002:00008790       ??_C@_06OOPIFAJ@Sunday?$AA@ 1004a790     LIBCMT:nlsdata.obj
 0002:00008798       ??_C@_06JLEDEDGH@Monday?$AA@ 1004a798     LIBCMT:nlsdata.obj
 0002:000087a0       ??_C@_07BAAGCFCM@Tuesday?$AA@ 1004a7a0     LIBCMT:nlsdata.obj
 0002:000087a8       ??_C@_09DLIGFAKA@Wednesday?$AA@ 1004a7a8     LIBCMT:nlsdata.obj
 0002:000087b4       ??_C@_08HACCIKIA@Thursday?$AA@ 1004a7b4     LIBCMT:nlsdata.obj
 0002:000087c0       ??_C@_06JECMNKMI@Friday?$AA@ 1004a7c0     LIBCMT:nlsdata.obj
 0002:000087c8       ??_C@_08INBOOONO@Saturday?$AA@ 1004a7c8     LIBCMT:nlsdata.obj
 0002:000087d4       ??_C@_03JIHJHPIE@Jan?$AA@  1004a7d4     LIBCMT:nlsdata.obj
 0002:000087d8       ??_C@_03HJBDCHOM@Feb?$AA@  1004a7d8     LIBCMT:nlsdata.obj
 0002:000087dc       ??_C@_03ODNJBKGA@Mar?$AA@  1004a7dc     LIBCMT:nlsdata.obj
 0002:000087e0       ??_C@_03LEOLGMJP@Apr?$AA@  1004a7e0     LIBCMT:nlsdata.obj
 0002:000087e4       ??_C@_03CNMDKL@May?$AA@    1004a7e4     LIBCMT:nlsdata.obj
 0002:000087e8       ??_C@_03IDFGHECI@Jun?$AA@  1004a7e8     LIBCMT:nlsdata.obj
 0002:000087ec       ??_C@_03LBGABGKK@Jul?$AA@  1004a7ec     LIBCMT:nlsdata.obj
 0002:000087f0       ??_C@_03IFJFEIGA@Aug?$AA@  1004a7f0     LIBCMT:nlsdata.obj
 0002:000087f4       ??_C@_03GGCAPAJC@Sep?$AA@  1004a7f4     LIBCMT:nlsdata.obj
 0002:000087f8       ??_C@_03BMAOKBAD@Oct?$AA@  1004a7f8     LIBCMT:nlsdata.obj
 0002:000087fc       ??_C@_03JPJOFNIA@Nov?$AA@  1004a7fc     LIBCMT:nlsdata.obj
 0002:00008800       ??_C@_03MKABNOCG@Dec?$AA@  1004a800     LIBCMT:nlsdata.obj
 0002:00008804       ??_C@_07CGJPFGJA@January?$AA@ 1004a804     LIBCMT:nlsdata.obj
 0002:0000880c       ??_C@_08GNJGEPFN@February?$AA@ 1004a80c     LIBCMT:nlsdata.obj
 0002:00008818       ??_C@_05HPCKOFNC@March?$AA@ 1004a818     LIBCMT:nlsdata.obj
 0002:00008820       ??_C@_05DMJDNLEJ@April?$AA@ 1004a820     LIBCMT:nlsdata.obj
 0002:00008828       ??_C@_04CNLMGBGM@June?$AA@ 1004a828     LIBCMT:nlsdata.obj
 0002:00008830       ??_C@_04MIEPOIFP@July?$AA@ 1004a830     LIBCMT:nlsdata.obj
 0002:00008838       ??_C@_06LBBHFDDG@August?$AA@ 1004a838     LIBCMT:nlsdata.obj
 0002:00008840       ??_C@_09BHHEALKD@September?$AA@ 1004a840     LIBCMT:nlsdata.obj
 0002:0000884c       ??_C@_07JJNFCEND@October?$AA@ 1004a84c     LIBCMT:nlsdata.obj
 0002:00008854       ??_C@_08HCHEGEOA@November?$AA@ 1004a854     LIBCMT:nlsdata.obj
 0002:00008860       ??_C@_08EDHMEBNP@December?$AA@ 1004a860     LIBCMT:nlsdata.obj
 0002:0000886c       ??_C@_02DEDBPAFC@AM?$AA@   1004a86c     LIBCMT:nlsdata.obj
 0002:00008870       ??_C@_02CJNFDJBF@PM?$AA@   1004a870     LIBCMT:nlsdata.obj
 0002:00008874       ??_C@_08BPBNCDIB@MM?1dd?1yy?$AA@ 1004a874     LIBCMT:nlsdata.obj
 0002:00008880       ??_C@_0BE@CKGJFCPC@dddd?0?5MMMM?5dd?0?5yyyy?$AA@ 1004a880     LIBCMT:nlsdata.obj
 0002:00008894       ??_C@_08JCCMCCIL@HH?3mm?3ss?$AA@ 1004a894     LIBCMT:nlsdata.obj
 0002:000088a0       ??_C@_17MBGCMIPB@?$AAS?$AAu?$AAn?$AA?$AA@ 1004a8a0     LIBCMT:nlsdata.obj
 0002:000088a8       ??_C@_17KBOMKBF@?$AAM?$AAo?$AAn?$AA?$AA@ 1004a8a8     LIBCMT:nlsdata.obj
 0002:000088b0       ??_C@_17BMKGEGOJ@?$AAT?$AAu?$AAe?$AA?$AA@ 1004a8b0     LIBCMT:nlsdata.obj
 0002:000088b8       ??_C@_17CJEDCEPE@?$AAW?$AAe?$AAd?$AA?$AA@ 1004a8b8     LIBCMT:nlsdata.obj
 0002:000088c0       ??_C@_17PDPHAADD@?$AAT?$AAh?$AAu?$AA?$AA@ 1004a8c0     LIBCMT:nlsdata.obj
 0002:000088c8       ??_C@_17HFOLPPLP@?$AAF?$AAr?$AAi?$AA?$AA@ 1004a8c8     LIBCMT:nlsdata.obj
 0002:000088d0       ??_C@_17GGIBDPIH@?$AAS?$AAa?$AAt?$AA?$AA@ 1004a8d0     LIBCMT:nlsdata.obj
 0002:000088d8       ??_C@_1O@IHNHDHPB@?$AAS?$AAu?$AAn?$AAd?$AAa?$AAy?$AA?$AA@ 1004a8d8     LIBCMT:nlsdata.obj
 0002:000088e8       ??_C@_1O@MMNBFLIA@?$AAM?$AAo?$AAn?$AAd?$AAa?$AAy?$AA?$AA@ 1004a8e8     LIBCMT:nlsdata.obj
 0002:000088f8       ??_C@_1BA@ENFBFFEK@?$AAT?$AAu?$AAe?$AAs?$AAd?$AAa?$AAy?$AA?$AA@ 1004a8f8     LIBCMT:nlsdata.obj
 0002:00008908       ??_C@_1BE@EBOGMDOH@?$AAW?$AAe?$AAd?$AAn?$AAe?$AAs?$AAd?$AAa?$AAy?$AA?$AA@ 1004a908     LIBCMT:nlsdata.obj
 0002:0000891c       ??_C@_1BC@HHMNLIHE@?$AAT?$AAh?$AAu?$AAr?$AAs?$AAd?$AAa?$AAy?$AA?$AA@ 1004a91c     LIBCMT:nlsdata.obj
 0002:00008930       ??_C@_1O@PDICJHAG@?$AAF?$AAr?$AAi?$AAd?$AAa?$AAy?$AA?$AA@ 1004a930     LIBCMT:nlsdata.obj
 0002:00008940       ??_C@_1BC@ENMNNPAJ@?$AAS?$AAa?$AAt?$AAu?$AAr?$AAd?$AAa?$AAy?$AA?$AA@ 1004a940     LIBCMT:nlsdata.obj
 0002:00008954       ??_C@_17DKNBKCHM@?$AAJ?$AAa?$AAn?$AA?$AA@ 1004a954     LIBCMT:nlsdata.obj
 0002:0000895c       ??_C@_17LMDJEKJN@?$AAF?$AAe?$AAb?$AA?$AA@ 1004a95c     LIBCMT:nlsdata.obj
 0002:00008964       ??_C@_17CKNLEDEC@?$AAM?$AAa?$AAr?$AA?$AA@ 1004a964     LIBCMT:nlsdata.obj
 0002:0000896c       ??_C@_17LFPOIHDD@?$AAA?$AAp?$AAr?$AA?$AA@ 1004a96c     LIBCMT:nlsdata.obj
 0002:00008974       ??_C@_17PNNKMEED@?$AAM?$AAa?$AAy?$AA?$AA@ 1004a974     LIBCMT:nlsdata.obj
 0002:0000897c       ??_C@_17KCJGOCPB@?$AAJ?$AAu?$AAn?$AA?$AA@ 1004a97c     LIBCMT:nlsdata.obj
 0002:00008984       ??_C@_17IJPCKHK@?$AAJ?$AAu?$AAl?$AA?$AA@ 1004a984     LIBCMT:nlsdata.obj
 0002:0000898c       ??_C@_17ICPELBCN@?$AAA?$AAu?$AAg?$AA?$AA@ 1004a98c     LIBCMT:nlsdata.obj
 0002:00008994       ??_C@_17HCHCOKMG@?$AAS?$AAe?$AAp?$AA?$AA@ 1004a994     LIBCMT:nlsdata.obj
 0002:0000899c       ??_C@_17FNLKOI@?$AAO?$AAc?$AAt?$AA?$AA@ 1004a99c     LIBCMT:nlsdata.obj
 0002:000089a4       ??_C@_17BBDMLCIG@?$AAN?$AAo?$AAv?$AA?$AA@ 1004a9a4     LIBCMT:nlsdata.obj
 0002:000089ac       ??_C@_17EGKACKIF@?$AAD?$AAe?$AAc?$AA?$AA@ 1004a9ac     LIBCMT:nlsdata.obj
 0002:000089b4       ??_C@_1BA@EFMEIEBA@?$AAJ?$AAa?$AAn?$AAu?$AAa?$AAr?$AAy?$AA?$AA@ 1004a9b4     LIBCMT:nlsdata.obj
 0002:000089c4       ??_C@_1BC@JGDDFFAM@?$AAF?$AAe?$AAb?$AAr?$AAu?$AAa?$AAr?$AAy?$AA?$AA@ 1004a9c4     LIBCMT:nlsdata.obj
 0002:000089d8       ??_C@_1M@IKEENEDF@?$AAM?$AAa?$AAr?$AAc?$AAh?$AA?$AA@ 1004a9d8     LIBCMT:nlsdata.obj
 0002:000089e4       ??_C@_1M@GJNLMHFD@?$AAA?$AAp?$AAr?$AAi?$AAl?$AA?$AA@ 1004a9e4     LIBCMT:nlsdata.obj
 0002:000089f0       ??_C@_19EPFLPGAP@?$AAJ?$AAu?$AAn?$AAe?$AA?$AA@ 1004a9f0     LIBCMT:nlsdata.obj
 0002:000089fc       ??_C@_19BIFMLPCD@?$AAJ?$AAu?$AAl?$AAy?$AA?$AA@ 1004a9fc     LIBCMT:nlsdata.obj
 0002:00008a08       ??_C@_1O@PAHLKOAC@?$AAA?$AAu?$AAg?$AAu?$AAs?$AAt?$AA?$AA@ 1004aa08     LIBCMT:nlsdata.obj
 0002:00008a18       ??_C@_1BE@DKAAMBJL@?$AAS?$AAe?$AAp?$AAt?$AAe?$AAm?$AAb?$AAe?$AAr?$AA?$AA@ 1004aa18     LIBCMT:nlsdata.obj
 0002:00008a2c       ??_C@_1BA@EPANDLNG@?$AAO?$AAc?$AAt?$AAo?$AAb?$AAe?$AAr?$AA?$AA@ 1004aa2c     LIBCMT:nlsdata.obj
 0002:00008a3c       ??_C@_1BC@BGLIFPF@?$AAN?$AAo?$AAv?$AAe?$AAm?$AAb?$AAe?$AAr?$AA?$AA@ 1004aa3c     LIBCMT:nlsdata.obj
 0002:00008a50       ??_C@_1BC@FEMKIFH@?$AAD?$AAe?$AAc?$AAe?$AAm?$AAb?$AAe?$AAr?$AA?$AA@ 1004aa50     LIBCMT:nlsdata.obj
 0002:00008a64       ??_C@_15ODEHAHHF@?$AAA?$AAM?$AA?$AA@ 1004aa64     LIBCMT:nlsdata.obj
 0002:00008a6c       ??_C@_15CLMNNGEL@?$AAP?$AAM?$AA?$AA@ 1004aa6c     LIBCMT:nlsdata.obj
 0002:00008a74       ??_C@_1BC@IEBCMHCM@?$AAM?$AAM?$AA?1?$AAd?$AAd?$AA?1?$AAy?$AAy?$AA?$AA@ 1004aa74     LIBCMT:nlsdata.obj
 0002:00008a88       ??_C@_1CI@KNAKOEBC@?$AAd?$AAd?$AAd?$AAd?$AA?0?$AA?5?$AAM?$AAM?$AAM?$AAM?$AA?5?$AAd?$AAd?$AA?0?$AA?5?$AAy?$AAy?$AAy?$AAy?$AA?$AA@ 1004aa88     LIBCMT:nlsdata.obj
 0002:00008ab0       ??_C@_1BC@GDGBMEMK@?$AAH?$AAH?$AA?3?$AAm?$AAm?$AA?3?$AAs?$AAs?$AA?$AA@ 1004aab0     LIBCMT:nlsdata.obj
 0002:00008ac4       ??_C@_1M@BMHNFIME@?$AAe?$AAn?$AA?9?$AAU?$AAS?$AA?$AA@ 1004aac4     LIBCMT:nlsdata.obj
 0002:00008ad0       _LcidToLocaleNameTable     1004aad0     LIBCMT:winapinls.obj
 0002:000091f0       _LocaleNameToIndexTable    1004b1f0     LIBCMT:winapinls.obj
 0002:00009910       ??_C@_15EMKDOKLE@?$AAa?$AAr?$AA?$AA@ 1004b910     LIBCMT:winapinls.obj
 0002:00009918       ??_C@_15KNPADPLH@?$AAb?$AAg?$AA?$AA@ 1004b918     LIBCMT:winapinls.obj
 0002:00009920       ??_C@_15EDMHLDMO@?$AAc?$AAa?$AA?$AA@ 1004b920     LIBCMT:winapinls.obj
 0002:00009928       ??_C@_1O@BPEAJADD@?$AAz?$AAh?$AA?9?$AAC?$AAH?$AAS?$AA?$AA@ 1004b928     LIBCMT:winapinls.obj
 0002:00009938       ??_C@_15LJNHCMNK@?$AAc?$AAs?$AA?$AA@ 1004b938     LIBCMT:winapinls.obj
 0002:00009940       ??_C@_15FOMCIDHG@?$AAd?$AAa?$AA?$AA@ 1004b940     LIBCMT:winapinls.obj
 0002:00009948       ??_C@_15NBKABECB@?$AAd?$AAe?$AA?$AA@ 1004b948     LIBCMT:winapinls.obj
 0002:00009950       ??_C@_15GHPEIIAO@?$AAe?$AAl?$AA?$AA@ 1004b950     LIBCMT:winapinls.obj
 0002:00009958       ??_C@_15MNPNEAIF@?$AAe?$AAn?$AA?$AA@ 1004b958     LIBCMT:winapinls.obj
 0002:00009960       ??_C@_15GPIOMPMH@?$AAe?$AAs?$AA?$AA@ 1004b960     LIBCMT:winapinls.obj
 0002:00009968       ??_C@_15NGLOAKJC@?$AAf?$AAi?$AA?$AA@ 1004b968     LIBCMT:winapinls.obj
 0002:00009970       ??_C@_15FBKGNKAM@?$AAf?$AAr?$AA?$AA@ 1004b970     LIBCMT:winapinls.obj
 0002:00009978       ??_C@_15KGGCNEFK@?$AAh?$AAe?$AA?$AA@ 1004b978     LIBCMT:winapinls.obj
 0002:00009980       ??_C@_15PGHLIDMF@?$AAh?$AAu?$AA?$AA@ 1004b980     LIBCMT:winapinls.obj
 0002:00009988       ??_C@_15BIEMAPLM@?$AAi?$AAs?$AA?$AA@ 1004b988     LIBCMT:winapinls.obj
 0002:00009990       ??_C@_15IFJLDHAF@?$AAi?$AAt?$AA?$AA@ 1004b990     LIBCMT:winapinls.obj
 0002:00009998       ??_C@_15GEMIOCAG@?$AAj?$AAa?$AA?$AA@ 1004b998     LIBCMT:winapinls.obj
 0002:000099a0       ??_C@_15EPELEGJA@?$AAk?$AAo?$AA?$AA@ 1004b9a0     LIBCMT:winapinls.obj
 0002:000099a8       ??_C@_15NDDHIMN@?$AAn?$AAl?$AA?$AA@ 1004b9a8     LIBCMT:winapinls.obj
 0002:000099b0       ??_C@_15BPIGNHCD@?$AAn?$AAo?$AA?$AA@ 1004b9b0     LIBCMT:winapinls.obj
 0002:000099b8       ??_C@_15DEOPBLCG@?$AAp?$AAl?$AA?$AA@ 1004b9b8     LIBCMT:winapinls.obj
 0002:000099c0       ??_C@_15KBECGEFG@?$AAp?$AAt?$AA?$AA@ 1004b9c0     LIBCMT:winapinls.obj
 0002:000099c8       ??_C@_15GLJCBFMD@?$AAr?$AAo?$AA?$AA@ 1004b9c8     LIBCMT:winapinls.obj
 0002:000099d0       ??_C@_15FEDGKCDI@?$AAr?$AAu?$AA?$AA@ 1004b9d0     LIBCMT:winapinls.obj
 0002:000099d8       ??_C@_15GLKMLLHM@?$AAh?$AAr?$AA?$AA@ 1004b9d8     LIBCMT:winapinls.obj
 0002:000099e0       ??_C@_15CPKMFBDB@?$AAs?$AAk?$AA?$AA@ 1004b9e0     LIBCMT:winapinls.obj
 0002:000099e8       ??_C@_15BAAIOGMK@?$AAs?$AAq?$AA?$AA@ 1004b9e8     LIBCMT:winapinls.obj
 0002:000099f0       ??_C@_15INNPNOHD@?$AAs?$AAv?$AA?$AA@ 1004b9f0     LIBCMT:winapinls.obj
 0002:000099f8       ??_C@_15CABMMOGH@?$AAt?$AAh?$AA?$AA@ 1004b9f8     LIBCMT:winapinls.obj
 0002:00009a00       ??_C@_15BPLIHJJM@?$AAt?$AAr?$AA?$AA@ 1004ba00     LIBCMT:winapinls.obj
 0002:00009a08       ??_C@_15NEOEKKDJ@?$AAu?$AAr?$AA?$AA@ 1004ba08     LIBCMT:winapinls.obj
 0002:00009a10       ??_C@_15NFICGAJK@?$AAi?$AAd?$AA?$AA@ 1004ba10     LIBCMT:winapinls.obj
 0002:00009a18       ??_C@_15PJPFLCCM@?$AAu?$AAk?$AA?$AA@ 1004ba18     LIBCMT:winapinls.obj
 0002:00009a20       ??_C@_15HPJPHDM@?$AAb?$AAe?$AA?$AA@ 1004ba20     LIBCMT:winapinls.obj
 0002:00009a28       ??_C@_15LCHLGJII@?$AAs?$AAl?$AA?$AA@ 1004ba28     LIBCMT:winapinls.obj
 0002:00009a30       ??_C@_15PCFJPHHO@?$AAe?$AAt?$AA?$AA@ 1004ba30     LIBCMT:winapinls.obj
 0002:00009a38       ??_C@_15HPFPGODN@?$AAl?$AAv?$AA?$AA@ 1004ba38     LIBCMT:winapinls.obj
 0002:00009a40       ??_C@_15NFFGKGLG@?$AAl?$AAt?$AA?$AA@ 1004ba40     LIBCMT:winapinls.obj
 0002:00009a48       ??_C@_15BDAKCCHN@?$AAf?$AAa?$AA?$AA@ 1004ba48     LIBCMT:winapinls.obj
 0002:00009a50       ??_C@_15NFGIAIAJ@?$AAv?$AAi?$AA?$AA@ 1004ba50     LIBCMT:winapinls.obj
 0002:00009a58       ??_C@_15LMKNDMHN@?$AAh?$AAy?$AA?$AA@ 1004ba58     LIBCMT:winapinls.obj
 0002:00009a60       ??_C@_15IJBHMCFL@?$AAa?$AAz?$AA?$AA@ 1004ba60     LIBCMT:winapinls.obj
 0002:00009a68       ??_C@_15EKOFJABL@?$AAe?$AAu?$AA?$AA@ 1004ba68     LIBCMT:winapinls.obj
 0002:00009a70       ??_C@_15BGHADCNK@?$AAm?$AAk?$AA?$AA@ 1004ba70     LIBCMT:winapinls.obj
 0002:00009a78       ??_C@_15JDNICKHM@?$AAa?$AAf?$AA?$AA@ 1004ba78     LIBCMT:winapinls.obj
 0002:00009a80       ??_C@_15KPJEDBKD@?$AAk?$AAa?$AA?$AA@ 1004ba80     LIBCMT:winapinls.obj
 0002:00009a88       ??_C@_15PDNFFFEO@?$AAf?$AAo?$AA?$AA@ 1004ba88     LIBCMT:winapinls.obj
 0002:00009a90       ??_C@_15OMLEGLOC@?$AAh?$AAi?$AA?$AA@ 1004ba90     LIBCMT:winapinls.obj
 0002:00009a98       ??_C@_15IDNNENKK@?$AAm?$AAs?$AA?$AA@ 1004ba98     LIBCMT:winapinls.obj
 0002:00009aa0       ??_C@_15MACJNBMH@?$AAk?$AAk?$AA?$AA@ 1004baa0     LIBCMT:winapinls.obj
 0002:00009aa8       ??_C@_15DKDJEOND@?$AAk?$AAy?$AA?$AA@ 1004baa8     LIBCMT:winapinls.obj
 0002:00009ab0       ??_C@_15DFGDLJBG@?$AAs?$AAw?$AA?$AA@ 1004bab0     LIBCMT:winapinls.obj
 0002:00009ab8       ??_C@_15BBFAICNG@?$AAu?$AAz?$AA?$AA@ 1004bab8     LIBCMT:winapinls.obj
 0002:00009ac0       ??_C@_15DKNDCGEA@?$AAt?$AAt?$AA?$AA@ 1004bac0     LIBCMT:winapinls.obj
 0002:00009ac8       ??_C@_15MGIFMDPL@?$AAp?$AAa?$AA?$AA@ 1004bac8     LIBCMT:winapinls.obj
 0002:00009ad0       ??_C@_15HCNDBBA@?$AAg?$AAu?$AA?$AA@ 1004bad0     LIBCMT:winapinls.obj
 0002:00009ad8       ??_C@_15FNBEIBON@?$AAt?$AAa?$AA?$AA@ 1004bad8     LIBCMT:winapinls.obj
 0002:00009ae0       ??_C@_15NCHGBGLK@?$AAt?$AAe?$AA?$AA@ 1004bae0     LIBCMT:winapinls.obj
 0002:00009ae8       ??_C@_15PHPHCBPF@?$AAk?$AAn?$AA?$AA@ 1004bae8     LIBCMT:winapinls.obj
 0002:00009af0       ??_C@_15DLGBCKMP@?$AAm?$AAr?$AA?$AA@ 1004baf0     LIBCMT:winapinls.obj
 0002:00009af8       ??_C@_15EABBLBFF@?$AAs?$AAa?$AA?$AA@ 1004baf8     LIBCMT:winapinls.obj
 0002:00009b00       ??_C@_15CBKOMCOI@?$AAm?$AAn?$AA?$AA@ 1004bb00     LIBCMT:winapinls.obj
 0002:00009b08       ??_C@_15CKDMCJAF@?$AAg?$AAl?$AA?$AA@ 1004bb08     LIBCMT:winapinls.obj
 0002:00009b10       ??_C@_17CNJFBPG@?$AAk?$AAo?$AAk?$AA?$AA@ 1004bb10     LIBCMT:winapinls.obj
 0002:00009b18       ??_C@_17FFBJICPL@?$AAs?$AAy?$AAr?$AA?$AA@ 1004bb18     LIBCMT:winapinls.obj
 0002:00009b20       ??_C@_17KPNDCPAF@?$AAd?$AAi?$AAv?$AA?$AA@ 1004bb20     LIBCMT:winapinls.obj
 0002:00009b28       ??_C@_11LOCGONAA@?$AA?$AA@ 1004bb28     LIBCMT:winapinls.obj
 0002:00009b2c       ??_C@_1M@OKAHONE@?$AAa?$AAr?$AA?9?$AAS?$AAA?$AA?$AA@ 1004bb2c     LIBCMT:winapinls.obj
 0002:00009b38       ??_C@_1M@FFFIGIGK@?$AAb?$AAg?$AA?9?$AAB?$AAG?$AA?$AA@ 1004bb38     LIBCMT:winapinls.obj
 0002:00009b44       ??_C@_1M@BJNKEDC@?$AAc?$AAa?$AA?9?$AAE?$AAS?$AA?$AA@ 1004bb44     LIBCMT:winapinls.obj
 0002:00009b50       ??_C@_1M@IJJHFJHA@?$AAc?$AAs?$AA?9?$AAC?$AAZ?$AA?$AA@ 1004bb50     LIBCMT:winapinls.obj
 0002:00009b5c       ??_C@_1M@CLPEOBGI@?$AAd?$AAa?$AA?9?$AAD?$AAK?$AA?$AA@ 1004bb5c     LIBCMT:winapinls.obj
 0002:00009b68       ??_C@_1M@MCMADGCB@?$AAd?$AAe?$AA?9?$AAD?$AAE?$AA?$AA@ 1004bb68     LIBCMT:winapinls.obj
 0002:00009b74       ??_C@_1M@OOCKEMAM@?$AAe?$AAl?$AA?9?$AAG?$AAR?$AA?$AA@ 1004bb74     LIBCMT:winapinls.obj
 0002:00009b80       ??_C@_1M@DDNJFGID@?$AAf?$AAi?$AA?9?$AAF?$AAI?$AA?$AA@ 1004bb80     LIBCMT:winapinls.obj
 0002:00009b8c       ??_C@_1M@GLIPPMAC@?$AAf?$AAr?$AA?9?$AAF?$AAR?$AA?$AA@ 1004bb8c     LIBCMT:winapinls.obj
 0002:00009b98       ??_C@_1M@GFMCHPE@?$AAh?$AAe?$AA?9?$AAI?$AAL?$AA?$AA@ 1004bb98     LIBCMT:winapinls.obj
 0002:00009ba4       ??_C@_1M@MHLPGNKM@?$AAh?$AAu?$AA?9?$AAH?$AAU?$AA?$AA@ 1004bba4     LIBCMT:winapinls.obj
 0002:00009bb0       ??_C@_1M@LPDDNNPN@?$AAi?$AAs?$AA?9?$AAI?$AAS?$AA?$AA@ 1004bbb0     LIBCMT:winapinls.obj
 0002:00009bbc       ??_C@_1M@MADIPODN@?$AAi?$AAt?$AA?9?$AAI?$AAT?$AA?$AA@ 1004bbbc     LIBCMT:winapinls.obj
 0002:00009bc8       ??_C@_1M@IHBJJGG@?$AAn?$AAl?$AA?9?$AAN?$AAL?$AA?$AA@ 1004bbc8     LIBCMT:winapinls.obj
 0002:00009bd4       ??_C@_1M@EANAGDL@?$AAn?$AAb?$AA?9?$AAN?$AAO?$AA?$AA@ 1004bbd4     LIBCMT:winapinls.obj
 0002:00009be0       ??_C@_1M@NEIEMEGP@?$AAp?$AAl?$AA?9?$AAP?$AAL?$AA?$AA@ 1004bbe0     LIBCMT:winapinls.obj
 0002:00009bec       ??_C@_1M@BOCFIGEP@?$AAp?$AAt?$AA?9?$AAB?$AAR?$AA?$AA@ 1004bbec     LIBCMT:winapinls.obj
 0002:00009bf8       ??_C@_1M@IMPFOPBG@?$AAr?$AAo?$AA?9?$AAR?$AAO?$AA?$AA@ 1004bbf8     LIBCMT:winapinls.obj
 0002:00009c04       ??_C@_1M@IDNNEJMM@?$AAr?$AAu?$AA?9?$AAR?$AAU?$AA?$AA@ 1004bc04     LIBCMT:winapinls.obj
 0002:00009c10       ??_C@_1M@LILEEOGM@?$AAh?$AAr?$AA?9?$AAH?$AAR?$AA?$AA@ 1004bc10     LIBCMT:winapinls.obj
 0002:00009c1c       ??_C@_1M@FKIFEHPB@?$AAs?$AAk?$AA?9?$AAS?$AAK?$AA?$AA@ 1004bc1c     LIBCMT:winapinls.obj
 0002:00009c28       ??_C@_1M@LJMAMNPJ@?$AAs?$AAq?$AA?9?$AAA?$AAL?$AA?$AA@ 1004bc28     LIBCMT:winapinls.obj
 0002:00009c34       ??_C@_1M@GIAKDKJK@?$AAs?$AAv?$AA?9?$AAS?$AAE?$AA?$AA@ 1004bc34     LIBCMT:winapinls.obj
 0002:00009c40       ??_C@_1M@MKJKIKCL@?$AAt?$AAh?$AA?9?$AAT?$AAH?$AA?$AA@ 1004bc40     LIBCMT:winapinls.obj
 0002:00009c4c       ??_C@_1M@MFLCCMPB@?$AAt?$AAr?$AA?9?$AAT?$AAR?$AA?$AA@ 1004bc4c     LIBCMT:winapinls.obj
 0002:00009c58       ??_C@_1M@OIJHDKJN@?$AAu?$AAr?$AA?9?$AAP?$AAK?$AA?$AA@ 1004bc58     LIBCMT:winapinls.obj
 0002:00009c64       ??_C@_1M@LHIPCIEK@?$AAi?$AAd?$AA?9?$AAI?$AAD?$AA?$AA@ 1004bc64     LIBCMT:winapinls.obj
 0002:00009c70       ??_C@_1M@MFMOBGI@?$AAu?$AAk?$AA?9?$AAU?$AAA?$AA?$AA@ 1004bc70     LIBCMT:winapinls.obj
 0002:00009c7c       ??_C@_1M@OBGLJIPL@?$AAb?$AAe?$AA?9?$AAB?$AAY?$AA?$AA@ 1004bc7c     LIBCMT:winapinls.obj
 0002:00009c88       ??_C@_1M@BCFAJEAD@?$AAs?$AAl?$AA?9?$AAS?$AAI?$AA?$AA@ 1004bc88     LIBCMT:winapinls.obj
 0002:00009c94       ??_C@_1M@FKFFEDDN@?$AAe?$AAt?$AA?9?$AAE?$AAE?$AA?$AA@ 1004bc94     LIBCMT:winapinls.obj
 0002:00009ca0       ??_C@_1M@KGKKAACI@?$AAl?$AAv?$AA?9?$AAL?$AAV?$AA?$AA@ 1004bca0     LIBCMT:winapinls.obj
 0002:00009cac       ??_C@_1M@IFGBIJO@?$AAl?$AAt?$AA?9?$AAL?$AAT?$AA?$AA@ 1004bcac     LIBCMT:winapinls.obj
 0002:00009cb8       ??_C@_1M@FGEAHEDM@?$AAf?$AAa?$AA?9?$AAI?$AAR?$AA?$AA@ 1004bcb8     LIBCMT:winapinls.obj
 0002:00009cc4       ??_C@_1M@KBMAIBFN@?$AAv?$AAi?$AA?9?$AAV?$AAN?$AA?$AA@ 1004bcc4     LIBCMT:winapinls.obj
 0002:00009cd0       ??_C@_1M@GPCBKDJK@?$AAh?$AAy?$AA?9?$AAA?$AAM?$AA?$AA@ 1004bcd0     LIBCMT:winapinls.obj
 0002:00009cdc       ??_C@_1BG@BECMDDJB@?$AAa?$AAz?$AA?9?$AAA?$AAZ?$AA?9?$AAL?$AAa?$AAt?$AAn?$AA?$AA@ 1004bcdc     LIBCMT:winapinls.obj
 0002:00009cf4       ??_C@_1M@MAOFCAEA@?$AAe?$AAu?$AA?9?$AAE?$AAS?$AA?$AA@ 1004bcf4     LIBCMT:winapinls.obj
 0002:00009d00       ??_C@_1M@IGHABKPI@?$AAm?$AAk?$AA?9?$AAM?$AAK?$AA?$AA@ 1004bd00     LIBCMT:winapinls.obj
 0002:00009d0c       ??_C@_1M@IAIGNEJG@?$AAt?$AAn?$AA?9?$AAZ?$AAA?$AA?$AA@ 1004bd0c     LIBCMT:winapinls.obj
 0002:00009d18       ??_C@_1M@IIJCOJFA@?$AAx?$AAh?$AA?9?$AAZ?$AAA?$AA?$AA@ 1004bd18     LIBCMT:winapinls.obj
 0002:00009d24       ??_C@_1M@LGPJHNJH@?$AAz?$AAu?$AA?9?$AAZ?$AAA?$AA?$AA@ 1004bd24     LIBCMT:winapinls.obj
 0002:00009d30       ??_C@_1M@HOKAOIO@?$AAa?$AAf?$AA?9?$AAZ?$AAA?$AA?$AA@ 1004bd30     LIBCMT:winapinls.obj
 0002:00009d3c       ??_C@_1M@DPCLHLIE@?$AAk?$AAa?$AA?9?$AAG?$AAE?$AA?$AA@ 1004bd3c     LIBCMT:winapinls.obj
 0002:00009d48       ??_C@_1M@BLKMHJBI@?$AAf?$AAo?$AA?9?$AAF?$AAO?$AA?$AA@ 1004bd48     LIBCMT:winapinls.obj
 0002:00009d54       ??_C@_1M@LGGJAPPB@?$AAh?$AAi?$AA?9?$AAI?$AAN?$AA?$AA@ 1004bd54     LIBCMT:winapinls.obj
 0002:00009d60       ??_C@_1M@FIKPIHFE@?$AAm?$AAt?$AA?9?$AAM?$AAT?$AA?$AA@ 1004bd60     LIBCMT:winapinls.obj
 0002:00009d6c       ??_C@_1M@HEGGPBFA@?$AAs?$AAe?$AA?9?$AAN?$AAO?$AA?$AA@ 1004bd6c     LIBCMT:winapinls.obj
 0002:00009d78       ??_C@_1M@EIBJEEPA@?$AAm?$AAs?$AA?9?$AAM?$AAY?$AA?$AA@ 1004bd78     LIBCMT:winapinls.obj
 0002:00009d84       ??_C@_1M@FHLBGMPP@?$AAk?$AAk?$AA?9?$AAK?$AAZ?$AA?$AA@ 1004bd84     LIBCMT:winapinls.obj
 0002:00009d90       ??_C@_1M@NGJJLCGI@?$AAk?$AAy?$AA?9?$AAK?$AAG?$AA?$AA@ 1004bd90     LIBCMT:winapinls.obj
 0002:00009d9c       ??_C@_1M@GIENNBFC@?$AAs?$AAw?$AA?9?$AAK?$AAE?$AA?$AA@ 1004bd9c     LIBCMT:winapinls.obj
 0002:00009da8       ??_C@_1BG@NDGMJIMJ@?$AAu?$AAz?$AA?9?$AAU?$AAZ?$AA?9?$AAL?$AAa?$AAt?$AAn?$AA?$AA@ 1004bda8     LIBCMT:winapinls.obj
 0002:00009dc0       ??_C@_1M@IDCCIHBC@?$AAt?$AAt?$AA?9?$AAR?$AAU?$AA?$AA@ 1004bdc0     LIBCMT:winapinls.obj
 0002:00009dcc       ??_C@_1M@LOICPMOJ@?$AAb?$AAn?$AA?9?$AAI?$AAN?$AA?$AA@ 1004bdcc     LIBCMT:winapinls.obj
 0002:00009dd8       ??_C@_1M@KPKKNEAH@?$AAp?$AAa?$AA?9?$AAI?$AAN?$AA?$AA@ 1004bdd8     LIBCMT:winapinls.obj
 0002:00009de4       ??_C@_1M@PJGPPBOG@?$AAg?$AAu?$AA?9?$AAI?$AAN?$AA?$AA@ 1004bde4     LIBCMT:winapinls.obj
 0002:00009df0       ??_C@_1M@KMKMOPHI@?$AAt?$AAa?$AA?9?$AAI?$AAN?$AA?$AA@ 1004bdf0     LIBCMT:winapinls.obj
 0002:00009dfc       ??_C@_1M@KFEHEPAC@?$AAt?$AAe?$AA?9?$AAI?$AAN?$AA?$AA@ 1004bdfc     LIBCMT:winapinls.obj
 0002:00009e08       ??_C@_1M@CDCLMGHI@?$AAk?$AAn?$AA?9?$AAI?$AAN?$AA?$AA@ 1004be08     LIBCMT:winapinls.obj
 0002:00009e14       ??_C@_1M@MIODLDKF@?$AAm?$AAl?$AA?9?$AAI?$AAN?$AA?$AA@ 1004be14     LIBCMT:winapinls.obj
 0002:00009e20       ??_C@_1M@PBIEACPO@?$AAm?$AAr?$AA?9?$AAI?$AAN?$AA?$AA@ 1004be20     LIBCMT:winapinls.obj
 0002:00009e2c       ??_C@_1M@NIDEAGPH@?$AAs?$AAa?$AA?9?$AAI?$AAN?$AA?$AA@ 1004be2c     LIBCMT:winapinls.obj
 0002:00009e38       ??_C@_1M@FHIHCBIO@?$AAm?$AAn?$AA?9?$AAM?$AAN?$AA?$AA@ 1004be38     LIBCMT:winapinls.obj
 0002:00009e44       ??_C@_1M@JAIJPENP@?$AAc?$AAy?$AA?9?$AAG?$AAB?$AA?$AA@ 1004be44     LIBCMT:winapinls.obj
 0002:00009e50       ??_C@_1M@PHGFBEPN@?$AAg?$AAl?$AA?9?$AAE?$AAS?$AA?$AA@ 1004be50     LIBCMT:winapinls.obj
 0002:00009e5c       ??_C@_1O@KPIPDNCP@?$AAk?$AAo?$AAk?$AA?9?$AAI?$AAN?$AA?$AA@ 1004be5c     LIBCMT:winapinls.obj
 0002:00009e6c       ??_C@_1O@KNHJLDJA@?$AAs?$AAy?$AAr?$AA?9?$AAS?$AAY?$AA?$AA@ 1004be6c     LIBCMT:winapinls.obj
 0002:00009e7c       ??_C@_1O@MKEKBLAH@?$AAd?$AAi?$AAv?$AA?9?$AAM?$AAV?$AA?$AA@ 1004be7c     LIBCMT:winapinls.obj
 0002:00009e8c       ??_C@_1O@OHDCKDDF@?$AAq?$AAu?$AAz?$AA?9?$AAB?$AAO?$AA?$AA@ 1004be8c     LIBCMT:winapinls.obj
 0002:00009e9c       ??_C@_1M@LEPJNLFD@?$AAn?$AAs?$AA?9?$AAZ?$AAA?$AA?$AA@ 1004be9c     LIBCMT:winapinls.obj
 0002:00009ea8       ??_C@_1M@OMLEIIJB@?$AAm?$AAi?$AA?9?$AAN?$AAZ?$AA?$AA@ 1004bea8     LIBCMT:winapinls.obj
 0002:00009eb4       ??_C@_1M@PMPEAILG@?$AAa?$AAr?$AA?9?$AAI?$AAQ?$AA?$AA@ 1004beb4     LIBCMT:winapinls.obj
 0002:00009ec0       ??_C@_1M@CNKPNOEE@?$AAd?$AAe?$AA?9?$AAC?$AAH?$AA?$AA@ 1004bec0     LIBCMT:winapinls.obj
 0002:00009ecc       ??_C@_1M@LKMGMLKO@?$AAe?$AAn?$AA?9?$AAG?$AAB?$AA?$AA@ 1004becc     LIBCMT:winapinls.obj
 0002:00009ed8       ??_C@_1M@PGKJFFGL@?$AAe?$AAs?$AA?9?$AAM?$AAX?$AA?$AA@ 1004bed8     LIBCMT:winapinls.obj
 0002:00009ee4       ??_C@_1M@DNNANBDC@?$AAf?$AAr?$AA?9?$AAB?$AAE?$AA?$AA@ 1004bee4     LIBCMT:winapinls.obj
 0002:00009ef0       ??_C@_1M@HLGMDFHM@?$AAi?$AAt?$AA?9?$AAC?$AAH?$AA?$AA@ 1004bef0     LIBCMT:winapinls.obj
 0002:00009efc       ??_C@_1M@CLLBGJH@?$AAn?$AAl?$AA?9?$AAB?$AAE?$AA?$AA@ 1004befc     LIBCMT:winapinls.obj
 0002:00009f08       ??_C@_1M@BODBOGLF@?$AAn?$AAn?$AA?9?$AAN?$AAO?$AA?$AA@ 1004bf08     LIBCMT:winapinls.obj
 0002:00009f14       ??_C@_1M@HFFAHKAD@?$AAp?$AAt?$AA?9?$AAP?$AAT?$AA?$AA@ 1004bf14     LIBCMT:winapinls.obj
 0002:00009f20       ??_C@_1BG@LNOAKHIE@?$AAs?$AAr?$AA?9?$AAS?$AAP?$AA?9?$AAL?$AAa?$AAt?$AAn?$AA?$AA@ 1004bf20     LIBCMT:winapinls.obj
 0002:00009f38       ??_C@_1M@HBMHBGAK@?$AAs?$AAv?$AA?9?$AAF?$AAI?$AA?$AA@ 1004bf38     LIBCMT:winapinls.obj
 0002:00009f44       ??_C@_1BG@DGCJGJBE@?$AAa?$AAz?$AA?9?$AAA?$AAZ?$AA?9?$AAC?$AAy?$AAr?$AAl?$AA?$AA@ 1004bf44     LIBCMT:winapinls.obj
 0002:00009f5c       ??_C@_1M@KEJDAAHB@?$AAs?$AAe?$AA?9?$AAS?$AAE?$AA?$AA@ 1004bf5c     LIBCMT:winapinls.obj
 0002:00009f68       ??_C@_1M@HEIBJJAD@?$AAm?$AAs?$AA?9?$AAB?$AAN?$AA?$AA@ 1004bf68     LIBCMT:winapinls.obj
 0002:00009f74       ??_C@_1BG@PBGJMCEM@?$AAu?$AAz?$AA?9?$AAU?$AAZ?$AA?9?$AAC?$AAy?$AAr?$AAl?$AA?$AA@ 1004bf74     LIBCMT:winapinls.obj
 0002:00009f8c       ??_C@_1O@LAOBCMDF@?$AAq?$AAu?$AAz?$AA?9?$AAE?$AAC?$AA?$AA@ 1004bf8c     LIBCMT:winapinls.obj
 0002:00009f9c       ??_C@_1M@POEEMAIO@?$AAa?$AAr?$AA?9?$AAE?$AAG?$AA?$AA@ 1004bf9c     LIBCMT:winapinls.obj
 0002:00009fa8       ??_C@_1M@EFAKDEDL@?$AAz?$AAh?$AA?9?$AAH?$AAK?$AA?$AA@ 1004bfa8     LIBCMT:winapinls.obj
 0002:00009fb4       ??_C@_1M@HKKIJHGI@?$AAd?$AAe?$AA?9?$AAA?$AAT?$AA?$AA@ 1004bfb4     LIBCMT:winapinls.obj
 0002:00009fc0       ??_C@_1M@KBFBEHJF@?$AAe?$AAn?$AA?9?$AAA?$AAU?$AA?$AA@ 1004bfc0     LIBCMT:winapinls.obj
 0002:00009fcc       ??_C@_1M@MNPLFAAH@?$AAe?$AAs?$AA?9?$AAE?$AAS?$AA?$AA@ 1004bfcc     LIBCMT:winapinls.obj
 0002:00009fd8       ??_C@_1M@HJOOJFMA@?$AAf?$AAr?$AA?9?$AAC?$AAA?$AA?$AA@ 1004bfd8     LIBCMT:winapinls.obj
 0002:00009fe4       ??_C@_1BG@JPOFPNAB@?$AAs?$AAr?$AA?9?$AAS?$AAP?$AA?9?$AAC?$AAy?$AAr?$AAl?$AA?$AA@ 1004bfe4     LIBCMT:winapinls.obj
 0002:00009ffc       ??_C@_1M@LNFOCMOB@?$AAs?$AAe?$AA?9?$AAF?$AAI?$AA?$AA@ 1004bffc     LIBCMT:winapinls.obj
 0002:0000a008       ??_C@_1O@MGJBOAMB@?$AAq?$AAu?$AAz?$AA?9?$AAP?$AAE?$AA?$AA@ 1004c008     LIBCMT:winapinls.obj
 0002:0000a018       ??_C@_1M@GJINLBOK@?$AAa?$AAr?$AA?9?$AAL?$AAY?$AA?$AA@ 1004c018     LIBCMT:winapinls.obj
 0002:0000a024       ??_C@_1M@GGMNHJNL@?$AAz?$AAh?$AA?9?$AAS?$AAG?$AA?$AA@ 1004c024     LIBCMT:winapinls.obj
 0002:0000a030       ??_C@_1M@HOIKODND@?$AAd?$AAe?$AA?9?$AAL?$AAU?$AA?$AA@ 1004c030     LIBCMT:winapinls.obj
 0002:0000a03c       ??_C@_1M@DDOCCGFG@?$AAe?$AAn?$AA?9?$AAC?$AAA?$AA?$AA@ 1004c03c     LIBCMT:winapinls.obj
 0002:0000a048       ??_C@_1M@BNOEMJLF@?$AAe?$AAs?$AA?9?$AAG?$AAT?$AA?$AA@ 1004c048     LIBCMT:winapinls.obj
 0002:0000a054       ??_C@_1M@EOGNKEK@?$AAf?$AAr?$AA?9?$AAC?$AAH?$AA?$AA@ 1004c054     LIBCMT:winapinls.obj
 0002:0000a060       ??_C@_1M@FLIDJFHL@?$AAh?$AAr?$AA?9?$AAB?$AAA?$AA?$AA@ 1004c060     LIBCMT:winapinls.obj
 0002:0000a06c       ??_C@_1O@FMCELNAJ@?$AAs?$AAm?$AAj?$AA?9?$AAN?$AAO?$AA?$AA@ 1004c06c     LIBCMT:winapinls.obj
 0002:0000a07c       ??_C@_1M@JHGLJMGJ@?$AAa?$AAr?$AA?9?$AAD?$AAZ?$AA?$AA@ 1004c07c     LIBCMT:winapinls.obj
 0002:0000a088       ??_C@_1M@JKKFDCNP@?$AAz?$AAh?$AA?9?$AAM?$AAO?$AA?$AA@ 1004c088     LIBCMT:winapinls.obj
 0002:0000a094       ??_C@_1M@GEEFALPE@?$AAd?$AAe?$AA?9?$AAL?$AAI?$AA?$AA@ 1004c094     LIBCMT:winapinls.obj
 0002:0000a0a0       ??_C@_1M@IGEOFBG@?$AAe?$AAn?$AA?9?$AAN?$AAZ?$AA?$AA@ 1004c0a0     LIBCMT:winapinls.obj
 0002:0000a0ac       ??_C@_1M@KDBONEHP@?$AAe?$AAs?$AA?9?$AAC?$AAR?$AA?$AA@ 1004c0ac     LIBCMT:winapinls.obj
 0002:0000a0b8       ??_C@_1M@FHMDOHNN@?$AAf?$AAr?$AA?9?$AAL?$AAU?$AA?$AA@ 1004c0b8     LIBCMT:winapinls.obj
 0002:0000a0c4       ??_C@_1BG@NFKKMAFG@?$AAb?$AAs?$AA?9?$AAB?$AAA?$AA?9?$AAL?$AAa?$AAt?$AAn?$AA?$AA@ 1004c0c4     LIBCMT:winapinls.obj
 0002:0000a0dc       ??_C@_1O@IMNBEMCI@?$AAs?$AAm?$AAj?$AA?9?$AAS?$AAE?$AA?$AA@ 1004c0dc     LIBCMT:winapinls.obj
 0002:0000a0ec       ??_C@_1M@DHHMBNDP@?$AAa?$AAr?$AA?9?$AAM?$AAA?$AA?$AA@ 1004c0ec     LIBCMT:winapinls.obj
 0002:0000a0f8       ??_C@_1M@BNBLJCGH@?$AAe?$AAn?$AA?9?$AAI?$AAE?$AA?$AA@ 1004c0f8     LIBCMT:winapinls.obj
 0002:0000a104       ??_C@_1M@GEPAFMDL@?$AAe?$AAs?$AA?9?$AAP?$AAA?$AA?$AA@ 1004c104     LIBCMT:winapinls.obj
 0002:0000a110       ??_C@_1M@OJONDMDL@?$AAf?$AAr?$AA?9?$AAM?$AAC?$AA?$AA@ 1004c110     LIBCMT:winapinls.obj
 0002:0000a11c       ??_C@_1BG@OBCNFJB@?$AAs?$AAr?$AA?9?$AAB?$AAA?$AA?9?$AAL?$AAa?$AAt?$AAn?$AA?$AA@ 1004c11c     LIBCMT:winapinls.obj
 0002:0000a134       ??_C@_1O@KEMEEGPO@?$AAs?$AAm?$AAa?$AA?9?$AAN?$AAO?$AA?$AA@ 1004c134     LIBCMT:winapinls.obj
 0002:0000a144       ??_C@_1M@ELMGFODK@?$AAa?$AAr?$AA?9?$AAT?$AAN?$AA?$AA@ 1004c144     LIBCMT:winapinls.obj
 0002:0000a150       ??_C@_1M@BHDLHFAF@?$AAe?$AAn?$AA?9?$AAZ?$AAA?$AA?$AA@ 1004c150     LIBCMT:winapinls.obj
 0002:0000a15c       ??_C@_1M@BMGIGLIF@?$AAe?$AAs?$AA?9?$AAD?$AAO?$AA?$AA@ 1004c15c     LIBCMT:winapinls.obj
 0002:0000a168       ??_C@_1BG@CMBHIPBE@?$AAs?$AAr?$AA?9?$AAB?$AAA?$AA?9?$AAC?$AAy?$AAr?$AAl?$AA?$AA@ 1004c168     LIBCMT:winapinls.obj
 0002:0000a180       ??_C@_1O@HEDBLHNP@?$AAs?$AAm?$AAa?$AA?9?$AAS?$AAE?$AA?$AA@ 1004c180     LIBCMT:winapinls.obj
 0002:0000a190       ??_C@_1M@DAGCADIM@?$AAa?$AAr?$AA?9?$AAO?$AAM?$AA?$AA@ 1004c190     LIBCMT:winapinls.obj
 0002:0000a19c       ??_C@_1M@FODLMICG@?$AAe?$AAn?$AA?9?$AAJ?$AAM?$AA?$AA@ 1004c19c     LIBCMT:winapinls.obj
 0002:0000a1a8       ??_C@_1M@DNMLCIHB@?$AAe?$AAs?$AA?9?$AAV?$AAE?$AA?$AA@ 1004c1a8     LIBCMT:winapinls.obj
 0002:0000a1b4       ??_C@_1O@EOKHMKJK@?$AAs?$AAm?$AAs?$AA?9?$AAF?$AAI?$AA?$AA@ 1004c1b4     LIBCMT:winapinls.obj
 0002:0000a1c4       ??_C@_1M@CAFJMKOF@?$AAa?$AAr?$AA?9?$AAY?$AAE?$AA?$AA@ 1004c1c4     LIBCMT:winapinls.obj
 0002:0000a1d0       ??_C@_1M@CBFHIJLI@?$AAe?$AAn?$AA?9?$AAC?$AAB?$AA?$AA@ 1004c1d0     LIBCMT:winapinls.obj
 0002:0000a1dc       ??_C@_1M@BGNFLDN@?$AAe?$AAs?$AA?9?$AAC?$AAO?$AA?$AA@ 1004c1dc     LIBCMT:winapinls.obj
 0002:0000a1e8       ??_C@_1O@JMPHMAMC@?$AAs?$AAm?$AAn?$AA?9?$AAF?$AAI?$AA?$AA@ 1004c1e8     LIBCMT:winapinls.obj
 0002:0000a1f8       ??_C@_1M@JLANABKE@?$AAa?$AAr?$AA?9?$AAS?$AAY?$AA?$AA@ 1004c1f8     LIBCMT:winapinls.obj
 0002:0000a204       ??_C@_1M@HPKGCFGN@?$AAe?$AAn?$AA?9?$AAB?$AAZ?$AA?$AA@ 1004c204     LIBCMT:winapinls.obj
 0002:0000a210       ??_C@_1M@OLJCMLGM@?$AAe?$AAs?$AA?9?$AAP?$AAE?$AA?$AA@ 1004c210     LIBCMT:winapinls.obj
 0002:0000a21c       ??_C@_1M@MKKGFKLE@?$AAa?$AAr?$AA?9?$AAJ?$AAO?$AA?$AA@ 1004c21c     LIBCMT:winapinls.obj
 0002:0000a228       ??_C@_1M@EKPGLDNI@?$AAe?$AAn?$AA?9?$AAT?$AAT?$AA?$AA@ 1004c228     LIBCMT:winapinls.obj
 0002:0000a234       ??_C@_1M@OONGHFHE@?$AAe?$AAs?$AA?9?$AAA?$AAR?$AA?$AA@ 1004c234     LIBCMT:winapinls.obj
 0002:0000a240       ??_C@_1M@OOJFGBHE@?$AAa?$AAr?$AA?9?$AAL?$AAB?$AA?$AA@ 1004c240     LIBCMT:winapinls.obj
 0002:0000a24c       ??_C@_1M@GCEJHNEG@?$AAe?$AAn?$AA?9?$AAZ?$AAW?$AA?$AA@ 1004c24c     LIBCMT:winapinls.obj
 0002:0000a258       ??_C@_1M@JNOCAHJI@?$AAe?$AAs?$AA?9?$AAE?$AAC?$AA?$AA@ 1004c258     LIBCMT:winapinls.obj
 0002:0000a264       ??_C@_1M@JEFHPGGB@?$AAa?$AAr?$AA?9?$AAK?$AAW?$AA?$AA@ 1004c264     LIBCMT:winapinls.obj
 0002:0000a270       ??_C@_1M@MLKIBJOJ@?$AAe?$AAn?$AA?9?$AAP?$AAH?$AA?$AA@ 1004c270     LIBCMT:winapinls.obj
 0002:0000a27c       ??_C@_1M@BDNIPEND@?$AAe?$AAs?$AA?9?$AAC?$AAL?$AA?$AA@ 1004c27c     LIBCMT:winapinls.obj
 0002:0000a288       ??_C@_1M@MPNMEKBD@?$AAa?$AAr?$AA?9?$AAA?$AAE?$AA?$AA@ 1004c288     LIBCMT:winapinls.obj
 0002:0000a294       ??_C@_1M@KBJALCPI@?$AAe?$AAs?$AA?9?$AAU?$AAY?$AA?$AA@ 1004c294     LIBCMT:winapinls.obj
 0002:0000a2a0       ??_C@_1M@LLCCOAGA@?$AAa?$AAr?$AA?9?$AAB?$AAH?$AA?$AA@ 1004c2a0     LIBCMT:winapinls.obj
 0002:0000a2ac       ??_C@_1M@PBFNCDEL@?$AAe?$AAs?$AA?9?$AAP?$AAY?$AA?$AA@ 1004c2ac     LIBCMT:winapinls.obj
 0002:0000a2b8       ??_C@_1M@EDGINPNP@?$AAa?$AAr?$AA?9?$AAQ?$AAA?$AA?$AA@ 1004c2b8     LIBCMT:winapinls.obj
 0002:0000a2c4       ??_C@_1M@MKDBIIJI@?$AAe?$AAs?$AA?9?$AAB?$AAO?$AA?$AA@ 1004c2c4     LIBCMT:winapinls.obj
 0002:0000a2d0       ??_C@_1M@CPKKEBLD@?$AAe?$AAs?$AA?9?$AAS?$AAV?$AA?$AA@ 1004c2d0     LIBCMT:winapinls.obj
 0002:0000a2dc       ??_C@_1M@NDBGMMJL@?$AAe?$AAs?$AA?9?$AAH?$AAN?$AA?$AA@ 1004c2dc     LIBCMT:winapinls.obj
 0002:0000a2e8       ??_C@_1M@JIJIBHDP@?$AAe?$AAs?$AA?9?$AAN?$AAI?$AA?$AA@ 1004c2e8     LIBCMT:winapinls.obj
 0002:0000a2f4       ??_C@_1M@CGFMKEEK@?$AAe?$AAs?$AA?9?$AAP?$AAR?$AA?$AA@ 1004c2f4     LIBCMT:winapinls.obj
 0002:0000a300       ??_C@_1O@ICJHKIIK@?$AAz?$AAh?$AA?9?$AAC?$AAH?$AAT?$AA?$AA@ 1004c300     LIBCMT:winapinls.obj
 0002:0000a310       ??_C@_15CLNEJCE@?$AAs?$AAr?$AA?$AA@ 1004c310     LIBCMT:winapinls.obj
 0002:0000a318       ??_C@_1M@KAHEKEIG@?$AAa?$AAf?$AA?9?$AAz?$AAa?$AA?$AA@ 1004c318     LIBCMT:winapinls.obj
 0002:0000a324       ??_C@_1M@GIECOABL@?$AAa?$AAr?$AA?9?$AAa?$AAe?$AA?$AA@ 1004c324     LIBCMT:winapinls.obj
 0002:0000a330       ??_C@_1M@BMLMEKGI@?$AAa?$AAr?$AA?9?$AAb?$AAh?$AA?$AA@ 1004c330     LIBCMT:winapinls.obj
 0002:0000a33c       ??_C@_1M@DAPFDGGB@?$AAa?$AAr?$AA?9?$AAd?$AAz?$AA?$AA@ 1004c33c     LIBCMT:winapinls.obj
 0002:0000a348       ??_C@_1M@FJNKGKIG@?$AAa?$AAr?$AA?9?$AAe?$AAg?$AA?$AA@ 1004c348     LIBCMT:winapinls.obj
 0002:0000a354       ??_C@_1M@FLGKKCLO@?$AAa?$AAr?$AA?9?$AAi?$AAq?$AA?$AA@ 1004c354     LIBCMT:winapinls.obj
 0002:0000a360       ??_C@_1M@GNDIPALM@?$AAa?$AAr?$AA?9?$AAj?$AAo?$AA?$AA@ 1004c360     LIBCMT:winapinls.obj
 0002:0000a36c       ??_C@_1M@DDMJFMGJ@?$AAa?$AAr?$AA?9?$AAk?$AAw?$AA?$AA@ 1004c36c     LIBCMT:winapinls.obj
 0002:0000a378       ??_C@_1M@EJALMLHM@?$AAa?$AAr?$AA?9?$AAl?$AAb?$AA?$AA@ 1004c378     LIBCMT:winapinls.obj
 0002:0000a384       ??_C@_1M@MOBDBLOC@?$AAa?$AAr?$AA?9?$AAl?$AAy?$AA?$AA@ 1004c384     LIBCMT:winapinls.obj
 0002:0000a390       ??_C@_1M@JAOCLHDH@?$AAa?$AAr?$AA?9?$AAm?$AAa?$AA?$AA@ 1004c390     LIBCMT:winapinls.obj
 0002:0000a39c       ??_C@_1M@JHPMKJIE@?$AAa?$AAr?$AA?9?$AAo?$AAm?$AA?$AA@ 1004c39c     LIBCMT:winapinls.obj
 0002:0000a3a8       ??_C@_1M@OEPGHFNH@?$AAa?$AAr?$AA?9?$AAq?$AAa?$AA?$AA@ 1004c3a8     LIBCMT:winapinls.obj
 0002:0000a3b4       ??_C@_1M@KJDONENM@?$AAa?$AAr?$AA?9?$AAs?$AAa?$AA?$AA@ 1004c3b4     LIBCMT:winapinls.obj
 0002:0000a3c0       ??_C@_1M@DMJDKLKM@?$AAa?$AAr?$AA?9?$AAs?$AAy?$AA?$AA@ 1004c3c0     LIBCMT:winapinls.obj
 0002:0000a3cc       ??_C@_1M@OMFIPEDC@?$AAa?$AAr?$AA?9?$AAt?$AAn?$AA?$AA@ 1004c3cc     LIBCMT:winapinls.obj
 0002:0000a3d8       ??_C@_1M@IHMHGAON@?$AAa?$AAr?$AA?9?$AAy?$AAe?$AA?$AA@ 1004c3d8     LIBCMT:winapinls.obj
 0002:0000a3e4       ??_C@_1BG@KDCPGJGB@?$AAa?$AAz?$AA?9?$AAa?$AAz?$AA?9?$AAc?$AAy?$AAr?$AAl?$AA?$AA@ 1004c3e4     LIBCMT:winapinls.obj
 0002:0000a3fc       ??_C@_1BG@IBCKDDOE@?$AAa?$AAz?$AA?9?$AAa?$AAz?$AA?9?$AAl?$AAa?$AAt?$AAn?$AA?$AA@ 1004c3fc     LIBCMT:winapinls.obj
 0002:0000a414       ??_C@_1M@EGPFDCPD@?$AAb?$AAe?$AA?9?$AAb?$AAy?$AA?$AA@ 1004c414     LIBCMT:winapinls.obj
 0002:0000a420       ??_C@_1M@PCMGMCGC@?$AAb?$AAg?$AA?9?$AAb?$AAg?$AA?$AA@ 1004c420     LIBCMT:winapinls.obj
 0002:0000a42c       ??_C@_1M@BJBMFGOB@?$AAb?$AAn?$AA?9?$AAi?$AAn?$AA?$AA@ 1004c42c     LIBCMT:winapinls.obj
 0002:0000a438       ??_C@_1BG@EAKMMACD@?$AAb?$AAs?$AA?9?$AAb?$AAa?$AA?9?$AAl?$AAa?$AAt?$AAn?$AA?$AA@ 1004c438     LIBCMT:winapinls.obj
 0002:0000a450       ??_C@_1M@KGADAODK@?$AAc?$AAa?$AA?9?$AAe?$AAs?$AA?$AA@ 1004c450     LIBCMT:winapinls.obj
 0002:0000a45c       ??_C@_1M@COAJPDHI@?$AAc?$AAs?$AA?9?$AAc?$AAz?$AA?$AA@ 1004c45c     LIBCMT:winapinls.obj
 0002:0000a468       ??_C@_1M@DHBHFONH@?$AAc?$AAy?$AA?9?$AAg?$AAb?$AA?$AA@ 1004c468     LIBCMT:winapinls.obj
 0002:0000a474       ??_C@_1M@IMGKELGA@?$AAd?$AAa?$AA?9?$AAd?$AAk?$AA?$AA@ 1004c474     LIBCMT:winapinls.obj
 0002:0000a480       ??_C@_1M@NNDGDNGA@?$AAd?$AAe?$AA?9?$AAa?$AAt?$AA?$AA@ 1004c480     LIBCMT:winapinls.obj
 0002:0000a48c       ??_C@_1M@IKDBHEEM@?$AAd?$AAe?$AA?9?$AAc?$AAh?$AA?$AA@ 1004c48c     LIBCMT:winapinls.obj
 0002:0000a498       ??_C@_1M@GFFOJMCJ@?$AAd?$AAe?$AA?9?$AAd?$AAe?$AA?$AA@ 1004c498     LIBCMT:winapinls.obj
 0002:0000a4a4       ??_C@_1M@MDNLKBPM@?$AAd?$AAe?$AA?9?$AAl?$AAi?$AA?$AA@ 1004c4a4     LIBCMT:winapinls.obj
 0002:0000a4b0       ??_C@_1M@NJBEEJNL@?$AAd?$AAe?$AA?9?$AAl?$AAu?$AA?$AA@ 1004c4b0     LIBCMT:winapinls.obj
 0002:0000a4bc       ??_C@_1O@GNNELBAP@?$AAd?$AAi?$AAv?$AA?9?$AAm?$AAv?$AA?$AA@ 1004c4bc     LIBCMT:winapinls.obj
 0002:0000a4cc       ??_C@_1M@EJLEOGAE@?$AAe?$AAl?$AA?9?$AAg?$AAr?$AA?$AA@ 1004c4cc     LIBCMT:winapinls.obj
 0002:0000a4d8       ??_C@_1M@GMPONJN@?$AAe?$AAn?$AA?9?$AAa?$AAu?$AA?$AA@ 1004c4d8     LIBCMT:winapinls.obj
 0002:0000a4e4       ??_C@_1M@NIDIIPGF@?$AAe?$AAn?$AA?9?$AAb?$AAz?$AA?$AA@ 1004c4e4     LIBCMT:winapinls.obj
 0002:0000a4f0       ??_C@_1M@JEHMIMFO@?$AAe?$AAn?$AA?9?$AAc?$AAa?$AA?$AA@ 1004c4f0     LIBCMT:winapinls.obj
 0002:0000a4fc       ??_C@_1M@IGMJCDLA@?$AAe?$AAn?$AA?9?$AAc?$AAb?$AA?$AA@ 1004c4fc     LIBCMT:winapinls.obj
 0002:0000a508       ??_C@_1M@BNFIGBKG@?$AAe?$AAn?$AA?9?$AAg?$AAb?$AA?$AA@ 1004c508     LIBCMT:winapinls.obj
 0002:0000a514       ??_C@_1M@LKIFDIGP@?$AAe?$AAn?$AA?9?$AAi?$AAe?$AA?$AA@ 1004c514     LIBCMT:winapinls.obj
 0002:0000a520       ??_C@_1M@PJKFGCCO@?$AAe?$AAn?$AA?9?$AAj?$AAm?$AA?$AA@ 1004c520     LIBCMT:winapinls.obj
 0002:0000a52c       ??_C@_1M@KPPKEPBO@?$AAe?$AAn?$AA?9?$AAn?$AAz?$AA?$AA@ 1004c52c     LIBCMT:winapinls.obj
 0002:0000a538       ??_C@_1M@GMDGLDOB@?$AAe?$AAn?$AA?9?$AAp?$AAh?$AA?$AA@ 1004c538     LIBCMT:winapinls.obj
 0002:0000a544       ??_C@_1M@ONGIBJNA@?$AAe?$AAn?$AA?9?$AAt?$AAt?$AA?$AA@ 1004c544     LIBCMT:winapinls.obj
 0002:0000a550       ??_C@_1M@LLODPCMM@?$AAe?$AAn?$AA?9?$AAu?$AAs?$AA?$AA@ 1004c550     LIBCMT:winapinls.obj
 0002:0000a55c       ??_C@_1M@LAKFNPAN@?$AAe?$AAn?$AA?9?$AAz?$AAa?$AA?$AA@ 1004c55c     LIBCMT:winapinls.obj
 0002:0000a568       ??_C@_1M@MFNHNHEO@?$AAe?$AAn?$AA?9?$AAz?$AAw?$AA?$AA@ 1004c568     LIBCMT:winapinls.obj
 0002:0000a574       ??_C@_1M@EJEINPHM@?$AAe?$AAs?$AA?9?$AAa?$AAr?$AA?$AA@ 1004c574     LIBCMT:winapinls.obj
 0002:0000a580       ??_C@_1M@GNKPCCJA@?$AAe?$AAs?$AA?9?$AAb?$AAo?$AA?$AA@ 1004c580     LIBCMT:winapinls.obj
 0002:0000a58c       ??_C@_1M@LEEGFONL@?$AAe?$AAs?$AA?9?$AAc?$AAl?$AA?$AA@ 1004c58c     LIBCMT:winapinls.obj
 0002:0000a598       ??_C@_1M@KGPDPBDF@?$AAe?$AAs?$AA?9?$AAc?$AAo?$AA?$AA@ 1004c598     LIBCMT:winapinls.obj
 0002:0000a5a4       ??_C@_1M@EIAHOHH@?$AAe?$AAs?$AA?9?$AAc?$AAr?$AA?$AA@ 1004c5a4     LIBCMT:winapinls.obj
 0002:0000a5b0       ??_C@_1M@LLPGMBIN@?$AAe?$AAs?$AA?9?$AAd?$AAo?$AA?$AA@ 1004c5b0     LIBCMT:winapinls.obj
 0002:0000a5bc       ??_C@_1M@DKHMKNJA@?$AAe?$AAs?$AA?9?$AAe?$AAc?$AA?$AA@ 1004c5bc     LIBCMT:winapinls.obj
 0002:0000a5c8       ??_C@_1M@GKGFPKAP@?$AAe?$AAs?$AA?9?$AAe?$AAs?$AA?$AA@ 1004c5c8     LIBCMT:winapinls.obj
 0002:0000a5d4       ??_C@_1M@LKHKGDLN@?$AAe?$AAs?$AA?9?$AAg?$AAt?$AA?$AA@ 1004c5d4     LIBCMT:winapinls.obj
 0002:0000a5e0       ??_C@_1M@HEIIGGJD@?$AAe?$AAs?$AA?9?$AAh?$AAn?$AA?$AA@ 1004c5e0     LIBCMT:winapinls.obj
 0002:0000a5ec       ??_C@_1M@FBDHPPGD@?$AAe?$AAs?$AA?9?$AAm?$AAx?$AA?$AA@ 1004c5ec     LIBCMT:winapinls.obj
 0002:0000a5f8       ??_C@_1M@DPAGLNDH@?$AAe?$AAs?$AA?9?$AAn?$AAi?$AA?$AA@ 1004c5f8     LIBCMT:winapinls.obj
 0002:0000a604       ??_C@_1M@MDGOPGDD@?$AAe?$AAs?$AA?9?$AAp?$AAa?$AA?$AA@ 1004c604     LIBCMT:winapinls.obj
 0002:0000a610       ??_C@_1M@EMAMGBGE@?$AAe?$AAs?$AA?9?$AAp?$AAe?$AA?$AA@ 1004c610     LIBCMT:winapinls.obj
 0002:0000a61c       ??_C@_1M@IBMCAOEC@?$AAe?$AAs?$AA?9?$AAp?$AAr?$AA?$AA@ 1004c61c     LIBCMT:winapinls.obj
 0002:0000a628       ??_C@_1M@FGMDIJED@?$AAe?$AAs?$AA?9?$AAp?$AAy?$AA?$AA@ 1004c628     LIBCMT:winapinls.obj
 0002:0000a634       ??_C@_1M@IIDEOLLL@?$AAe?$AAs?$AA?9?$AAs?$AAv?$AA?$AA@ 1004c634     LIBCMT:winapinls.obj
 0002:0000a640       ??_C@_1M@GAOBIPA@?$AAe?$AAs?$AA?9?$AAu?$AAy?$AA?$AA@ 1004c640     LIBCMT:winapinls.obj
 0002:0000a64c       ??_C@_1M@JKFFICHJ@?$AAe?$AAs?$AA?9?$AAv?$AAe?$AA?$AA@ 1004c64c     LIBCMT:winapinls.obj
 0002:0000a658       ??_C@_1M@PNMLOJDF@?$AAe?$AAt?$AA?9?$AAe?$AAe?$AA?$AA@ 1004c658     LIBCMT:winapinls.obj
 0002:0000a664       ??_C@_1M@GHHLIKEI@?$AAe?$AAu?$AA?9?$AAe?$AAs?$AA?$AA@ 1004c664     LIBCMT:winapinls.obj
 0002:0000a670       ??_C@_1M@PBNONODE@?$AAf?$AAa?$AA?9?$AAi?$AAr?$AA?$AA@ 1004c670     LIBCMT:winapinls.obj
 0002:0000a67c       ??_C@_1M@JEEHPMIL@?$AAf?$AAi?$AA?9?$AAf?$AAi?$AA?$AA@ 1004c67c     LIBCMT:winapinls.obj
 0002:0000a688       ??_C@_1M@LMDCNDBA@?$AAf?$AAo?$AA?9?$AAf?$AAo?$AA?$AA@ 1004c688     LIBCMT:winapinls.obj
 0002:0000a694       ??_C@_1M@JKEOHLDK@?$AAf?$AAr?$AA?9?$AAb?$AAe?$AA?$AA@ 1004c694     LIBCMT:winapinls.obj
 0002:0000a6a0       ??_C@_1M@NOHADPMI@?$AAf?$AAr?$AA?9?$AAc?$AAa?$AA?$AA@ 1004c6a0     LIBCMT:winapinls.obj
 0002:0000a6ac       ??_C@_1M@KDHIHAEC@?$AAf?$AAr?$AA?9?$AAc?$AAh?$AA?$AA@ 1004c6ac     LIBCMT:winapinls.obj
 0002:0000a6b8       ??_C@_1M@MMBBFGAK@?$AAf?$AAr?$AA?9?$AAf?$AAr?$AA?$AA@ 1004c6b8     LIBCMT:winapinls.obj
 0002:0000a6c4       ??_C@_1M@PAFNENNF@?$AAf?$AAr?$AA?9?$AAl?$AAu?$AA?$AA@ 1004c6c4     LIBCMT:winapinls.obj
 0002:0000a6d0       ??_C@_1M@EOHDJGDD@?$AAf?$AAr?$AA?9?$AAm?$AAc?$AA?$AA@ 1004c6d0     LIBCMT:winapinls.obj
 0002:0000a6dc       ??_C@_1M@FAPLLOPF@?$AAg?$AAl?$AA?9?$AAe?$AAs?$AA?$AA@ 1004c6dc     LIBCMT:winapinls.obj
 0002:0000a6e8       ??_C@_1M@FOPBFLOO@?$AAg?$AAu?$AA?9?$AAi?$AAn?$AA?$AA@ 1004c6e8     LIBCMT:winapinls.obj
 0002:0000a6f4       ??_C@_1M@KBMCINPM@?$AAh?$AAe?$AA?9?$AAi?$AAl?$AA?$AA@ 1004c6f4     LIBCMT:winapinls.obj
 0002:0000a700       ??_C@_1M@BBPHKFPJ@?$AAh?$AAi?$AA?9?$AAi?$AAn?$AA?$AA@ 1004c700     LIBCMT:winapinls.obj
 0002:0000a70c       ??_C@_1M@PMBNDPHD@?$AAh?$AAr?$AA?9?$AAb?$AAa?$AA?$AA@ 1004c70c     LIBCMT:winapinls.obj
 0002:0000a718       ??_C@_1M@BPCKOEGE@?$AAh?$AAr?$AA?9?$AAh?$AAr?$AA?$AA@ 1004c718     LIBCMT:winapinls.obj
 0002:0000a724       ??_C@_1M@GACBMHKE@?$AAh?$AAu?$AA?9?$AAh?$AAu?$AA?$AA@ 1004c724     LIBCMT:winapinls.obj
 0002:0000a730       ??_C@_1M@MILPAJJC@?$AAh?$AAy?$AA?9?$AAa?$AAm?$AA?$AA@ 1004c730     LIBCMT:winapinls.obj
 0002:0000a73c       ??_C@_1M@BABBICEC@?$AAi?$AAd?$AA?9?$AAi?$AAd?$AA?$AA@ 1004c73c     LIBCMT:winapinls.obj
 0002:0000a748       ??_C@_1M@BIKNHHPF@?$AAi?$AAs?$AA?9?$AAi?$AAs?$AA?$AA@ 1004c748     LIBCMT:winapinls.obj
 0002:0000a754       ??_C@_1M@NMPCJPHE@?$AAi?$AAt?$AA?9?$AAc?$AAh?$AA?$AA@ 1004c754     LIBCMT:winapinls.obj
 0002:0000a760       ??_C@_1M@GHKGFEDF@?$AAi?$AAt?$AA?9?$AAi?$AAt?$AA?$AA@ 1004c760     LIBCMT:winapinls.obj
 0002:0000a76c       ??_C@_1M@NIEJCJJA@?$AAj?$AAa?$AA?9?$AAj?$AAp?$AA?$AA@ 1004c76c     LIBCMT:winapinls.obj
 0002:0000a778       ??_C@_1M@JILFNBIM@?$AAk?$AAa?$AA?9?$AAg?$AAe?$AA?$AA@ 1004c778     LIBCMT:winapinls.obj
 0002:0000a784       ??_C@_1M@PACPMGPH@?$AAk?$AAk?$AA?9?$AAk?$AAz?$AA?$AA@ 1004c784     LIBCMT:winapinls.obj
 0002:0000a790       ??_C@_1M@IELFGMHA@?$AAk?$AAn?$AA?9?$AAi?$AAn?$AA?$AA@ 1004c790     LIBCMT:winapinls.obj
 0002:0000a79c       ??_C@_1O@IBBJHCH@?$AAk?$AAo?$AAk?$AA?9?$AAi?$AAn?$AA?$AA@ 1004c79c     LIBCMT:winapinls.obj
 0002:0000a7ac       ??_C@_1M@DMHAEOGC@?$AAk?$AAo?$AA?9?$AAk?$AAr?$AA?$AA@ 1004c7ac     LIBCMT:winapinls.obj
 0002:0000a7b8       ??_C@_1M@HBAHBIGA@?$AAk?$AAy?$AA?9?$AAk?$AAg?$AA?$AA@ 1004c7b8     LIBCMT:winapinls.obj
 0002:0000a7c4       ??_C@_1M@KPMILCJG@?$AAl?$AAt?$AA?9?$AAl?$AAt?$AA?$AA@ 1004c7c4     LIBCMT:winapinls.obj
 0002:0000a7d0       ??_C@_1M@BDEKKCA@?$AAl?$AAv?$AA?9?$AAl?$AAv?$AA?$AA@ 1004c7d0     LIBCMT:winapinls.obj
 0002:0000a7dc       ??_C@_1M@ELCKCCJJ@?$AAm?$AAi?$AA?9?$AAn?$AAz?$AA?$AA@ 1004c7dc     LIBCMT:winapinls.obj
 0002:0000a7e8       ??_C@_1M@CBOOLAPA@?$AAm?$AAk?$AA?9?$AAm?$AAk?$AA?$AA@ 1004c7e8     LIBCMT:winapinls.obj
 0002:0000a7f4       ??_C@_1M@GPHNBJKN@?$AAm?$AAl?$AA?9?$AAi?$AAn?$AA?$AA@ 1004c7f4     LIBCMT:winapinls.obj
 0002:0000a800       ??_C@_1M@PABJILIG@?$AAm?$AAn?$AA?9?$AAm?$AAn?$AA?$AA@ 1004c800     LIBCMT:winapinls.obj
 0002:0000a80c       ??_C@_1M@FGBKKIPG@?$AAm?$AAr?$AA?9?$AAi?$AAn?$AA?$AA@ 1004c80c     LIBCMT:winapinls.obj
 0002:0000a818       ??_C@_1M@NDBPDDAL@?$AAm?$AAs?$AA?9?$AAb?$AAn?$AA?$AA@ 1004c818     LIBCMT:winapinls.obj
 0002:0000a824       ??_C@_1M@OPIHOOPI@?$AAm?$AAs?$AA?9?$AAm?$AAy?$AA?$AA@ 1004c824     LIBCMT:winapinls.obj
 0002:0000a830       ??_C@_1M@PPDBCNFM@?$AAm?$AAt?$AA?9?$AAm?$AAt?$AA?$AA@ 1004c830     LIBCMT:winapinls.obj
 0002:0000a83c       ??_C@_1M@KDJDKMDD@?$AAn?$AAb?$AA?9?$AAn?$AAo?$AA?$AA@ 1004c83c     LIBCMT:winapinls.obj
 0002:0000a848       ??_C@_1M@KFCFLMJP@?$AAn?$AAl?$AA?9?$AAb?$AAe?$AA?$AA@ 1004c848     LIBCMT:winapinls.obj
 0002:0000a854       ??_C@_1M@KPOPDDGO@?$AAn?$AAl?$AA?9?$AAn?$AAl?$AA?$AA@ 1004c854     LIBCMT:winapinls.obj
 0002:0000a860       ??_C@_1M@LJKPEMLN@?$AAn?$AAn?$AA?9?$AAn?$AAo?$AA?$AA@ 1004c860     LIBCMT:winapinls.obj
 0002:0000a86c       ??_C@_1M@BDGHHBFL@?$AAn?$AAs?$AA?9?$AAz?$AAa?$AA?$AA@ 1004c86c     LIBCMT:winapinls.obj
 0002:0000a878       ??_C@_1M@IDEHOAP@?$AAp?$AAa?$AA?9?$AAi?$AAn?$AA?$AA@ 1004c878     LIBCMT:winapinls.obj
 0002:0000a884       ??_C@_1M@HDBKGOGH@?$AAp?$AAl?$AA?9?$AAp?$AAl?$AA?$AA@ 1004c884     LIBCMT:winapinls.obj
 0002:0000a890       ??_C@_1M@LJLLCMEH@?$AAp?$AAt?$AA?9?$AAb?$AAr?$AA?$AA@ 1004c890     LIBCMT:winapinls.obj
 0002:0000a89c       ??_C@_1M@NCMONAAL@?$AAp?$AAt?$AA?9?$AAp?$AAt?$AA?$AA@ 1004c89c     LIBCMT:winapinls.obj
 0002:0000a8a8       ??_C@_1O@EAKMAJDN@?$AAq?$AAu?$AAz?$AA?9?$AAb?$AAo?$AA?$AA@ 1004c8a8     LIBCMT:winapinls.obj
 0002:0000a8b8       ??_C@_1O@BHHPIGDN@?$AAq?$AAu?$AAz?$AA?9?$AAe?$AAc?$AA?$AA@ 1004c8b8     LIBCMT:winapinls.obj
 0002:0000a8c8       ??_C@_1O@GBAPEKMJ@?$AAq?$AAu?$AAz?$AA?9?$AAp?$AAe?$AA?$AA@ 1004c8c8     LIBCMT:winapinls.obj
 0002:0000a8d8       ??_C@_1M@CLGLEFBO@?$AAr?$AAo?$AA?9?$AAr?$AAo?$AA?$AA@ 1004c8d8     LIBCMT:winapinls.obj
 0002:0000a8e4       ??_C@_1M@CEEDODME@?$AAr?$AAu?$AA?9?$AAr?$AAu?$AA?$AA@ 1004c8e4     LIBCMT:winapinls.obj
 0002:0000a8f0       ??_C@_1M@HPKKKMPP@?$AAs?$AAa?$AA?9?$AAi?$AAn?$AA?$AA@ 1004c8f0     LIBCMT:winapinls.obj
 0002:0000a8fc       ??_C@_1M@BKMAIGOJ@?$AAs?$AAe?$AA?9?$AAf?$AAi?$AA?$AA@ 1004c8fc     LIBCMT:winapinls.obj
 0002:0000a908       ??_C@_1M@NDPIFLFI@?$AAs?$AAe?$AA?9?$AAn?$AAo?$AA?$AA@ 1004c908     LIBCMT:winapinls.obj
 0002:0000a914       ??_C@_1M@DANKKHJ@?$AAs?$AAe?$AA?9?$AAs?$AAe?$AA?$AA@ 1004c914     LIBCMT:winapinls.obj
 0002:0000a920       ??_C@_1M@PNBLONPJ@?$AAs?$AAk?$AA?9?$AAs?$AAk?$AA?$AA@ 1004c920     LIBCMT:winapinls.obj
 0002:0000a92c       ??_C@_1M@LFMODOAL@?$AAs?$AAl?$AA?9?$AAs?$AAi?$AA?$AA@ 1004c92c     LIBCMT:winapinls.obj
 0002:0000a938       ??_C@_1O@DFKOMPG@?$AAs?$AAm?$AAa?$AA?9?$AAn?$AAo?$AA?$AA@ 1004c938     LIBCMT:winapinls.obj
 0002:0000a948       ??_C@_1O@NDKPBNNH@?$AAs?$AAm?$AAa?$AA?9?$AAs?$AAe?$AA?$AA@ 1004c948     LIBCMT:winapinls.obj
 0002:0000a958       ??_C@_1O@PLLKBHAB@?$AAs?$AAm?$AAj?$AA?9?$AAn?$AAo?$AA?$AA@ 1004c958     LIBCMT:winapinls.obj
 0002:0000a968       ??_C@_1O@CLEPOGCA@?$AAs?$AAm?$AAj?$AA?9?$AAs?$AAe?$AA?$AA@ 1004c968     LIBCMT:winapinls.obj
 0002:0000a978       ??_C@_1O@DLGJGKMK@?$AAs?$AAm?$AAn?$AA?9?$AAf?$AAi?$AA?$AA@ 1004c978     LIBCMT:winapinls.obj
 0002:0000a988       ??_C@_1O@OJDJGAJC@?$AAs?$AAm?$AAs?$AA?9?$AAf?$AAi?$AA?$AA@ 1004c988     LIBCMT:winapinls.obj
 0002:0000a998       ??_C@_1M@BOFOGHPB@?$AAs?$AAq?$AA?9?$AAa?$AAl?$AA?$AA@ 1004c998     LIBCMT:winapinls.obj
 0002:0000a9a4       ??_C@_1BG@LJBBIPGB@?$AAs?$AAr?$AA?9?$AAb?$AAa?$AA?9?$AAc?$AAy?$AAr?$AAl?$AA?$AA@ 1004c9a4     LIBCMT:winapinls.obj
 0002:0000a9bc       ??_C@_1BG@JLBENFOE@?$AAs?$AAr?$AA?9?$AAb?$AAa?$AA?9?$AAl?$AAa?$AAt?$AAn?$AA?$AA@ 1004c9bc     LIBCMT:winapinls.obj
 0002:0000a9d4       ??_C@_1BG@KODPNHE@?$AAs?$AAr?$AA?9?$AAs?$AAp?$AA?9?$AAc?$AAy?$AAr?$AAl?$AA?$AA@ 1004c9d4     LIBCMT:winapinls.obj
 0002:0000a9ec       ??_C@_1BG@CIOGKHPB@?$AAs?$AAr?$AA?9?$AAs?$AAp?$AA?9?$AAl?$AAa?$AAt?$AAn?$AA?$AA@ 1004c9ec     LIBCMT:winapinls.obj
 0002:0000aa04       ??_C@_1M@NGFJLMAC@?$AAs?$AAv?$AA?9?$AAf?$AAi?$AA?$AA@ 1004ca04     LIBCMT:winapinls.obj
 0002:0000aa10       ??_C@_1M@MPJEJAJC@?$AAs?$AAv?$AA?9?$AAs?$AAe?$AA?$AA@ 1004ca10     LIBCMT:winapinls.obj
 0002:0000aa1c       ??_C@_1M@MPNDHLFK@?$AAs?$AAw?$AA?9?$AAk?$AAe?$AA?$AA@ 1004ca1c     LIBCMT:winapinls.obj
 0002:0000aa28       ??_C@_1O@KOHBJJI@?$AAs?$AAy?$AAr?$AA?9?$AAs?$AAy?$AA?$AA@ 1004ca28     LIBCMT:winapinls.obj
 0002:0000aa38       ??_C@_1M@LDCEFHA@?$AAt?$AAa?$AA?9?$AAi?$AAn?$AA?$AA@ 1004ca38     LIBCMT:winapinls.obj
 0002:0000aa44       ??_C@_1M@CNJOFAK@?$AAt?$AAe?$AA?9?$AAi?$AAn?$AA?$AA@ 1004ca44     LIBCMT:winapinls.obj
 0002:0000aa50       ??_C@_1M@GNAECACD@?$AAt?$AAh?$AA?9?$AAt?$AAh?$AA?$AA@ 1004ca50     LIBCMT:winapinls.obj
 0002:0000aa5c       ??_C@_1M@CHBIHOJO@?$AAt?$AAn?$AA?9?$AAz?$AAa?$AA?$AA@ 1004ca5c     LIBCMT:winapinls.obj
 0002:0000aa68       ??_C@_1M@GCCMIGPJ@?$AAt?$AAr?$AA?9?$AAt?$AAr?$AA?$AA@ 1004ca68     LIBCMT:winapinls.obj
 0002:0000aa74       ??_C@_1M@CELMCNBK@?$AAt?$AAt?$AA?9?$AAr?$AAu?$AA?$AA@ 1004ca74     LIBCMT:winapinls.obj
 0002:0000aa80       ??_C@_1M@KLMCELGA@?$AAu?$AAk?$AA?9?$AAu?$AAa?$AA?$AA@ 1004ca80     LIBCMT:winapinls.obj
 0002:0000aa8c       ??_C@_1M@EPAJJAJF@?$AAu?$AAr?$AA?9?$AAp?$AAk?$AA?$AA@ 1004ca8c     LIBCMT:winapinls.obj
 0002:0000aa98       ??_C@_1BG@GEGPMCDJ@?$AAu?$AAz?$AA?9?$AAu?$AAz?$AA?9?$AAc?$AAy?$AAr?$AAl?$AA?$AA@ 1004ca98     LIBCMT:winapinls.obj
 0002:0000aab0       ??_C@_1BG@EGGKJILM@?$AAu?$AAz?$AA?9?$AAu?$AAz?$AA?9?$AAl?$AAa?$AAt?$AAn?$AA?$AA@ 1004cab0     LIBCMT:winapinls.obj
 0002:0000aac8       ??_C@_1M@GFOCLFF@?$AAv?$AAi?$AA?9?$AAv?$AAn?$AA?$AA@ 1004cac8     LIBCMT:winapinls.obj
 0002:0000aad4       ??_C@_1M@CPAMEDFI@?$AAx?$AAh?$AA?9?$AAz?$AAa?$AA?$AA@ 1004cad4     LIBCMT:winapinls.obj
 0002:0000aae0       ??_C@_1O@EBKIFIGN@?$AAz?$AAh?$AA?9?$AAc?$AAh?$AAs?$AA?$AA@ 1004cae0     LIBCMT:winapinls.obj
 0002:0000aaf0       ??_C@_1O@NMHPGANE@?$AAz?$AAh?$AA?9?$AAc?$AAh?$AAt?$AA?$AA@ 1004caf0     LIBCMT:winapinls.obj
 0002:0000ab00       ??_C@_1M@LPINJOMC@?$AAz?$AAh?$AA?9?$AAc?$AAn?$AA?$AA@ 1004cb00     LIBCMT:winapinls.obj
 0002:0000ab0c       ??_C@_1M@OCJEJODD@?$AAz?$AAh?$AA?9?$AAh?$AAk?$AA?$AA@ 1004cb0c     LIBCMT:winapinls.obj
 0002:0000ab18       ??_C@_1M@DNDLJINH@?$AAz?$AAh?$AA?9?$AAm?$AAo?$AA?$AA@ 1004cb18     LIBCMT:winapinls.obj
 0002:0000ab24       ??_C@_1M@MBFDNDND@?$AAz?$AAh?$AA?9?$AAs?$AAg?$AA?$AA@ 1004cb24     LIBCMT:winapinls.obj
 0002:0000ab30       ??_C@_1M@IMEPLEPE@?$AAz?$AAh?$AA?9?$AAt?$AAw?$AA?$AA@ 1004cb30     LIBCMT:winapinls.obj
 0002:0000ab3c       ??_C@_1M@BBGHNHJP@?$AAz?$AAu?$AA?9?$AAz?$AAa?$AA?$AA@ 1004cb3c     LIBCMT:winapinls.obj
 0002:0000ab48       ___newctype                1004cb48     LIBCMT:ctype.obj
 0002:0000ae48       __wctype                   1004ce48     LIBCMT:ctype.obj
 0002:0000b050       ___newclmap                1004d050     LIBCMT:ctype.obj
 0002:0000b1d0       ___newcumap                1004d1d0     LIBCMT:ctype.obj
 0002:0000b350       ___lc_category             1004d350     LIBCMT:wsetloca.obj
 0002:0000b398       ??_C@_1O@GIFLHMA@?$AAL?$AAC?$AA_?$AAA?$AAL?$AAL?$AA?$AA@ 1004d398     LIBCMT:wsetloca.obj
 0002:0000b3a8       ??_C@_1BG@PPOMIBNJ@?$AAL?$AAC?$AA_?$AAC?$AAO?$AAL?$AAL?$AAA?$AAT?$AAE?$AA?$AA@ 1004d3a8     LIBCMT:wsetloca.obj
 0002:0000b3c0       ??_C@_1BC@FFJGAPJM@?$AAL?$AAC?$AA_?$AAC?$AAT?$AAY?$AAP?$AAE?$AA?$AA@ 1004d3c0     LIBCMT:wsetloca.obj
 0002:0000b3d4       ??_C@_1BI@PCKFNJFB@?$AAL?$AAC?$AA_?$AAM?$AAO?$AAN?$AAE?$AAT?$AAA?$AAR?$AAY?$AA?$AA@ 1004d3d4     LIBCMT:wsetloca.obj
 0002:0000b3ec       ??_C@_1BG@ENIEDKID@?$AAL?$AAC?$AA_?$AAN?$AAU?$AAM?$AAE?$AAR?$AAI?$AAC?$AA?$AA@ 1004d3ec     LIBCMT:wsetloca.obj
 0002:0000b404       ??_C@_1BA@HAAOMIIG@?$AAL?$AAC?$AA_?$AAT?$AAI?$AAM?$AAE?$AA?$AA@ 1004d404     LIBCMT:wsetloca.obj
 0002:0000b498       ??_C@_15NBPDDFIP@?$AA?$DN?$AA?$DL?$AA?$AA@ 1004d498     LIBCMT:wsetloca.obj
 0002:0000b4a0       ??_C@_13PJJBFPED@?$AA?$DL?$AA?$AA@ 1004d4a0     LIBCMT:wsetloca.obj
 0002:0000b4a4       ??_C@_13NMPKAAJP@?$AA?$DN?$AA?$AA@ 1004d4a4     LIBCMT:wsetloca.obj
 0002:0000b4a8       ??_C@_13FHBKNHDA@?$AAC?$AA?$AA@ 1004d4a8     LIBCMT:wsetloca.obj
 0002:0000b4ac       ??_C@_17MBJJLFDM@?$AA_?$AA?4?$AA?0?$AA?$AA@ 1004d4ac     LIBCMT:wsetloca.obj
 0002:0000b4b4       ??_C@_13ENNFDPBH@?$AA_?$AA?$AA@ 1004d4b4     LIBCMT:wsetloca.obj
 0002:0000b4b8       ??_C@_13JOFGPIOO@?$AA?4?$AA?$AA@ 1004d4b8     LIBCMT:wsetloca.obj
 0002:0000b4bc       ??_C@_06PGGFOGJG@1?$CDSNAN?$AA@ 1004d4bc     LIBCMT:x10fout.obj
 0002:0000b4c4       ??_C@_05PHHOCPM@1?$CDIND?$AA@ 1004d4c4     LIBCMT:x10fout.obj
 0002:0000b4cc       ??_C@_05DNEBIAHO@1?$CDINF?$AA@ 1004d4cc     LIBCMT:x10fout.obj
 0002:0000b4d4       ??_C@_06IMKFLFPG@1?$CDQNAN?$AA@ 1004d4d4     LIBCMT:x10fout.obj
 0002:0000b4dc       ??_C@_0M@HHGEPIBF@CreateFile2?$AA@ 1004d4dc     LIBCMT:wopen.obj
 0002:0000b4e8       ??_C@_1BA@BALFACEM@?$AAC?$AAO?$AAN?$AAO?$AAU?$AAT?$AA$?$AA?$AA@ 1004d4e8     LIBCMT:initcon.obj
 0002:0000b4f8       ___rg_language             1004d4f8     LIBCMT:getqloc.obj
 0002:0000b804       ??_C@_1BC@LLOKLNP@?$AAa?$AAm?$AAe?$AAr?$AAi?$AAc?$AAa?$AAn?$AA?$AA@ 1004d804     LIBCMT:getqloc.obj
 0002:0000b818       ??_C@_1CC@HEIGCDGG@?$AAa?$AAm?$AAe?$AAr?$AAi?$AAc?$AAa?$AAn?$AA?5?$AAe?$AAn?$AAg?$AAl?$AAi?$AAs?$AAh?$AA?$AA@ 1004d818     LIBCMT:getqloc.obj
 0002:0000b83c       ??_C@_1CC@IHCNOMIN@?$AAa?$AAm?$AAe?$AAr?$AAi?$AAc?$AAa?$AAn?$AA?9?$AAe?$AAn?$AAg?$AAl?$AAi?$AAs?$AAh?$AA?$AA@ 1004d83c     LIBCMT:getqloc.obj
 0002:0000b860       ??_C@_1BG@GKAGPCGG@?$AAa?$AAu?$AAs?$AAt?$AAr?$AAa?$AAl?$AAi?$AAa?$AAn?$AA?$AA@ 1004d860     LIBCMT:getqloc.obj
 0002:0000b878       ??_C@_1BA@GMENCENF@?$AAb?$AAe?$AAl?$AAg?$AAi?$AAa?$AAn?$AA?$AA@ 1004d878     LIBCMT:getqloc.obj
 0002:0000b888       ??_C@_1BC@PJMIIAAN@?$AAc?$AAa?$AAn?$AAa?$AAd?$AAi?$AAa?$AAn?$AA?$AA@ 1004d888     LIBCMT:getqloc.obj
 0002:0000b89c       ??_C@_17NOIMNFBF@?$AAc?$AAh?$AAh?$AA?$AA@ 1004d89c     LIBCMT:getqloc.obj
 0002:0000b8a4       ??_C@_17GGDALCHA@?$AAc?$AAh?$AAi?$AA?$AA@ 1004d8a4     LIBCMT:getqloc.obj
 0002:0000b8ac       ??_C@_1BA@NPNJKIBL@?$AAc?$AAh?$AAi?$AAn?$AAe?$AAs?$AAe?$AA?$AA@ 1004d8ac     LIBCMT:getqloc.obj
 0002:0000b8bc       ??_C@_1CC@DINBAMMJ@?$AAc?$AAh?$AAi?$AAn?$AAe?$AAs?$AAe?$AA?9?$AAh?$AAo?$AAn?$AAg?$AAk?$AAo?$AAn?$AAg?$AA?$AA@ 1004d8bc     LIBCMT:getqloc.obj
 0002:0000b8e0       ??_C@_1CG@IOBJPACO@?$AAc?$AAh?$AAi?$AAn?$AAe?$AAs?$AAe?$AA?9?$AAs?$AAi?$AAm?$AAp?$AAl?$AAi?$AAf?$AAi?$AAe?$AAd?$AA?$AA@ 1004d8e0     LIBCMT:getqloc.obj
 0002:0000b908       ??_C@_1CE@GAJNDCKG@?$AAc?$AAh?$AAi?$AAn?$AAe?$AAs?$AAe?$AA?9?$AAs?$AAi?$AAn?$AAg?$AAa?$AAp?$AAo?$AAr?$AAe?$AA?$AA@ 1004d908     LIBCMT:getqloc.obj
 0002:0000b92c       ??_C@_1CI@PAJPIOOD@?$AAc?$AAh?$AAi?$AAn?$AAe?$AAs?$AAe?$AA?9?$AAt?$AAr?$AAa?$AAd?$AAi?$AAt?$AAi?$AAo?$AAn?$AAa?$AAl?$AA?$AA@ 1004d92c     LIBCMT:getqloc.obj
 0002:0000b954       ??_C@_1BM@NILJBMMD@?$AAd?$AAu?$AAt?$AAc?$AAh?$AA?9?$AAb?$AAe?$AAl?$AAg?$AAi?$AAa?$AAn?$AA?$AA@ 1004d954     LIBCMT:getqloc.obj
 0002:0000b970       ??_C@_1CC@OOJPJNEJ@?$AAe?$AAn?$AAg?$AAl?$AAi?$AAs?$AAh?$AA?9?$AAa?$AAm?$AAe?$AAr?$AAi?$AAc?$AAa?$AAn?$AA?$AA@ 1004d970     LIBCMT:getqloc.obj
 0002:0000b994       ??_C@_1BI@IOLFEEM@?$AAe?$AAn?$AAg?$AAl?$AAi?$AAs?$AAh?$AA?9?$AAa?$AAu?$AAs?$AA?$AA@ 1004d994     LIBCMT:getqloc.obj
 0002:0000b9ac       ??_C@_1BO@HFFNLENJ@?$AAe?$AAn?$AAg?$AAl?$AAi?$AAs?$AAh?$AA?9?$AAb?$AAe?$AAl?$AAi?$AAz?$AAe?$AA?$AA@ 1004d9ac     LIBCMT:getqloc.obj
 0002:0000b9cc       ??_C@_1BI@HAPKJMPO@?$AAe?$AAn?$AAg?$AAl?$AAi?$AAs?$AAh?$AA?9?$AAc?$AAa?$AAn?$AA?$AA@ 1004d9cc     LIBCMT:getqloc.obj
 0002:0000b9e4       ??_C@_1CE@HLNDMIOJ@?$AAe?$AAn?$AAg?$AAl?$AAi?$AAs?$AAh?$AA?9?$AAc?$AAa?$AAr?$AAi?$AAb?$AAb?$AAe?$AAa?$AAn?$AA?$AA@ 1004d9e4     LIBCMT:getqloc.obj
 0002:0000ba08       ??_C@_1BI@LDHJHHAC@?$AAe?$AAn?$AAg?$AAl?$AAi?$AAs?$AAh?$AA?9?$AAi?$AAr?$AAe?$AA?$AA@ 1004da08     LIBCMT:getqloc.obj
 0002:0000ba20       ??_C@_1CA@NJMMCFOC@?$AAe?$AAn?$AAg?$AAl?$AAi?$AAs?$AAh?$AA?9?$AAj?$AAa?$AAm?$AAa?$AAi?$AAc?$AAa?$AA?$AA@ 1004da20     LIBCMT:getqloc.obj
 0002:0000ba40       ??_C@_1BG@BHJEBBGG@?$AAe?$AAn?$AAg?$AAl?$AAi?$AAs?$AAh?$AA?9?$AAn?$AAz?$AA?$AA@ 1004da40     LIBCMT:getqloc.obj
 0002:0000ba58       ??_C@_1CK@FGOEJJCO@?$AAe?$AAn?$AAg?$AAl?$AAi?$AAs?$AAh?$AA?9?$AAs?$AAo?$AAu?$AAt?$AAh?$AA?5?$AAa?$AAf?$AAr?$AAi?$AAc?$AAa?$AA?$AA@ 1004da58     LIBCMT:getqloc.obj
 0002:0000ba84       ??_C@_1DE@PDBJPCJ@?$AAe?$AAn?$AAg?$AAl?$AAi?$AAs?$AAh?$AA?9?$AAt?$AAr?$AAi?$AAn?$AAi?$AAd?$AAa?$AAd?$AA?5?$AAy?$AA?5?$AAt?$AAo?$AAb?$AAa?$AAg?$AAo?$AA?$AA@ 1004da84     LIBCMT:getqloc.obj
 0002:0000bab8       ??_C@_1BG@JGCANDME@?$AAe?$AAn?$AAg?$AAl?$AAi?$AAs?$AAh?$AA?9?$AAu?$AAk?$AA?$AA@ 1004dab8     LIBCMT:getqloc.obj
 0002:0000bad0       ??_C@_1BG@DINKMLE@?$AAe?$AAn?$AAg?$AAl?$AAi?$AAs?$AAh?$AA?9?$AAu?$AAs?$AA?$AA@ 1004dad0     LIBCMT:getqloc.obj
 0002:0000bae8       ??_C@_1BI@NMFDBHJE@?$AAe?$AAn?$AAg?$AAl?$AAi?$AAs?$AAh?$AA?9?$AAu?$AAs?$AAa?$AA?$AA@ 1004dae8     LIBCMT:getqloc.obj
 0002:0000bb00       ??_C@_1BO@OIHKJKII@?$AAf?$AAr?$AAe?$AAn?$AAc?$AAh?$AA?9?$AAb?$AAe?$AAl?$AAg?$AAi?$AAa?$AAn?$AA?$AA@ 1004db00     LIBCMT:getqloc.obj
 0002:0000bb20       ??_C@_1CA@NKAELJKI@?$AAf?$AAr?$AAe?$AAn?$AAc?$AAh?$AA?9?$AAc?$AAa?$AAn?$AAa?$AAd?$AAi?$AAa?$AAn?$AA?$AA@ 1004db20     LIBCMT:getqloc.obj
 0002:0000bb40       ??_C@_1CE@MGKCNLGN@?$AAf?$AAr?$AAe?$AAn?$AAc?$AAh?$AA?9?$AAl?$AAu?$AAx?$AAe?$AAm?$AAb?$AAo?$AAu?$AAr?$AAg?$AA?$AA@ 1004db40     LIBCMT:getqloc.obj
 0002:0000bb64       ??_C@_1BK@CEGEAILM@?$AAf?$AAr?$AAe?$AAn?$AAc?$AAh?$AA?9?$AAs?$AAw?$AAi?$AAs?$AAs?$AA?$AA@ 1004db64     LIBCMT:getqloc.obj
 0002:0000bb80       ??_C@_1CA@PAFKEOCC@?$AAg?$AAe?$AAr?$AAm?$AAa?$AAn?$AA?9?$AAa?$AAu?$AAs?$AAt?$AAr?$AAi?$AAa?$AAn?$AA?$AA@ 1004db80     LIBCMT:getqloc.obj
 0002:0000bba0       ??_C@_1CI@HCFHGOFD@?$AAg?$AAe?$AAr?$AAm?$AAa?$AAn?$AA?9?$AAl?$AAi?$AAc?$AAh?$AAt?$AAe?$AAn?$AAs?$AAt?$AAe?$AAi?$AAn?$AA?$AA@ 1004dba0     LIBCMT:getqloc.obj
 0002:0000bbc8       ??_C@_1CE@FEDDNPDG@?$AAg?$AAe?$AAr?$AAm?$AAa?$AAn?$AA?9?$AAl?$AAu?$AAx?$AAe?$AAm?$AAb?$AAo?$AAu?$AAr?$AAg?$AA?$AA@ 1004dbc8     LIBCMT:getqloc.obj
 0002:0000bbec       ??_C@_1BK@LIMINNMN@?$AAg?$AAe?$AAr?$AAm?$AAa?$AAn?$AA?9?$AAs?$AAw?$AAi?$AAs?$AAs?$AA?$AA@ 1004dbec     LIBCMT:getqloc.obj
 0002:0000bc08       ??_C@_1BM@LGMDBEPD@?$AAi?$AAr?$AAi?$AAs?$AAh?$AA?9?$AAe?$AAn?$AAg?$AAl?$AAi?$AAs?$AAh?$AA?$AA@ 1004dc08     LIBCMT:getqloc.obj
 0002:0000bc24       ??_C@_1BM@NNCFBAEE@?$AAi?$AAt?$AAa?$AAl?$AAi?$AAa?$AAn?$AA?9?$AAs?$AAw?$AAi?$AAs?$AAs?$AA?$AA@ 1004dc24     LIBCMT:getqloc.obj
 0002:0000bc40       ??_C@_1BE@FEDJNPIB@?$AAn?$AAo?$AAr?$AAw?$AAe?$AAg?$AAi?$AAa?$AAn?$AA?$AA@ 1004dc40     LIBCMT:getqloc.obj
 0002:0000bc54       ??_C@_1CC@CILKDEIE@?$AAn?$AAo?$AAr?$AAw?$AAe?$AAg?$AAi?$AAa?$AAn?$AA?9?$AAb?$AAo?$AAk?$AAm?$AAa?$AAl?$AA?$AA@ 1004dc54     LIBCMT:getqloc.obj
 0002:0000bc78       ??_C@_1CE@DHMMHEPL@?$AAn?$AAo?$AAr?$AAw?$AAe?$AAg?$AAi?$AAa?$AAn?$AA?9?$AAn?$AAy?$AAn?$AAo?$AAr?$AAs?$AAk?$AA?$AA@ 1004dc78     LIBCMT:getqloc.obj
 0002:0000bc9c       ??_C@_1CK@OPNMHECD@?$AAp?$AAo?$AAr?$AAt?$AAu?$AAg?$AAu?$AAe?$AAs?$AAe?$AA?9?$AAb?$AAr?$AAa?$AAz?$AAi?$AAl?$AAi?$AAa?$AAn?$AA?$AA@ 1004dc9c     LIBCMT:getqloc.obj
 0002:0000bcc8       ??_C@_1CE@KEEHCDB@?$AAs?$AAp?$AAa?$AAn?$AAi?$AAs?$AAh?$AA?9?$AAa?$AAr?$AAg?$AAe?$AAn?$AAt?$AAi?$AAn?$AAa?$AA?$AA@ 1004dcc8     LIBCMT:getqloc.obj
 0002:0000bcec       ??_C@_1CA@GIAOLHJD@?$AAs?$AAp?$AAa?$AAn?$AAi?$AAs?$AAh?$AA?9?$AAb?$AAo?$AAl?$AAi?$AAv?$AAi?$AAa?$AA?$AA@ 1004dcec     LIBCMT:getqloc.obj
 0002:0000bd0c       ??_C@_1BM@OJNDFNPD@?$AAs?$AAp?$AAa?$AAn?$AAi?$AAs?$AAh?$AA?9?$AAc?$AAh?$AAi?$AAl?$AAe?$AA?$AA@ 1004dd0c     LIBCMT:getqloc.obj
 0002:0000bd28       ??_C@_1CC@OCOLPALL@?$AAs?$AAp?$AAa?$AAn?$AAi?$AAs?$AAh?$AA?9?$AAc?$AAo?$AAl?$AAo?$AAm?$AAb?$AAi?$AAa?$AA?$AA@ 1004dd28     LIBCMT:getqloc.obj
 0002:0000bd4c       ??_C@_1CG@BPOFMKBB@?$AAs?$AAp?$AAa?$AAn?$AAi?$AAs?$AAh?$AA?9?$AAc?$AAo?$AAs?$AAt?$AAa?$AA?5?$AAr?$AAi?$AAc?$AAa?$AA?$AA@ 1004dd4c     LIBCMT:getqloc.obj
 0002:0000bd74       ??_C@_1DG@IGOBAPBB@?$AAs?$AAp?$AAa?$AAn?$AAi?$AAs?$AAh?$AA?9?$AAd?$AAo?$AAm?$AAi?$AAn?$AAi?$AAc?$AAa?$AAn?$AA?5?$AAr?$AAe?$AAp?$AAu?$AAb?$AAl?$AAi?$AAc?$AA?$AA@ 1004dd74     LIBCMT:getqloc.obj
 0002:0000bdac       ??_C@_1CA@JHAPGEGI@?$AAs?$AAp?$AAa?$AAn?$AAi?$AAs?$AAh?$AA?9?$AAe?$AAc?$AAu?$AAa?$AAd?$AAo?$AAr?$AA?$AA@ 1004ddac     LIBCMT:getqloc.obj
 0002:0000bdcc       ??_C@_1CI@LAPALJPP@?$AAs?$AAp?$AAa?$AAn?$AAi?$AAs?$AAh?$AA?9?$AAe?$AAl?$AA?5?$AAs?$AAa?$AAl?$AAv?$AAa?$AAd?$AAo?$AAr?$AA?$AA@ 1004ddcc     LIBCMT:getqloc.obj
 0002:0000bdf4       ??_C@_1CE@PDGBOFOM@?$AAs?$AAp?$AAa?$AAn?$AAi?$AAs?$AAh?$AA?9?$AAg?$AAu?$AAa?$AAt?$AAe?$AAm?$AAa?$AAl?$AAa?$AA?$AA@ 1004ddf4     LIBCMT:getqloc.obj
 0002:0000be18       ??_C@_1CC@NBEBAODI@?$AAs?$AAp?$AAa?$AAn?$AAi?$AAs?$AAh?$AA?9?$AAh?$AAo?$AAn?$AAd?$AAu?$AAr?$AAa?$AAs?$AA?$AA@ 1004de18     LIBCMT:getqloc.obj
 0002:0000be3c       ??_C@_1CA@LLKGHBMF@?$AAs?$AAp?$AAa?$AAn?$AAi?$AAs?$AAh?$AA?9?$AAm?$AAe?$AAx?$AAi?$AAc?$AAa?$AAn?$AA?$AA@ 1004de3c     LIBCMT:getqloc.obj
 0002:0000be5c       ??_C@_1BO@LKNDOIGD@?$AAs?$AAp?$AAa?$AAn?$AAi?$AAs?$AAh?$AA?9?$AAm?$AAo?$AAd?$AAe?$AAr?$AAn?$AA?$AA@ 1004de5c     LIBCMT:getqloc.obj
 0002:0000be7c       ??_C@_1CE@NMDMOEEB@?$AAs?$AAp?$AAa?$AAn?$AAi?$AAs?$AAh?$AA?9?$AAn?$AAi?$AAc?$AAa?$AAr?$AAa?$AAg?$AAu?$AAa?$AA?$AA@ 1004de7c     LIBCMT:getqloc.obj
 0002:0000bea0       ??_C@_1BO@LLCBEJGB@?$AAs?$AAp?$AAa?$AAn?$AAi?$AAs?$AAh?$AA?9?$AAp?$AAa?$AAn?$AAa?$AAm?$AAa?$AA?$AA@ 1004dea0     LIBCMT:getqloc.obj
 0002:0000bec0       ??_C@_1CC@FKPGGIHO@?$AAs?$AAp?$AAa?$AAn?$AAi?$AAs?$AAh?$AA?9?$AAp?$AAa?$AAr?$AAa?$AAg?$AAu?$AAa?$AAy?$AA?$AA@ 1004dec0     LIBCMT:getqloc.obj
 0002:0000bee4       ??_C@_1BK@CDEIHOOP@?$AAs?$AAp?$AAa?$AAn?$AAi?$AAs?$AAh?$AA?9?$AAp?$AAe?$AAr?$AAu?$AA?$AA@ 1004dee4     LIBCMT:getqloc.obj
 0002:0000bf00       ??_C@_1CI@GAHAKKGP@?$AAs?$AAp?$AAa?$AAn?$AAi?$AAs?$AAh?$AA?9?$AAp?$AAu?$AAe?$AAr?$AAt?$AAo?$AA?5?$AAr?$AAi?$AAc?$AAo?$AA?$AA@ 1004df00     LIBCMT:getqloc.obj
 0002:0000bf28       ??_C@_1CA@NKJBCAGP@?$AAs?$AAp?$AAa?$AAn?$AAi?$AAs?$AAh?$AA?9?$AAu?$AAr?$AAu?$AAg?$AAu?$AAa?$AAy?$AA?$AA@ 1004df28     LIBCMT:getqloc.obj
 0002:0000bf48       ??_C@_1CE@ODILCONM@?$AAs?$AAp?$AAa?$AAn?$AAi?$AAs?$AAh?$AA?9?$AAv?$AAe?$AAn?$AAe?$AAz?$AAu?$AAe?$AAl?$AAa?$AA?$AA@ 1004df48     LIBCMT:getqloc.obj
 0002:0000bf6c       ??_C@_1CA@OBNMCGFO@?$AAs?$AAw?$AAe?$AAd?$AAi?$AAs?$AAh?$AA?9?$AAf?$AAi?$AAn?$AAl?$AAa?$AAn?$AAd?$AA?$AA@ 1004df6c     LIBCMT:getqloc.obj
 0002:0000bf8c       ??_C@_1M@PIPDDPPI@?$AAs?$AAw?$AAi?$AAs?$AAs?$AA?$AA@ 1004df8c     LIBCMT:getqloc.obj
 0002:0000bf98       ??_C@_15GMFIMNFM@?$AAu?$AAs?$AA?$AA@ 1004df98     LIBCMT:getqloc.obj
 0002:0000bfa0       ??_C@_17HAEBFAGL@?$AAu?$AAs?$AAa?$AA?$AA@ 1004dfa0     LIBCMT:getqloc.obj
 0002:0000bfa8       ___rg_country              1004dfa8     LIBCMT:getqloc.obj
 0002:0000c0bc       ??_C@_1BA@DPFJEPHB@?$AAa?$AAm?$AAe?$AAr?$AAi?$AAc?$AAa?$AA?$AA@ 1004e0bc     LIBCMT:getqloc.obj
 0002:0000c0cc       ??_C@_1BA@ELOGGFK@?$AAb?$AAr?$AAi?$AAt?$AAa?$AAi?$AAn?$AA?$AA@ 1004e0cc     LIBCMT:getqloc.obj
 0002:0000c0dc       ??_C@_1M@GHBGIGDA@?$AAc?$AAh?$AAi?$AAn?$AAa?$AA?$AA@ 1004e0dc     LIBCMT:getqloc.obj
 0002:0000c0e8       ??_C@_1M@NCHEJOPO@?$AAc?$AAz?$AAe?$AAc?$AAh?$AA?$AA@ 1004e0e8     LIBCMT:getqloc.obj
 0002:0000c0f4       ??_C@_1BA@BKPAPBLA@?$AAe?$AAn?$AAg?$AAl?$AAa?$AAn?$AAd?$AA?$AA@ 1004e0f4     LIBCMT:getqloc.obj
 0002:0000c104       ??_C@_1BM@HKBCKIPC@?$AAg?$AAr?$AAe?$AAa?$AAt?$AA?5?$AAb?$AAr?$AAi?$AAt?$AAa?$AAi?$AAn?$AA?$AA@ 1004e104     LIBCMT:getqloc.obj
 0002:0000c120       ??_C@_1BA@PPCHPGJB@?$AAh?$AAo?$AAl?$AAl?$AAa?$AAn?$AAd?$AA?$AA@ 1004e120     LIBCMT:getqloc.obj
 0002:0000c130       ??_C@_1BE@JBMPEGDG@?$AAh?$AAo?$AAn?$AAg?$AA?9?$AAk?$AAo?$AAn?$AAg?$AA?$AA@ 1004e130     LIBCMT:getqloc.obj
 0002:0000c144       ??_C@_1BI@KOELBBPJ@?$AAn?$AAe?$AAw?$AA?9?$AAz?$AAe?$AAa?$AAl?$AAa?$AAn?$AAd?$AA?$AA@ 1004e144     LIBCMT:getqloc.obj
 0002:0000c15c       ??_C@_15HIEBHAIO@?$AAn?$AAz?$AA?$AA@ 1004e15c     LIBCMT:getqloc.obj
 0002:0000c164       ??_C@_1BC@CHBCPFPI@?$AAp?$AAr?$AA?5?$AAc?$AAh?$AAi?$AAn?$AAa?$AA?$AA@ 1004e164     LIBCMT:getqloc.obj
 0002:0000c178       ??_C@_1BC@JAOIIFKD@?$AAp?$AAr?$AA?9?$AAc?$AAh?$AAi?$AAn?$AAa?$AA?$AA@ 1004e178     LIBCMT:getqloc.obj
 0002:0000c18c       ??_C@_1BI@BEHPPHKC@?$AAp?$AAu?$AAe?$AAr?$AAt?$AAo?$AA?9?$AAr?$AAi?$AAc?$AAo?$AA?$AA@ 1004e18c     LIBCMT:getqloc.obj
 0002:0000c1a4       ??_C@_1O@PAEOFKDI@?$AAs?$AAl?$AAo?$AAv?$AAa?$AAk?$AA?$AA@ 1004e1a4     LIBCMT:getqloc.obj
 0002:0000c1b4       ??_C@_1BK@FIHMCKAM@?$AAs?$AAo?$AAu?$AAt?$AAh?$AA?5?$AAa?$AAf?$AAr?$AAi?$AAc?$AAa?$AA?$AA@ 1004e1b4     LIBCMT:getqloc.obj
 0002:0000c1d0       ??_C@_1BI@NAEOODKB@?$AAs?$AAo?$AAu?$AAt?$AAh?$AA?5?$AAk?$AAo?$AAr?$AAe?$AAa?$AA?$AA@ 1004e1d0     LIBCMT:getqloc.obj
 0002:0000c1e8       ??_C@_1BK@FBDGGIFF@?$AAs?$AAo?$AAu?$AAt?$AAh?$AA?9?$AAa?$AAf?$AAr?$AAi?$AAc?$AAa?$AA?$AA@ 1004e1e8     LIBCMT:getqloc.obj
 0002:0000c204       ??_C@_1BI@GHLEJDPK@?$AAs?$AAo?$AAu?$AAt?$AAh?$AA?9?$AAk?$AAo?$AAr?$AAe?$AAa?$AA?$AA@ 1004e204     LIBCMT:getqloc.obj
 0002:0000c21c       ??_C@_1CE@PLHLOMJF@?$AAt?$AAr?$AAi?$AAn?$AAi?$AAd?$AAa?$AAd?$AA?5?$AA?$CG?$AA?5?$AAt?$AAo?$AAb?$AAa?$AAg?$AAo?$AA?$AA@ 1004e21c     LIBCMT:getqloc.obj
 0002:0000c240       ??_C@_1BO@MODIMHHI@?$AAu?$AAn?$AAi?$AAt?$AAe?$AAd?$AA?9?$AAk?$AAi?$AAn?$AAg?$AAd?$AAo?$AAm?$AA?$AA@ 1004e240     LIBCMT:getqloc.obj
 0002:0000c260       ??_C@_1BM@FFHJONBJ@?$AAu?$AAn?$AAi?$AAt?$AAe?$AAd?$AA?9?$AAs?$AAt?$AAa?$AAt?$AAe?$AAs?$AA?$AA@ 1004e260     LIBCMT:getqloc.obj
 0002:0000c27c       ___rg_language_count       1004e27c     LIBCMT:getqloc.obj
 0002:0000c280       ___rg_country_count        1004e280     LIBCMT:getqloc.obj
 0002:0000c284       ??_C@_17DNCLJFIF@?$AAA?$AAC?$AAP?$AA?$AA@ 1004e284     LIBCMT:getqloc.obj
 0002:0000c28c       ??_C@_17CIKBIHLH@?$AAO?$AAC?$AAP?$AA?$AA@ 1004e28c     LIBCMT:getqloc.obj
 0002:0000c294       ___rglangidNotDefault      1004e294     LIBCMT:getqloc_downlevel.obj
 0002:0000c2a8       __real@00000000            1004e2a8     LIBCMT:wcstoq.obj
 0002:0000c2b0       __load_config_used         1004e2b0     LIBCMT:loadcfg.obj
 0002:0000da00       ___safe_se_handler_table   1004fa00     <linker-defined>
 0002:0000db10       ___rtc_iaa                 1004fb10     LIBCMT:initsect.obj
 0002:0000dc14       ___rtc_izz                 1004fc14     LIBCMT:initsect.obj
 0002:0000dd18       ___rtc_taa                 1004fd18     LIBCMT:initsect.obj
 0002:0000de1c       ___rtc_tzz                 1004fe1c     LIBCMT:initsect.obj
 0003:00000420       _Registration_Estimation_P 10051420     Registration_Estimation_data.obj
 0003:00001630       _pci20041digout            10052630     xpctarget.obj
 0003:00001634       _nipcdio24cnfg             10052634     xpctarget.obj
 0003:00001638       _rtddm6604cnfg             10052638     xpctarget.obj
 0003:0000175c       _DefaultCOMIOBase          1005275c     xpcruntime:xpcimports.obj
 0003:0000176c       _DefaultCOMIRQ             1005276c     xpcruntime:xpcimports.obj
 0003:00001780       __fltused                  10052780     LIBCMT:fpinit.obj
 0003:00001784       __ldused                   10052784     LIBCMT:fpinit.obj
 0003:00001790       __iob                      10052790     LIBCMT:_file.obj
 0003:00001a10       ___isa_enabled             10052a10     LIBCMT:cpu_disp.obj
 0003:00001a14       ___security_cookie         10052a14     LIBCMT:gs_cookie.obj
 0003:00001a18       ___security_cookie_complement 10052a18     LIBCMT:gs_cookie.obj
 0003:00001bf0       ___nullstring              10052bf0     LIBCMT:output.obj
 0003:00001bf4       ___wnullstring             10052bf4     LIBCMT:output.obj
 0003:00001c04       __cfltcvt_tab              10052c04     LIBCMT:cmiscdat.obj
 0003:00001d50       __mbctype                  10052d50     LIBCMT:mbctype.obj
 0003:00001e58       __mbcasemap                10052e58     LIBCMT:mbctype.obj
 0003:00001f58       ___initialmbcinfo          10052f58     LIBCMT:mbctype.obj
 0003:0000217c       ___ptmbcinfo               1005317c     LIBCMT:mbctype.obj
 0003:00002270       ___badioinfo               10053270     LIBCMT:ioinit.obj
 0003:000022b0       __lookuptrailbytes         100532b0     LIBCMT:read.obj
 0003:000023b0       __d_inf                    100533b0     LIBCMT:util.obj
 0003:000023b8       __d_ind                    100533b8     LIBCMT:util.obj
 0003:000023c0       __d_max                    100533c0     LIBCMT:util.obj
 0003:000023c8       __d_min                    100533c8     LIBCMT:util.obj
 0003:000023d0       __d_mzero                  100533d0     LIBCMT:util.obj
 0003:000024dc       ___abort_behavior          100534dc     LIBCMT:abort.obj
 0003:000024e0       ___flsindex                100534e0     LIBCMT:tidtable.obj
 0003:000024f0       ___mb_cur_max              100534f0     LIBCMT:nlsdata.obj
 0003:000024f4       ___wclocalestr             100534f4     LIBCMT:nlsdata.obj
 0003:000024f8       ___lc_time_c               100534f8     LIBCMT:nlsdata.obj
 0003:0000265c       ___ptlocinfo               1005365c     LIBCMT:nlsdata.obj
 0003:00002660       ___initiallocinfo          10053660     LIBCMT:nlsdata.obj
 0003:00002718       ___initiallocalestructinfo 10053718     LIBCMT:nlsdata.obj
 0003:00002720       ___globallocalestatus      10053720     LIBCMT:glstatus.obj
 0003:00002724       __matherr_flag             10053724     LIBCMT:matherr.obj
 0003:00002730       __NLG_Destination          10053730     LIBCMT:exsup.obj
 0003:00002740       ___lconv                   10053740     LIBCMT:lconv.obj
 0003:00002744       ___lconv_static_decimal    10053744     LIBCMT:lconv.obj
 0003:00002748       ___lconv_c                 10053748     LIBCMT:lconv.obj
 0003:00002798       ___lconv_static_W_decimal  10053798     LIBCMT:lconv.obj
 0003:0000279c       __pctype                   1005379c     LIBCMT:ctype.obj
 0003:000027a0       __pwctype                  100537a0     LIBCMT:ctype.obj
 0003:000027e0       __confh                    100537e0     LIBCMT:initcon.obj
 0003:000027e8       __pow10pos                 100537e8     LIBCMT:constpow.obj
 0003:00002948       __pow10neg                 10053948     LIBCMT:constpow.obj
 0003:00002ab0       __HUGE                     10053ab0     LIBCMT:huge.obj
 0003:00002ffc       ___isa_available_default   10053ffc     rt_logging.obj
 0003:0000300c       _pci20098PortA             1005400c     xpctarget.obj
 0003:00003010       _pci20098PortB             10054010     xpctarget.obj
 0003:00003014       _siepowercan_firmware_initialized 10054014     xpctarget.obj
 0003:00003018       _siepowercan_port1_configured 10054018     xpctarget.obj
 0003:0000301c       _siepowercan_port2_configured 1005401c     xpctarget.obj
 0003:00003020       _CANAC2_FIRMWARE_LOADED    10054020     xpctarget.obj
 0003:00003024       _rs232ports                10054024     xpctarget.obj
 0003:00003034       _NI_AT_MIO_16F_5_commreg2  10054034     xpctarget.obj
 0003:00003038       _RTD_DM6430_init           10054038     xpctarget.obj
 0003:0000303c       _RTD_DM6420_init           1005403c     xpctarget.obj
 0003:00003040       _CANAC2_FIRMWARE_LOADED_mb1 10054040     xpctarget.obj
 0003:00003044       _CANAC2_FIRMWARE_LOADED_mb2 10054044     xpctarget.obj
 0003:00003048       _CANAC2_FIRMWARE_LOADED_mb3 10054048     xpctarget.obj
 0003:0000304c       _xmlsize                   1005404c     xpctarget.obj
 0003:00003558       ___fastflag                10054558     LIBCMT:fpinit.obj
 0003:00003880       __C_Exit_Done              10054880     LIBCMT:crt0dat.obj
 0003:00003884       ___argc                    10054884     LIBCMT:crt0dat.obj
 0003:00003888       ___argv                    10054888     LIBCMT:crt0dat.obj
 0003:0000388c       ___wargv                   1005488c     LIBCMT:crt0dat.obj
 0003:00003890       __environ                  10054890     LIBCMT:crt0dat.obj
 0003:00003894       __wenviron                 10054894     LIBCMT:crt0dat.obj
 0003:00003898       __pgmptr                   10054898     LIBCMT:crt0dat.obj
 0003:0000389c       __wpgmptr                  1005489c     LIBCMT:crt0dat.obj
 0003:000038a0       __umaskval                 100548a0     LIBCMT:crt0dat.obj
 0003:000038a4       __exitflag                 100548a4     LIBCMT:crt0dat.obj
 0003:000038a8       __C_Termination_Done       100548a8     LIBCMT:crt0dat.obj
 0003:000038ac       ___winitenv                100548ac     LIBCMT:crt0dat.obj
 0003:000038b0       ___initenv                 100548b0     LIBCMT:crt0dat.obj
 0003:000038b4       __cflush                   100548b4     LIBCMT:_file.obj
 0003:000038b8       ___isa_available           100548b8     LIBCMT:cpu_disp.obj
 0003:000038bc       ___favor                   100548bc     LIBCMT:cpu_disp.obj
 0003:000038c4       __aenvptr                  100548c4     LIBCMT:dllcrt0.obj
 0003:000038c8       __wenvptr                  100548c8     LIBCMT:dllcrt0.obj
 0003:000038cc       ?_pnhHeap@@3P6AHI@ZA       100548cc     LIBCMT:handler.obj
 0003:000038d0       ___app_type                100548d0     LIBCMT:crt0msg.obj
 0003:00003f00       __newmode                  10054f00     LIBCMT:_newmode.obj
 0003:00003f04       __crtheap                  10054f04     LIBCMT:heapinit.obj
 0003:00003f08       ___pInvalidArgHandler      10054f08     LIBCMT:invarg.obj
 0003:00003f0c       __stdbuf                   10054f0c     LIBCMT:_sftbuf.obj
 0003:00004068       __maxwait                  10055068     LIBCMT:crtheap.obj
 0003:0000406c       ?__pInconsistency@@3P6AXXZA 1005506c     LIBCMT:hooks.obj
 0003:00004070       ___pPurecall               10055070     LIBCMT:inithelp.obj
 0003:0000408c       ___mbcodepage              1005508c     LIBCMT:mbctype.obj
 0003:00004090       ___ismbcodepage            10055090     LIBCMT:mbctype.obj
 0003:00004094       ___mbulinfo                10055094     LIBCMT:mbctype.obj
 0003:000040a0       ___mblocalename            100550a0     LIBCMT:mbctype.obj
 0003:000040a8       ___pioinfo                 100550a8     LIBCMT:ioinit.obj
 0003:000041a8       ___error_mode              100551a8     LIBCMT:errmode.obj
 0003:000042c8       __outputformat             100552c8     LIBCMT:outputformat.obj
 0003:000042d0       __commode                  100552d0     LIBCMT:ncommode.obj
 0003:000042d4       ___lconv_static_null       100552d4     LIBCMT:lconv.obj
 0003:000042d8       ___lconv_static_W_null     100552d8     LIBCMT:lconv.obj
 0003:000042dc       ___locale_changed          100552dc     LIBCMT:wsetloca.obj
 0003:000042e0       __fmode                    100552e0     LIBCMT:txtmode.obj
 0003:00004300       _CANAC2_2_receiveindex_mb3 10055300     <common>
 0003:000073d4       _CANAC2_2_receivemaxindex_mb3 100583d4     <common>
 0003:000073e0       _CANAC2_2_sendindex_mb3    100583e0     <common>
 0003:00007700       _CANAC2_2_sendmaxindex_mb3 10058700     <common>
 0003:00007720       _CANAC2_1_receiveindex_mb3 10058720     <common>
 0003:00007a40       _CANAC2_1_receivemaxindex_mb3 10058a40     <common>
 0003:00007a60       _CANAC2_1_sendindex_mb3    10058a60     <common>
 0003:00007d80       _CANAC2_1_sendmaxindex_mb3 10058d80     <common>
 0003:00007da0       _CANAC2_2_receive_mb3      10058da0     <common>
 0003:000080c0       _CANAC2_2_send_mb3         100590c0     <common>
 0003:000083e0       _CANAC2_1_receive_mb3      100593e0     <common>
 0003:00008700       _CANAC2_1_send_mb3         10059700     <common>
 0003:00008a20       _CANAC2_2_receiveindex_mb2 10059a20     <common>
 0003:00008d40       _CANAC2_2_receivemaxindex_mb2 10059d40     <common>
 0003:00008d60       _CANAC2_2_sendindex_mb2    10059d60     <common>
 0003:00009080       _CANAC2_2_sendmaxindex_mb2 1005a080     <common>
 0003:000090a0       _CANAC2_1_receiveindex_mb2 1005a0a0     <common>
 0003:000093c0       _CANAC2_1_receivemaxindex_mb2 1005a3c0     <common>
 0003:000093e0       _CANAC2_1_sendindex_mb2    1005a3e0     <common>
 0003:00009700       _CANAC2_1_sendmaxindex_mb2 1005a700     <common>
 0003:00009720       _CANAC2_2_receive_mb2      1005a720     <common>
 0003:00009a40       _CANAC2_2_send_mb2         1005aa40     <common>
 0003:00009d60       _CANAC2_1_receive_mb2      1005ad60     <common>
 0003:0000a080       _CANAC2_1_send_mb2         1005b080     <common>
 0003:0000a3a0       _CANAC2_2_receiveindex_mb1 1005b3a0     <common>
 0003:0000a6c0       _CANAC2_2_receivemaxindex_mb1 1005b6c0     <common>
 0003:0000a6e0       _CANAC2_2_sendindex_mb1    1005b6e0     <common>
 0003:0000aa00       _CANAC2_2_sendmaxindex_mb1 1005ba00     <common>
 0003:0000aa20       _CANAC2_1_receiveindex_mb1 1005ba20     <common>
 0003:0000ad40       _CANAC2_1_receivemaxindex_mb1 1005bd40     <common>
 0003:0000ad60       _CANAC2_1_sendindex_mb1    1005bd60     <common>
 0003:0000b080       _CANAC2_1_sendmaxindex_mb1 1005c080     <common>
 0003:0000b0a0       _CANAC2_2_receive_mb1      1005c0a0     <common>
 0003:0000b3c0       _CANAC2_2_send_mb1         1005c3c0     <common>
 0003:0000b6e0       _CANAC2_1_receive_mb1      1005c6e0     <common>
 0003:0000ba00       _CANAC2_1_send_mb1         1005ca00     <common>
 0003:0000bd20       _CANAC2_2_receiveindex     1005cd20     <common>
 0003:0000c040       _CANAC2_2_receivemaxindex  1005d040     <common>
 0003:0000c060       _CANAC2_2_sendindex        1005d060     <common>
 0003:0000c380       _CANAC2_2_sendmaxindex     1005d380     <common>
 0003:0000c3a0       _CANAC2_1_receiveindex     1005d3a0     <common>
 0003:0000c6c0       _CANAC2_1_receivemaxindex  1005d6c0     <common>
 0003:0000c6e0       _CANAC2_1_sendindex        1005d6e0     <common>
 0003:0000ca00       _CANAC2_1_sendmaxindex     1005da00     <common>
 0003:0000ca20       _CANAC2_2_receive          1005da20     <common>
 0003:0000cd40       _CANAC2_2_send             1005dd40     <common>
 0003:0000d060       _CANAC2_1_receive          1005e060     <common>
 0003:0000d380       _CANAC2_1_send             1005e380     <common>
 0003:0000d6a0       _siepowercan_can_object_buffer_port2 1005e6a0     <common>
 0003:000116c0       _siepowercan_can_object_buffer_port1 100626c0     <common>
 0003:000156c0       _rtNaNF                    100666c0     <common>
 0003:000156d4       _rtMinusInfF               100666d4     <common>
 0003:000156d8       _rtInfF                    100666d8     <common>
 0003:000156e0       _rtNaN                     100666e0     <common>
 0003:000156e8       _rtMinusInf                100666e8     <common>
 0003:000156f0       _rtInf                     100666f0     <common>
 0003:00015700       _Registration_Estimation_M_ 10066700     <common>
 0003:000189a0       _Registration_Estimation_DW 100699a0     <common>
 0003:00019500       _Registration_Estimation_B 1006a500     <common>
 0003:00019658       _xpceaddEvent              1006a658     <common>
 0003:000196a8       _xpceDeRegisterISR         1006a6a8     <common>
 0003:000196ac       _xpceRegisterISR           1006a6ac     <common>
 0003:000196b0       _xpcIsModelInit            1006a6b0     <common>
 0003:000196b4       _xpcGetElapsedTime         1006a6b4     <common>
 0003:000196b8       _xpcBusyWait               1006a6b8     <common>
 0003:000196bc       _xpcFreePhysicalMemory     1006a6bc     <common>
 0003:000196c0       _xpcAllocPhysicalMemory    1006a6c0     <common>
 0003:000196c4       _xpcReserveMemoryRegion    1006a6c4     <common>
 0003:000196c8       _xpcOutpB                  1006a6c8     <common>
 0003:000196cc       _xpcOutpW                  1006a6cc     <common>
 0003:000196d0       _xpcOutpDW                 1006a6d0     <common>
 0003:000196d4       _xpcInpB                   1006a6d4     <common>
 0003:000196d8       _xpcInpW                   1006a6d8     <common>
 0003:000196dc       _xpcInpDW                  1006a6dc     <common>
 0003:000196e0       _slTestRegAssessment       1006a6e0     <common>
 0003:000196e4       _slTestTerminate           1006a6e4     <common>
 0003:000196e8       _slTestEvalOnFail          1006a6e8     <common>
 0003:000196ec       _slTestLogAssessments      1006a6ec     <common>
 0003:000196f0       _slTestInitialize          1006a6f0     <common>
 0003:000196f4       _unRegisterPTPTimeRead     1006a6f4     <common>
 0003:000196f8       _registerPTPTimeRead       1006a6f8     <common>
 0003:000196fc       _slrteGetCurrentStepSize   1006a6fc     <common>
 0003:00019700       _slrteSetStepSizeDelta     1006a700     <common>
 0003:00019704       _xpceGetIntTimerGranularityNS 1006a704     <common>
 0003:00019708       _sendToAsyncQueueTgtAppSvc 1006a708     <common>
 0003:0001970c       _terminateToAsyncQueueTgtAppSvc 1006a70c     <common>
 0003:00019710       _startToAsyncQueueTgtAppSvc 1006a710     <common>
 0003:00019714       _getStatusFlags            1006a714     <common>
 0003:00019718       _getCommService            1006a718     <common>
 0003:0001971c       _getMemoryService          1006a71c     <common>
 0003:00019720       _StreamVideo               1006a720     <common>
 0003:00019724       _StopVideoDisplay          1006a724     <common>
 0003:00019728       _StartVideoDisplay         1006a728     <common>
 0003:0001972c       _DestroyVideoDisplay       1006a72c     <common>
 0003:00019730       _CreateVideoDisplay        1006a730     <common>
 0003:00019734       _ConvertUImage             1006a734     <common>
 0003:00019738       _StopVideo                 1006a738     <common>
 0003:0001973c       _ReadFrameBuffer           1006a73c     <common>
 0003:00019740       _StartVideo                1006a740     <common>
 0003:00019744       _GetVideoConfigs           1006a744     <common>
 0003:00019748       _FindUsbVideoDevice        1006a748     <common>
 0003:0001974c       _xpceDeleteSemaphore       1006a74c     <common>
 0003:00019750       _xpceSignalSemaphore       1006a750     <common>
 0003:00019754       _xpceWaitSemaphore         1006a754     <common>
 0003:00019758       _xpceCreateSemaphore       1006a758     <common>
 0003:0001975c       _TBGiveSpinFast            1006a75c     <common>
 0003:00019760       _TBTakeSpinFast            1006a760     <common>
 0003:00019764       _TBDeleteSpin              1006a764     <common>
 0003:00019768       _TBCreateSpin              1006a768     <common>
 0003:0001976c       _xpceScopeAcqOK            1006a76c     <common>
 0003:00019770       _rl32eRestartAcquisition   1006a770     <common>
 0003:00019774       _rl32eSetTargetScopeSigFt  1006a774     <common>
 0003:00019778       _rl32eSetTargetScope       1006a778     <common>
 0003:0001977c       _xpceFSScopeSet            1006a77c     <common>
 0003:00019780       _rl32eSetScope             1006a780     <common>
 0003:00019784       _rl32eAddSignal            1006a784     <common>
 0003:00019788       _rl32eGetSignalNo          1006a788     <common>
 0003:0001978c       _rl32eDefScope             1006a78c     <common>
 0003:00019790       _rl32eScopeExists          1006a790     <common>
 0003:00019794       _xpceUDPClose              1006a794     <common>
 0003:00019798       _xpceUDPReceive            1006a798     <common>
 0003:0001979c       _xpceUDPSend               1006a79c     <common>
 0003:000197a0       _xpceUDPOpenReceive        1006a7a0     <common>
 0003:000197a4       _xpceUDPOpenSend           1006a7a4     <common>
 0003:000197a8       _rl32eSendBlock            1006a7a8     <common>
 0003:000197ac       _rl32eLineStatus           1006a7ac     <common>
 0003:000197b0       _rl32eReceiveBufferCount   1006a7b0     <common>
 0003:000197b4       _rl32eReceiveChar          1006a7b4     <common>
 0003:000197b8       _rl32eSendChar             1006a7b8     <common>
 0003:000197bc       _rl32eCloseCOMPort         1006a7bc     <common>
 0003:000197c0       _rl32eInitCOMPort          1006a7c0     <common>
 0003:000197c4       _xpceGetParamDims          1006a7c4     <common>
 0003:000197c8       _xpceGetParameter          1006a7c8     <common>
 0003:000197cc       _xpceSetParameter          1006a7cc     <common>
 0003:000197d0       _xpceGetSignalValue        1006a7d0     <common>
 0003:000197d4       _xpceAssignPCIInterrupt    1006a7d4     <common>
 0003:000197d8       _rl32eGetPCIInfoAtSlot     1006a7d8     <common>
 0003:000197dc       _rl32eGetPCIInfo           1006a7dc     <common>
 0003:000197e0       _rl32eShowPCIInfo          1006a7e0     <common>
 0003:000197e4       _rl32eShowPCIDev           1006a7e4     <common>
 0003:000197e8       _xpceGetTET                1006a7e8     <common>
 0003:000197ec       _xpceFTSubtract            1006a7ec     <common>
 0003:000197f0       _xpceFTAdd                 1006a7f0     <common>
 0003:000197f4       _xpceFTReadTime            1006a7f4     <common>
 0003:000197f8       ___unguarded_readlc_active 1006a7f8     <common>
 0003:00019808       ___setlc_active            1006a808     <common>
 0003:0001980c       __nhandle                  1006a80c     <common>
 0003:00019820       _encodedKERNEL32Functions  1006a820     <common>
 0003:000198c8       __debugger_hook_dummy      1006a8c8     <common>
 0003:000198d4       ___use_sse2_mathfcns       1006a8d4     <common>
 0003:000198e0       __pmatherr                 1006a8e0     <common>
 0003:000198ec       __pDestructExceptionObject 1006a8ec     <common>
 0003:000198f8       __acmdln                   1006a8f8     <common>
 0003:00019920       __bufin                    1006a920     <common>
 0003:0001ac5c       ___piob                    1006bc5c     <common>
 0003:0001ac60       __nstream                  1006bc60     <common>
 0003:0001ac64       ___dyn_tls_init_callback   1006bc64     <common>
 0003:0001ac74       ___onexitend               1006bc74     <common>
 0003:0001ac78       ___onexitbegin             1006bc78     <common>
 0003:0001ac7c       ___mbctype_initialized     1006bc7c     <common>
 0003:0001ac80       ___env_initialized         1006bc80     <common>
 0004:00000000       __imp__GetModuleHandleA@4  1006c000     kernel32:KERNEL32.dll
 0004:00000004       __imp__GetProcAddress@8    1006c004     kernel32:KERNEL32.dll
 0004:00000008       __imp__HeapAlloc@12        1006c008     kernel32:KERNEL32.dll
 0004:0000000c       __imp__IsDebuggerPresent@0 1006c00c     kernel32:KERNEL32.dll
 0004:00000010       __imp__IsProcessorFeaturePresent@4 1006c010     kernel32:KERNEL32.dll
 0004:00000014       __imp__EncodePointer@4     1006c014     kernel32:KERNEL32.dll
 0004:00000018       __imp__DecodePointer@4     1006c018     kernel32:KERNEL32.dll
 0004:0000001c       __imp__GetLastError@0      1006c01c     kernel32:KERNEL32.dll
 0004:00000020       __imp__ExitProcess@4       1006c020     kernel32:KERNEL32.dll
 0004:00000024       __imp__GetModuleHandleExW@12 1006c024     kernel32:KERNEL32.dll
 0004:00000028       __imp__AreFileApisANSI@0   1006c028     kernel32:KERNEL32.dll
 0004:0000002c       __imp__MultiByteToWideChar@24 1006c02c     kernel32:KERNEL32.dll
 0004:00000030       __imp__WideCharToMultiByte@32 1006c030     kernel32:KERNEL32.dll
 0004:00000034       __imp__HeapFree@12         1006c034     kernel32:KERNEL32.dll
 0004:00000038       __imp__HeapReAlloc@16      1006c038     kernel32:KERNEL32.dll
 0004:0000003c       __imp__EnterCriticalSection@4 1006c03c     kernel32:KERNEL32.dll
 0004:00000040       __imp__LeaveCriticalSection@4 1006c040     kernel32:KERNEL32.dll
 0004:00000044       __imp__GetStdHandle@4      1006c044     kernel32:KERNEL32.dll
 0004:00000048       __imp__GetFileType@4       1006c048     kernel32:KERNEL32.dll
 0004:0000004c       __imp__GetModuleFileNameW@12 1006c04c     kernel32:KERNEL32.dll
 0004:00000050       __imp__WriteConsoleW@20    1006c050     kernel32:KERNEL32.dll
 0004:00000054       __imp__GetCommandLineA@0   1006c054     kernel32:KERNEL32.dll
 0004:00000058       __imp__GetCurrentThreadId@0 1006c058     kernel32:KERNEL32.dll
 0004:0000005c       __imp__WriteFile@20        1006c05c     kernel32:KERNEL32.dll
 0004:00000060       __imp__GetProcessHeap@0    1006c060     kernel32:KERNEL32.dll
 0004:00000064       __imp__UnhandledExceptionFilter@4 1006c064     kernel32:KERNEL32.dll
 0004:00000068       __imp__SetUnhandledExceptionFilter@4 1006c068     kernel32:KERNEL32.dll
 0004:0000006c       __imp__SetLastError@4      1006c06c     kernel32:KERNEL32.dll
 0004:00000070       __imp__InitializeCriticalSectionAndSpinCount@8 1006c070     kernel32:KERNEL32.dll
 0004:00000074       __imp__CreateEventW@16     1006c074     kernel32:KERNEL32.dll
 0004:00000078       __imp__Sleep@4             1006c078     kernel32:KERNEL32.dll
 0004:0000007c       __imp__GetCurrentProcess@0 1006c07c     kernel32:KERNEL32.dll
 0004:00000080       __imp__TerminateProcess@8  1006c080     kernel32:KERNEL32.dll
 0004:00000084       __imp__TlsAlloc@0          1006c084     kernel32:KERNEL32.dll
 0004:00000088       __imp__TlsGetValue@4       1006c088     kernel32:KERNEL32.dll
 0004:0000008c       __imp__TlsSetValue@8       1006c08c     kernel32:KERNEL32.dll
 0004:00000090       __imp__TlsFree@4           1006c090     kernel32:KERNEL32.dll
 0004:00000094       __imp__GetStartupInfoW@4   1006c094     kernel32:KERNEL32.dll
 0004:00000098       __imp__GetTickCount@0      1006c098     kernel32:KERNEL32.dll
 0004:0000009c       __imp__GetModuleHandleW@4  1006c09c     kernel32:KERNEL32.dll
 0004:000000a0       __imp__CreateSemaphoreW@16 1006c0a0     kernel32:KERNEL32.dll
 0004:000000a4       __imp__DeleteCriticalSection@4 1006c0a4     kernel32:KERNEL32.dll
 0004:000000a8       __imp__FatalAppExitA@8     1006c0a8     kernel32:KERNEL32.dll
 0004:000000ac       __imp__SetConsoleCtrlHandler@8 1006c0ac     kernel32:KERNEL32.dll
 0004:000000b0       __imp__FreeLibrary@4       1006c0b0     kernel32:KERNEL32.dll
 0004:000000b4       __imp__LoadLibraryExW@12   1006c0b4     kernel32:KERNEL32.dll
 0004:000000b8       __imp__IsValidCodePage@4   1006c0b8     kernel32:KERNEL32.dll
 0004:000000bc       __imp__GetACP@0            1006c0bc     kernel32:KERNEL32.dll
 0004:000000c0       __imp__GetOEMCP@0          1006c0c0     kernel32:KERNEL32.dll
 0004:000000c4       __imp__GetCPInfo@8         1006c0c4     kernel32:KERNEL32.dll
 0004:000000c8       __imp__CloseHandle@4       1006c0c8     kernel32:KERNEL32.dll
 0004:000000cc       __imp__RtlUnwind@16        1006c0cc     kernel32:KERNEL32.dll
 0004:000000d0       __imp__ReadFile@20         1006c0d0     kernel32:KERNEL32.dll
 0004:000000d4       __imp__GetConsoleMode@8    1006c0d4     kernel32:KERNEL32.dll
 0004:000000d8       __imp__ReadConsoleW@20     1006c0d8     kernel32:KERNEL32.dll
 0004:000000dc       __imp__GetConsoleCP@0      1006c0dc     kernel32:KERNEL32.dll
 0004:000000e0       __imp__DeleteFileW@4       1006c0e0     kernel32:KERNEL32.dll
 0004:000000e4       __imp__SetFilePointerEx@20 1006c0e4     kernel32:KERNEL32.dll
 0004:000000e8       __imp__RaiseException@16   1006c0e8     kernel32:KERNEL32.dll
 0004:000000ec       __imp__OutputDebugStringW@4 1006c0ec     kernel32:KERNEL32.dll
 0004:000000f0       __imp__GetCurrentThread@0  1006c0f0     kernel32:KERNEL32.dll
 0004:000000f4       __imp__GetModuleFileNameA@12 1006c0f4     kernel32:KERNEL32.dll
 0004:000000f8       __imp__QueryPerformanceCounter@4 1006c0f8     kernel32:KERNEL32.dll
 0004:000000fc       __imp__GetCurrentProcessId@0 1006c0fc     kernel32:KERNEL32.dll
 0004:00000100       __imp__GetSystemTimeAsFileTime@4 1006c100     kernel32:KERNEL32.dll
 0004:00000104       __imp__GetEnvironmentStringsW@0 1006c104     kernel32:KERNEL32.dll
 0004:00000108       __imp__FreeEnvironmentStringsW@4 1006c108     kernel32:KERNEL32.dll
 0004:0000010c       __imp__HeapSize@12         1006c10c     kernel32:KERNEL32.dll
 0004:00000110       __imp__GetDateFormatW@24   1006c110     kernel32:KERNEL32.dll
 0004:00000114       __imp__GetTimeFormatW@24   1006c114     kernel32:KERNEL32.dll
 0004:00000118       __imp__CompareStringW@24   1006c118     kernel32:KERNEL32.dll
 0004:0000011c       __imp__LCMapStringW@24     1006c11c     kernel32:KERNEL32.dll
 0004:00000120       __imp__GetLocaleInfoW@16   1006c120     kernel32:KERNEL32.dll
 0004:00000124       __imp__IsValidLocale@8     1006c124     kernel32:KERNEL32.dll
 0004:00000128       __imp__GetUserDefaultLCID@0 1006c128     kernel32:KERNEL32.dll
 0004:0000012c       __imp__EnumSystemLocalesW@8 1006c12c     kernel32:KERNEL32.dll
 0004:00000130       __imp__GetStringTypeW@16   1006c130     kernel32:KERNEL32.dll
 0004:00000134       __imp__FlushFileBuffers@4  1006c134     kernel32:KERNEL32.dll
 0004:00000138       __imp__SetStdHandle@8      1006c138     kernel32:KERNEL32.dll
 0004:0000013c       __imp__CreateFileW@28      1006c13c     kernel32:KERNEL32.dll
 0004:00000140       __imp__SetEndOfFile@4      1006c140     kernel32:KERNEL32.dll
 0004:00000144       \177KERNEL32_NULL_THUNK_DATA 1006c144     kernel32:KERNEL32.dll
 0004:000001b0       __IMPORT_DESCRIPTOR_KERNEL32 1006c1b0     kernel32:KERNEL32.dll
 0004:000001c4       __NULL_IMPORT_DESCRIPTOR   1006c1c4     kernel32:KERNEL32.dll

 entry point at        0001:00016553

