 slrttestmdl_xpc

 Timestamp is 5832829c (Mon Nov 21 00:14:04 2016)

 Preferred load address is 10000000

 Start         Length     Name                   Class
 0001:00000000 00038920H .text$mn                CODE
 0002:00000000 00000104H .CRT$XCA                DATA
 0002:00000104 00000104H .CRT$XCZ                DATA
 0002:00000208 00000104H .CRT$XIA                DATA
 0002:0000030c 00000113H .CRT$XIC                DATA
 0002:00000420 00000104H .CRT$XIZ                DATA
 0002:00000524 00000104H .CRT$XPA                DATA
 0002:00000628 00000109H .CRT$XPX                DATA
 0002:00000734 00000104H .CRT$XPXA               DATA
 0002:00000838 00000104H .CRT$XPZ                DATA
 0002:0000093c 00000104H .CRT$XTA                DATA
 0002:00000a40 00000104H .CRT$XTZ                DATA
 0002:00000b50 00009512H .rdata                  DATA
 0002:0000a064 00000194H .rdata$debug            DATA
 0002:0000a200 0000010eH .rdata$sxdata           DATA
 0002:0000a310 00000104H .rtc$IAA                DATA
 0002:0000a414 00000104H .rtc$IZZ                DATA
 0002:0000a518 00000104H .rtc$TAA                DATA
 0002:0000a61c 00000104H .rtc$TZZ                DATA
 0002:0000a720 00000991H .xdata$x                DATA
 0002:0000b0c0 00000218H .edata                  DATA
 0003:00000000 00001c2aH .data                   DATA
 0003:00001c40 00013ce4H .bss                    DATA
 0004:00000000 000001b0H .idata$5                DATA
 0004:000001b0 00000014H .idata$2                DATA
 0004:000001c4 00000014H .idata$3                DATA
 0004:000001d8 000001b0H .idata$4                DATA
 0004:00000388 0000076bH .idata$6                DATA

  Address         Publics by Value              Rva+Base       Lib:Object

 0000:00000000       ___guard_flags             00000000     <absolute>
 0000:00000000       ___guard_fids_table        00000000     <absolute>
 0000:00000000       __except_list              00000000     <absolute>
 0000:00000000       ___guard_fids_count        00000000     <absolute>
 0000:00000003       ___safe_se_handler_count   00000003     <absolute>
 0000:00000000       ___ImageBase               10000000     <linker-defined>
 0001:00000300       _MdlInitialize             10001300 f   slrttestmdl.obj
 0001:00000310       _MdlInitializeSampleTimes  10001310 f   slrttestmdl.obj
 0001:00000320       _MdlInitializeSizes        10001320 f   slrttestmdl.obj
 0001:00000330       _MdlOutputs                10001330 f   slrttestmdl.obj
 0001:00000340       _MdlStart                  10001340 f   slrttestmdl.obj
 0001:00000370       _MdlTerminate              10001370 f   slrttestmdl.obj
 0001:00000380       _MdlUpdate                 10001380 f   slrttestmdl.obj
 0001:00000390       _rt_ODECreateIntegrationData 10001390 f   slrttestmdl.obj
 0001:000003a0       _rt_ODEDestroyIntegrationData 100013a0 f   slrttestmdl.obj
 0001:000003b0       _rt_ODEUpdateContinuousStates 100013b0 f   slrttestmdl.obj
 0001:00000690       _slrttestmdl               10001690 f   slrttestmdl.obj
 0001:00000a60       _slrttestmdl_derivatives   10001a60 f   slrttestmdl.obj
 0001:00000a90       _slrttestmdl_initialize    10001a90 f   slrttestmdl.obj
 0001:00000ac0       _slrttestmdl_output        10001ac0 f   slrttestmdl.obj
 0001:00000cf0       _slrttestmdl_terminate     10001cf0 f   slrttestmdl.obj
 0001:00000d00       _slrttestmdl_update        10001d00 f   slrttestmdl.obj
 0001:00000dd0       _rtGetInf                  10001dd0 f   rtGetInf.obj
 0001:00000e00       _rtGetInfF                 10001e00 f   rtGetInf.obj
 0001:00000e20       _rtGetMinusInf             10001e20 f   rtGetInf.obj
 0001:00000e50       _rtGetMinusInfF            10001e50 f   rtGetInf.obj
 0001:00000e70       _rtGetNaN                  10001e70 f   rtGetNaN.obj
 0001:00000ea0       _rtGetNaNF                 10001ea0 f   rtGetNaN.obj
 0001:000017d0       _rt_CreateLogVar           100027d0 f   rt_logging.obj
 0001:00001860       _rt_CreateLogVarWithConvert 10002860 f   rt_logging.obj
 0001:000021e0       _rt_CreateStructLogVar     100031e0 f   rt_logging.obj
 0001:00002f50       _rt_GetMxIdFromDTypeId     10003f50 f   rt_logging.obj
 0001:00002f80       _rt_GetMxIdFromDTypeIdForRSim 10003f80 f   rt_logging.obj
 0001:000058c0       _rt_StartDataLogging       100068c0 f   rt_logging.obj
 0001:00005d80       _rt_StartDataLoggingWithStartTime 10006d80 f   rt_logging.obj
 0001:000066e0       _rt_StopDataLogging        100076e0 f   rt_logging.obj
 0001:00006700       _rt_StopDataLoggingImpl    10007700 f   rt_logging.obj
 0001:00006a20       _rt_UpdateLogVar           10007a20 f   rt_logging.obj
 0001:00007de0       _rt_UpdateStructLogVar     10008de0 f   rt_logging.obj
 0001:00007e70       _rt_UpdateTXXFYLogVars     10008e70 f   rt_logging.obj
 0001:000081b0       _rt_UpdateTXYLogVars       100091b0 f   rt_logging.obj
 0001:00008400       _rt_CleanUpForStateLogWithMMI 10009400 f   rt_logging_mmi.obj
 0001:00008510       _rt_FillStateSigInfoFromMMI 10009510 f   rt_logging_mmi.obj
 0001:000088c0       _rtIsInf                   100098c0 f   rt_nonfinite.obj
 0001:00008900       _rtIsInfF                  10009900 f   rt_nonfinite.obj
 0001:00008940       _rtIsNaN                   10009940 f   rt_nonfinite.obj
 0001:00008960       _rtIsNaNF                  10009960 f   rt_nonfinite.obj
 0001:00008980       _rt_InitInfAndNaN          10009980 f   rt_nonfinite.obj
 0001:000089e0       _rtwCAPI_CountSysRan       100099e0 f   rtw_modelmap_utils.obj
 0001:00008a80       _rtwCAPI_EncodePath        10009a80 f   rtw_modelmap_utils.obj
 0001:00008b70       _rtwCAPI_FillSysRan        10009b70 f   rtw_modelmap_utils.obj
 0001:00008c60       _rtwCAPI_FreeFullPaths     10009c60 f   rtw_modelmap_utils.obj
 0001:00008cf0       _rtwCAPI_GetFullStateBlockPath 10009cf0 f   rtw_modelmap_utils.obj
 0001:00008ea0       _rtwCAPI_GetNumContStateRecords 10009ea0 f   rtw_modelmap_utils.obj
 0001:00008f60       _rtwCAPI_GetNumSigLogRecords 10009f60 f   rtw_modelmap_utils.obj
 0001:00008fb0       _rtwCAPI_GetNumSigLogRecordsForRTWLogging 10009fb0 f   rtw_modelmap_utils.obj
 0001:00009040       _rtwCAPI_GetNumStateRecords 1000a040 f   rtw_modelmap_utils.obj
 0001:00009090       _rtwCAPI_GetNumStateRecordsForRTWLogging 1000a090 f   rtw_modelmap_utils.obj
 0001:00009120       _rtwCAPI_GetSigAddrFromMap 1000a120 f   rtw_modelmap_utils.obj
 0001:000091e0       _rtwCAPI_GetSigLogRecordInfo 1000a1e0 f   rtw_modelmap_utils.obj
 0001:00009610       _rtwCAPI_GetStateRecordInfo 1000a610 f   rtw_modelmap_utils.obj
 0001:00009ac0       _rtwCAPI_GetStateWidth     1000aac0 f   rtw_modelmap_utils.obj
 0001:00009b20       _rtwCAPI_HasStates         1000ab20 f   rtw_modelmap_utils.obj
 0001:00009b90       _rtwCAPI_UpdateFullPaths   1000ab90 f   rtw_modelmap_utils.obj
 0001:00009d70       _slrttestmdl_GetCAPIStaticMap 1000ad70 f   slrttestmdl_capi.obj
 0001:00009d80       _slrttestmdl_InitializeDataMapInfo 1000ad80 f   slrttestmdl_capi.obj
 0001:00009e10       _TgtConnBackgroundTask     1000ae10 f   slrttestmdl_tgtconn.obj
 0001:00009e20       _TgtConnInit               1000ae20 f   slrttestmdl_tgtconn.obj
 0001:00009e40       _TgtConnPostStep           1000ae40 f   slrttestmdl_tgtconn.obj
 0001:00009e50       _TgtConnPreStep            1000ae50 f   slrttestmdl_tgtconn.obj
 0001:00009e60       _TgtConnTerm               1000ae60 f   slrttestmdl_tgtconn.obj
 0001:00009e70       _DllMain@12                1000ae70 f   xpctarget.obj
 0001:00009e80       _SLRTSetErrorStatus        1000ae80 f   xpctarget.obj
 0001:00009ea0       _changeStepSize            1000aea0 f   xpctarget.obj
 0001:00009f10       _getDLMVersion             1000af10 f   xpctarget.obj
 0001:00009f20       _getRefMdlPath             1000af20 f   xpctarget.obj
 0001:00009fa0       _getRefMdlSignalNumber     1000afa0 f   xpctarget.obj
 0001:0000a050       _getrlmdlinfo              1000b050 f   xpctarget.obj
 0001:0000a230       _slrttestmdl_ChangeStepSize 1000b230 f   xpctarget.obj
 0001:0000a2a0       _updateDiscreteEvents      1000b2a0 f   xpctarget.obj
 0001:0000a2b0       _getNumRef                 1000b2b0 f   appmappingData.obj
 0001:0000a2c0       _GetPCIDeviceFull          1000b2c0 f   xpcruntime:xpcimports.obj
 0001:0000a2f0       _ShowPCIDevice             1000b2f0 f   xpcruntime:xpcimports.obj
 0001:0000a960       _xpcGetPciConfigAtSlot     1000b960 f   xpcruntime:xpcimports.obj
 0001:0000abe0       _xpcInitProcs              1000bbe0 f   xpcruntime:xpcimports.obj
 0001:0000b740       _xpceuploadevent           1000c740 f   xpcruntime:xpcimports.obj
 0001:0000b741       __heap_alloc               1000c741 f i LIBCMT:malloc.obj
 0001:0000b77e       _malloc                    1000c77e f   LIBCMT:malloc.obj
 0001:0000b810       _memset                    1000c810 f   LIBCMT:memset.obj
 0001:0000b8a0       __fpmath                   1000c8a0 f   LIBCMT:fpinit.obj
 0001:0000b8b7       ___setfflag                1000c8b7 f   LIBCMT:fpinit.obj
 0001:0000b8ca       __cfltcvt_init             1000c8ca f   LIBCMT:fpinit.obj
 0001:0000b92a       ___raise_securityfailure   1000c92a f   LIBCMT:gs_report.obj
 0001:0000b967       ___report_gsfailure        1000c967 f   LIBCMT:gs_report.obj
 0001:0000ba62       ___report_rangecheckfailure 1000ca62 f   LIBCMT:gs_report.obj
 0001:0000ba6e       ___report_securityfailure  1000ca6e f   LIBCMT:gs_report.obj
 0001:0000bb3e       ___report_securityfailureEx 1000cb3e f   LIBCMT:gs_report.obj
 0001:0000bc54       ___copy_path_to_wide_string 1000cc54 f   LIBCMT:crt0dat.obj
 0001:0000bd06       ___copy_to_char            1000cd06 f   LIBCMT:crt0dat.obj
 0001:0000bdbb       ___crtCorExitProcess       1000cdbb f   LIBCMT:crt0dat.obj
 0001:0000bdef       ___crtExitProcess          1000cdef f   LIBCMT:crt0dat.obj
 0001:0000be05       ___freeCrtMemory           1000ce05 f   LIBCMT:crt0dat.obj
 0001:0000bf12       __amsg_exit                1000cf12 f   LIBCMT:crt0dat.obj
 0001:0000bf2e       __c_exit                   1000cf2e f   LIBCMT:crt0dat.obj
 0001:0000bf3d       __cexit                    1000cf3d f   LIBCMT:crt0dat.obj
 0001:0000bf4c       __cinit                    1000cf4c f   LIBCMT:crt0dat.obj
 0001:0000bfd0       __exit                     1000cfd0 f   LIBCMT:crt0dat.obj
 0001:0000bfe4       __exit_app                 1000cfe4 f   LIBCMT:crt0dat.obj
 0001:0000bff2       __get_pgmptr               1000cff2 f   LIBCMT:crt0dat.obj
 0001:0000c021       __get_wpgmptr              1000d021 f   LIBCMT:crt0dat.obj
 0001:0000c050       __init_pointers            1000d050 f   LIBCMT:crt0dat.obj
 0001:0000c0be       __initterm_e               1000d0be f   LIBCMT:crt0dat.obj
 0001:0000c0e0       __lockexit                 1000d0e0 f   LIBCMT:crt0dat.obj
 0001:0000c0e9       __unlockexit               1000d0e9 f   LIBCMT:crt0dat.obj
 0001:0000c221       _exit                      1000d221 f   LIBCMT:crt0dat.obj
 0001:0000c235       _calloc                    1000d235 f   LIBCMT:calloc.obj
 0001:0000c275       _free                      1000d275 f   LIBCMT:free.obj
 0001:0000c2ad       _realloc                   1000d2ad f   LIBCMT:realloc.obj
 0001:0000c360       _memmove                   1000d360 f   LIBCMT:memmove.obj
 0001:0000c9b0       _strchr                    1000d9b0 f   LIBCMT:strchr.obj
 0001:0000ca1e       ___from_strstr_to_strchr   1000da1e     LIBCMT:strchr.obj
 0001:0000cae0       _strncat                   1000dae0 f   LIBCMT:strncat.obj
 0001:0000cc20       _strncpy                   1000dc20 f   LIBCMT:strncpy.obj
 0001:0000cd44       ___initstdio               1000dd44 f   LIBCMT:_file.obj
 0001:0000cdb7       ___endstdio                1000ddb7 f   LIBCMT:_file.obj
 0001:0000cdde       ___iob_func                1000ddde f   LIBCMT:_file.obj
 0001:0000cde4       __lock_file                1000dde4 f   LIBCMT:_file.obj
 0001:0000ce23       __lock_file2               1000de23 f   LIBCMT:_file.obj
 0001:0000ce53       __unlock_file              1000de53 f   LIBCMT:_file.obj
 0001:0000ce8d       __unlock_file2             1000de8d f   LIBCMT:_file.obj
 0001:0000ceba       __fclose_nolock            1000deba f   LIBCMT:fclose.obj
 0001:0000cf26       _fclose                    1000df26 f   LIBCMT:fclose.obj
 0001:0000cf9d       __fsopen                   1000df9d f   LIBCMT:fopen.obj
 0001:0000d061       _fopen                     1000e061 f   LIBCMT:fopen.obj
 0001:0000d076       _fopen_s                   1000e076 f   LIBCMT:fopen.obj
 0001:0000d0bb       __fprintf_l                1000e0bb f   LIBCMT:fprintf.obj
 0001:0000d0d5       __fprintf_p                1000e0d5 f   LIBCMT:fprintf.obj
 0001:0000d0ee       __fprintf_p_l              1000e0ee f   LIBCMT:fprintf.obj
 0001:0000d108       __fprintf_s_l              1000e108 f   LIBCMT:fprintf.obj
 0001:0000d122       _fprintf                   1000e122 f   LIBCMT:fprintf.obj
 0001:0000d234       _fprintf_s                 1000e234 f   LIBCMT:fprintf.obj
 0001:0000d24d       __fread_nolock             1000e24d f   LIBCMT:fread.obj
 0001:0000d268       __fread_nolock_s           1000e268 f   LIBCMT:fread.obj
 0001:0000d42d       _fread                     1000e42d f   LIBCMT:fread.obj
 0001:0000d448       _fread_s                   1000e448 f   LIBCMT:fread.obj
 0001:0000d4d9       __fwrite_nolock            1000e4d9 f   LIBCMT:fwrite.obj
 0001:0000d632       _fwrite                    1000e632 f   LIBCMT:fwrite.obj
 0001:0000d6b4       __get_printf_count_output  1000e6b4 f   LIBCMT:printf.obj
 0001:0000d6c9       __printf_l                 1000e6c9 f   LIBCMT:printf.obj
 0001:0000d6e0       __printf_p                 1000e6e0 f   LIBCMT:printf.obj
 0001:0000d6f6       __printf_p_l               1000e6f6 f   LIBCMT:printf.obj
 0001:0000d70d       __printf_s_l               1000e70d f   LIBCMT:printf.obj
 0001:0000d724       __set_printf_count_output  1000e724 f   LIBCMT:printf.obj
 0001:0000d74c       _printf                    1000e74c f   LIBCMT:printf.obj
 0001:0000d7fb       _printf_s                  1000e7fb f   LIBCMT:printf.obj
 0001:0000d811       __unlink                   1000e811 f   LIBCMT:unlink.obj
 0001:0000d81a       _remove                    1000e81a f   LIBCMT:unlink.obj
 0001:0000d85c       _rewind                    1000e85c f   LIBCMT:rewind.obj
 0001:0000d91b       __scprintf                 1000e91b f   LIBCMT:sprintf.obj
 0001:0000d92e       __scprintf_l               1000e92e f   LIBCMT:sprintf.obj
 0001:0000d945       __scprintf_p               1000e945 f   LIBCMT:sprintf.obj
 0001:0000d958       __scprintf_p_l             1000e958 f   LIBCMT:sprintf.obj
 0001:0000d96f       __snprintf_s               1000e96f f   LIBCMT:sprintf.obj
 0001:0000d98e       __snprintf_s_l             1000e98e f   LIBCMT:sprintf.obj
 0001:0000d9ae       __sprintf_l                1000e9ae f   LIBCMT:sprintf.obj
 0001:0000d9c8       __sprintf_p                1000e9c8 f   LIBCMT:sprintf.obj
 0001:0000d9e4       __sprintf_p_l              1000e9e4 f   LIBCMT:sprintf.obj
 0001:0000da01       __sprintf_s_l              1000ea01 f   LIBCMT:sprintf.obj
 0001:0000da1e       _sprintf                   1000ea1e f   LIBCMT:sprintf.obj
 0001:0000daa2       _sprintf_s                 1000eaa2 f   LIBCMT:sprintf.obj
 0001:0000dabe       _ldexp                     1000eabe f   LIBCMT:ldexp.obj
 0001:0000dcaa       @__security_check_cookie@4 1000ecaa f   LIBCMT:secchk.obj
 0001:0000dcc0       __ftoui3                   1000ecc0 f   LIBCMT:ftol3.obj
 0001:0000dccf       __ftoul3                   1000eccf f   LIBCMT:ftol3.obj
 0001:0000dcde       __ftol3                    1000ecde f   LIBCMT:ftol3.obj
 0001:0000dceb       __ftol3_NaN                1000eceb f   LIBCMT:ftol3.obj
 0001:0000dd03       __ftol3_work               1000ed03 f   LIBCMT:ftol3.obj
 0001:0000dd89       __ftol3_common             1000ed89 f   LIBCMT:ftol3.obj
 0001:0000de4b       __ftol3_arg_error          1000ee4b f   LIBCMT:ftol3.obj
 0001:0000de5d       __ftol3_except             1000ee5d f   LIBCMT:ftol3.obj
 0001:0000de9f       __dtoui3                   1000ee9f f   LIBCMT:ftol3.obj
 0001:0000deae       __dtoul3                   1000eeae f   LIBCMT:ftol3.obj
 0001:0000debd       __dtol3                    1000eebd f   LIBCMT:ftol3.obj
 0001:0000deca       __dtol3_NaN                1000eeca f   LIBCMT:ftol3.obj
 0001:0000dee7       __dtol3_work               1000eee7 f   LIBCMT:ftol3.obj
 0001:0000dfcc       __ultod3                   1000efcc f   LIBCMT:ftol3.obj
 0001:0000e05d       __ltod3                    1000f05d f   LIBCMT:ftol3.obj
 0001:0000e090       _memcpy                    1000f090 f   LIBCMT:memcpy.obj
 0001:0000e6d4       ___isa_available_init      1000f6d4 f   LIBCMT:cpu_disp.obj
 0001:0000e84d       __invoke_watson_if_error   1000f84d f i LIBCMT:wassert.obj
 0001:0000e86d       __wassert                  1000f86d f   LIBCMT:wassert.obj
 0001:0000ef11       __CRT_INIT@12              1000ff11 f   LIBCMT:dllcrt0.obj
 0001:0000f083       __DllMainCRTStartup@12     10010083 f   LIBCMT:dllcrt0.obj
 0001:0000f1b4       ___DllXcptFilter           100101b4 f   LIBCMT:dllcrt0.obj
 0001:0000f1d9       ?_query_new_handler@@YAP6AHI@ZXZ 100101d9 f   LIBCMT:handler.obj
 0001:0000f1e6       ?_set_new_handler@@YAP6AHI@ZH@Z 100101e6 f   LIBCMT:handler.obj
 0001:0000f1ef       ?_set_new_handler@@YAP6AHI@ZP6AHI@Z@Z 100101ef f   LIBCMT:handler.obj
 0001:0000f224       __callnewh                 10010224 f   LIBCMT:handler.obj
 0001:0000f24a       __initp_heap_handler       1001024a f   LIBCMT:handler.obj
 0001:0000f257       __FF_MSGBANNER             10010257 f   LIBCMT:crt0msg.obj
 0001:0000f290       __GET_RTERRMSG             10010290 f   LIBCMT:crt0msg.obj
 0001:0000f2b4       __NMSG_WRITE               100102b4 f   LIBCMT:crt0msg.obj
 0001:0000f471       ___doserrno                10010471 f   LIBCMT:dosmap.obj
 0001:0000f484       __dosmaperr                10010484 f   LIBCMT:dosmap.obj
 0001:0000f4a5       __errno                    100104a5 f   LIBCMT:dosmap.obj
 0001:0000f4b8       __get_doserrno             100104b8 f   LIBCMT:dosmap.obj
 0001:0000f4db       __get_errno                100104db f   LIBCMT:dosmap.obj
 0001:0000f4fe       __get_errno_from_oserr     100104fe f   LIBCMT:dosmap.obj
 0001:0000f53f       __set_doserrno             1001053f f   LIBCMT:dosmap.obj
 0001:0000f55e       __set_errno                1001055e f   LIBCMT:dosmap.obj
 0001:0000f57d       __get_heap_handle          1001057d f   LIBCMT:heapinit.obj
 0001:0000f583       __heap_init                10010583 f   LIBCMT:heapinit.obj
 0001:0000f598       __heap_term                10010598 f   LIBCMT:heapinit.obj
 0001:0000f5a0       __VEC_memset               100105a0 f   LIBCMT:p4_memset.obj
 0001:0000f668       ??0_LocaleUpdate@@QAE@PAUlocaleinfo_struct@@@Z 10010668 f i LIBCMT:cvt.obj
 0001:0000f6f0       ??1_LocaleUpdate@@QAE@XZ   100106f0 f i LIBCMT:cvt.obj
 0001:0000f6fe       ?GetLocaleT@_LocaleUpdate@@QAEPAUlocaleinfo_struct@@XZ 100106fe f i LIBCMT:cvt.obj
 0001:0000f701       ?strrchr@@YAPADPADH@Z      10010701 f i LIBCMT:cvt.obj
 0001:0000f70a       __cfltcvt                  1001070a f   LIBCMT:cvt.obj
 0001:0000f72b       __cfltcvt_l                1001072b f   LIBCMT:cvt.obj
 0001:0000f7b1       __cftoa                    100107b1 f   LIBCMT:cvt.obj
 0001:0000f7cf       __cftoa_l                  100107cf f   LIBCMT:cvt.obj
 0001:0000fb2b       __cftoe                    10010b2b f   LIBCMT:cvt.obj
 0001:0000fc9a       __cftoe_l                  10010c9a f   LIBCMT:cvt.obj
 0001:0000fd68       __cftof                    10010d68 f   LIBCMT:cvt.obj
 0001:0000fe6f       __cftof_l                  10010e6f f   LIBCMT:cvt.obj
 0001:0000ff30       __cftog                    10010f30 f   LIBCMT:cvt.obj
 0001:0000ff4e       __cftog_l                  10010f4e f   LIBCMT:cvt.obj
 0001:0001004d       __cropzeros                1001104d f   LIBCMT:cvt.obj
 0001:0001005e       __cropzeros_l              1001105e f   LIBCMT:cvt.obj
 0001:000100de       __fassign                  100110de f   LIBCMT:cvt.obj
 0001:000100f6       __fassign_l                100110f6 f   LIBCMT:cvt.obj
 0001:00010138       __forcdecpt                10011138 f   LIBCMT:cvt.obj
 0001:00010149       __forcdecpt_l              10011149 f   LIBCMT:cvt.obj
 0001:000101bd       __positive                 100111bd f   LIBCMT:cvt.obj
 0001:000101ff       __setdefaultprecision      100111ff f   LIBCMT:fp8.obj
 0001:00010226       __initp_misc_cfltcvt_tab   10011226 f   LIBCMT:cmiscdat.obj
 0001:00010245       __crt_debugger_hook        10011245 f   LIBCMT:dbghook.obj
 0001:0001027a       ___crtCloseThreadpoolTimer 1001127a f   LIBCMT:winapisupp.obj
 0001:00010291       ___crtCloseThreadpoolWait  10011291 f   LIBCMT:winapisupp.obj
 0001:000102a8       ___crtCreateEventExW       100112a8 f   LIBCMT:winapisupp.obj
 0001:000102e3       ___crtCreateSemaphoreExW   100112e3 f   LIBCMT:winapisupp.obj
 0001:0001031d       ___crtCreateSymbolicLinkW  1001131d f   LIBCMT:winapisupp.obj
 0001:00010346       ___crtCreateThreadpoolTimer 10011346 f   LIBCMT:winapisupp.obj
 0001:00010367       ___crtCreateThreadpoolWait 10011367 f   LIBCMT:winapisupp.obj
 0001:00010388       ___crtFlsAlloc             10011388 f   LIBCMT:winapisupp.obj
 0001:000103a6       ___crtFlsFree              100113a6 f   LIBCMT:winapisupp.obj
 0001:000103c5       ___crtFlsGetValue          100113c5 f   LIBCMT:winapisupp.obj
 0001:000103e4       ___crtFlsSetValue          100113e4 f   LIBCMT:winapisupp.obj
 0001:00010406       ___crtFlushProcessWriteBuffers 10011406 f   LIBCMT:winapisupp.obj
 0001:00010416       ___crtFreeLibraryWhenCallbackReturns 10011416 f   LIBCMT:winapisupp.obj
 0001:00010430       ___crtGetCurrentProcessorNumber 10011430 f   LIBCMT:winapisupp.obj
 0001:00010442       ___crtGetFileInformationByHandleEx 10011442 f   LIBCMT:winapisupp.obj
 0001:0001046e       ___crtGetLogicalProcessorInformation 1001146e f   LIBCMT:winapisupp.obj
 0001:00010494       ___crtGetShowWindowMode    10011494 f   LIBCMT:winapisupp.obj
 0001:000104b7       ___crtGetTickCount64       100114b7 f   LIBCMT:winapisupp.obj
 0001:000104cf       ___crtInitializeCriticalSectionEx 100114cf f   LIBCMT:winapisupp.obj
 0001:000104fd       ___crtIsPackagedApp        100114fd f   LIBCMT:winapisupp.obj
 0001:0001053d       ___crtLoadWinApiPointers   1001153d f   LIBCMT:winapisupp.obj
 0001:000107c8       ___crtSetFileInformationByHandle 100117c8 f   LIBCMT:winapisupp.obj
 0001:000107f4       ___crtSetThreadStackGuarantee 100117f4 f   LIBCMT:winapisupp.obj
 0001:0001080f       ___crtSetThreadpoolTimer   1001180f f   LIBCMT:winapisupp.obj
 0001:0001082f       ___crtSetThreadpoolWait    1001182f f   LIBCMT:winapisupp.obj
 0001:0001084c       ___crtSetUnhandledExceptionFilter 1001184c f   LIBCMT:winapisupp.obj
 0001:0001085a       ___crtSleep                1001185a f   LIBCMT:winapisupp.obj
 0001:00010868       ___crtTerminateProcess     10011868 f   LIBCMT:winapisupp.obj
 0001:0001087d       ___crtUnhandledException   1001187d f   LIBCMT:winapisupp.obj
 0001:00010893       ___crtWaitForThreadpoolTimerCallbacks 10011893 f   LIBCMT:winapisupp.obj
 0001:000108ad       ?_invalid_parameter@@YAXPBG00II@Z 100118ad f   LIBCMT:invarg.obj
 0001:000108b2       ?_invoke_watson@@YAXPBG00II@Z 100118b2 f   LIBCMT:invarg.obj
 0001:000108ca       __call_reportfault         100118ca f   LIBCMT:invarg.obj
 0001:000109ef       __get_invalid_parameter_handler 100119ef f   LIBCMT:invarg.obj
 0001:000109fc       __initp_misc_invarg        100119fc f   LIBCMT:invarg.obj
 0001:00010a09       __invalid_parameter        10011a09 f   LIBCMT:invarg.obj
 0001:00010a34       __invalid_parameter_noinfo 10011a34 f   LIBCMT:invarg.obj
 0001:00010a44       __invalid_parameter_noinfo_noreturn 10011a44 f   LIBCMT:invarg.obj
 0001:00010a5f       __invoke_watson            10011a5f f   LIBCMT:invarg.obj
 0001:00010a8a       __set_invalid_parameter_handler 10011a8a f   LIBCMT:invarg.obj
 0001:00010aaf       __RTC_Initialize           10011aaf f   LIBCMT:initsect.obj
 0001:00010acf       __RTC_Terminate            10011acf f   LIBCMT:initsect.obj
 0001:00010aef       __lock                     10011aef f   LIBCMT:mlock.obj
 0001:00010b23       __lockerr_exit             10011b23 f   LIBCMT:mlock.obj
 0001:00010b43       __mtdeletelocks            10011b43 f   LIBCMT:mlock.obj
 0001:00010b97       __mtinitlocknum            10011b97 f   LIBCMT:mlock.obj
 0001:00010c40       __mtinitlocks              10011c40 f   LIBCMT:mlock.obj
 0001:00010c79       __unlock                   10011c79 f   LIBCMT:mlock.obj
 0001:00010c90       __FindPESection            10011c90 f   LIBCMT:pesect.obj
 0001:00010ce0       __IsNonwritableInCurrentImage 10011ce0 f   LIBCMT:pesect.obj
 0001:00010da0       __ValidateImageBase        10011da0 f   LIBCMT:pesect.obj
 0001:00010dd1       ___onexitinit              10011dd1 f   LIBCMT:onexit.obj
 0001:00010e00       __onexit                   10011e00 f   LIBCMT:onexit.obj
 0001:00010efc       _atexit                    10011efc f   LIBCMT:onexit.obj
 0001:00010f11       __calloc_crt               10011f11 f   LIBCMT:crtheap.obj
 0001:00010f59       __malloc_crt               10011f59 f   LIBCMT:crtheap.obj
 0001:00010fa0       __realloc_crt              10011fa0 f   LIBCMT:crtheap.obj
 0001:00010fea       __recalloc_crt             10011fea f   LIBCMT:crtheap.obj
 0001:00011038       __set_malloc_crt_max_wait  10012038 f   LIBCMT:crtheap.obj
 0001:0001104b       _wait_a_bit                1001204b f i LIBCMT:crtheap.obj
 0001:0001106f       ?_inconsistency@@YAXXZ     1001206f f   LIBCMT:hooks.obj
 0001:000110a7       ?terminate@@YAXXZ          100120a7 f   LIBCMT:hooks.obj
 0001:000110db       ?unexpected@@YAXXZ         100120db f   LIBCMT:hooks.obj
 0001:000110ee       __initp_eh_hooks           100120ee f   LIBCMT:hooks.obj
 0001:000110ff       ___getlocaleinfo           100120ff f   LIBCMT:inithelp.obj
 0001:000112d8       __initp_misc_purevirt      100122d8 f   LIBCMT:inithelp.obj
 0001:000112e5       ___fpecode                 100122e5 f   LIBCMT:winsig.obj
 0001:000112ee       ___get_sigabrt             100122ee f   LIBCMT:winsig.obj
 0001:000112fb       ___pxcptinfoptrs           100122fb f   LIBCMT:winsig.obj
 0001:00011304       __initp_misc_winsig        10012304 f   LIBCMT:winsig.obj
 0001:000113c5       _raise                     100123c5 f   LIBCMT:winsig.obj
 0001:000115ba       _signal                    100125ba f   LIBCMT:winsig.obj
 0001:00011811       __initp_misc_rand_s        10012811 f   LIBCMT:rand_s.obj
 0001:0001181e       _rand_s                    1001281e f   LIBCMT:rand_s.obj
 0001:00011930       __SEH_prolog4              10012930 f   LIBCMT:sehprolg4.obj
 0001:00011975       __SEH_epilog4              10012975 f   LIBCMT:sehprolg4.obj
 0001:000119d0       __except_handler4          100129d0 f   LIBCMT:chandler4.obj
 0001:00011b64       ___initmbctable            10012b64 f   LIBCMT:mbctype.obj
 0001:00011e1b       ___updatetmbcinfo          10012e1b f   LIBCMT:mbctype.obj
 0001:00011ec1       __getmbcp                  10012ec1 f   LIBCMT:mbctype.obj
 0001:00011ef2       __setmbcp                  10012ef2 f   LIBCMT:mbctype.obj
 0001:0001209a       __setmbcp_nolock           1001309a f   LIBCMT:mbctype.obj
 0001:00012285       __ftbuf                    10013285 f   LIBCMT:_sftbuf.obj
 0001:000122b6       __stbuf                    100132b6 f   LIBCMT:_sftbuf.obj
 0001:0001235c       __calloc_impl              1001335c f   LIBCMT:calloc_impl.obj
 0001:000123d6       __fcloseall                100133d6 f   LIBCMT:closeall.obj
 0001:00012473       __fflush_nolock            10013473 f   LIBCMT:fflush.obj
 0001:000124b9       __flush                    100134b9 f   LIBCMT:fflush.obj
 0001:0001251d       __flushall                 1001351d f   LIBCMT:fflush.obj
 0001:00012526       _fflush                    10013526 f   LIBCMT:fflush.obj
 0001:00012663       __fileno                   10013663 f   LIBCMT:fileno.obj
 0001:00012687       __close                    10013687 f   LIBCMT:close.obj
 0001:00012762       __close_nolock             10013762 f   LIBCMT:close.obj
 0001:000127fc       __freebuf                  100137fc f   LIBCMT:_freebuf.obj
 0001:0001282c       __getstream                1001382c f   LIBCMT:stream.obj
 0001:0001294b       __openfile                 1001394b f   LIBCMT:_open.obj
 0001:00012bd0       __local_unwind4            10013bd0 f   LIBCMT:exsup4.obj
 0001:00012ca6       __seh_longjmp_unwind4@4    10013ca6 f   LIBCMT:exsup4.obj
 0001:00012cc2       @_EH4_CallFilterFunc@8     10013cc2 f   LIBCMT:exsup4.obj
 0001:00012cd9       @_EH4_TransferToHandler@8  10013cd9 f   LIBCMT:exsup4.obj
 0001:00012cf2       @_EH4_GlobalUnwind2@8      10013cf2 f   LIBCMT:exsup4.obj
 0001:00012d0b       @_EH4_LocalUnwind@16       10013d0b f   LIBCMT:exsup4.obj
 0001:00012d22       __vfprintf_l               10013d22 f   LIBCMT:vfprintf.obj
 0001:00012d40       __vfprintf_p               10013d40 f   LIBCMT:vfprintf.obj
 0001:00012d5d       __vfprintf_p_l             10013d5d f   LIBCMT:vfprintf.obj
 0001:00012d7b       __vfprintf_s_l             10013d7b f   LIBCMT:vfprintf.obj
 0001:00012d99       _vfprintf                  10013d99 f   LIBCMT:vfprintf.obj
 0001:00012db6       _vfprintf_helper           10013db6 f   LIBCMT:vfprintf.obj
 0001:00012ec7       _vfprintf_s                10013ec7 f   LIBCMT:vfprintf.obj
 0001:00012ee4       __output_l                 10013ee4 f   LIBCMT:output.obj
 0001:00013a64       _get_int64_arg             10014a64 f i LIBCMT:output.obj
 0001:00013a77       _get_int_arg               10014a77 f i LIBCMT:output.obj
 0001:00013a87       _get_short_arg             10014a87 f i LIBCMT:output.obj
 0001:00013b84       __ioinit                   10014b84 f   LIBCMT:ioinit.obj
 0001:00013e38       __ioterm                   10014e38 f   LIBCMT:ioinit.obj
 0001:00013e8a       __filbuf                   10014e8a f   LIBCMT:_filbuf.obj
 0001:00013fab       _memcpy_s                  10014fab f   LIBCMT:memcpy_s.obj
 0001:0001402a       __read                     1001502a f   LIBCMT:read.obj
 0001:0001413e       __read_nolock              1001513e f   LIBCMT:read.obj
 0001:000148cf       __flsbuf                   100158cf f   LIBCMT:_flsbuf.obj
 0001:00014a1e       __write                    10015a1e f   LIBCMT:write.obj
 0001:00014b0d       __write_nolock             10015b0d f   LIBCMT:write.obj
 0001:00015372       __vprintf_l                10016372 f   LIBCMT:vprintf.obj
 0001:0001538d       __vprintf_p                1001638d f   LIBCMT:vprintf.obj
 0001:000153a7       __vprintf_p_l              100163a7 f   LIBCMT:vprintf.obj
 0001:000153c2       __vprintf_s_l              100163c2 f   LIBCMT:vprintf.obj
 0001:000153dd       _vprintf                   100163dd f   LIBCMT:vprintf.obj
 0001:000153f7       _vprintf_helper            100163f7 f   LIBCMT:vprintf.obj
 0001:00015484       _vprintf_s                 10016484 f   LIBCMT:vprintf.obj
 0001:0001549e       __wremove                  1001649e f   LIBCMT:wunlink.obj
 0001:000154cc       __wunlink                  100164cc f   LIBCMT:wunlink.obj
 0001:000154d5       __lseek                    100164d5 f   LIBCMT:lseek.obj
 0001:000155c4       __lseek_nolock             100165c4 f   LIBCMT:lseek.obj
 0001:0001566b       __vscprintf                1001666b f   LIBCMT:vsprintf.obj
 0001:00015685       __vscprintf_helper         10016685 f   LIBCMT:vsprintf.obj
 0001:000156e1       __vscprintf_l              100166e1 f   LIBCMT:vsprintf.obj
 0001:000156fc       __vscprintf_p              100166fc f   LIBCMT:vsprintf.obj
 0001:00015716       __vscprintf_p_l            10016716 f   LIBCMT:vsprintf.obj
 0001:00015731       __vsprintf_l               10016731 f   LIBCMT:vsprintf.obj
 0001:000157b5       _vsprintf                  100167b5 f   LIBCMT:vsprintf.obj
 0001:000157cd       __vsnprintf_c              100167cd f   LIBCMT:vsnprnc.obj
 0001:000157f4       __vsnprintf_c_l            100167f4 f   LIBCMT:vsnprnc.obj
 0001:0001581c       __vsnprintf_helper         1001681c f   LIBCMT:vsnprnc.obj
 0001:000158e6       __vsnprintf_s              100168e6 f   LIBCMT:vsnprnc.obj
 0001:00015904       __vsnprintf_s_l            10016904 f   LIBCMT:vsnprnc.obj
 0001:00015a04       __vsprintf_p               10016a04 f   LIBCMT:vsnprnc.obj
 0001:00015a2b       __vsprintf_p_l             10016a2b f   LIBCMT:vsnprnc.obj
 0001:00015a53       __vsprintf_s_l             10016a53 f   LIBCMT:vsnprnc.obj
 0001:00015ac8       _vsprintf_s                10016ac8 f   LIBCMT:vsnprnc.obj
 0001:00015ae3       __chgsign                  10016ae3 f   LIBCMT:ieeemisc.obj
 0001:00015b10       __chgsignf                 10016b10 f   LIBCMT:ieeemisc.obj
 0001:00015b31       __copysign                 10016b31 f   LIBCMT:ieeemisc.obj
 0001:00015b59       __copysignf                10016b59 f   LIBCMT:ieeemisc.obj
 0001:00015b75       __finite                   10016b75 f   LIBCMT:ieeemisc.obj
 0001:00015b8d       __fpclass                  10016b8d f   LIBCMT:ieeemisc.obj
 0001:00015c29       __isnan                    10016c29 f   LIBCMT:ieeemisc.obj
 0001:00015c5c       __logb                     10016c5c f   LIBCMT:ieeemisc.obj
 0001:00015d3d       __nextafter                10016d3d f   LIBCMT:ieeemisc.obj
 0001:00015fdd       __scalb                    10016fdd f   LIBCMT:ieeemisc.obj
 0001:00015ff5       __add_exp                  10016ff5 f   LIBCMT:util.obj
 0001:00016024       __decomp                   10017024 f   LIBCMT:util.obj
 0001:000160f6       __get_exp                  100170f6 f   LIBCMT:util.obj
 0001:0001610f       __set_bexp                 1001710f f   LIBCMT:util.obj
 0001:00016138       __set_exp                  10017138 f   LIBCMT:util.obj
 0001:00016167       __sptype                   10017167 f   LIBCMT:util.obj
 0001:000161c2       __errcode                  100171c2 f   LIBCMT:fpexcept.obj
 0001:000161f4       __except1                  100171f4 f   LIBCMT:fpexcept.obj
 0001:000162bc       __except2                  100172bc f   LIBCMT:fpexcept.obj
 0001:000163bc       __handle_exc               100173bc f   LIBCMT:fpexcept.obj
 0001:0001659a       __handle_qnan1             1001759a f   LIBCMT:fpexcept.obj
 0001:000165ea       __handle_qnan2             100175ea f   LIBCMT:fpexcept.obj
 0001:0001664a       __raise_exc                1001764a f   LIBCMT:fpexcept.obj
 0001:0001666b       __raise_exc_ex             1001766b f   LIBCMT:fpexcept.obj
 0001:00016950       __raise_excf               10017950 f   LIBCMT:fpexcept.obj
 0001:00016971       __set_errno_from_matherr   10017971 f   LIBCMT:fpexcept.obj
 0001:0001699e       __umatherr                 1001799e f   LIBCMT:fpexcept.obj
 0001:00016a3e       ___clrfp_sse2              10017a3e f   LIBCMT:fpctrl.obj
 0001:00016a5f       ___ctrlfp_sse2             10017a5f f   LIBCMT:fpctrl.obj
 0001:00016a98       ___fclrf_sse2              10017a98 f   LIBCMT:fpctrl.obj
 0001:00016ab5       ___get_fpsr_sse2           10017ab5 f   LIBCMT:fpctrl.obj
 0001:00016ad1       ___set_fpsr_sse2           10017ad1 f   LIBCMT:fpctrl.obj
 0001:00016b47       ___set_statfp_sse2         10017b47 f   LIBCMT:fpctrl.obj
 0001:00016b60       ___statfp_sse2             10017b60 f   LIBCMT:fpctrl.obj
 0001:00016b75       __clrfp                    10017b75 f   LIBCMT:fpctrl.obj
 0001:00016b86       __ctrlfp                   10017b86 f   LIBCMT:fpctrl.obj
 0001:00016bb1       __set_statfp               10017bb1 f   LIBCMT:fpctrl.obj
 0001:00016c09       __statfp                   10017c09 f   LIBCMT:fpctrl.obj
 0001:00016c19       _wcscat_s                  10017c19 f   LIBCMT:wcscat_s.obj
 0001:00016c85       _wcscpy_s                  10017c85 f   LIBCMT:wcscpy_s.obj
 0001:00016ce1       _wcslen                    10017ce1 f   LIBCMT:wcslen.obj
 0001:00016cfa       _wcsncat_s                 10017cfa f   LIBCMT:wcsncat_s.obj
 0001:00016dc8       __set_abort_behavior       10017dc8 f   LIBCMT:abort.obj
 0001:00016de7       _abort                     10017de7 f   LIBCMT:abort.obj
 0001:00016e2a       ___set_app_type            10017e2a f   LIBCMT:errmode.obj
 0001:00016e37       __set_error_mode           10017e37 f   LIBCMT:errmode.obj
 0001:00016f93       __i64tow_s                 10017f93 f   LIBCMT:xtows.obj
 0001:00016fc4       __itow_s                   10017fc4 f   LIBCMT:xtows.obj
 0001:00016fed       __ltow_s                   10017fed f   LIBCMT:xtows.obj
 0001:00017017       __ui64tow_s                10018017 f   LIBCMT:xtows.obj
 0001:00017032       __ultow_s                  10018032 f   LIBCMT:xtows.obj
 0001:0001713d       _setvbuf                   1001813d f   LIBCMT:setvbuf.obj
 0001:00017243       __fwprintf_l               10018243 f   LIBCMT:fwprintf.obj
 0001:0001725d       __fwprintf_p               1001825d f   LIBCMT:fwprintf.obj
 0001:00017276       __fwprintf_p_l             10018276 f   LIBCMT:fwprintf.obj
 0001:00017290       __fwprintf_s_l             10018290 f   LIBCMT:fwprintf.obj
 0001:000172aa       _fwprintf                  100182aa f   LIBCMT:fwprintf.obj
 0001:0001733e       _fwprintf_s                1001833e f   LIBCMT:fwprintf.obj
 0001:00017357       __vsnwprintf_s             10018357 f   LIBCMT:vswprnc.obj
 0001:00017375       __vsnwprintf_s_l           10018375 f   LIBCMT:vswprnc.obj
 0001:00017479       __vswprintf_c              10018479 f   LIBCMT:vswprnc.obj
 0001:000174a0       __vswprintf_c_l            100184a0 f   LIBCMT:vswprnc.obj
 0001:000174c8       __vswprintf_helper         100184c8 f   LIBCMT:vswprnc.obj
 0001:000175c3       __vswprintf_p              100185c3 f   LIBCMT:vswprnc.obj
 0001:000175ea       __vswprintf_p_l            100185ea f   LIBCMT:vswprnc.obj
 0001:00017612       __vswprintf_s_l            10018612 f   LIBCMT:vswprnc.obj
 0001:00017689       _vswprintf_s               10018689 f   LIBCMT:vswprnc.obj
 0001:000176a4       ___crtMessageBoxW          100186a4 f   LIBCMT:crtmboxw.obj
 0001:0001788a       ___crtMessageBoxWaitThreadW@4 1001888a f   LIBCMT:crtmboxw.obj
 0001:000178a8       __XcptFilter               100188a8 f   LIBCMT:winxfltr.obj
 0001:00017a03       ___CppXcptFilter           10018a03 f   LIBCMT:winxfltr.obj
 0001:00017a55       ___get_flsindex            10018a55 f   LIBCMT:tidtable.obj
 0001:00017a5b       ___threadhandle            10018a5b f   LIBCMT:tidtable.obj
 0001:00017a61       ___threadid                10018a61 f   LIBCMT:tidtable.obj
 0001:00017a67       __freefls@4                10018a67 f   LIBCMT:tidtable.obj
 0001:00017b9c       __freeptd                  10018b9c f   LIBCMT:tidtable.obj
 0001:00017bd2       __getptd                   10018bd2 f   LIBCMT:tidtable.obj
 0001:00017bea       __getptd_noexit            10018bea f   LIBCMT:tidtable.obj
 0001:00017c59       __initptd                  10018c59 f   LIBCMT:tidtable.obj
 0001:00017d0c       __mtinit                   10018d0c f   LIBCMT:tidtable.obj
 0001:00017d82       __mtterm                   10018d82 f   LIBCMT:tidtable.obj
 0001:00017d9f       __set_pgmptr               10018d9f f i LIBCMT:stdargv.obj
 0001:00017dac       __setargv                  10018dac f   LIBCMT:stdargv.obj
 0001:00017fdb       __setenvp                  10018fdb f   LIBCMT:stdenvp.obj
 0001:000180bc       ___security_init_cookie    100190bc f   LIBCMT:gs_support.obj
 0001:00018158       ___crtGetEnvironmentStringsA 10019158 f   LIBCMT:a_env.obj
 0001:000181f0       _strlen                    100191f0 f   LIBCMT:strlen.obj
 0001:0001827b       _wcsncpy_s                 1001927b f   LIBCMT:wcsncpy_s.obj
 0001:00018339       ___addlocaleref            10019339 f   LIBCMT:localref.obj
 0001:000183ce       ___freetlocinfo            100193ce f   LIBCMT:localref.obj
 0001:00018528       ___removelocaleref         10019528 f   LIBCMT:localref.obj
 0001:000185c8       ___updatetlocinfo          100195c8 f   LIBCMT:localref.obj
 0001:00018648       __updatetlocinfoEx_nolock  10019648 f   LIBCMT:localref.obj
 0001:00018693       ___isascii                 10019693 f i LIBCMT:_ctype.obj
 0001:000186a3       ___iscsym                  100196a3 f i LIBCMT:_ctype.obj
 0001:000186c3       ___iscsymf                 100196c3 f i LIBCMT:_ctype.obj
 0001:000186e0       ___toascii                 100196e0 f i LIBCMT:_ctype.obj
 0001:000186eb       __isalnum_l                100196eb f i LIBCMT:_ctype.obj
 0001:00018743       __isalpha_l                10019743 f i LIBCMT:_ctype.obj
 0001:0001879b       __isblank_l                1001979b f i LIBCMT:_ctype.obj
 0001:000187f5       __iscntrl_l                100197f5 f i LIBCMT:_ctype.obj
 0001:00018847       __iscsym_l                 10019847 f i LIBCMT:_ctype.obj
 0001:00018868       __iscsymf_l                10019868 f i LIBCMT:_ctype.obj
 0001:00018889       __isdigit_l                10019889 f i LIBCMT:_ctype.obj
 0001:000188db       __isgraph_l                100198db f i LIBCMT:_ctype.obj
 0001:00018933       __islower_l                10019933 f i LIBCMT:_ctype.obj
 0001:00018985       __isprint_l                10019985 f i LIBCMT:_ctype.obj
 0001:000189dd       __ispunct_l                100199dd f i LIBCMT:_ctype.obj
 0001:00018a2f       __isspace_l                10019a2f f i LIBCMT:_ctype.obj
 0001:00018a81       __isupper_l                10019a81 f i LIBCMT:_ctype.obj
 0001:00018ad3       __isxdigit_l               10019ad3 f i LIBCMT:_ctype.obj
 0001:00018b2b       _isalnum                   10019b2b f i LIBCMT:_ctype.obj
 0001:00018b58       _isalpha                   10019b58 f i LIBCMT:_ctype.obj
 0001:00018b85       _isblank                   10019b85 f i LIBCMT:_ctype.obj
 0001:00018bba       _iscntrl                   10019bba f i LIBCMT:_ctype.obj
 0001:00018be5       _isdigit                   10019be5 f i LIBCMT:_ctype.obj
 0001:00018c10       _isgraph                   10019c10 f i LIBCMT:_ctype.obj
 0001:00018c3d       _islower                   10019c3d f i LIBCMT:_ctype.obj
 0001:00018c68       _isprint                   10019c68 f i LIBCMT:_ctype.obj
 0001:00018c95       _ispunct                   10019c95 f i LIBCMT:_ctype.obj
 0001:00018cc0       _isspace                   10019cc0 f i LIBCMT:_ctype.obj
 0001:00018ceb       _isupper                   10019ceb f i LIBCMT:_ctype.obj
 0001:00018d16       _isxdigit                  10019d16 f i LIBCMT:_ctype.obj
 0001:00018d43       __tolower                  10019d43 f   LIBCMT:tolower.obj
 0001:00018d4e       __tolower_l                10019d4e f   LIBCMT:tolower.obj
 0001:00018e91       _tolower                   10019e91 f   LIBCMT:tolower.obj
 0001:00018ebd       _strcpy_s                  10019ebd f   LIBCMT:strcpy_s.obj
 0001:00018f20       _strrchr                   10019f20 f   LIBCMT:strrchr.obj
 0001:00019057       __fptostr                  1001a057 f   LIBCMT:_fptostr.obj
 0001:00019107       ___crt_atoflt_l            1001a107 f   LIBCMT:atodbl.obj
 0001:000191ab       __atodbl                   1001a1ab f   LIBCMT:atodbl.obj
 0001:000191c0       __atodbl_l                 1001a1c0 f   LIBCMT:atodbl.obj
 0001:0001924e       __atoflt                   1001a24e f   LIBCMT:atodbl.obj
 0001:00019263       __atoflt_l                 1001a263 f   LIBCMT:atodbl.obj
 0001:0001927b       __atoldbl                  1001a27b f   LIBCMT:atodbl.obj
 0001:00019290       __atoldbl_l                1001a290 f   LIBCMT:atodbl.obj
 0001:0001931f       ___dtold                   1001a31f f   LIBCMT:cfout.obj
 0001:000193e7       __fltout2                  1001a3e7 f   LIBCMT:cfout.obj
 0001:00019480       __alldvrm                  1001a480 f   LIBCMT:lldvrm.obj
 0001:00019560       __aullshr                  1001a560 f   LIBCMT:ullshr.obj
 0001:0001957f       __get_output_format        1001a57f f   LIBCMT:outputformat.obj
 0001:00019585       __set_output_format        1001a585 f   LIBCMT:outputformat.obj
 0001:000195b7       __controlfp_s              1001a5b7 f   LIBCMT:contrlfp.obj
 0001:00019614       __fptrap                   1001a614 f   LIBCMT:crt0fp.obj
 0001:0001961d       __msize                    1001a61d f   LIBCMT:msize.obj
 0001:0001964e       __recalloc                 1001a64e f   LIBCMT:recalloc.obj
 0001:000196b7       _strncpy_s                 1001a6b7 f   LIBCMT:strncpy_s.obj
 0001:0001983f       __MallocaIsSizeInRange     1001a83f f i LIBCMT:a_loc.obj
 0001:00019850       __MarkAllocaS              1001a850 f i LIBCMT:a_loc.obj
 0001:00019864       ___crtGetLocaleInfoA       1001a864 f   LIBCMT:a_loc.obj
 0001:0001989e       __freea                    1001a89e f i LIBCMT:a_loc.obj
 0001:000198bc       _GetTableIndexFromLcid     1001a8bc f   LIBCMT:winapinls.obj
 0001:000198f1       _GetTableIndexFromLocaleName 1001a8f1 f   LIBCMT:winapinls.obj
 0001:0001993f       ___crtCompareStringEx      1001a93f f   LIBCMT:winapinls.obj
 0001:0001998b       ___crtDownlevelLCIDToLocaleName 1001a98b f   LIBCMT:winapinls.obj
 0001:00019a07       ___crtDownlevelLocaleNameToLCID 1001aa07 f   LIBCMT:winapinls.obj
 0001:00019a45       ___crtEnumSystemLocalesEx  1001aa45 f   LIBCMT:winapinls.obj
 0001:00019a82       ___crtGetDateFormatEx      1001aa82 f   LIBCMT:winapinls.obj
 0001:00019acb       ___crtGetLocaleInfoEx      1001aacb f   LIBCMT:winapinls.obj
 0001:00019afa       ___crtGetTimeFormatEx      1001aafa f   LIBCMT:winapinls.obj
 0001:00019b2f       ___crtGetUserDefaultLocaleName 1001ab2f f   LIBCMT:winapinls.obj
 0001:00019b5a       ___crtIsValidLocaleName    1001ab5a f   LIBCMT:winapinls.obj
 0001:00019b85       ___crtLCMapStringEx        1001ab85 f   LIBCMT:winapinls.obj
 0001:00019bd1       ___wcsnicmp_ascii          1001abd1 f   LIBCMT:winapinls.obj
 0001:00019e63       ___crtLCMapStringA         1001ae63 f   LIBCMT:a_map.obj
 0001:00019fa1       ___crtGetStringTypeA       1001afa1 f   LIBCMT:a_str.obj
 0001:00019fe1       __isatty                   1001afe1 f   LIBCMT:isatty.obj
 0001:0001a035       __commit                   1001b035 f   LIBCMT:commit.obj
 0001:0001a11e       ___lock_fhandle            1001b11e f   LIBCMT:osfinfo.obj
 0001:0001a1ac       __alloc_osfhnd             1001b1ac f   LIBCMT:osfinfo.obj
 0001:0001a355       __free_osfhnd              1001b355 f   LIBCMT:osfinfo.obj
 0001:0001a3db       __get_osfhandle            1001b3db f   LIBCMT:osfinfo.obj
 0001:0001a442       __open_osfhandle           1001b442 f   LIBCMT:osfinfo.obj
 0001:0001a558       __set_osfhnd               1001b558 f   LIBCMT:osfinfo.obj
 0001:0001a5da       __unlock_fhandle           1001b5da f   LIBCMT:osfinfo.obj
 0001:0001a600       __open                     1001b600 f   LIBCMT:open.obj
 0001:0001a6b0       __sopen                    1001b6b0 f   LIBCMT:open.obj
 0001:0001a6e3       __sopen_helper             1001b6e3 f   LIBCMT:open.obj
 0001:0001a7ac       __sopen_nolock             1001b7ac f   LIBCMT:open.obj
 0001:0001a7fa       __sopen_s                  1001b7fa f   LIBCMT:open.obj
 0001:0001a818       __mbsnbcmp                 1001b818 f   LIBCMT:mbsnbcmp.obj
 0001:0001a830       __mbsnbcmp_l               1001b830 f   LIBCMT:mbsnbcmp.obj
 0001:0001a947       __mbsnbicmp                1001b947 f   LIBCMT:mbsnbicm.obj
 0001:0001a95f       __mbsnbicmp_l              1001b95f f   LIBCMT:mbsnbicm.obj
 0001:0001ab20       __global_unwind2           1001bb20 f   LIBCMT:exsup.obj
 0001:0001ab85       __local_unwind2            1001bb85 f   LIBCMT:exsup.obj
 0001:0001ac09       __abnormal_termination     1001bc09 f   LIBCMT:exsup.obj
 0001:0001ac2c       __NLG_Notify1              1001bc2c f   LIBCMT:exsup.obj
 0001:0001ac35       __NLG_Notify               1001bc35 f   LIBCMT:exsup.obj
 0001:0001ac4c       __NLG_Dispatch             1001bc4c     LIBCMT:exsup.obj
 0001:0001ac4c       __NLG_Dispatch2            1001bc4c     LIBCMT:exsup.obj
 0001:0001ac54       __NLG_Call                 1001bc54 f   LIBCMT:exsup.obj
 0001:0001ac56       __NLG_Return2              1001bc56     LIBCMT:exsup.obj
 0001:0001ac57       __output_s_l               1001bc57 f   LIBCMT:outputs.obj
 0001:0001b8df       __output_p_l               1001c8df f   LIBCMT:outputp.obj
 0001:0001cc17       __validate_param_reuseA    1001dc17 f   LIBCMT:outputp.obj
 0001:0001cd4d       _get_crtdouble_arg         1001dd4d f i LIBCMT:outputp.obj
 0001:0001ce4c       ___iswcsym                 1001de4c f i LIBCMT:_wctype.obj
 0001:0001ce70       ___iswcsymf                1001de70 f i LIBCMT:_wctype.obj
 0001:0001ce94       __isleadbyte_l             1001de94 f i LIBCMT:_wctype.obj
 0001:0001cece       __iswalnum_l               1001dece f i LIBCMT:_wctype.obj
 0001:0001cee2       __iswalpha_l               1001dee2 f i LIBCMT:_wctype.obj
 0001:0001cef6       __iswblank_l               1001def6 f i LIBCMT:_wctype.obj
 0001:0001cf11       __iswcntrl_l               1001df11 f i LIBCMT:_wctype.obj
 0001:0001cf22       __iswcsym_l                1001df22 f i LIBCMT:_wctype.obj
 0001:0001cf46       __iswcsymf_l               1001df46 f i LIBCMT:_wctype.obj
 0001:0001cf6a       __iswdigit_l               1001df6a f i LIBCMT:_wctype.obj
 0001:0001cf7b       __iswgraph_l               1001df7b f i LIBCMT:_wctype.obj
 0001:0001cf8f       __iswlower_l               1001df8f f i LIBCMT:_wctype.obj
 0001:0001cfa0       __iswprint_l               1001dfa0 f i LIBCMT:_wctype.obj
 0001:0001cfb4       __iswpunct_l               1001dfb4 f i LIBCMT:_wctype.obj
 0001:0001cfc5       __iswspace_l               1001dfc5 f i LIBCMT:_wctype.obj
 0001:0001cfd6       __iswupper_l               1001dfd6 f i LIBCMT:_wctype.obj
 0001:0001cfe7       __iswxdigit_l              1001dfe7 f i LIBCMT:_wctype.obj
 0001:0001cffb       _isleadbyte                1001dffb f i LIBCMT:_wctype.obj
 0001:0001d00c       _iswalnum                  1001e00c f i LIBCMT:_wctype.obj
 0001:0001d020       _iswalpha                  1001e020 f i LIBCMT:_wctype.obj
 0001:0001d034       _iswascii                  1001e034 f i LIBCMT:_wctype.obj
 0001:0001d046       _iswblank                  1001e046 f i LIBCMT:_wctype.obj
 0001:0001d061       _iswcntrl                  1001e061 f i LIBCMT:_wctype.obj
 0001:0001d072       _iswdigit                  1001e072 f i LIBCMT:_wctype.obj
 0001:0001d083       _iswgraph                  1001e083 f i LIBCMT:_wctype.obj
 0001:0001d097       _iswlower                  1001e097 f i LIBCMT:_wctype.obj
 0001:0001d0a8       _iswprint                  1001e0a8 f i LIBCMT:_wctype.obj
 0001:0001d0bc       _iswpunct                  1001e0bc f i LIBCMT:_wctype.obj
 0001:0001d0cd       _iswspace                  1001e0cd f i LIBCMT:_wctype.obj
 0001:0001d0de       _iswupper                  1001e0de f i LIBCMT:_wctype.obj
 0001:0001d0ef       _iswxdigit                 1001e0ef f i LIBCMT:_wctype.obj
 0001:0001d103       __wctomb_l                 1001e103 f   LIBCMT:wctomb.obj
 0001:0001d152       __wctomb_s_l               1001e152 f   LIBCMT:wctomb.obj
 0001:0001d276       _wctomb                    1001e276 f   LIBCMT:wctomb.obj
 0001:0001d2a9       _wctomb_s                  1001e2a9 f   LIBCMT:wctomb.obj
 0001:0001d2d0       __aulldvrm                 1001e2d0 f   LIBCMT:ulldvrm.obj
 0001:0001d365       __getbuf                   1001e365 f   LIBCMT:_getbuf.obj
 0001:0001d3ab       __lseeki64                 1001e3ab f   LIBCMT:lseeki64.obj
 0001:0001d4a7       __lseeki64_nolock          1001e4a7 f   LIBCMT:lseeki64.obj
 0001:0001d51a       __mbtowc_l                 1001e51a f   LIBCMT:mbtowc.obj
 0001:0001d60f       _mbtowc                    1001e60f f   LIBCMT:mbtowc.obj
 0001:0001d627       __putwch                   1001e627 f   LIBCMT:putwch.obj
 0001:0001d673       __putwch_nolock            1001e673 f   LIBCMT:putwch.obj
 0001:0001d6c0       __chkstk                   1001e6c0 f   LIBCMT:chkstk.obj
 0001:0001d6c0       __alloca_probe             1001e6c0 f   LIBCMT:chkstk.obj
 0001:0001d6eb       __matherr                  1001e6eb f   LIBCMT:matherr.obj
 0001:0001d6ee       __vfwprintf_l              1001e6ee f   LIBCMT:vfwprint.obj
 0001:0001d70c       __vfwprintf_p              1001e70c f   LIBCMT:vfwprint.obj
 0001:0001d729       __vfwprintf_p_l            1001e729 f   LIBCMT:vfwprint.obj
 0001:0001d747       __vfwprintf_s_l            1001e747 f   LIBCMT:vfwprint.obj
 0001:0001d765       _vfwprintf                 1001e765 f   LIBCMT:vfwprint.obj
 0001:0001d782       _vfwprintf_helper          1001e782 f   LIBCMT:vfwprint.obj
 0001:0001d815       _vfwprintf_s               1001e815 f   LIBCMT:vfwprint.obj
 0001:0001d832       __woutput_l                1001e832 f   LIBCMT:woutput.obj
 0001:0001e511       __woutput_s_l              1001f511 f   LIBCMT:woutputs.obj
 0001:0001f228       __validate_param_reuseW    10020228 f   LIBCMT:woutputp.obj
 0001:0001f3a0       __woutput_p_l              100203a0 f   LIBCMT:woutputp.obj
 0001:000207c9       __ismbbalnum               100217c9 f   LIBCMT:ismbbyte.obj
 0001:000207e2       __ismbbalnum_l             100217e2 f   LIBCMT:ismbbyte.obj
 0001:000207fc       __ismbbalpha               100217fc f   LIBCMT:ismbbyte.obj
 0001:00020815       __ismbbalpha_l             10021815 f   LIBCMT:ismbbyte.obj
 0001:0002082f       __ismbbblank               1002182f f   LIBCMT:ismbbyte.obj
 0001:00020850       __ismbbblank_l             10021850 f   LIBCMT:ismbbyte.obj
 0001:00020872       __ismbbgraph               10021872 f   LIBCMT:ismbbyte.obj
 0001:0002088b       __ismbbgraph_l             1002188b f   LIBCMT:ismbbyte.obj
 0001:000208a5       __ismbbkalnum              100218a5 f   LIBCMT:ismbbyte.obj
 0001:000208bb       __ismbbkalnum_l            100218bb f   LIBCMT:ismbbyte.obj
 0001:000208d2       __ismbbkana                100218d2 f   LIBCMT:ismbbyte.obj
 0001:000208e3       __ismbbkana_l              100218e3 f   LIBCMT:ismbbyte.obj
 0001:0002092f       __ismbbkprint              1002192f f   LIBCMT:ismbbyte.obj
 0001:00020945       __ismbbkprint_l            10021945 f   LIBCMT:ismbbyte.obj
 0001:0002095c       __ismbbkpunct              1002195c f   LIBCMT:ismbbyte.obj
 0001:00020972       __ismbbkpunct_l            10021972 f   LIBCMT:ismbbyte.obj
 0001:00020989       __ismbblead                10021989 f   LIBCMT:ismbbyte.obj
 0001:0002099f       __ismbblead_l              1002199f f   LIBCMT:ismbbyte.obj
 0001:000209b6       __ismbbprint               100219b6 f   LIBCMT:ismbbyte.obj
 0001:000209cf       __ismbbprint_l             100219cf f   LIBCMT:ismbbyte.obj
 0001:000209e9       __ismbbpunct               100219e9 f   LIBCMT:ismbbyte.obj
 0001:000209ff       __ismbbpunct_l             100219ff f   LIBCMT:ismbbyte.obj
 0001:00020a16       __ismbbtrail               10021a16 f   LIBCMT:ismbbyte.obj
 0001:00020a2c       __ismbbtrail_l             10021a2c f   LIBCMT:ismbbyte.obj
 0001:00020a43       ___free_lconv_mon          10021a43 f   LIBCMT:initmon.obj
 0001:00020b3f       ___init_monetary           10021b3f f   LIBCMT:initmon.obj
 0001:00020f18       ___free_lconv_num          10021f18 f   LIBCMT:initnum.obj
 0001:00020f7f       ___init_numeric            10021f7f f   LIBCMT:initnum.obj
 0001:000211bd       ___free_lc_time            100221bd f   LIBCMT:inittime.obj
 0001:0002153d       ___init_time               1002253d f   LIBCMT:inittime.obj
 0001:00021dac       _localeconv                10022dac f   LIBCMT:lconv.obj
 0001:00021dd2       __isctype                  10022dd2 f   LIBCMT:isctype.obj
 0001:00021e01       __isctype_l                10022e01 f   LIBCMT:isctype.obj
 0001:00021eb2       ___init_dummy              10022eb2 f   LIBCMT:wsetloca.obj
 0001:00021eb5       __locterm                  10022eb5 f   LIBCMT:wsetloca.obj
 0001:00021f07       ____setlc_active_func      10022f07 f   LIBCMT:wsetloca.obj
 0001:00021f0d       ____unguarded_readlc_active_add_func 10022f0d f   LIBCMT:wsetloca.obj
 0001:00021f13       ___copy_locale_name        10022f13 f   LIBCMT:wsetloca.obj
 0001:00021f77       ___create_locale           10022f77 f   LIBCMT:wsetloca.obj
 0001:00021f80       ___free_locale             10022f80 f   LIBCMT:wsetloca.obj
 0001:00021f85       ___get_current_locale      10022f85 f   LIBCMT:wsetloca.obj
 0001:00021f8a       ___lc_lctowcs              10022f8a f   LIBCMT:wsetloca.obj
 0001:00021ff8       ___lc_wcstolc              10022ff8 f   LIBCMT:wsetloca.obj
 0001:00022124       __configthreadlocale       10023124 f   LIBCMT:wsetloca.obj
 0001:000221aa       __create_locale            100231aa f   LIBCMT:wsetloca.obj
 0001:0002220c       __expandlocale             1002320c f   LIBCMT:wsetloca.obj
 0001:00022503       __free_locale              10023503 f   LIBCMT:wsetloca.obj
 0001:000225ba       __get_current_locale       100235ba f   LIBCMT:wsetloca.obj
 0001:00022669       __wcreate_locale           10023669 f   LIBCMT:wsetloca.obj
 0001:00022740       __wcscats                  10023740 f   LIBCMT:wsetloca.obj
 0001:0002277f       __wsetlocale               1002377f f   LIBCMT:wsetloca.obj
 0001:000230c1       __CopyMan                  100240c1 f i LIBCMT:intrncvt.obj
 0001:000230de       __FillZeroMan              100240de f i LIBCMT:intrncvt.obj
 0001:000230ed       __IncMan                   100240ed f i LIBCMT:intrncvt.obj
 0001:0002314f       __IsZeroMan                1002414f f i LIBCMT:intrncvt.obj
 0001:0002316c       __RoundMan                 1002416c f i LIBCMT:intrncvt.obj
 0001:0002326d       __ShrMan                   1002426d f i LIBCMT:intrncvt.obj
 0001:000232fb       __ZeroTail                 100242fb f i LIBCMT:intrncvt.obj
 0001:00023343       ___addl                    10024343 f i LIBCMT:intrncvt.obj
 0001:00023367       __ld12cvt                  10024367 f i LIBCMT:intrncvt.obj
 0001:000238d2       __ld12tod                  100248d2 f   LIBCMT:intrncvt.obj
 0001:00023e44       __ld12tof                  10024e44 f   LIBCMT:intrncvt.obj
 0001:000243b6       __ld12told                 100253b6 f   LIBCMT:intrncvt.obj
 0001:00024485       ___STRINGTOLD_L            10025485 f   LIBCMT:strgtold.obj
 0001:000244e0       ___ld12mul                 100254e0 f i LIBCMT:strgtold.obj
 0001:000247ac       ___multtenpow12            100257ac f i LIBCMT:strgtold.obj
 0001:00024aff       ___shl_12                  10025aff f i LIBCMT:strgtold.obj
 0001:00024b30       ___shr_12                  10025b30 f i LIBCMT:strgtold.obj
 0001:00024b60       ___strgtold12_l            10025b60 f   LIBCMT:strgtold.obj
 0001:00025308       _$I10_OUTPUT               10026308 f   LIBCMT:x10fout.obj
 0001:00025cdc       ___add_12                  10026cdc f i LIBCMT:x10fout.obj
 0001:00025d4e       ___pctype_func             10026d4e f   LIBCMT:ctype.obj
 0001:00025d77       ___pwctype_func            10026d77 f   LIBCMT:ctype.obj
 0001:00025eb7       ___control87_2             10026eb7 f   LIBCMT:ieee87.obj
 0001:0002652b       __clearfp                  1002752b f   LIBCMT:ieee87.obj
 0001:0002660b       __control87                1002760b f i LIBCMT:ieee87.obj
 0001:0002690d       __controlfp                1002790d f   LIBCMT:ieee87.obj
 0001:00026c18       __fpreset                  10027c18 f   LIBCMT:ieee87.obj
 0001:00026ce5       __set_controlfp            10027ce5 f   LIBCMT:ieee87.obj
 0001:00026d58       __statusfp                 10027d58 f   LIBCMT:ieee87.obj
 0001:00026df2       __statusfp2                10027df2 f   LIBCMT:ieee87.obj
 0001:00026e60       __alloca_probe_16          10027e60 f   LIBCMT:alloca16.obj
 0001:00026e76       __alloca_probe_8           10027e76     LIBCMT:alloca16.obj
 0001:00026e8c       _wcsnlen                   10027e8c f   LIBCMT:wcslen_s.obj
 0001:00026f33       __wopen                    10027f33 f   LIBCMT:wopen.obj
 0001:00026fe3       __wsopen                   10027fe3 f   LIBCMT:wopen.obj
 0001:00027016       __wsopen_helper            10028016 f   LIBCMT:wopen.obj
 0001:000270df       __wsopen_nolock            100280df f   LIBCMT:wopen.obj
 0001:00027832       __wsopen_s                 10028832 f   LIBCMT:wopen.obj
 0001:00027850       _strncmp                   10028850 f   LIBCMT:strncmp.obj
 0001:000278c8       __strnicmp                 100288c8 f   LIBCMT:strnicmp.obj
 0001:00027933       __strnicmp_l               10028933 f   LIBCMT:strnicmp.obj
 0001:00027c0a       __strtol_l                 10028c0a f   LIBCMT:strtol.obj
 0001:00027c25       __strtoul_l                10028c25 f   LIBCMT:strtol.obj
 0001:00027c40       _strtol                    10028c40 f   LIBCMT:strtol.obj
 0001:00027c6a       _strtoul                   10028c6a f   LIBCMT:strtol.obj
 0001:00027c94       __iswctype_l               10028c94 f   LIBCMT:iswctype.obj
 0001:00027ca6       _is_wctype                 10028ca6 f   LIBCMT:iswctype.obj
 0001:00027caf       _iswctype                  10028caf f   LIBCMT:iswctype.obj
 0001:00027d05       ____lc_codepage_func       10028d05 f   LIBCMT:initctyp.obj
 0001:00027d2b       ____lc_collate_cp_func     10028d2b f   LIBCMT:initctyp.obj
 0001:00027d51       ____lc_locale_name_func    10028d51 f   LIBCMT:initctyp.obj
 0001:00027d79       ____mb_cur_max_func        10028d79 f   LIBCMT:initctyp.obj
 0001:00027d9f       ____mb_cur_max_l_func      10028d9f f   LIBCMT:initctyp.obj
 0001:00027db6       ___init_ctype              10028db6 f   LIBCMT:initctyp.obj
 0001:0002814e       ___termconout              1002914e f   LIBCMT:initcon.obj
 0001:00028165       ___initconout              10029165 f   LIBCMT:initcon.obj
 0001:00028184       __fputwc_nolock            10029184 f   LIBCMT:fputwc.obj
 0001:0002830a       _fputwc                    1002930a f   LIBCMT:fputwc.obj
 0001:00028381       _putwc                     10029381 f   LIBCMT:fputwc.obj
 0001:0002856b       __wcstol_l                 1002956b f   LIBCMT:wcstol.obj
 0001:00028583       __wcstoul_l                10029583 f   LIBCMT:wcstol.obj
 0001:0002859b       _wcstol                    1002959b f   LIBCMT:wcstol.obj
 0001:000285b3       _wcstoul                   100295b3 f   LIBCMT:wcstol.obj
 0001:000285cb       ___init_collate            100295cb f   LIBCMT:initcoll.obj
 0001:000286eb       _memcmp                    100296eb f   LIBCMT:memcmp.obj
 0001:0002b5ff       _wcscmp                    1002c5ff f   LIBCMT:wcscmp.obj
 0001:0002b63d       _wcscspn                   1002c63d f   LIBCMT:wcscspn.obj
 0001:0002b688       _wcsncmp                   1002c688 f   LIBCMT:wcsncmp.obj
 0001:0002b6be       _wcspbrk                   1002c6be f   LIBCMT:wcspbrk.obj
 0001:0002bcc2       ___get_qualified_locale    1002ccc2 f   LIBCMT:getqloc.obj
 0001:0002c532       ___get_qualified_locale_downlevel 1002d532 f   LIBCMT:getqloc_downlevel.obj
 0001:0002c74e       ___mtold12                 1002d74e f   LIBCMT:mantold.obj
 0001:0002c92e       __chsize                   1002d92e f   LIBCMT:chsize.obj
 0001:0002c948       __chsize_nolock            1002d948 f   LIBCMT:chsize.obj
 0001:0002cafe       __chsize_s                 1002dafe f   LIBCMT:chsize.obj
 0001:0002cbec       __get_fmode                1002dbec f   LIBCMT:setmode.obj
 0001:0002cc16       __set_fmode                1002dc16 f   LIBCMT:setmode.obj
 0001:0002cc51       __setmode                  1002dc51 f   LIBCMT:setmode.obj
 0001:0002cd56       __setmode_nolock           1002dd56 f   LIBCMT:setmode.obj
 0001:0002ce30       ___ascii_strnicmp          1002de30 f   LIBCMT:_strnicm.obj
 0001:0002ce91       __flswbuf                  1002de91 f   LIBCMT:_flswbuf.obj
 0001:0002cff3       __wchartodigit             1002dff3 f   LIBCMT:wchtodig.obj
 0001:0002d192       __wtoi                     1002e192 f   LIBCMT:wtox.obj
 0001:0002d19b       __wtoi64                   1002e19b f   LIBCMT:wtox.obj
 0001:0002d1af       __wtoi64_l                 1002e1af f   LIBCMT:wtox.obj
 0001:0002d1c6       __wtoi_l                   1002e1c6 f   LIBCMT:wtox.obj
 0001:0002d1cf       __wtol                     1002e1cf f   LIBCMT:wtox.obj
 0001:0002d1e3       __wtol_l                   1002e1e3 f   LIBCMT:wtox.obj
 0001:0002d1fa       __wtoll                    1002e1fa f   LIBCMT:wtox.obj
 0001:0002d20e       __wtoll_l                  1002e20e f   LIBCMT:wtox.obj
 0001:0002d225       _wcschr                    1002e225 f   LIBCMT:wcschr.obj
 0001:0002d2d3       __wcsicmp                  1002e2d3 f   LIBCMT:wcsicmp.obj
 0001:0002d366       __wcsicmp_l                1002e366 f   LIBCMT:wcsicmp.obj
 0001:0002d441       __wcsnicmp                 1002e441 f   LIBCMT:wcsnicmp.obj
 0001:0002d4f7       __wcsnicmp_l               1002e4f7 f   LIBCMT:wcsnicmp.obj
 0001:0002d8c0       __wcstof_l                 1002e8c0 f   LIBCMT:wcstoq.obj
 0001:0002d973       __wcstoi64                 1002e973 f   LIBCMT:wcstoq.obj
 0001:0002d99d       __wcstoi64_l               1002e99d f   LIBCMT:wcstoq.obj
 0001:0002d9b8       __wcstoimax_l              1002e9b8 f   LIBCMT:wcstoq.obj
 0001:0002d9c1       __wcstold_l                1002e9c1 f   LIBCMT:wcstoq.obj
 0001:0002d9ca       __wcstoll_l                1002e9ca f   LIBCMT:wcstoq.obj
 0001:0002d9d3       __wcstoui64                1002e9d3 f   LIBCMT:wcstoq.obj
 0001:0002d9fd       __wcstoui64_l              1002e9fd f   LIBCMT:wcstoq.obj
 0001:0002da18       __wcstoull_l               1002ea18 f   LIBCMT:wcstoq.obj
 0001:0002da21       __wcstoumax_l              1002ea21 f   LIBCMT:wcstoq.obj
 0001:0002da2a       _wcstof                    1002ea2a f   LIBCMT:wcstoq.obj
 0001:0002da3f       _wcstoimax                 1002ea3f f   LIBCMT:wcstoq.obj
 0001:0002da48       _wcstold                   1002ea48 f   LIBCMT:wcstoq.obj
 0001:0002da51       _wcstoll                   1002ea51 f   LIBCMT:wcstoq.obj
 0001:0002da5a       _wcstoull                  1002ea5a f   LIBCMT:wcstoq.obj
 0001:0002da63       _wcstoumax                 1002ea63 f   LIBCMT:wcstoq.obj
 0001:0002da6c       __towlower_l               1002ea6c f   LIBCMT:towlower.obj
 0001:0002db1d       _towlower                  1002eb1d f   LIBCMT:towlower.obj
 0001:0002db2e       __wcstod_l                 1002eb2e f   LIBCMT:wcstod.obj
 0001:0002dc29       _wcstod                    1002ec29 f   LIBCMT:wcstod.obj
 0001:0002dc40       __allmul                   1002ec40 f   LIBCMT:llmul.obj
 0001:0002dc74       ___crtLCMapStringW         1002ec74 f   LIBCMT:w_map.obj
 0001:0002dca3       __wfltin2                  1002eca3 f   LIBCMT:wcfin.obj
 0001:0002dd50       ___WSTRINGTOLD_L           1002ed50 f   LIBCMT:wstrgtold.obj
 0001:0002ddab       ___wstrgtold12_l           1002edab f   LIBCMT:wstrgtold.obj
 0001:0002e5fc       _GetModuleHandleA@4        1002f5fc f   kernel32:KERNEL32.dll
 0001:0002e602       _GetProcAddress@8          1002f602 f   kernel32:KERNEL32.dll
 0001:0002e608       _HeapAlloc@12              1002f608 f   kernel32:KERNEL32.dll
 0001:0002e60e       _IsDebuggerPresent@0       1002f60e f   kernel32:KERNEL32.dll
 0001:0002e614       _IsProcessorFeaturePresent@4 1002f614 f   kernel32:KERNEL32.dll
 0001:0002e61a       _EncodePointer@4           1002f61a f   kernel32:KERNEL32.dll
 0001:0002e620       _DecodePointer@4           1002f620 f   kernel32:KERNEL32.dll
 0001:0002e626       _GetLastError@0            1002f626 f   kernel32:KERNEL32.dll
 0001:0002e62c       _ExitProcess@4             1002f62c f   kernel32:KERNEL32.dll
 0001:0002e632       _GetModuleHandleExW@12     1002f632 f   kernel32:KERNEL32.dll
 0001:0002e638       _AreFileApisANSI@0         1002f638 f   kernel32:KERNEL32.dll
 0001:0002e63e       _MultiByteToWideChar@24    1002f63e f   kernel32:KERNEL32.dll
 0001:0002e644       _WideCharToMultiByte@32    1002f644 f   kernel32:KERNEL32.dll
 0001:0002e64a       _HeapFree@12               1002f64a f   kernel32:KERNEL32.dll
 0001:0002e650       _HeapReAlloc@16            1002f650 f   kernel32:KERNEL32.dll
 0001:0002e656       _EnterCriticalSection@4    1002f656 f   kernel32:KERNEL32.dll
 0001:0002e65c       _LeaveCriticalSection@4    1002f65c f   kernel32:KERNEL32.dll
 0001:0002e662       _GetStdHandle@4            1002f662 f   kernel32:KERNEL32.dll
 0001:0002e668       _GetFileType@4             1002f668 f   kernel32:KERNEL32.dll
 0001:0002e66e       _GetModuleFileNameW@12     1002f66e f   kernel32:KERNEL32.dll
 0001:0002e674       _WriteConsoleW@20          1002f674 f   kernel32:KERNEL32.dll
 0001:0002e67a       _GetCommandLineA@0         1002f67a f   kernel32:KERNEL32.dll
 0001:0002e680       _GetCurrentThreadId@0      1002f680 f   kernel32:KERNEL32.dll
 0001:0002e686       _WriteFile@20              1002f686 f   kernel32:KERNEL32.dll
 0001:0002e68c       _GetProcessHeap@0          1002f68c f   kernel32:KERNEL32.dll
 0001:0002e692       _UnhandledExceptionFilter@4 1002f692 f   kernel32:KERNEL32.dll
 0001:0002e698       _SetUnhandledExceptionFilter@4 1002f698 f   kernel32:KERNEL32.dll
 0001:0002e69e       _SetLastError@4            1002f69e f   kernel32:KERNEL32.dll
 0001:0002e6a4       _InitializeCriticalSectionAndSpinCount@8 1002f6a4 f   kernel32:KERNEL32.dll
 0001:0002e6aa       _CreateEventW@16           1002f6aa f   kernel32:KERNEL32.dll
 0001:0002e6b0       _Sleep@4                   1002f6b0 f   kernel32:KERNEL32.dll
 0001:0002e6b6       _GetCurrentProcess@0       1002f6b6 f   kernel32:KERNEL32.dll
 0001:0002e6bc       _TerminateProcess@8        1002f6bc f   kernel32:KERNEL32.dll
 0001:0002e6c2       _TlsAlloc@0                1002f6c2 f   kernel32:KERNEL32.dll
 0001:0002e6c8       _TlsGetValue@4             1002f6c8 f   kernel32:KERNEL32.dll
 0001:0002e6ce       _TlsSetValue@8             1002f6ce f   kernel32:KERNEL32.dll
 0001:0002e6d4       _TlsFree@4                 1002f6d4 f   kernel32:KERNEL32.dll
 0001:0002e6da       _GetStartupInfoW@4         1002f6da f   kernel32:KERNEL32.dll
 0001:0002e6e0       _GetTickCount@0            1002f6e0 f   kernel32:KERNEL32.dll
 0001:0002e6e6       _GetModuleHandleW@4        1002f6e6 f   kernel32:KERNEL32.dll
 0001:0002e6ec       _CreateSemaphoreW@16       1002f6ec f   kernel32:KERNEL32.dll
 0001:0002e6f2       _DeleteCriticalSection@4   1002f6f2 f   kernel32:KERNEL32.dll
 0001:0002e6f8       _FatalAppExitA@8           1002f6f8 f   kernel32:KERNEL32.dll
 0001:0002e6fe       _SetConsoleCtrlHandler@8   1002f6fe f   kernel32:KERNEL32.dll
 0001:0002e704       _FreeLibrary@4             1002f704 f   kernel32:KERNEL32.dll
 0001:0002e70a       _LoadLibraryExW@12         1002f70a f   kernel32:KERNEL32.dll
 0001:0002e710       _IsValidCodePage@4         1002f710 f   kernel32:KERNEL32.dll
 0001:0002e716       _GetACP@0                  1002f716 f   kernel32:KERNEL32.dll
 0001:0002e71c       _GetOEMCP@0                1002f71c f   kernel32:KERNEL32.dll
 0001:0002e722       _GetCPInfo@8               1002f722 f   kernel32:KERNEL32.dll
 0001:0002e728       _CloseHandle@4             1002f728 f   kernel32:KERNEL32.dll
 0001:0002e72e       _RtlUnwind@16              1002f72e f   kernel32:KERNEL32.dll
 0001:0002e734       _ReadFile@20               1002f734 f   kernel32:KERNEL32.dll
 0001:0002e73a       _GetConsoleMode@8          1002f73a f   kernel32:KERNEL32.dll
 0001:0002e740       _ReadConsoleW@20           1002f740 f   kernel32:KERNEL32.dll
 0001:0002e746       _GetConsoleCP@0            1002f746 f   kernel32:KERNEL32.dll
 0001:0002e74c       _DeleteFileW@4             1002f74c f   kernel32:KERNEL32.dll
 0001:0002e752       _SetFilePointerEx@20       1002f752 f   kernel32:KERNEL32.dll
 0001:0002e758       _RaiseException@16         1002f758 f   kernel32:KERNEL32.dll
 0001:0002e75e       _OutputDebugStringW@4      1002f75e f   kernel32:KERNEL32.dll
 0001:0002e764       _GetCurrentThread@0        1002f764 f   kernel32:KERNEL32.dll
 0001:0002e76a       _GetModuleFileNameA@12     1002f76a f   kernel32:KERNEL32.dll
 0001:0002e770       _QueryPerformanceCounter@4 1002f770 f   kernel32:KERNEL32.dll
 0001:0002e776       _GetCurrentProcessId@0     1002f776 f   kernel32:KERNEL32.dll
 0001:0002e77c       _GetSystemTimeAsFileTime@4 1002f77c f   kernel32:KERNEL32.dll
 0001:0002e782       _GetEnvironmentStringsW@0  1002f782 f   kernel32:KERNEL32.dll
 0001:0002e788       _FreeEnvironmentStringsW@4 1002f788 f   kernel32:KERNEL32.dll
 0001:0002e78e       _HeapSize@12               1002f78e f   kernel32:KERNEL32.dll
 0001:0002e794       _GetDateFormatW@24         1002f794 f   kernel32:KERNEL32.dll
 0001:0002e79a       _GetTimeFormatW@24         1002f79a f   kernel32:KERNEL32.dll
 0001:0002e7a0       _CompareStringW@24         1002f7a0 f   kernel32:KERNEL32.dll
 0001:0002e7a6       _LCMapStringW@24           1002f7a6 f   kernel32:KERNEL32.dll
 0001:0002e7ac       _GetLocaleInfoW@16         1002f7ac f   kernel32:KERNEL32.dll
 0001:0002e7b2       _IsValidLocale@8           1002f7b2 f   kernel32:KERNEL32.dll
 0001:0002e7b8       _GetUserDefaultLCID@0      1002f7b8 f   kernel32:KERNEL32.dll
 0001:0002e7be       _EnumSystemLocalesW@8      1002f7be f   kernel32:KERNEL32.dll
 0001:0002e7c4       _GetStringTypeW@16         1002f7c4 f   kernel32:KERNEL32.dll
 0001:0002e7ca       _FlushFileBuffers@4        1002f7ca f   kernel32:KERNEL32.dll
 0001:0002e7d0       _SetStdHandle@8            1002f7d0 f   kernel32:KERNEL32.dll
 0001:0002e7d6       _CreateFileW@28            1002f7d6 f   kernel32:KERNEL32.dll
 0001:0002e7dc       _SetEndOfFile@4            1002f7dc f   kernel32:KERNEL32.dll
 0002:00000000       ___xc_a                    1003a000     LIBCMT:crt0init.obj
 0002:00000104       ___xc_z                    1003a104     LIBCMT:crt0init.obj
 0002:00000208       ___xi_a                    1003a208     LIBCMT:crt0init.obj
 0002:00000420       ___xi_z                    1003a420     LIBCMT:crt0init.obj
 0002:00000524       ___xp_a                    1003a524     LIBCMT:crt0init.obj
 0002:00000838       ___xp_z                    1003a838     LIBCMT:crt0init.obj
 0002:0000093c       ___xt_a                    1003a93c     LIBCMT:crt0init.obj
 0002:00000a40       ___xt_z                    1003aa40     LIBCMT:crt0init.obj
 0002:00000b88       _slrttestmdl_M             1003ab88     slrttestmdl.obj
 0002:00000b8c       ??_C@_06JFOKFOED@CSTATE?$AA@ 1003ab8c     slrttestmdl.obj
 0002:00000b94       ??_C@_0BI@KLKNELJH@slrttestmdl?1Integrator1?$AA@ 1003ab94     slrttestmdl.obj
 0002:00000bb0       ??_C@_0BH@CNKIMOBF@slrttestmdl?1Integrator?$AA@ 1003abb0     slrttestmdl.obj
 0002:00000bcb       ??_C@_00CNPNBAHC@?$AA@     1003abcb     slrttestmdl.obj
 0002:00000bcc       ??_C@_0BE@MOCFCMEK@slrttestmdl?1Outport?$AA@ 1003abcc     slrttestmdl.obj
 0002:00000be4       ??_C@_04GDMNHCBG@ode4?$AA@ 1003abe4     slrttestmdl.obj
 0002:00000bec       ??_C@_04EPKDLPPB@tout?$AA@ 1003abec     slrttestmdl.obj
 0002:00000bf4       ??_C@_04IKFDFCPA@xout?$AA@ 1003abf4     slrttestmdl.obj
 0002:00000bfc       ??_C@_03HBFGMJOD@rt_?$AA@  1003abfc     slrttestmdl.obj
 0002:00000c00       ??_C@_04LHDDHLEA@yout?$AA@ 1003ac00     slrttestmdl.obj
 0002:00000c08       __real@3f30624dd2f1a9fc    1003ac08     slrttestmdl.obj
 0002:00000c18       __real@3fc5555555555555    1003ac18     slrttestmdl.obj
 0002:00000c28       __real@3fc999999999999a    1003ac28     slrttestmdl.obj
 0002:00000c38       __real@3fe0000000000000    1003ac38     slrttestmdl.obj
 0002:00000c48       __real@3ff0000000000000    1003ac48     slrttestmdl.obj
 0002:00000c58       __real@4000000000000000    1003ac58     slrttestmdl.obj
 0002:00000c68       __real@41f0000000000000    1003ac68     slrttestmdl.obj
 0002:00000c78       __real@4330000000000000    1003ac78     slrttestmdl.obj
 0002:00000c88       __real@8000000000000000    1003ac88     slrttestmdl.obj
 0002:00000ca0       __xmm@00000007000000070000000900000002 1003aca0     slrttestmdl.obj
 0002:00000cc0       __xmm@3f30624dd2f1a9fc0000000000000000 1003acc0     slrttestmdl.obj
 0002:00000ce0       __xmm@41f00000000000000000000000000000 1003ace0     slrttestmdl.obj
 0002:00000d00       __xmm@80000000000000008000000000000000 1003ad00     slrttestmdl.obj
 0002:00001578       ??_C@_0DJ@FHKINPLE@Unexpected?5itemKind?5?$DN?5DATA_ITEM?5@ 1003b578     rt_logging.obj
 0002:000015bc       ??_C@_0DA@IEHFPFCJ@Unexpected?5itemKind?$DN?$CFd?5in?5rt_Pro@ 1003b5bc     rt_logging.obj
 0002:000015f8       ??_C@_0DA@IFLHJPBO@Unexpected?5itemKind?$DN?$CFd?5in?5rt_Pro@ 1003b5f8     rt_logging.obj
 0002:00001634       ??_C@_0DA@IAPIIJJL@Unexpected?5itemKind?$DN?$CFd?5in?5rt_Pro@ 1003b634     rt_logging.obj
 0002:00001670       ??_C@_0BE@LCIGPJIG@MATLAB?55?40?5MAT?9file?$AA@ 1003b670     rt_logging.obj
 0002:00001688       ??_C@_0FB@PCJEAJIB@?$CK?$CK?$CK?5Log?5variable?5?$CFs?5has?5wrapped?5@ 1003b688     rt_logging.obj
 0002:000016f0       ??_C@_0MG@NKMLMOGF@?$CK?$CK?$CK?5To?5avoid?5wrapping?0?5explicitl@ 1003b6f0     rt_logging.obj
 0002:000017e0       ??_C@_0N@IPAEOLLP@_rtw_tmw?4tmw?$AA@ 1003b7e0     rt_logging.obj
 0002:000017f0       ??_C@_04HDOCAJNK@?$CFs?$CFs?$AA@ 1003b7f0     rt_logging.obj
 0002:000017f8       ??_C@_03ELIABIOC@w?$CLb?$AA@ 1003b7f8     rt_logging.obj
 0002:000017fc       ??_C@_0BF@JPILDDFA@?$CK?$CK?$CK?5Error?5opening?5?$CFs?$AA@ 1003b7fc     rt_logging.obj
 0002:00001818       ??_C@_0BK@EEMDELA@unable?5to?5open?5data?5file?6?$AA@ 1003b818     rt_logging.obj
 0002:00001838       ??_C@_04CGFJFPFD@none?$AA@ 1003b838     rt_logging.obj
 0002:00001840       ??_C@_0EE@LCGFPNON@?$CK?$CK?$CK?5Error?5creating?5signals?5struc@ 1003b840     rt_logging.obj
 0002:00001894       ??_C@_0CE@NHECEDMK@?$CK?$CK?$CK?5Error?5creating?5log?5variable?5@ 1003b894     rt_logging.obj
 0002:000018c0       ??_C@_0DB@IOCGKAGH@?$CK?$CK?$CK?5Errors?5occurred?5when?5startin@ 1003b8c0     rt_logging.obj
 0002:000018fc       ??_C@_0BO@BBLOGEBK@?$CK?$CK?$CK?5Memory?5allocation?5error?4?6?$AA@ 1003b8fc     rt_logging.obj
 0002:00001920       ??_C@_0N@LGFBAGEL@?5?$CIreal?5part?$CJ?$AA@ 1003b920     rt_logging.obj
 0002:00001930       ??_C@_0KH@CGNMHNFE@?5?5?5?5varName?5?5?5?5?5?5?5?5?5?5?$DN?5?$CFs?$CFs?6?5?5?5?5@ 1003b930     rt_logging.obj
 0002:000019f8       ??_C@_0LE@OALKKEFM@?5?5?5?5varName?5?5?5?5?5?5?5?5?5?5?$DN?5?$CFs?5?$CIcompl@ 1003b9f8     rt_logging.obj
 0002:00001ad0       ??_C@_0KF@JDDLEOKO@?5?5?5?5varName?5?5?5?5?5?5?5?5?5?5?$DN?5?$CFs?6?5?5?5?5nR@ 1003bad0     rt_logging.obj
 0002:00001b98       ??_C@_0DP@HPDMIOFM@?$CK?$CK?$CK?5Using?5a?5default?5buffer?5of?5si@ 1003bb98     rt_logging.obj
 0002:00001be8       ??_C@_0KE@JEFOLKNF@?6?$CK?$CK?$CK?5Memory?5required?5to?5log?5vari@ 1003bbe8     rt_logging.obj
 0002:00001cb0       ??_C@_0JP@DKLMHCBI@?$CK?$CK?$CK?5Details?3?6?5?5?5?5?5?5?5varName?5?5?5?5?5@ 1003bcb0     rt_logging.obj
 0002:00001d70       ??_C@_0CM@CAMILBED@?$CK?$CK?$CK?5Error?5allocating?5memory?5for?5@ 1003bd70     rt_logging.obj
 0002:00001da4       ??_C@_0DF@BBCNMOPM@?$CK?$CK?$CK?5Error?5allocating?5memory?5for?5@ 1003bda4     rt_logging.obj
 0002:00001de8       ??_C@_0JP@DBCLPCCI@?$CK?$CK?$CK?5Details?3?6?5?5?5?5?5?5?5varName?5?5?5?5?5@ 1003bde8     rt_logging.obj
 0002:00001ea8       ??_C@_0FK@DPGAOBGA@?$CK?$CK?$CK?5Error?5allocating?5memory?5for?5@ 1003bea8     rt_logging.obj
 0002:00001f14       ??_C@_0BI@GGDNPHLJ@?$CK?$CK?$CK?5Error?5writing?5to?5?$CFs?$AA@ 1003bf14     rt_logging.obj
 0002:00001f30       ??_C@_0CB@IBGJGELG@?$CK?$CK?$CK?5Error?5writing?5?$CFs?5due?5to?3?5?$CFs?6@ 1003bf30     rt_logging.obj
 0002:00001f58       ??_C@_0CN@FLMCHCPB@?$CK?$CK?$CK?5Error?5writing?5log?5variable?5?$CF@ 1003bf58     rt_logging.obj
 0002:00001f90       ??_C@_0DH@GAJCNOJP@?$CK?$CK?$CK?5Error?5writing?5structure?5log?5@ 1003bf90     rt_logging.obj
 0002:00001fd4       ??_C@_0BD@POEALECL@?$CK?$CK?5created?5?$CFs?5?$CK?$CK?6?6?$AA@ 1003bfd4     rt_logging.obj
 0002:00001ff0       __real@0000000000000000    1003bff0     rt_logging.obj
 0002:00002000       __real@4020000000000000    1003c000     rt_logging.obj
 0002:00002010       __real@41dfffffffc00000    1003c010     rt_logging.obj
 0002:00002020       __real@41efffffffe00000    1003c020     rt_logging.obj
 0002:00002030       __real@bfbf9add3afd2773    1003c030     rt_logging.obj
 0002:00002040       __real@bff0000000000000    1003c040     rt_logging.obj
 0002:00002050       __real@c000000000000000    1003c050     rt_logging.obj
 0002:00002060       __xmm@20202020202020202020202020202020 1003c060     rt_logging.obj
 0002:00002090       ??_C@_0BI@INNPNFJN@Memory?5Allocation?5Error?$AA@ 1003c090     rtw_modelmap_utils.obj
 0002:000020b0       ??_C@_1HC@OAPLBLFC@?$AAC?$AA?3?$AA?2?$AAP?$AAR?$AAO?$AAG?$AAR?$AAA?$AA?$HO?$AA1?$AA?2?$AAM?$AAA?$AAT?$AAL?$AAA?$AAB?$AA?2?$AAR?$AA2?$AA0?$AA1?$AA6?$AAa?$AA?2?$AAr?$AAt?$AAw?$AA?2?$AAc?$AA?2@ 1003c0b0     rtw_modelmap_utils.obj
 0002:00002138       ??_C@_1CI@OEAJCJND@?$AAj?$AA?5?$AA?$DN?$AA?$DN?$AA?5?$AAe?$AAn?$AAc?$AAo?$AAd?$AAe?$AAd?$AAP?$AAa?$AAt?$AAh?$AAL?$AAe?$AAn?$AA?$AA@ 1003c138     rtw_modelmap_utils.obj
 0002:00002168       ??_C@_1DC@NFAOIFKB@?$AAe?$AAn?$AAc?$AAo?$AAd?$AAe?$AAd?$AAP?$AAa?$AAt?$AAh?$AA?$FL?$AAj?$AA?9?$AA1?$AA?$FN?$AA?5?$AA?$DN?$AA?$DN?$AA?5?$AA?8?$AA?2?$AA0?$AA?8?$AA?$AA@ 1003c168     rtw_modelmap_utils.obj
 0002:000021a4       ??_C@_1DI@FLNJGPEE@?$AAs?$AAi?$AAg?$AAC?$AAo?$AAm?$AAp?$AAl?$AAe?$AAx?$AAi?$AAt?$AAy?$AA?$FL?$AA?$CK?$AAs?$AAi?$AAg?$AAI?$AAd?$AAx?$AA?$FN?$AA?5?$AA?$CB?$AA?$DN?$AA?5?$AA1?$AA?$AA@ 1003c1a4     rtw_modelmap_utils.obj
 0002:000021e8       ??_C@_1KI@OFELMGBG@?$AA?$CI?$AA?$CI?$AA?$CI?$AAd?$AAa?$AAt?$AAa?$AAT?$AAy?$AAp?$AAe?$AAM?$AAa?$AAp?$AA?$CJ?$AA?$FL?$AA?$CI?$AA?$CI?$AA?$CI?$AAs?$AAt?$AAa?$AAt?$AAe?$AAs?$AA?$CJ?$AA?$FL?$AA?$CI?$AAi?$AA?$CJ?$AA?$FN?$AA?4@ 1003c1e8     rtw_modelmap_utils.obj
 0002:000022b4       ??_C@_1DA@ILCMPHNE@?$AAf?$AAu?$AAl?$AAl?$AAP?$AAa?$AAt?$AAh?$AA?5?$AA?$CB?$AA?$DN?$AA?5?$AA?$CI?$AA?$CI?$AAv?$AAo?$AAi?$AAd?$AA?5?$AA?$CK?$AA?$CJ?$AA0?$AA?$CJ?$AA?$AA@ 1003c2b4     rtw_modelmap_utils.obj
 0002:000022f0       ??_C@_1CI@OEPPFCCA@?$AAp?$AAa?$AAt?$AAh?$AA?5?$AA?$CB?$AA?$DN?$AA?5?$AA?$CI?$AA?$CI?$AAv?$AAo?$AAi?$AAd?$AA?5?$AA?$CK?$AA?$CJ?$AA0?$AA?$CJ?$AA?$AA@ 1003c2f0     rtw_modelmap_utils.obj
 0002:00002320       ??_C@_1FK@GLJIMFHB@?$AA?$CI?$AA?$CI?$AAm?$AAm?$AAi?$AA?$CJ?$AA?9?$AA?$DO?$AAI?$AAn?$AAs?$AAt?$AAa?$AAn?$AAc?$AAe?$AAM?$AAa?$AAp?$AA?4?$AAf?$AAu?$AAl?$AAl?$AAP?$AAa?$AAt?$AAh?$AA?$CJ?$AA?5?$AA?$DN?$AA?$DN@ 1003c320     rtw_modelmap_utils.obj
 0002:0000238c       ??_C@_1DG@HPCJGNCE@?$AAm?$AAm?$AAi?$AAP?$AAa?$AAt?$AAh?$AA?$FL?$AAp?$AAa?$AAt?$AAh?$AAL?$AAe?$AAn?$AA?9?$AA1?$AA?$FN?$AA?5?$AA?$DN?$AA?$DN?$AA?5?$AA?8?$AA?2?$AA0?$AA?8?$AA?$AA@ 1003c38c     rtw_modelmap_utils.obj
 0002:000023cc       ??_C@_1DM@DBAOGGOO@?$AAm?$AAm?$AAi?$AAP?$AAa?$AAt?$AAh?$AA?$FL?$AAm?$AAm?$AAi?$AAP?$AAa?$AAt?$AAh?$AAL?$AAe?$AAn?$AA?9?$AA1?$AA?$FN?$AA?5?$AA?$DN?$AA?$DN?$AA?5?$AA?8?$AA?2?$AA0?$AA?8?$AA?$AA@ 1003c3cc     rtw_modelmap_utils.obj
 0002:00002414       ??_C@_1DC@LHIAKAFE@?$AAb?$AAl?$AAo?$AAc?$AAk?$AAP?$AAa?$AAt?$AAh?$AA?5?$AA?$CB?$AA?$DN?$AA?5?$AA?$CI?$AA?$CI?$AAv?$AAo?$AAi?$AAd?$AA?5?$AA?$CK?$AA?$CJ?$AA0?$AA?$CJ?$AA?$AA@ 1003c414     rtw_modelmap_utils.obj
 0002:00002450       ??_C@_1GI@KIEJKPGC@?$AAf?$AAu?$AAl?$AAl?$AAS?$AAt?$AAa?$AAt?$AAe?$AAB?$AAl?$AAo?$AAc?$AAk?$AAP?$AAa?$AAt?$AAh?$AA?$FL?$AAf?$AAu?$AAl?$AAl?$AAS?$AAt?$AAa?$AAt?$AAe?$AAB?$AAl?$AAo?$AAc@ 1003c450     rtw_modelmap_utils.obj
 0002:000024d0       ??_C@_1EE@DNPIBJHC@?$AA?$CI?$AA?$CI?$AAd?$AAi?$AAm?$AAM?$AAa?$AAp?$AA?$CJ?$AA?$FL?$AA?$CI?$AAm?$AAa?$AAp?$AAI?$AAd?$AAx?$AA?$CJ?$AA?$FN?$AA?4?$AAn?$AAu?$AAm?$AAD?$AAi?$AAm?$AAs?$AA?$CJ?$AA?5?$AA?$DN?$AA?$DN?$AA?5@ 1003c4d0     rtw_modelmap_utils.obj
 0002:00002524       ??_C@_06FAENGAMN@DSTATE?$AA@ 1003c524     rtw_modelmap_utils.obj
 0002:0000252c       ??_C@_1BI@LEBJNOGG@?$AAc?$AAs?$AAv?$AAI?$AAd?$AAx?$AA?5?$AA?$DO?$AA?$DN?$AA?5?$AA0?$AA?$AA@ 1003c52c     rtw_modelmap_utils.obj
 0002:00002548       ??_C@_1BA@KDMGHCHP@?$AAT?$AAI?$AAD?$AA?$DN?$AA?$DN?$AA?9?$AA1?$AA?$AA@ 1003c548     rtw_modelmap_utils.obj
 0002:0000255c       ??_C@_1DM@DHGKBPCE@?$AAs?$AAi?$AAg?$AAP?$AAa?$AAt?$AAh?$AA?$FL?$AAs?$AAi?$AAg?$AAP?$AAa?$AAt?$AAh?$AAL?$AAe?$AAn?$AA?9?$AA1?$AA?$FN?$AA?5?$AA?$DN?$AA?$DN?$AA?5?$AA?8?$AA?2?$AA0?$AA?8?$AA?$AA@ 1003c55c     rtw_modelmap_utils.obj
 0002:000027f8       ??_C@_04OMOMKKFL@Gain?$AA@ 1003c7f8     slrttestmdl_capi.obj
 0002:00002800       ??_C@_05DKAIGDGE@Gain1?$AA@ 1003c800     slrttestmdl_capi.obj
 0002:00002808       ??_C@_05BBCFDAKH@Gain2?$AA@ 1003c808     slrttestmdl_capi.obj
 0002:00002810       ??_C@_0L@NFGBEBEC@Integrator?$AA@ 1003c810     slrttestmdl_capi.obj
 0002:00002820       ??_C@_0M@FOFKEGEP@Integrator1?$AA@ 1003c820     slrttestmdl_capi.obj
 0002:00002830       ??_C@_0BB@DGFEMKP@Signal?5Generator?$AA@ 1003c830     slrttestmdl_capi.obj
 0002:00002844       ??_C@_03IFGKDPPO@Sum?$AA@  1003c844     slrttestmdl_capi.obj
 0002:00002848       ??_C@_0BB@CFEOEMDC@InitialCondition?$AA@ 1003c848     slrttestmdl_capi.obj
 0002:0000285c       ??_C@_09IHLJOMI@Amplitude?$AA@ 1003c85c     slrttestmdl_capi.obj
 0002:00002868       ??_C@_09OGDICNME@Frequency?$AA@ 1003c868     slrttestmdl_capi.obj
 0002:00002874       ??_C@_06BNJCAIGJ@double?$AA@ 1003c874     slrttestmdl_capi.obj
 0002:0000287c       ??_C@_06CNMIJIPB@real_T?$AA@ 1003c87c     slrttestmdl_capi.obj
 0002:00002884       ??_C@_05KNFBNCOH@float?$AA@ 1003c884     slrttestmdl_capi.obj
 0002:0000288c       ??_C@_0CJ@GGPBKPNK@Could?5not?5start?5ToAsyncQueue?5app@ 1003c88c     slrttestmdl_tgtconn.obj
 0002:000028c0       _serialfifoground          1003c8c0     xpc_datatype_ground.obj
 0002:000028cc       _bcmsg1553ground           1003c8cc     xpc_datatype_ground.obj
 0002:000028dc       _bcstatground              1003c8dc     xpc_datatype_ground.obj
 0002:000028f4       _bmmsg1553ground           1003c8f4     xpc_datatype_ground.obj
 0002:00002914       ??_C@_0M@ONGJAENG@slrttestmdl?$AA@ 1003c914     xpctarget.obj
 0002:00002924       _ptsetfilename             1003c924     xpctarget.obj
 0002:00002928       _xmlfile                   1003c928     xpctarget.obj
 0002:00002930       ??_C@_0L@CHBJKKFC@xpceSetVar?$AA@ 1003c930     xpctarget.obj
 0002:00002940       ??_C@_03ICACBPID@6?44?$AA@ 1003c940     xpctarget.obj
 0002:00002948       __real@3fb999999999999a    1003c948     xpctarget.obj
 0002:00002958       __real@40af400000000000    1003c958     xpctarget.obj
 0002:00002968       _slrttestmdl_BIOMAP        1003c968     appmappingData.obj
 0002:000029c8       _slrttestmdl_LBLMAP        1003c9c8     appmappingData.obj
 0002:00002a28       _slrttestmdl_SIDMAP        1003ca28     appmappingData.obj
 0002:00002a88       _slrttestmdl_SBIO          1003ca88     appmappingData.obj
 0002:00002aa8       _slrttestmdl_SLBL          1003caa8     appmappingData.obj
 0002:00002ac8       _slrttestmdl_PTIDSMAP      1003cac8     appmappingData.obj
 0002:00002b08       _slrttestmdl_PTNAMESMAP    1003cb08     appmappingData.obj
 0002:00002b48       _slrttestmdl_SPTMAP        1003cb48     appmappingData.obj
 0002:00002b68       _slrttestmdl_dtmap         1003cb68     appmappingData.obj
 0002:00002b78       _appInfo                   1003cb78     appmappingData.obj
 0002:00002c3c       ??_C@_0CC@DMFKNLL@VendorId?5?$DN?50x?$CFx?0?5DeviceId?5?$DN?50x?$CFx@ 1003cc3c     xpcruntime:xpcimports.obj
 0002:00002c60       ??_C@_0DH@OHCBLNMG@Subsystem?5Device?5ID?5?$DN?50x?$CFx?6Subsy@ 1003cc60     xpcruntime:xpcimports.obj
 0002:00002c98       ??_C@_0BD@MMMMEFCM@Class?5Code?5?$DN?50x?$CFx?6?$AA@ 1003cc98     xpcruntime:xpcimports.obj
 0002:00002cac       ??_C@_0BE@OLDDDNHM@InterruptLine?5?$DN?5?$CFd?6?$AA@ 1003ccac     xpcruntime:xpcimports.obj
 0002:00002cc0       ??_C@_0BF@OLKLEKBD@bus?5?$DN?5?$CFd?0?5slot?5?$DN?5?$CFd?6?$AA@ 1003ccc0     xpcruntime:xpcimports.obj
 0002:00002cd8       ??_C@_0CE@DGLLGDFH@?5?5?5?5Phys?5?5?5Virtual?5?5?5Length?5IO?1M@ 1003ccd8     xpcruntime:xpcimports.obj
 0002:00002cfc       ??_C@_0BI@FEOPLEMG@?$CF08x?5?$CF08x?5?$CF08x?5?5?5?5?5?5?$CFc?6?$AA@ 1003ccfc     xpcruntime:xpcimports.obj
 0002:00002d14       ??_C@_0BB@BNNCEDPC@rl32eScopeExists?$AA@ 1003cd14     xpcruntime:xpcimports.obj
 0002:00002d28       ??_C@_0BM@FJBFEGFG@rl32eScopeExists?5not?5found?6?$AA@ 1003cd28     xpcruntime:xpcimports.obj
 0002:00002d44       ??_C@_0O@BNNGKJEA@rl32eDefScope?$AA@ 1003cd44     xpcruntime:xpcimports.obj
 0002:00002d54       ??_C@_0BJ@CDNOENKA@rl32eDefScope?5not?5found?6?$AA@ 1003cd54     xpcruntime:xpcimports.obj
 0002:00002d70       ??_C@_0P@CKNKILDP@rl32eAddSignal?$AA@ 1003cd70     xpcruntime:xpcimports.obj
 0002:00002d80       ??_C@_0BK@GMJAJBAI@rl32eAddSignal?5not?5found?6?$AA@ 1003cd80     xpcruntime:xpcimports.obj
 0002:00002d9c       ??_C@_0BB@LDMIHGCE@rl32eGetSignalNo?$AA@ 1003cd9c     xpcruntime:xpcimports.obj
 0002:00002db0       ??_C@_0BM@LGAMBAID@rl32eGetSignalNo?5not?5found?6?$AA@ 1003cdb0     xpcruntime:xpcimports.obj
 0002:00002dcc       ??_C@_0O@CFDGALBP@rl32eSetScope?$AA@ 1003cdcc     xpcruntime:xpcimports.obj
 0002:00002ddc       ??_C@_0BJ@JCLHHIN@rl32eSetScope?5not?5found?6?$AA@ 1003cddc     xpcruntime:xpcimports.obj
 0002:00002df8       ??_C@_0P@IKMCBMHH@xpceFSScopeSet?$AA@ 1003cdf8     xpcruntime:xpcimports.obj
 0002:00002e08       ??_C@_0BK@JODJPNNH@xpceFSScopeSet?5not?5found?6?$AA@ 1003ce08     xpcruntime:xpcimports.obj
 0002:00002e24       ??_C@_0BE@DLACEEJM@rl32eSetTargetScope?$AA@ 1003ce24     xpcruntime:xpcimports.obj
 0002:00002e38       ??_C@_0BP@JCHFMKPJ@rl32eSetTargetScope?5not?5found?6?$AA@ 1003ce38     xpcruntime:xpcimports.obj
 0002:00002e58       ??_C@_0BJ@LIDLNDHC@rl32eSetTargetScopeSigFt?$AA@ 1003ce58     xpcruntime:xpcimports.obj
 0002:00002e74       ??_C@_0CE@JLGHCFHI@rl32eSetTargetScopeSigFt?5not?5fou@ 1003ce74     xpcruntime:xpcimports.obj
 0002:00002e98       ??_C@_0BI@JAPOIDNG@rl32eRestartAcquisition?$AA@ 1003ce98     xpcruntime:xpcimports.obj
 0002:00002eb0       ??_C@_0CD@LLBEFFBO@rl32eRestartAcquisition?5not?5foun@ 1003ceb0     xpcruntime:xpcimports.obj
 0002:00002ed4       ??_C@_0P@IEIIADJB@xpceScopeAcqOK?$AA@ 1003ced4     xpcruntime:xpcimports.obj
 0002:00002ee4       ??_C@_0BK@NJCKNFPN@xpceScopeAcqOK?5not?5found?6?$AA@ 1003cee4     xpcruntime:xpcimports.obj
 0002:00002f00       ??_C@_0BA@IJINKAHF@xpceRegisterISR?$AA@ 1003cf00     xpcruntime:xpcimports.obj
 0002:00002f10       ??_C@_0BL@NNDLOEJE@xpceRegisterISR?5not?5found?6?$AA@ 1003cf10     xpcruntime:xpcimports.obj
 0002:00002f2c       ??_C@_0BC@NLBADGKF@xpceDeRegisterISR?$AA@ 1003cf2c     xpcruntime:xpcimports.obj
 0002:00002f40       ??_C@_0BN@DCAIKFFD@xpceDeRegisterISR?5not?5found?6?$AA@ 1003cf40     xpcruntime:xpcimports.obj
 0002:00002f60       ??_C@_0P@CPGPNKEB@xpceFTReadTime?$AA@ 1003cf60     xpcruntime:xpcimports.obj
 0002:00002f70       ??_C@_0BK@NMABIODN@xpceFTReadTime?5not?5found?6?$AA@ 1003cf70     xpcruntime:xpcimports.obj
 0002:00002f8c       ??_C@_09PHNHCHFH@xpceFTAdd?$AA@ 1003cf8c     xpcruntime:xpcimports.obj
 0002:00002f98       ??_C@_0BF@FJLEIILA@xpceFTAdd?5not?5found?6?$AA@ 1003cf98     xpcruntime:xpcimports.obj
 0002:00002fb0       ??_C@_0P@KEODBLHO@xpceFTSubtract?$AA@ 1003cfb0     xpcruntime:xpcimports.obj
 0002:00002fc0       ??_C@_0BK@HONODOKP@xpceFTSubtract?5not?5found?6?$AA@ 1003cfc0     xpcruntime:xpcimports.obj
 0002:00002fdc       ??_C@_07JPMEPILD@xpcInpB?$AA@ 1003cfdc     xpcruntime:xpcimports.obj
 0002:00002fe4       ??_C@_0BD@PGABEJOL@xpcInpB?5not?5found?6?$AA@ 1003cfe4     xpcruntime:xpcimports.obj
 0002:00002ff8       ??_C@_07KIHBBOKH@xpcInpW?$AA@ 1003cff8     xpcruntime:xpcimports.obj
 0002:00003000       ??_C@_0BD@FPCJFMCC@xpcInpW?5not?5found?6?$AA@ 1003d000     xpcruntime:xpcimports.obj
 0002:00003014       ??_C@_08KDIAJBOP@xpcInpDW?$AA@ 1003d014     xpcruntime:xpcimports.obj
 0002:00003020       ??_C@_0BE@PIELDNIL@xpcInpDW?5not?5found?6?$AA@ 1003d020     xpcruntime:xpcimports.obj
 0002:00003034       ??_C@_08PJFMOIGO@xpcOutpB?$AA@ 1003d034     xpcruntime:xpcimports.obj
 0002:00003040       ??_C@_0BE@HCKNCEKF@xpcOutpB?5not?5found?6?$AA@ 1003d040     xpcruntime:xpcimports.obj
 0002:00003054       ??_C@_08MOOJAOHK@xpcOutpW?$AA@ 1003d054     xpcruntime:xpcimports.obj
 0002:00003060       ??_C@_0BE@NLIFDBGM@xpcOutpW?5not?5found?6?$AA@ 1003d060     xpcruntime:xpcimports.obj
 0002:00003074       ??_C@_09FLIEKHJG@xpcOutpDW?$AA@ 1003d074     xpcruntime:xpcimports.obj
 0002:00003080       ??_C@_0BF@GJKLPNHB@xpcOutpDW?5not?5found?6?$AA@ 1003d080     xpcruntime:xpcimports.obj
 0002:00003098       ??_C@_0BH@EHOLELHH@xpcReserveMemoryRegion?$AA@ 1003d098     xpcruntime:xpcimports.obj
 0002:000030b0       ??_C@_0CC@KAAAGPI@xpcReserveMemoryRegion?5not?5found@ 1003d0b0     xpcruntime:xpcimports.obj
 0002:000030d4       ??_C@_0BA@JGPMHGAF@rl32eShowPCIDev?$AA@ 1003d0d4     xpcruntime:xpcimports.obj
 0002:000030e4       ??_C@_0BL@DDFFLNHI@rl32eShowPCIDev?5not?5found?6?$AA@ 1003d0e4     xpcruntime:xpcimports.obj
 0002:00003100       ??_C@_0BB@KBCOJPFB@rl32eShowPCIInfo?$AA@ 1003d100     xpcruntime:xpcimports.obj
 0002:00003114       ??_C@_0BM@IFDMAGLO@rl32eShowPCIInfo?5not?5found?6?$AA@ 1003d114     xpcruntime:xpcimports.obj
 0002:00003130       ??_C@_0BA@BGPAADB@rl32eGetPCIInfo?$AA@ 1003d130     xpcruntime:xpcimports.obj
 0002:00003140       ??_C@_0BL@IGOMLDCK@rl32eGetPCIInfo?5not?5found?6?$AA@ 1003d140     xpcruntime:xpcimports.obj
 0002:0000315c       ??_C@_0BG@NJPFKFDP@rl32eGetPCIInfoAtSlot?$AA@ 1003d15c     xpcruntime:xpcimports.obj
 0002:00003174       ??_C@_0CB@BBKIPMLA@rl32eGetPCIInfoAtSlot?5not?5found?6@ 1003d174     xpcruntime:xpcimports.obj
 0002:00003198       ??_C@_0BH@OKBOPNFG@xpceAssignPCIInterrupt?$AA@ 1003d198     xpcruntime:xpcimports.obj
 0002:000031b0       ??_C@_0CC@CDNDNJBJ@xpceAssignPCIInterrupt?5not?5found@ 1003d1b0     xpcruntime:xpcimports.obj
 0002:000031d4       ??_C@_0BB@FCHHFAAH@rl32eInitCOMPort?$AA@ 1003d1d4     xpcruntime:xpcimports.obj
 0002:000031e8       ??_C@_0BM@DDJGKAHB@rl32eInitCOMPort?5not?5found?6?$AA@ 1003d1e8     xpcruntime:xpcimports.obj
 0002:00003204       ??_C@_0BC@CHEEFCP@rl32eCloseCOMPort?$AA@ 1003d204     xpcruntime:xpcimports.obj
 0002:00003218       ??_C@_0BN@KCOFELEM@rl32eCloseCOMPort?5not?5found?6?$AA@ 1003d218     xpcruntime:xpcimports.obj
 0002:00003238       ??_C@_0O@LLJGKFOG@rl32eSendChar?$AA@ 1003d238     xpcruntime:xpcimports.obj
 0002:00003248       ??_C@_0BJ@JCJKDACJ@rl32eSendChar?5not?5found?6?$AA@ 1003d248     xpcruntime:xpcimports.obj
 0002:00003264       ??_C@_0BB@OMFKCOEK@rl32eReceiveChar?$AA@ 1003d264     xpcruntime:xpcimports.obj
 0002:00003278       ??_C@_0BM@HGAIOAND@rl32eReceiveChar?5not?5found?6?$AA@ 1003d278     xpcruntime:xpcimports.obj
 0002:00003294       ??_C@_0BI@PKEJFHMJ@rl32eReceiveBufferCount?$AA@ 1003d294     xpcruntime:xpcimports.obj
 0002:000032ac       ??_C@_0CD@LNMOFLAH@rl32eReceiveBufferCount?5not?5foun@ 1003d2ac     xpcruntime:xpcimports.obj
 0002:000032d0       ??_C@_0BA@CFIJOJPK@rl32eLineStatus?$AA@ 1003d2d0     xpcruntime:xpcimports.obj
 0002:000032e0       ??_C@_0BL@PLIDKKGI@rl32eLineStatus?5not?5found?6?$AA@ 1003d2e0     xpcruntime:xpcimports.obj
 0002:000032fc       ??_C@_0P@MDMKIJF@rl32eSendBlock?$AA@ 1003d2fc     xpcruntime:xpcimports.obj
 0002:0000330c       ??_C@_0BK@KNBNFIKH@rl32eSendBlock?5not?5found?6?$AA@ 1003d30c     xpcruntime:xpcimports.obj
 0002:00003328       ??_C@_0BD@PCKOKHO@xpceGetSignalValue?$AA@ 1003d328     xpcruntime:xpcimports.obj
 0002:0000333c       ??_C@_0BO@GCBDJHMB@xpceGetSignalValue?5not?5found?6?$AA@ 1003d33c     xpcruntime:xpcimports.obj
 0002:0000335c       ??_C@_0BB@BJONJAGA@xpceSetParameter?$AA@ 1003d35c     xpcruntime:xpcimports.obj
 0002:00003370       ??_C@_0BM@BJIKDLHA@xpceSetParameter?5not?5found?6?$AA@ 1003d370     xpcruntime:xpcimports.obj
 0002:0000338c       ??_C@_0BB@GNFDFMCM@xpceGetParameter?$AA@ 1003d38c     xpcruntime:xpcimports.obj
 0002:000033a0       ??_C@_0BM@POHNKBC@xpceGetParameter?5not?5found?6?$AA@ 1003d3a0     xpcruntime:xpcimports.obj
 0002:000033bc       ??_C@_0BB@CEIJLFCD@xpceGetParamDims?$AA@ 1003d3bc     xpcruntime:xpcimports.obj
 0002:000033d0       ??_C@_0BM@OABDBKAO@xpceGetParamDims?5not?5found?6?$AA@ 1003d3d0     xpcruntime:xpcimports.obj
 0002:000033ec       ??_C@_0L@OCBLLHBM@xpceGetTET?$AA@ 1003d3ec     xpcruntime:xpcimports.obj
 0002:000033f8       ??_C@_0BG@HNOFBOB@xpceGetTET?5not?5found?6?$AA@ 1003d3f8     xpcruntime:xpcimports.obj
 0002:00003410       ??_C@_0BA@FHMIOKFL@xpceUDPOpenSend?$AA@ 1003d410     xpcruntime:xpcimports.obj
 0002:00003420       ??_C@_0BL@HNLPFEK@xpceUDPOpenSend?5not?5found?6?$AA@ 1003d420     xpcruntime:xpcimports.obj
 0002:0000343c       ??_C@_0BD@BCELJJJL@xpceUDPOpenReceive?$AA@ 1003d43c     xpcruntime:xpcimports.obj
 0002:00003450       ??_C@_0BO@IFKJBHKC@xpceUDPOpenReceive?5not?5found?6?$AA@ 1003d450     xpcruntime:xpcimports.obj
 0002:00003470       ??_C@_0M@OFPFLJGN@xpceUDPSend?$AA@ 1003d470     xpcruntime:xpcimports.obj
 0002:0000347c       ??_C@_0BH@NOIKLPAB@xpceUDPSend?5not?5found?6?$AA@ 1003d47c     xpcruntime:xpcimports.obj
 0002:00003494       ??_C@_0P@PLFDECIN@xpceUDPReceive?$AA@ 1003d494     xpcruntime:xpcimports.obj
 0002:000034a4       ??_C@_0BK@OPJMLDLH@xpceUDPReceive?5not?5found?6?$AA@ 1003d4a4     xpcruntime:xpcimports.obj
 0002:000034c0       ??_C@_0N@IEHPMFME@xpceUDPClose?$AA@ 1003d4c0     xpcruntime:xpcimports.obj
 0002:000034d0       ??_C@_0BI@FHPFHECO@xpceUDPClose?5not?5found?6?$AA@ 1003d4d0     xpcruntime:xpcimports.obj
 0002:000034e8       ??_C@_0P@OKGNGAGH@xpcIsModelInit?$AA@ 1003d4e8     xpcruntime:xpcimports.obj
 0002:000034f8       ??_C@_0BK@DHEMLBIM@xpcIsModelInit?5not?5found?6?$AA@ 1003d4f8     xpcruntime:xpcimports.obj
 0002:00003514       ??_C@_0BH@KJJLCAOJ@xpcAllocPhysicalMemory?$AA@ 1003d514     xpcruntime:xpcimports.obj
 0002:0000352c       ??_C@_0CC@MOJPNHKL@xpcAllocPhysicalMemory?5not?5found@ 1003d52c     xpcruntime:xpcimports.obj
 0002:00003550       ??_C@_0BG@CBNPGAEL@xpcFreePhysicalMemory?$AA@ 1003d550     xpcruntime:xpcimports.obj
 0002:00003568       ??_C@_0CB@PKJEBPOG@xpcFreePhysicalMemory?5not?5found?6@ 1003d568     xpcruntime:xpcimports.obj
 0002:0000358c       ??_C@_0BC@JGKNLICL@xpcGetElapsedTime?$AA@ 1003d58c     xpcruntime:xpcimports.obj
 0002:000035a0       ??_C@_0BN@OEOAHCIO@xpcGetElapsedTime?5not?5found?6?$AA@ 1003d5a0     xpcruntime:xpcimports.obj
 0002:000035c0       ??_C@_0M@ICBLMODA@xpcBusyWait?$AA@ 1003d5c0     xpcruntime:xpcimports.obj
 0002:000035cc       ??_C@_0BH@FBOPECBI@xpcBusyWait?5not?5found?6?$AA@ 1003d5cc     xpcruntime:xpcimports.obj
 0002:000035e4       ??_C@_0N@LKKJEKKA@TBCreateSpin?$AA@ 1003d5e4     xpcruntime:xpcimports.obj
 0002:000035f4       ??_C@_0BI@FHKMLKOE@TBCreateSpin?5not?5found?6?$AA@ 1003d5f4     xpcruntime:xpcimports.obj
 0002:0000360c       ??_C@_0N@HOAJHNBD@TBDeleteSpin?$AA@ 1003d60c     xpcruntime:xpcimports.obj
 0002:0000361c       ??_C@_0BI@BKCPAAG@TBDeleteSpin?5not?5found?6?$AA@ 1003d61c     xpcruntime:xpcimports.obj
 0002:00003634       ??_C@_0P@DAHDDBJG@TBTakeSpinFast?$AA@ 1003d634     xpcruntime:xpcimports.obj
 0002:00003644       ??_C@_0BK@NKAIBHGB@TBTakeSpinFast?5not?5found?6?$AA@ 1003d644     xpcruntime:xpcimports.obj
 0002:00003660       ??_C@_0P@FKNAAELA@TBGiveSpinFast?$AA@ 1003d660     xpcruntime:xpcimports.obj
 0002:00003670       ??_C@_0BK@KGPJBJND@TBGiveSpinFast?5not?5found?6?$AA@ 1003d670     xpcruntime:xpcimports.obj
 0002:0000368c       ??_C@_0BE@IIGBFDHK@xpceCreateSemaphore?$AA@ 1003d68c     xpcruntime:xpcimports.obj
 0002:000036a0       ??_C@_0BP@KFBAFFKJ@xpceCreateSemaphore?5not?5found?6?$AA@ 1003d6a0     xpcruntime:xpcimports.obj
 0002:000036c0       ??_C@_0BC@IFNIONKJ@xpceWaitSemaphore?$AA@ 1003d6c0     xpcruntime:xpcimports.obj
 0002:000036d4       ??_C@_0BN@NMFAADIO@xpceWaitSemaphore?5not?5found?6?$AA@ 1003d6d4     xpcruntime:xpcimports.obj
 0002:000036f4       ??_C@_0BE@NNDIOBKE@xpceSignalSemaphore?$AA@ 1003d6f4     xpcruntime:xpcimports.obj
 0002:00003708       ??_C@_0BP@LBANMHJP@xpceSignalSemaphore?5not?5found?6?$AA@ 1003d708     xpcruntime:xpcimports.obj
 0002:00003728       ??_C@_0BE@MEBEKOIM@xpceDeleteSemaphore?$AA@ 1003d728     xpcruntime:xpcimports.obj
 0002:0000373c       ??_C@_0BP@OFNCKOJH@xpceDeleteSemaphore?5not?5found?6?$AA@ 1003d73c     xpcruntime:xpcimports.obj
 0002:0000375c       ??_C@_0BD@MFNDMBOF@FindUsbVideoDevice?$AA@ 1003d75c     xpcruntime:xpcimports.obj
 0002:00003770       ??_C@_0BO@POKLDHMI@FindUsbVideoDevice?5not?5found?6?$AA@ 1003d770     xpcruntime:xpcimports.obj
 0002:00003790       ??_C@_0BA@PLPAPNAB@GetVideoConfigs?$AA@ 1003d790     xpcruntime:xpcimports.obj
 0002:000037a0       ??_C@_0BL@DALDHKHC@GetVideoConfigs?5not?5found?6?$AA@ 1003d7a0     xpcruntime:xpcimports.obj
 0002:000037bc       ??_C@_0L@GBAEMHMH@StartVideo?$AA@ 1003d7bc     xpcruntime:xpcimports.obj
 0002:000037c8       ??_C@_0BG@HDCELEBP@StartVideo?5not?5found?6?$AA@ 1003d7c8     xpcruntime:xpcimports.obj
 0002:000037e0       ??_C@_0BA@FDNPOCLN@ReadFrameBuffer?$AA@ 1003d7e0     xpcruntime:xpcimports.obj
 0002:000037f0       ??_C@_0BL@JHGHPNBI@ReadFrameBuffer?5not?5found?6?$AA@ 1003d7f0     xpcruntime:xpcimports.obj
 0002:0000380c       ??_C@_09FAHCLKAG@StopVideo?$AA@ 1003d80c     xpcruntime:xpcimports.obj
 0002:00003818       ??_C@_0BF@NKGKKADL@StopVideo?5not?5found?6?$AA@ 1003d818     xpcruntime:xpcimports.obj
 0002:00003830       ??_C@_0O@MCPKDLLL@ConvertUImage?$AA@ 1003d830     xpcruntime:xpcimports.obj
 0002:00003840       ??_C@_0BJ@PHJKOAFL@ConvertUImage?5not?5found?6?$AA@ 1003d840     xpcruntime:xpcimports.obj
 0002:0000385c       ??_C@_0BD@NKCBPBJJ@CreateVideoDisplay?$AA@ 1003d85c     xpcruntime:xpcimports.obj
 0002:00003870       ??_C@_0BO@HPPLLNFP@CreateVideoDisplay?5not?5found?6?$AA@ 1003d870     xpcruntime:xpcimports.obj
 0002:00003890       ??_C@_0BE@KJCKGPHA@DestroyVideoDisplay?$AA@ 1003d890     xpcruntime:xpcimports.obj
 0002:000038a4       ??_C@_0BP@FMGLJAIJ@DestroyVideoDisplay?5not?5found?6?$AA@ 1003d8a4     xpcruntime:xpcimports.obj
 0002:000038c4       ??_C@_0BC@HCMIMIDN@StartVideoDisplay?$AA@ 1003d8c4     xpcruntime:xpcimports.obj
 0002:000038d8       ??_C@_0BN@EFIEBGOO@StartVideoDisplay?5not?5found?6?$AA@ 1003d8d8     xpcruntime:xpcimports.obj
 0002:000038f8       ??_C@_0BB@JBBLMILG@StopVideoDisplay?$AA@ 1003d8f8     xpcruntime:xpcimports.obj
 0002:0000390c       ??_C@_0BM@DBJBPLEL@StopVideoDisplay?5not?5found?6?$AA@ 1003d90c     xpcruntime:xpcimports.obj
 0002:00003928       ??_C@_0M@MFJEGMHC@StreamVideo?$AA@ 1003d928     xpcruntime:xpcimports.obj
 0002:00003934       ??_C@_0BH@OINCDMLA@StreamVideo?5not?5found?6?$AA@ 1003d934     xpcruntime:xpcimports.obj
 0002:0000394c       ??_C@_0N@IGGLCIGE@xpceaddEvent?$AA@ 1003d94c     xpcruntime:xpcimports.obj
 0002:0000395c       ??_C@_0BI@NHJNFMKH@xpceaddEvent?5not?5found?6?$AA@ 1003d95c     xpcruntime:xpcimports.obj
 0002:00003974       ??_C@_0BB@LCMHHHFN@getMemoryService?$AA@ 1003d974     xpcruntime:xpcimports.obj
 0002:00003988       ??_C@_0BM@MPLCNIIE@getMemoryService?5not?5found?6?$AA@ 1003d988     xpcruntime:xpcimports.obj
 0002:000039a4       ??_C@_0P@KIKONDKK@getCommService?$AA@ 1003d9a4     xpcruntime:xpcimports.obj
 0002:000039b4       ??_C@_0BK@NCECBKNM@getCommService?5not?5found?6?$AA@ 1003d9b4     xpcruntime:xpcimports.obj
 0002:000039d0       ??_C@_0P@GDLHFECE@getStatusFlags?$AA@ 1003d9d0     xpcruntime:xpcimports.obj
 0002:000039e0       ??_C@_0BK@NEKDLJHG@getStatusFlags?5not?5found?6?$AA@ 1003d9e0     xpcruntime:xpcimports.obj
 0002:000039fc       ??_C@_0BL@CDFCLKOL@startToAsyncQueueTgtAppSvc?$AA@ 1003d9fc     xpcruntime:xpcimports.obj
 0002:00003a18       ??_C@_0CG@JGOFFKEL@startToAsyncQueueTgtAppSvc?5not?5f@ 1003da18     xpcruntime:xpcimports.obj
 0002:00003a40       ??_C@_0BP@IJNGPPPE@terminateToAsyncQueueTgtAppSvc?$AA@ 1003da40     xpcruntime:xpcimports.obj
 0002:00003a60       ??_C@_0CK@NDEMAMKF@terminateToAsyncQueueTgtAppSvc?5n@ 1003da60     xpcruntime:xpcimports.obj
 0002:00003a8c       ??_C@_0BK@IDACEHAO@sendToAsyncQueueTgtAppSvc?$AA@ 1003da8c     xpcruntime:xpcimports.obj
 0002:00003aa8       ??_C@_0CF@PNCKPEHN@sendToAsyncQueueTgtAppSvc?5not?5fo@ 1003daa8     xpcruntime:xpcimports.obj
 0002:00003ad0       ??_C@_0BN@HJOHIFOM@xpceGetIntTimerGranularityNS?$AA@ 1003dad0     xpcruntime:xpcimports.obj
 0002:00003af0       ??_C@_0CI@OADDPMKB@xpceGetIntTimerGranularityNS?5not@ 1003daf0     xpcruntime:xpcimports.obj
 0002:00003b18       ??_C@_0BG@CCHICKPN@slrteSetStepSizeDelta?$AA@ 1003db18     xpcruntime:xpcimports.obj
 0002:00003b30       ??_C@_0CB@MKHINEIJ@slrteSetStepSizeDelta?5not?5found?6@ 1003db30     xpcruntime:xpcimports.obj
 0002:00003b54       ??_C@_0BI@CLNBLDKJ@slrteGetCurrentStepSize?$AA@ 1003db54     xpcruntime:xpcimports.obj
 0002:00003b6c       ??_C@_0CD@GIOJPGJA@slrteGetCurrentStepSize?5not?5foun@ 1003db6c     xpcruntime:xpcimports.obj
 0002:00003b90       ??_C@_0BE@FCLCBOC@registerPTPTimeRead?$AA@ 1003db90     xpcruntime:xpcimports.obj
 0002:00003ba4       ??_C@_0BP@LHPKAJIP@registerPTPTimeRead?5not?5found?6?$AA@ 1003dba4     xpcruntime:xpcimports.obj
 0002:00003bc4       ??_C@_0BG@KIGCDDJI@unRegisterPTPTimeRead?$AA@ 1003dbc4     xpcruntime:xpcimports.obj
 0002:00003bdc       ??_C@_0CB@MLFFBFCM@unRegisterPTPTimeRead?5not?5found?6@ 1003dbdc     xpcruntime:xpcimports.obj
 0002:00003c00       ??_C@_0BB@IPMDDBHK@slTestInitialize?$AA@ 1003dc00     xpcruntime:xpcimports.obj
 0002:00003c14       ??_C@_0BM@LAJFCCJH@slTestInitialize?5not?5found?6?$AA@ 1003dc14     xpcruntime:xpcimports.obj
 0002:00003c30       ??_C@_0BF@OOMPMEBC@slTestLogAssessments?$AA@ 1003dc30     xpcruntime:xpcimports.obj
 0002:00003c48       ??_C@_0CA@FGJCEBAG@slTestLogAssessments?5not?5found?6?$AA@ 1003dc48     xpcruntime:xpcimports.obj
 0002:00003c68       ??_C@_0BB@HJHKONHO@slTestEvalOnFail?$AA@ 1003dc68     xpcruntime:xpcimports.obj
 0002:00003c7c       ??_C@_0BM@JIKCFFNJ@slTestEvalOnFail?5not?5found?6?$AA@ 1003dc7c     xpcruntime:xpcimports.obj
 0002:00003c98       ??_C@_0BA@LBHLABFP@slTestTerminate?$AA@ 1003dc98     xpcruntime:xpcimports.obj
 0002:00003ca8       ??_C@_0BL@EMFGKAPA@slTestTerminate?5not?5found?6?$AA@ 1003dca8     xpcruntime:xpcimports.obj
 0002:00003cc4       ??_C@_0BE@JPNPBBEO@slTestRegAssessment?$AA@ 1003dcc4     xpcruntime:xpcimports.obj
 0002:00003cd8       ??_C@_0BP@FBDEJJJH@slTestRegAssessment?5not?5found?6?$AA@ 1003dcd8     xpcruntime:xpcimports.obj
 0002:00003cf8       __FPinit                   1003dcf8     LIBCMT:fpinit.obj
 0002:00003d04       ??_C@_1BI@BGOHAHKC@?$AAm?$AAs?$AAc?$AAo?$AAr?$AAe?$AAe?$AA?4?$AAd?$AAl?$AAl?$AA?$AA@ 1003dd04     LIBCMT:crt0dat.obj
 0002:00003d1c       ??_C@_0P@MIGLKIOC@CorExitProcess?$AA@ 1003dd1c     LIBCMT:crt0dat.obj
 0002:00003db4       ??_C@_17LGKOMLJ@?$AA?4?$AA?4?$AA?4?$AA?$AA@ 1003ddb4     LIBCMT:wassert.obj
 0002:00003dbc       ??_C@_13LBAGMAIH@?$AA?6?$AA?$AA@ 1003ddbc     LIBCMT:wassert.obj
 0002:00003dc0       ??_C@_15IABLJNFO@?$AA?6?$AA?6?$AA?$AA@ 1003ddc0     LIBCMT:wassert.obj
 0002:00003dc8       ??_C@_1CE@OJBNHDMO@?$AAA?$AAs?$AAs?$AAe?$AAr?$AAt?$AAi?$AAo?$AAn?$AA?5?$AAf?$AAa?$AAi?$AAl?$AAe?$AAd?$AA?$CB?$AA?$AA@ 1003ddc8     LIBCMT:wassert.obj
 0002:00003dec       ??_C@_1BE@PHKBBGE@?$AAP?$AAr?$AAo?$AAg?$AAr?$AAa?$AAm?$AA?3?$AA?5?$AA?$AA@ 1003ddec     LIBCMT:wassert.obj
 0002:00003e00       ??_C@_1CO@EAEJAADC@?$AA?$DM?$AAp?$AAr?$AAo?$AAg?$AAr?$AAa?$AAm?$AA?5?$AAn?$AAa?$AAm?$AAe?$AA?5?$AAu?$AAn?$AAk?$AAn?$AAo?$AAw?$AAn?$AA?$DO?$AA?$AA@ 1003de00     LIBCMT:wassert.obj
 0002:00003e30       ??_C@_1O@HEMHKNDC@?$AAF?$AAi?$AAl?$AAe?$AA?3?$AA?5?$AA?$AA@ 1003de30     LIBCMT:wassert.obj
 0002:00003e40       ??_C@_1O@KCAFKHJE@?$AAL?$AAi?$AAn?$AAe?$AA?3?$AA?5?$AA?$AA@ 1003de40     LIBCMT:wassert.obj
 0002:00003e50       ??_C@_1BK@PEDCIPMA@?$AAE?$AAx?$AAp?$AAr?$AAe?$AAs?$AAs?$AAi?$AAo?$AAn?$AA?3?$AA?5?$AA?$AA@ 1003de50     LIBCMT:wassert.obj
 0002:00003e70       ??_C@_1OA@EGMLFBHJ@?$AAF?$AAo?$AAr?$AA?5?$AAi?$AAn?$AAf?$AAo?$AAr?$AAm?$AAa?$AAt?$AAi?$AAo?$AAn?$AA?5?$AAo?$AAn?$AA?5?$AAh?$AAo?$AAw?$AA?5?$AAy?$AAo?$AAu?$AAr?$AA?5?$AAp?$AAr?$AAo?$AAg@ 1003de70     LIBCMT:wassert.obj
 0002:00003f50       ??_C@_1HK@POCJMFGK@?$AA?$CI?$AAP?$AAr?$AAe?$AAs?$AAs?$AA?5?$AAR?$AAe?$AAt?$AAr?$AAy?$AA?5?$AAt?$AAo?$AA?5?$AAd?$AAe?$AAb?$AAu?$AAg?$AA?5?$AAt?$AAh?$AAe?$AA?5?$AAa?$AAp?$AAp?$AAl?$AAi?$AAc@ 1003df50     LIBCMT:wassert.obj
 0002:00003fd0       ??_C@_1EK@MBDPDCGA@?$AAM?$AAi?$AAc?$AAr?$AAo?$AAs?$AAo?$AAf?$AAt?$AA?5?$AAV?$AAi?$AAs?$AAu?$AAa?$AAl?$AA?5?$AAC?$AA?$CL?$AA?$CL?$AA?5?$AAR?$AAu?$AAn?$AAt?$AAi?$AAm?$AAe?$AA?5?$AAL?$AAi?$AAb@ 1003dfd0     LIBCMT:wassert.obj
 0002:0000401c       __pRawDllMain              1003e01c     LIBCMT:dllcrt0.obj
 0002:0000401c       __pDefaultRawDllMain       1003e01c     LIBCMT:dllcrt0.obj
 0002:00004020       ?ProcessDetach@NativeDll@<CrtImplementationDetails>@@0IB 1003e020     LIBCMT:handler.obj
 0002:00004024       ?ProcessAttach@NativeDll@<CrtImplementationDetails>@@0IB 1003e024     LIBCMT:handler.obj
 0002:00004028       ?ThreadAttach@NativeDll@<CrtImplementationDetails>@@0IB 1003e028     LIBCMT:handler.obj
 0002:0000402c       ?ThreadDetach@NativeDll@<CrtImplementationDetails>@@0IB 1003e02c     LIBCMT:handler.obj
 0002:00004030       ?ProcessVerifier@NativeDll@<CrtImplementationDetails>@@0IB 1003e030     LIBCMT:handler.obj
 0002:000040f0       ??_C@_1FK@PGACCAFB@?$AAR?$AA6?$AA0?$AA0?$AA2?$AA?$AN?$AA?6?$AA?9?$AA?5?$AAf?$AAl?$AAo?$AAa?$AAt?$AAi?$AAn?$AAg?$AA?5?$AAp?$AAo?$AAi?$AAn?$AAt?$AA?5?$AAs?$AAu?$AAp?$AAp?$AAo?$AAr?$AAt?$AA?5@ 1003e0f0     LIBCMT:crt0msg.obj
 0002:00004150       ??_C@_1FE@LLNEDJMD@?$AAR?$AA6?$AA0?$AA0?$AA8?$AA?$AN?$AA?6?$AA?9?$AA?5?$AAn?$AAo?$AAt?$AA?5?$AAe?$AAn?$AAo?$AAu?$AAg?$AAh?$AA?5?$AAs?$AAp?$AAa?$AAc?$AAe?$AA?5?$AAf?$AAo?$AAr?$AA?5?$AAa?$AAr@ 1003e150     LIBCMT:crt0msg.obj
 0002:000041a8       ??_C@_1FI@HONFMGBI@?$AAR?$AA6?$AA0?$AA0?$AA9?$AA?$AN?$AA?6?$AA?9?$AA?5?$AAn?$AAo?$AAt?$AA?5?$AAe?$AAn?$AAo?$AAu?$AAg?$AAh?$AA?5?$AAs?$AAp?$AAa?$AAc?$AAe?$AA?5?$AAf?$AAo?$AAr?$AA?5?$AAe?$AAn@ 1003e1a8     LIBCMT:crt0msg.obj
 0002:00004200       ??_C@_1EG@BEHAGFJD@?$AAR?$AA6?$AA0?$AA1?$AA0?$AA?$AN?$AA?6?$AA?9?$AA?5?$AAa?$AAb?$AAo?$AAr?$AAt?$AA?$CI?$AA?$CJ?$AA?5?$AAh?$AAa?$AAs?$AA?5?$AAb?$AAe?$AAe?$AAn?$AA?5?$AAc?$AAa?$AAl?$AAl?$AAe?$AAd@ 1003e200     LIBCMT:crt0msg.obj
 0002:00004248       ??_C@_1FI@LOGNIKDM@?$AAR?$AA6?$AA0?$AA1?$AA6?$AA?$AN?$AA?6?$AA?9?$AA?5?$AAn?$AAo?$AAt?$AA?5?$AAe?$AAn?$AAo?$AAu?$AAg?$AAh?$AA?5?$AAs?$AAp?$AAa?$AAc?$AAe?$AA?5?$AAf?$AAo?$AAr?$AA?5?$AAt?$AAh@ 1003e248     LIBCMT:crt0msg.obj
 0002:000042a0       ??_C@_1FK@BEOGODMC@?$AAR?$AA6?$AA0?$AA1?$AA7?$AA?$AN?$AA?6?$AA?9?$AA?5?$AAu?$AAn?$AAe?$AAx?$AAp?$AAe?$AAc?$AAt?$AAe?$AAd?$AA?5?$AAm?$AAu?$AAl?$AAt?$AAi?$AAt?$AAh?$AAr?$AAe?$AAa?$AAd?$AA?5@ 1003e2a0     LIBCMT:crt0msg.obj
 0002:00004300       ??_C@_1EC@JIBHAOPH@?$AAR?$AA6?$AA0?$AA1?$AA8?$AA?$AN?$AA?6?$AA?9?$AA?5?$AAu?$AAn?$AAe?$AAx?$AAp?$AAe?$AAc?$AAt?$AAe?$AAd?$AA?5?$AAh?$AAe?$AAa?$AAp?$AA?5?$AAe?$AAr?$AAr?$AAo?$AAr?$AA?$AN?$AA?6@ 1003e300     LIBCMT:crt0msg.obj
 0002:00004348       ??_C@_1FC@ECHBIFBC@?$AAR?$AA6?$AA0?$AA1?$AA9?$AA?$AN?$AA?6?$AA?9?$AA?5?$AAu?$AAn?$AAa?$AAb?$AAl?$AAe?$AA?5?$AAt?$AAo?$AA?5?$AAo?$AAp?$AAe?$AAn?$AA?5?$AAc?$AAo?$AAn?$AAs?$AAo?$AAl?$AAe?$AA?5@ 1003e348     LIBCMT:crt0msg.obj
 0002:000043a0       ??_C@_1GK@FHCKBEFA@?$AAR?$AA6?$AA0?$AA2?$AA4?$AA?$AN?$AA?6?$AA?9?$AA?5?$AAn?$AAo?$AAt?$AA?5?$AAe?$AAn?$AAo?$AAu?$AAg?$AAh?$AA?5?$AAs?$AAp?$AAa?$AAc?$AAe?$AA?5?$AAf?$AAo?$AAr?$AA?5?$AA_?$AAo@ 1003e3a0     LIBCMT:crt0msg.obj
 0002:00004410       ??_C@_1EM@MAADIHMB@?$AAR?$AA6?$AA0?$AA2?$AA5?$AA?$AN?$AA?6?$AA?9?$AA?5?$AAp?$AAu?$AAr?$AAe?$AA?5?$AAv?$AAi?$AAr?$AAt?$AAu?$AAa?$AAl?$AA?5?$AAf?$AAu?$AAn?$AAc?$AAt?$AAi?$AAo?$AAn?$AA?5?$AAc@ 1003e410     LIBCMT:crt0msg.obj
 0002:00004460       ??_C@_1GK@MCAAGJMO@?$AAR?$AA6?$AA0?$AA2?$AA6?$AA?$AN?$AA?6?$AA?9?$AA?5?$AAn?$AAo?$AAt?$AA?5?$AAe?$AAn?$AAo?$AAu?$AAg?$AAh?$AA?5?$AAs?$AAp?$AAa?$AAc?$AAe?$AA?5?$AAf?$AAo?$AAr?$AA?5?$AAs?$AAt@ 1003e460     LIBCMT:crt0msg.obj
 0002:000044d0       ??_C@_1GK@MFGOKLAG@?$AAR?$AA6?$AA0?$AA2?$AA7?$AA?$AN?$AA?6?$AA?9?$AA?5?$AAn?$AAo?$AAt?$AA?5?$AAe?$AAn?$AAo?$AAu?$AAg?$AAh?$AA?5?$AAs?$AAp?$AAa?$AAc?$AAe?$AA?5?$AAf?$AAo?$AAr?$AA?5?$AAl?$AAo@ 1003e4d0     LIBCMT:crt0msg.obj
 0002:00004540       ??_C@_1EK@HHFLMAOL@?$AAR?$AA6?$AA0?$AA2?$AA8?$AA?$AN?$AA?6?$AA?9?$AA?5?$AAu?$AAn?$AAa?$AAb?$AAl?$AAe?$AA?5?$AAt?$AAo?$AA?5?$AAi?$AAn?$AAi?$AAt?$AAi?$AAa?$AAl?$AAi?$AAz?$AAe?$AA?5?$AAh?$AAe@ 1003e540     LIBCMT:crt0msg.obj
 0002:0000458c       ??_C@_1DO@BMFCDCD@?$AAR?$AA6?$AA0?$AA3?$AA0?$AA?$AN?$AA?6?$AA?9?$AA?5?$AAC?$AAR?$AAT?$AA?5?$AAn?$AAo?$AAt?$AA?5?$AAi?$AAn?$AAi?$AAt?$AAi?$AAa?$AAl?$AAi?$AAz?$AAe?$AAd?$AA?$AN?$AA?6?$AA?$AA@ 1003e58c     LIBCMT:crt0msg.obj
 0002:000045d0       ??_C@_1MG@ENCOOIDF@?$AAR?$AA6?$AA0?$AA3?$AA1?$AA?$AN?$AA?6?$AA?9?$AA?5?$AAA?$AAt?$AAt?$AAe?$AAm?$AAp?$AAt?$AA?5?$AAt?$AAo?$AA?5?$AAi?$AAn?$AAi?$AAt?$AAi?$AAa?$AAl?$AAi?$AAz?$AAe?$AA?5?$AAt@ 1003e5d0     LIBCMT:crt0msg.obj
 0002:00004698       ??_C@_1GG@GOPILAJP@?$AAR?$AA6?$AA0?$AA3?$AA2?$AA?$AN?$AA?6?$AA?9?$AA?5?$AAn?$AAo?$AAt?$AA?5?$AAe?$AAn?$AAo?$AAu?$AAg?$AAh?$AA?5?$AAs?$AAp?$AAa?$AAc?$AAe?$AA?5?$AAf?$AAo?$AAr?$AA?5?$AAl?$AAo@ 1003e698     LIBCMT:crt0msg.obj
 0002:00004700       ??_C@_1BOO@KGEDBGAJ@?$AAR?$AA6?$AA0?$AA3?$AA3?$AA?$AN?$AA?6?$AA?9?$AA?5?$AAA?$AAt?$AAt?$AAe?$AAm?$AAp?$AAt?$AA?5?$AAt?$AAo?$AA?5?$AAu?$AAs?$AAe?$AA?5?$AAM?$AAS?$AAI?$AAL?$AA?5?$AAc?$AAo?$AAd@ 1003e700     LIBCMT:crt0msg.obj
 0002:000048f0       ??_C@_1GG@MKFPEKFO@?$AAR?$AA6?$AA0?$AA3?$AA4?$AA?$AN?$AA?6?$AA?9?$AA?5?$AAi?$AAn?$AAc?$AAo?$AAn?$AAs?$AAi?$AAs?$AAt?$AAe?$AAn?$AAt?$AA?5?$AAo?$AAn?$AAe?$AAx?$AAi?$AAt?$AA?5?$AAb?$AAe?$AAg@ 1003e8f0     LIBCMT:crt0msg.obj
 0002:00004958       ??_C@_1BO@BFCDCGC@?$AAD?$AAO?$AAM?$AAA?$AAI?$AAN?$AA?5?$AAe?$AAr?$AAr?$AAo?$AAr?$AA?$AN?$AA?6?$AA?$AA@ 1003e958     LIBCMT:crt0msg.obj
 0002:00004978       ??_C@_1BK@KMOMNAAI@?$AAS?$AAI?$AAN?$AAG?$AA?5?$AAe?$AAr?$AAr?$AAo?$AAr?$AA?$AN?$AA?6?$AA?$AA@ 1003e978     LIBCMT:crt0msg.obj
 0002:00004994       ??_C@_1BM@JBBEPPHI@?$AAT?$AAL?$AAO?$AAS?$AAS?$AA?5?$AAe?$AAr?$AAr?$AAo?$AAr?$AA?$AN?$AA?6?$AA?$AA@ 1003e994     LIBCMT:crt0msg.obj
 0002:000049b0       ??_C@_15JNBOKNOG@?$AA?$AN?$AA?6?$AA?$AA@ 1003e9b0     LIBCMT:crt0msg.obj
 0002:000049b8       ??_C@_1BO@BKOMIGKJ@?$AAr?$AAu?$AAn?$AAt?$AAi?$AAm?$AAe?$AA?5?$AAe?$AAr?$AAr?$AAo?$AAr?$AA?5?$AA?$AA@ 1003e9b8     LIBCMT:crt0msg.obj
 0002:000049d8       ??_C@_1DE@JNGNBFGO@?$AAR?$AAu?$AAn?$AAt?$AAi?$AAm?$AAe?$AA?5?$AAE?$AAr?$AAr?$AAo?$AAr?$AA?$CB?$AA?6?$AA?6?$AAP?$AAr?$AAo?$AAg?$AAr?$AAa?$AAm?$AA?3?$AA?5?$AA?$AA@ 1003e9d8     LIBCMT:crt0msg.obj
 0002:00004a0c       ??_C@_05KLBDPFGC@e?$CL000?$AA@ 1003ea0c     LIBCMT:cvt.obj
 0002:00004a14       ??_C@_1BK@MGMFAEKH@?$AAk?$AAe?$AAr?$AAn?$AAe?$AAl?$AA3?$AA2?$AA?4?$AAd?$AAl?$AAl?$AA?$AA@ 1003ea14     LIBCMT:winapisupp.obj
 0002:00004a30       ??_C@_08KNHFBNJ@FlsAlloc?$AA@ 1003ea30     LIBCMT:winapisupp.obj
 0002:00004a3c       ??_C@_07PEJMOBNF@FlsFree?$AA@ 1003ea3c     LIBCMT:winapisupp.obj
 0002:00004a44       ??_C@_0M@GDNOONDI@FlsGetValue?$AA@ 1003ea44     LIBCMT:winapisupp.obj
 0002:00004a50       ??_C@_0M@JCPCPOEF@FlsSetValue?$AA@ 1003ea50     LIBCMT:winapisupp.obj
 0002:00004a5c       ??_C@_0BM@HCFOFFN@InitializeCriticalSectionEx?$AA@ 1003ea5c     LIBCMT:winapisupp.obj
 0002:00004a78       ??_C@_0P@DLHPPCNH@CreateEventExW?$AA@ 1003ea78     LIBCMT:winapisupp.obj
 0002:00004a88       ??_C@_0BD@KIEEOEEH@CreateSemaphoreExW?$AA@ 1003ea88     LIBCMT:winapisupp.obj
 0002:00004a9c       ??_C@_0BI@BKLFFAPO@SetThreadStackGuarantee?$AA@ 1003ea9c     LIBCMT:winapisupp.obj
 0002:00004ab4       ??_C@_0BG@OGFAJCKC@CreateThreadpoolTimer?$AA@ 1003eab4     LIBCMT:winapisupp.obj
 0002:00004acc       ??_C@_0BD@LPLEMMDI@SetThreadpoolTimer?$AA@ 1003eacc     LIBCMT:winapisupp.obj
 0002:00004ae0       ??_C@_0CA@FMNJENH@WaitForThreadpoolTimerCallbacks?$AA@ 1003eae0     LIBCMT:winapisupp.obj
 0002:00004b00       ??_C@_0BF@DCFCCNOC@CloseThreadpoolTimer?$AA@ 1003eb00     LIBCMT:winapisupp.obj
 0002:00004b18       ??_C@_0BF@FLABGKKM@CreateThreadpoolWait?$AA@ 1003eb18     LIBCMT:winapisupp.obj
 0002:00004b30       ??_C@_0BC@MGCOHNA@SetThreadpoolWait?$AA@ 1003eb30     LIBCMT:winapisupp.obj
 0002:00004b44       ??_C@_0BE@OCIOMIMP@CloseThreadpoolWait?$AA@ 1003eb44     LIBCMT:winapisupp.obj
 0002:00004b58       ??_C@_0BJ@LKGHFHBO@FlushProcessWriteBuffers?$AA@ 1003eb58     LIBCMT:winapisupp.obj
 0002:00004b74       ??_C@_0BP@KALKKPMO@FreeLibraryWhenCallbackReturns?$AA@ 1003eb74     LIBCMT:winapisupp.obj
 0002:00004b94       ??_C@_0BK@DFNBACLA@GetCurrentProcessorNumber?$AA@ 1003eb94     LIBCMT:winapisupp.obj
 0002:00004bb0       ??_C@_0BP@KHGALBC@GetLogicalProcessorInformation?$AA@ 1003ebb0     LIBCMT:winapisupp.obj
 0002:00004bd0       ??_C@_0BE@FKKLLFLM@CreateSymbolicLinkW?$AA@ 1003ebd0     LIBCMT:winapisupp.obj
 0002:00004be4       ??_C@_0BJ@OHNKDLIJ@SetDefaultDllDirectories?$AA@ 1003ebe4     LIBCMT:winapisupp.obj
 0002:00004c00       ??_C@_0BE@LJANKFHF@EnumSystemLocalesEx?$AA@ 1003ec00     LIBCMT:winapisupp.obj
 0002:00004c14       ??_C@_0BA@IHGNDAEB@CompareStringEx?$AA@ 1003ec14     LIBCMT:winapisupp.obj
 0002:00004c24       ??_C@_0BA@EPCJIIPD@GetDateFormatEx?$AA@ 1003ec24     LIBCMT:winapisupp.obj
 0002:00004c34       ??_C@_0BA@ONOKGCMP@GetLocaleInfoEx?$AA@ 1003ec34     LIBCMT:winapisupp.obj
 0002:00004c44       ??_C@_0BA@CIJJKCJJ@GetTimeFormatEx?$AA@ 1003ec44     LIBCMT:winapisupp.obj
 0002:00004c54       ??_C@_0BJ@PBCCBIPI@GetUserDefaultLocaleName?$AA@ 1003ec54     LIBCMT:winapisupp.obj
 0002:00004c70       ??_C@_0BC@CELBKLLA@IsValidLocaleName?$AA@ 1003ec70     LIBCMT:winapisupp.obj
 0002:00004c84       ??_C@_0O@KKBNKAPF@LCMapStringEx?$AA@ 1003ec84     LIBCMT:winapisupp.obj
 0002:00004c94       ??_C@_0BE@JOGNEJCI@GetCurrentPackageId?$AA@ 1003ec94     LIBCMT:winapisupp.obj
 0002:00004ca8       ??_C@_0P@CDHHOHKP@GetTickCount64?$AA@ 1003eca8     LIBCMT:winapisupp.obj
 0002:00004cb8       ??_C@_0BO@KPCLFDJJ@GetFileInformationByHandleExW?$AA@ 1003ecb8     LIBCMT:winapisupp.obj
 0002:00004cd8       ??_C@_0BM@MHIDLABK@SetFileInformationByHandleW?$AA@ 1003ecd8     LIBCMT:winapisupp.obj
 0002:00004cf4       ??_C@_1BK@GAEMIDIL@?$AAA?$AAD?$AAV?$AAA?$AAP?$AAI?$AA3?$AA2?$AA?4?$AAD?$AAL?$AAL?$AA?$AA@ 1003ecf4     LIBCMT:rand_s.obj
 0002:00004d10       ??_C@_0BC@JEAENNKH@SystemFunction036?$AA@ 1003ed10     LIBCMT:rand_s.obj
 0002:00004d34       ??_C@_1M@HPNHIDJI@?$AAj?$AAa?$AA?9?$AAJ?$AAP?$AA?$AA@ 1003ed34     LIBCMT:mbctype.obj
 0002:00004d40       ??_C@_1M@BIBDDEMK@?$AAz?$AAh?$AA?9?$AAC?$AAN?$AA?$AA@ 1003ed40     LIBCMT:mbctype.obj
 0002:00004d4c       ??_C@_1M@JLOOOEGK@?$AAk?$AAo?$AA?9?$AAK?$AAR?$AA?$AA@ 1003ed4c     LIBCMT:mbctype.obj
 0002:00004d58       ??_C@_1M@CLNBBOPM@?$AAz?$AAh?$AA?9?$AAT?$AAW?$AA?$AA@ 1003ed58     LIBCMT:mbctype.obj
 0002:00004d84       ??_C@_06OJHGLDPL@?$CInull?$CJ?$AA@ 1003ed84     LIBCMT:output.obj
 0002:00004d8c       ??_C@_1O@CEDCILHN@?$AA?$CI?$AAn?$AAu?$AAl?$AAl?$AA?$CJ?$AA?$AA@ 1003ed8c     LIBCMT:output.obj
 0002:00004da0       ___lookuptable             1003eda0     LIBCMT:output.obj
 0002:00004dfc       ??_C@_04FJHINJAO@tanh?$AA@ 1003edfc     LIBCMT:fpexcept.obj
 0002:00004e04       ??_C@_04FIHNOPOL@asin?$AA@ 1003ee04     LIBCMT:fpexcept.obj
 0002:00004e0c       ??_C@_04PDIFKINK@acos?$AA@ 1003ee0c     LIBCMT:fpexcept.obj
 0002:00004e14       ??_C@_04MLLJIGOK@atan?$AA@ 1003ee14     LIBCMT:fpexcept.obj
 0002:00004e1c       ??_C@_05KNGEOGJB@atan2?$AA@ 1003ee1c     LIBCMT:fpexcept.obj
 0002:00004e24       ??_C@_04EIAKFFMI@sqrt?$AA@ 1003ee24     LIBCMT:fpexcept.obj
 0002:00004e2c       ??_C@_03BLEJJJBH@sin?$AA@  1003ee2c     LIBCMT:fpexcept.obj
 0002:00004e30       ??_C@_03LALBNOCG@cos?$AA@  1003ee30     LIBCMT:fpexcept.obj
 0002:00004e34       ??_C@_03IIINPABG@tan?$AA@  1003ee34     LIBCMT:fpexcept.obj
 0002:00004e38       ??_C@_04GFPJNGEK@ceil?$AA@ 1003ee38     LIBCMT:fpexcept.obj
 0002:00004e40       ??_C@_05PBJFFIGL@floor?$AA@ 1003ee40     LIBCMT:fpexcept.obj
 0002:00004e48       ??_C@_04ODHECPBC@fabs?$AA@ 1003ee48     LIBCMT:fpexcept.obj
 0002:00004e50       ??_C@_04EHEDPDJG@modf?$AA@ 1003ee50     LIBCMT:fpexcept.obj
 0002:00004e58       ??_C@_05CEJMAHNP@ldexp?$AA@ 1003ee58     LIBCMT:fpexcept.obj
 0002:00004e60       ??_C@_05KBKMEMPO@_cabs?$AA@ 1003ee60     LIBCMT:fpexcept.obj
 0002:00004e68       ??_C@_06MEIMCGCF@_hypot?$AA@ 1003ee68     LIBCMT:fpexcept.obj
 0002:00004e70       ??_C@_04KEPJIHGP@fmod?$AA@ 1003ee70     LIBCMT:fpexcept.obj
 0002:00004e78       ??_C@_05GKKHEGJL@frexp?$AA@ 1003ee78     LIBCMT:fpexcept.obj
 0002:00004e80       ??_C@_03MJLDFKDL@_y0?$AA@  1003ee80     LIBCMT:fpexcept.obj
 0002:00004e84       ??_C@_03NAKIGLHK@_y1?$AA@  1003ee84     LIBCMT:fpexcept.obj
 0002:00004e88       ??_C@_03ONILCKOB@_yn?$AA@  1003ee88     LIBCMT:fpexcept.obj
 0002:00004e8c       ??_C@_05JGDBENOH@_logb?$AA@ 1003ee8c     LIBCMT:fpexcept.obj
 0002:00004e94       ??_C@_0L@KDOEJCKC@_nextafter?$AA@ 1003ee94     LIBCMT:fpexcept.obj
 0002:00004ea0       ??_C@_03KHJOGHMM@exp?$AA@  1003eea0     LIBCMT:fpexcept.obj
 0002:00004ea4       ??_C@_03JGHBODFD@pow?$AA@  1003eea4     LIBCMT:fpexcept.obj
 0002:00004ea8       ??_C@_03MGHMBJCF@log?$AA@  1003eea8     LIBCMT:fpexcept.obj
 0002:00004eac       ??_C@_05HGHHAHAP@log10?$AA@ 1003eeac     LIBCMT:fpexcept.obj
 0002:00004eb4       ??_C@_04COOMCNPB@sinh?$AA@ 1003eeb4     LIBCMT:fpexcept.obj
 0002:00004ebc       ??_C@_04HPJJNFIM@cosh?$AA@ 1003eebc     LIBCMT:fpexcept.obj
 0002:00004ec4       ??_C@_1BG@GOEBHBDC@?$AAU?$AAS?$AAE?$AAR?$AA3?$AA2?$AA?4?$AAD?$AAL?$AAL?$AA?$AA@ 1003eec4     LIBCMT:crtmboxw.obj
 0002:00004edc       ??_C@_0M@DLDCCGNP@MessageBoxW?$AA@ 1003eedc     LIBCMT:crtmboxw.obj
 0002:00004ee8       ??_C@_0BA@HNOPNCHB@GetActiveWindow?$AA@ 1003eee8     LIBCMT:crtmboxw.obj
 0002:00004ef8       ??_C@_0BD@HHGDFDBJ@GetLastActivePopup?$AA@ 1003eef8     LIBCMT:crtmboxw.obj
 0002:00004f0c       ??_C@_0BK@DEKFELLI@GetUserObjectInformationW?$AA@ 1003ef0c     LIBCMT:crtmboxw.obj
 0002:00004f28       ??_C@_0BI@DFKBFLJE@GetProcessWindowStation?$AA@ 1003ef28     LIBCMT:crtmboxw.obj
 0002:00004f40       __XcptActTab               1003ef40     LIBCMT:winxfltr.obj
 0002:00004fd0       __XcptActTabCount          1003efd0     LIBCMT:winxfltr.obj
 0002:00004fd4       __XcptActTabSize           1003efd4     LIBCMT:winxfltr.obj
 0002:00004fd8       __First_FPE_Indx           1003efd8     LIBCMT:winxfltr.obj
 0002:00004fdc       __Num_FPE                  1003efdc     LIBCMT:winxfltr.obj
 0002:00004fe0       ??_C@_03KOEHGMDN@Sun?$AA@  1003efe0     LIBCMT:nlsdata.obj
 0002:00004fe4       ??_C@_03PDAGKDH@Mon?$AA@   1003efe4     LIBCMT:nlsdata.obj
 0002:00004fe8       ??_C@_03NAGEINEP@Tue?$AA@  1003efe8     LIBCMT:nlsdata.obj
 0002:00004fec       ??_C@_03MHOMLAJA@Wed?$AA@  1003efec     LIBCMT:nlsdata.obj
 0002:00004ff0       ??_C@_03IOFIKPDN@Thu?$AA@  1003eff0     LIBCMT:nlsdata.obj
 0002:00004ff4       ??_C@_03IDIOELNC@Fri?$AA@  1003eff4     LIBCMT:nlsdata.obj
 0002:00004ff8       ??_C@_03FEFJNEK@Sat?$AA@   1003eff8     LIBCMT:nlsdata.obj
 0002:00004ffc       ??_C@_06OOPIFAJ@Sunday?$AA@ 1003effc     LIBCMT:nlsdata.obj
 0002:00005004       ??_C@_06JLEDEDGH@Monday?$AA@ 1003f004     LIBCMT:nlsdata.obj
 0002:0000500c       ??_C@_07BAAGCFCM@Tuesday?$AA@ 1003f00c     LIBCMT:nlsdata.obj
 0002:00005014       ??_C@_09DLIGFAKA@Wednesday?$AA@ 1003f014     LIBCMT:nlsdata.obj
 0002:00005020       ??_C@_08HACCIKIA@Thursday?$AA@ 1003f020     LIBCMT:nlsdata.obj
 0002:0000502c       ??_C@_06JECMNKMI@Friday?$AA@ 1003f02c     LIBCMT:nlsdata.obj
 0002:00005034       ??_C@_08INBOOONO@Saturday?$AA@ 1003f034     LIBCMT:nlsdata.obj
 0002:00005040       ??_C@_03JIHJHPIE@Jan?$AA@  1003f040     LIBCMT:nlsdata.obj
 0002:00005044       ??_C@_03HJBDCHOM@Feb?$AA@  1003f044     LIBCMT:nlsdata.obj
 0002:00005048       ??_C@_03ODNJBKGA@Mar?$AA@  1003f048     LIBCMT:nlsdata.obj
 0002:0000504c       ??_C@_03LEOLGMJP@Apr?$AA@  1003f04c     LIBCMT:nlsdata.obj
 0002:00005050       ??_C@_03CNMDKL@May?$AA@    1003f050     LIBCMT:nlsdata.obj
 0002:00005054       ??_C@_03IDFGHECI@Jun?$AA@  1003f054     LIBCMT:nlsdata.obj
 0002:00005058       ??_C@_03LBGABGKK@Jul?$AA@  1003f058     LIBCMT:nlsdata.obj
 0002:0000505c       ??_C@_03IFJFEIGA@Aug?$AA@  1003f05c     LIBCMT:nlsdata.obj
 0002:00005060       ??_C@_03GGCAPAJC@Sep?$AA@  1003f060     LIBCMT:nlsdata.obj
 0002:00005064       ??_C@_03BMAOKBAD@Oct?$AA@  1003f064     LIBCMT:nlsdata.obj
 0002:00005068       ??_C@_03JPJOFNIA@Nov?$AA@  1003f068     LIBCMT:nlsdata.obj
 0002:0000506c       ??_C@_03MKABNOCG@Dec?$AA@  1003f06c     LIBCMT:nlsdata.obj
 0002:00005070       ??_C@_07CGJPFGJA@January?$AA@ 1003f070     LIBCMT:nlsdata.obj
 0002:00005078       ??_C@_08GNJGEPFN@February?$AA@ 1003f078     LIBCMT:nlsdata.obj
 0002:00005084       ??_C@_05HPCKOFNC@March?$AA@ 1003f084     LIBCMT:nlsdata.obj
 0002:0000508c       ??_C@_05DMJDNLEJ@April?$AA@ 1003f08c     LIBCMT:nlsdata.obj
 0002:00005094       ??_C@_04CNLMGBGM@June?$AA@ 1003f094     LIBCMT:nlsdata.obj
 0002:0000509c       ??_C@_04MIEPOIFP@July?$AA@ 1003f09c     LIBCMT:nlsdata.obj
 0002:000050a4       ??_C@_06LBBHFDDG@August?$AA@ 1003f0a4     LIBCMT:nlsdata.obj
 0002:000050ac       ??_C@_09BHHEALKD@September?$AA@ 1003f0ac     LIBCMT:nlsdata.obj
 0002:000050b8       ??_C@_07JJNFCEND@October?$AA@ 1003f0b8     LIBCMT:nlsdata.obj
 0002:000050c0       ??_C@_08HCHEGEOA@November?$AA@ 1003f0c0     LIBCMT:nlsdata.obj
 0002:000050cc       ??_C@_08EDHMEBNP@December?$AA@ 1003f0cc     LIBCMT:nlsdata.obj
 0002:000050d8       ??_C@_02DEDBPAFC@AM?$AA@   1003f0d8     LIBCMT:nlsdata.obj
 0002:000050dc       ??_C@_02CJNFDJBF@PM?$AA@   1003f0dc     LIBCMT:nlsdata.obj
 0002:000050e0       ??_C@_08BPBNCDIB@MM?1dd?1yy?$AA@ 1003f0e0     LIBCMT:nlsdata.obj
 0002:000050ec       ??_C@_0BE@CKGJFCPC@dddd?0?5MMMM?5dd?0?5yyyy?$AA@ 1003f0ec     LIBCMT:nlsdata.obj
 0002:00005100       ??_C@_08JCCMCCIL@HH?3mm?3ss?$AA@ 1003f100     LIBCMT:nlsdata.obj
 0002:0000510c       ??_C@_17MBGCMIPB@?$AAS?$AAu?$AAn?$AA?$AA@ 1003f10c     LIBCMT:nlsdata.obj
 0002:00005114       ??_C@_17KBOMKBF@?$AAM?$AAo?$AAn?$AA?$AA@ 1003f114     LIBCMT:nlsdata.obj
 0002:0000511c       ??_C@_17BMKGEGOJ@?$AAT?$AAu?$AAe?$AA?$AA@ 1003f11c     LIBCMT:nlsdata.obj
 0002:00005124       ??_C@_17CJEDCEPE@?$AAW?$AAe?$AAd?$AA?$AA@ 1003f124     LIBCMT:nlsdata.obj
 0002:0000512c       ??_C@_17PDPHAADD@?$AAT?$AAh?$AAu?$AA?$AA@ 1003f12c     LIBCMT:nlsdata.obj
 0002:00005134       ??_C@_17HFOLPPLP@?$AAF?$AAr?$AAi?$AA?$AA@ 1003f134     LIBCMT:nlsdata.obj
 0002:0000513c       ??_C@_17GGIBDPIH@?$AAS?$AAa?$AAt?$AA?$AA@ 1003f13c     LIBCMT:nlsdata.obj
 0002:00005144       ??_C@_1O@IHNHDHPB@?$AAS?$AAu?$AAn?$AAd?$AAa?$AAy?$AA?$AA@ 1003f144     LIBCMT:nlsdata.obj
 0002:00005154       ??_C@_1O@MMNBFLIA@?$AAM?$AAo?$AAn?$AAd?$AAa?$AAy?$AA?$AA@ 1003f154     LIBCMT:nlsdata.obj
 0002:00005164       ??_C@_1BA@ENFBFFEK@?$AAT?$AAu?$AAe?$AAs?$AAd?$AAa?$AAy?$AA?$AA@ 1003f164     LIBCMT:nlsdata.obj
 0002:00005174       ??_C@_1BE@EBOGMDOH@?$AAW?$AAe?$AAd?$AAn?$AAe?$AAs?$AAd?$AAa?$AAy?$AA?$AA@ 1003f174     LIBCMT:nlsdata.obj
 0002:00005188       ??_C@_1BC@HHMNLIHE@?$AAT?$AAh?$AAu?$AAr?$AAs?$AAd?$AAa?$AAy?$AA?$AA@ 1003f188     LIBCMT:nlsdata.obj
 0002:0000519c       ??_C@_1O@PDICJHAG@?$AAF?$AAr?$AAi?$AAd?$AAa?$AAy?$AA?$AA@ 1003f19c     LIBCMT:nlsdata.obj
 0002:000051ac       ??_C@_1BC@ENMNNPAJ@?$AAS?$AAa?$AAt?$AAu?$AAr?$AAd?$AAa?$AAy?$AA?$AA@ 1003f1ac     LIBCMT:nlsdata.obj
 0002:000051c0       ??_C@_17DKNBKCHM@?$AAJ?$AAa?$AAn?$AA?$AA@ 1003f1c0     LIBCMT:nlsdata.obj
 0002:000051c8       ??_C@_17LMDJEKJN@?$AAF?$AAe?$AAb?$AA?$AA@ 1003f1c8     LIBCMT:nlsdata.obj
 0002:000051d0       ??_C@_17CKNLEDEC@?$AAM?$AAa?$AAr?$AA?$AA@ 1003f1d0     LIBCMT:nlsdata.obj
 0002:000051d8       ??_C@_17LFPOIHDD@?$AAA?$AAp?$AAr?$AA?$AA@ 1003f1d8     LIBCMT:nlsdata.obj
 0002:000051e0       ??_C@_17PNNKMEED@?$AAM?$AAa?$AAy?$AA?$AA@ 1003f1e0     LIBCMT:nlsdata.obj
 0002:000051e8       ??_C@_17KCJGOCPB@?$AAJ?$AAu?$AAn?$AA?$AA@ 1003f1e8     LIBCMT:nlsdata.obj
 0002:000051f0       ??_C@_17IJPCKHK@?$AAJ?$AAu?$AAl?$AA?$AA@ 1003f1f0     LIBCMT:nlsdata.obj
 0002:000051f8       ??_C@_17ICPELBCN@?$AAA?$AAu?$AAg?$AA?$AA@ 1003f1f8     LIBCMT:nlsdata.obj
 0002:00005200       ??_C@_17HCHCOKMG@?$AAS?$AAe?$AAp?$AA?$AA@ 1003f200     LIBCMT:nlsdata.obj
 0002:00005208       ??_C@_17FNLKOI@?$AAO?$AAc?$AAt?$AA?$AA@ 1003f208     LIBCMT:nlsdata.obj
 0002:00005210       ??_C@_17BBDMLCIG@?$AAN?$AAo?$AAv?$AA?$AA@ 1003f210     LIBCMT:nlsdata.obj
 0002:00005218       ??_C@_17EGKACKIF@?$AAD?$AAe?$AAc?$AA?$AA@ 1003f218     LIBCMT:nlsdata.obj
 0002:00005220       ??_C@_1BA@EFMEIEBA@?$AAJ?$AAa?$AAn?$AAu?$AAa?$AAr?$AAy?$AA?$AA@ 1003f220     LIBCMT:nlsdata.obj
 0002:00005230       ??_C@_1BC@JGDDFFAM@?$AAF?$AAe?$AAb?$AAr?$AAu?$AAa?$AAr?$AAy?$AA?$AA@ 1003f230     LIBCMT:nlsdata.obj
 0002:00005244       ??_C@_1M@IKEENEDF@?$AAM?$AAa?$AAr?$AAc?$AAh?$AA?$AA@ 1003f244     LIBCMT:nlsdata.obj
 0002:00005250       ??_C@_1M@GJNLMHFD@?$AAA?$AAp?$AAr?$AAi?$AAl?$AA?$AA@ 1003f250     LIBCMT:nlsdata.obj
 0002:0000525c       ??_C@_19EPFLPGAP@?$AAJ?$AAu?$AAn?$AAe?$AA?$AA@ 1003f25c     LIBCMT:nlsdata.obj
 0002:00005268       ??_C@_19BIFMLPCD@?$AAJ?$AAu?$AAl?$AAy?$AA?$AA@ 1003f268     LIBCMT:nlsdata.obj
 0002:00005274       ??_C@_1O@PAHLKOAC@?$AAA?$AAu?$AAg?$AAu?$AAs?$AAt?$AA?$AA@ 1003f274     LIBCMT:nlsdata.obj
 0002:00005284       ??_C@_1BE@DKAAMBJL@?$AAS?$AAe?$AAp?$AAt?$AAe?$AAm?$AAb?$AAe?$AAr?$AA?$AA@ 1003f284     LIBCMT:nlsdata.obj
 0002:00005298       ??_C@_1BA@EPANDLNG@?$AAO?$AAc?$AAt?$AAo?$AAb?$AAe?$AAr?$AA?$AA@ 1003f298     LIBCMT:nlsdata.obj
 0002:000052a8       ??_C@_1BC@BGLIFPF@?$AAN?$AAo?$AAv?$AAe?$AAm?$AAb?$AAe?$AAr?$AA?$AA@ 1003f2a8     LIBCMT:nlsdata.obj
 0002:000052bc       ??_C@_1BC@FEMKIFH@?$AAD?$AAe?$AAc?$AAe?$AAm?$AAb?$AAe?$AAr?$AA?$AA@ 1003f2bc     LIBCMT:nlsdata.obj
 0002:000052d0       ??_C@_15ODEHAHHF@?$AAA?$AAM?$AA?$AA@ 1003f2d0     LIBCMT:nlsdata.obj
 0002:000052d8       ??_C@_15CLMNNGEL@?$AAP?$AAM?$AA?$AA@ 1003f2d8     LIBCMT:nlsdata.obj
 0002:000052e0       ??_C@_1BC@IEBCMHCM@?$AAM?$AAM?$AA?1?$AAd?$AAd?$AA?1?$AAy?$AAy?$AA?$AA@ 1003f2e0     LIBCMT:nlsdata.obj
 0002:000052f4       ??_C@_1CI@KNAKOEBC@?$AAd?$AAd?$AAd?$AAd?$AA?0?$AA?5?$AAM?$AAM?$AAM?$AAM?$AA?5?$AAd?$AAd?$AA?0?$AA?5?$AAy?$AAy?$AAy?$AAy?$AA?$AA@ 1003f2f4     LIBCMT:nlsdata.obj
 0002:0000531c       ??_C@_1BC@GDGBMEMK@?$AAH?$AAH?$AA?3?$AAm?$AAm?$AA?3?$AAs?$AAs?$AA?$AA@ 1003f31c     LIBCMT:nlsdata.obj
 0002:00005330       ??_C@_1M@BMHNFIME@?$AAe?$AAn?$AA?9?$AAU?$AAS?$AA?$AA@ 1003f330     LIBCMT:nlsdata.obj
 0002:00005340       _LcidToLocaleNameTable     1003f340     LIBCMT:winapinls.obj
 0002:00005a60       _LocaleNameToIndexTable    1003fa60     LIBCMT:winapinls.obj
 0002:00006180       ??_C@_15EMKDOKLE@?$AAa?$AAr?$AA?$AA@ 10040180     LIBCMT:winapinls.obj
 0002:00006188       ??_C@_15KNPADPLH@?$AAb?$AAg?$AA?$AA@ 10040188     LIBCMT:winapinls.obj
 0002:00006190       ??_C@_15EDMHLDMO@?$AAc?$AAa?$AA?$AA@ 10040190     LIBCMT:winapinls.obj
 0002:00006198       ??_C@_1O@BPEAJADD@?$AAz?$AAh?$AA?9?$AAC?$AAH?$AAS?$AA?$AA@ 10040198     LIBCMT:winapinls.obj
 0002:000061a8       ??_C@_15LJNHCMNK@?$AAc?$AAs?$AA?$AA@ 100401a8     LIBCMT:winapinls.obj
 0002:000061b0       ??_C@_15FOMCIDHG@?$AAd?$AAa?$AA?$AA@ 100401b0     LIBCMT:winapinls.obj
 0002:000061b8       ??_C@_15NBKABECB@?$AAd?$AAe?$AA?$AA@ 100401b8     LIBCMT:winapinls.obj
 0002:000061c0       ??_C@_15GHPEIIAO@?$AAe?$AAl?$AA?$AA@ 100401c0     LIBCMT:winapinls.obj
 0002:000061c8       ??_C@_15MNPNEAIF@?$AAe?$AAn?$AA?$AA@ 100401c8     LIBCMT:winapinls.obj
 0002:000061d0       ??_C@_15GPIOMPMH@?$AAe?$AAs?$AA?$AA@ 100401d0     LIBCMT:winapinls.obj
 0002:000061d8       ??_C@_15NGLOAKJC@?$AAf?$AAi?$AA?$AA@ 100401d8     LIBCMT:winapinls.obj
 0002:000061e0       ??_C@_15FBKGNKAM@?$AAf?$AAr?$AA?$AA@ 100401e0     LIBCMT:winapinls.obj
 0002:000061e8       ??_C@_15KGGCNEFK@?$AAh?$AAe?$AA?$AA@ 100401e8     LIBCMT:winapinls.obj
 0002:000061f0       ??_C@_15PGHLIDMF@?$AAh?$AAu?$AA?$AA@ 100401f0     LIBCMT:winapinls.obj
 0002:000061f8       ??_C@_15BIEMAPLM@?$AAi?$AAs?$AA?$AA@ 100401f8     LIBCMT:winapinls.obj
 0002:00006200       ??_C@_15IFJLDHAF@?$AAi?$AAt?$AA?$AA@ 10040200     LIBCMT:winapinls.obj
 0002:00006208       ??_C@_15GEMIOCAG@?$AAj?$AAa?$AA?$AA@ 10040208     LIBCMT:winapinls.obj
 0002:00006210       ??_C@_15EPELEGJA@?$AAk?$AAo?$AA?$AA@ 10040210     LIBCMT:winapinls.obj
 0002:00006218       ??_C@_15NDDHIMN@?$AAn?$AAl?$AA?$AA@ 10040218     LIBCMT:winapinls.obj
 0002:00006220       ??_C@_15BPIGNHCD@?$AAn?$AAo?$AA?$AA@ 10040220     LIBCMT:winapinls.obj
 0002:00006228       ??_C@_15DEOPBLCG@?$AAp?$AAl?$AA?$AA@ 10040228     LIBCMT:winapinls.obj
 0002:00006230       ??_C@_15KBECGEFG@?$AAp?$AAt?$AA?$AA@ 10040230     LIBCMT:winapinls.obj
 0002:00006238       ??_C@_15GLJCBFMD@?$AAr?$AAo?$AA?$AA@ 10040238     LIBCMT:winapinls.obj
 0002:00006240       ??_C@_15FEDGKCDI@?$AAr?$AAu?$AA?$AA@ 10040240     LIBCMT:winapinls.obj
 0002:00006248       ??_C@_15GLKMLLHM@?$AAh?$AAr?$AA?$AA@ 10040248     LIBCMT:winapinls.obj
 0002:00006250       ??_C@_15CPKMFBDB@?$AAs?$AAk?$AA?$AA@ 10040250     LIBCMT:winapinls.obj
 0002:00006258       ??_C@_15BAAIOGMK@?$AAs?$AAq?$AA?$AA@ 10040258     LIBCMT:winapinls.obj
 0002:00006260       ??_C@_15INNPNOHD@?$AAs?$AAv?$AA?$AA@ 10040260     LIBCMT:winapinls.obj
 0002:00006268       ??_C@_15CABMMOGH@?$AAt?$AAh?$AA?$AA@ 10040268     LIBCMT:winapinls.obj
 0002:00006270       ??_C@_15BPLIHJJM@?$AAt?$AAr?$AA?$AA@ 10040270     LIBCMT:winapinls.obj
 0002:00006278       ??_C@_15NEOEKKDJ@?$AAu?$AAr?$AA?$AA@ 10040278     LIBCMT:winapinls.obj
 0002:00006280       ??_C@_15NFICGAJK@?$AAi?$AAd?$AA?$AA@ 10040280     LIBCMT:winapinls.obj
 0002:00006288       ??_C@_15PJPFLCCM@?$AAu?$AAk?$AA?$AA@ 10040288     LIBCMT:winapinls.obj
 0002:00006290       ??_C@_15HPJPHDM@?$AAb?$AAe?$AA?$AA@ 10040290     LIBCMT:winapinls.obj
 0002:00006298       ??_C@_15LCHLGJII@?$AAs?$AAl?$AA?$AA@ 10040298     LIBCMT:winapinls.obj
 0002:000062a0       ??_C@_15PCFJPHHO@?$AAe?$AAt?$AA?$AA@ 100402a0     LIBCMT:winapinls.obj
 0002:000062a8       ??_C@_15HPFPGODN@?$AAl?$AAv?$AA?$AA@ 100402a8     LIBCMT:winapinls.obj
 0002:000062b0       ??_C@_15NFFGKGLG@?$AAl?$AAt?$AA?$AA@ 100402b0     LIBCMT:winapinls.obj
 0002:000062b8       ??_C@_15BDAKCCHN@?$AAf?$AAa?$AA?$AA@ 100402b8     LIBCMT:winapinls.obj
 0002:000062c0       ??_C@_15NFGIAIAJ@?$AAv?$AAi?$AA?$AA@ 100402c0     LIBCMT:winapinls.obj
 0002:000062c8       ??_C@_15LMKNDMHN@?$AAh?$AAy?$AA?$AA@ 100402c8     LIBCMT:winapinls.obj
 0002:000062d0       ??_C@_15IJBHMCFL@?$AAa?$AAz?$AA?$AA@ 100402d0     LIBCMT:winapinls.obj
 0002:000062d8       ??_C@_15EKOFJABL@?$AAe?$AAu?$AA?$AA@ 100402d8     LIBCMT:winapinls.obj
 0002:000062e0       ??_C@_15BGHADCNK@?$AAm?$AAk?$AA?$AA@ 100402e0     LIBCMT:winapinls.obj
 0002:000062e8       ??_C@_15JDNICKHM@?$AAa?$AAf?$AA?$AA@ 100402e8     LIBCMT:winapinls.obj
 0002:000062f0       ??_C@_15KPJEDBKD@?$AAk?$AAa?$AA?$AA@ 100402f0     LIBCMT:winapinls.obj
 0002:000062f8       ??_C@_15PDNFFFEO@?$AAf?$AAo?$AA?$AA@ 100402f8     LIBCMT:winapinls.obj
 0002:00006300       ??_C@_15OMLEGLOC@?$AAh?$AAi?$AA?$AA@ 10040300     LIBCMT:winapinls.obj
 0002:00006308       ??_C@_15IDNNENKK@?$AAm?$AAs?$AA?$AA@ 10040308     LIBCMT:winapinls.obj
 0002:00006310       ??_C@_15MACJNBMH@?$AAk?$AAk?$AA?$AA@ 10040310     LIBCMT:winapinls.obj
 0002:00006318       ??_C@_15DKDJEOND@?$AAk?$AAy?$AA?$AA@ 10040318     LIBCMT:winapinls.obj
 0002:00006320       ??_C@_15DFGDLJBG@?$AAs?$AAw?$AA?$AA@ 10040320     LIBCMT:winapinls.obj
 0002:00006328       ??_C@_15BBFAICNG@?$AAu?$AAz?$AA?$AA@ 10040328     LIBCMT:winapinls.obj
 0002:00006330       ??_C@_15DKNDCGEA@?$AAt?$AAt?$AA?$AA@ 10040330     LIBCMT:winapinls.obj
 0002:00006338       ??_C@_15MGIFMDPL@?$AAp?$AAa?$AA?$AA@ 10040338     LIBCMT:winapinls.obj
 0002:00006340       ??_C@_15HCNDBBA@?$AAg?$AAu?$AA?$AA@ 10040340     LIBCMT:winapinls.obj
 0002:00006348       ??_C@_15FNBEIBON@?$AAt?$AAa?$AA?$AA@ 10040348     LIBCMT:winapinls.obj
 0002:00006350       ??_C@_15NCHGBGLK@?$AAt?$AAe?$AA?$AA@ 10040350     LIBCMT:winapinls.obj
 0002:00006358       ??_C@_15PHPHCBPF@?$AAk?$AAn?$AA?$AA@ 10040358     LIBCMT:winapinls.obj
 0002:00006360       ??_C@_15DLGBCKMP@?$AAm?$AAr?$AA?$AA@ 10040360     LIBCMT:winapinls.obj
 0002:00006368       ??_C@_15EABBLBFF@?$AAs?$AAa?$AA?$AA@ 10040368     LIBCMT:winapinls.obj
 0002:00006370       ??_C@_15CBKOMCOI@?$AAm?$AAn?$AA?$AA@ 10040370     LIBCMT:winapinls.obj
 0002:00006378       ??_C@_15CKDMCJAF@?$AAg?$AAl?$AA?$AA@ 10040378     LIBCMT:winapinls.obj
 0002:00006380       ??_C@_17CNJFBPG@?$AAk?$AAo?$AAk?$AA?$AA@ 10040380     LIBCMT:winapinls.obj
 0002:00006388       ??_C@_17FFBJICPL@?$AAs?$AAy?$AAr?$AA?$AA@ 10040388     LIBCMT:winapinls.obj
 0002:00006390       ??_C@_17KPNDCPAF@?$AAd?$AAi?$AAv?$AA?$AA@ 10040390     LIBCMT:winapinls.obj
 0002:00006398       ??_C@_11LOCGONAA@?$AA?$AA@ 10040398     LIBCMT:winapinls.obj
 0002:0000639c       ??_C@_1M@OKAHONE@?$AAa?$AAr?$AA?9?$AAS?$AAA?$AA?$AA@ 1004039c     LIBCMT:winapinls.obj
 0002:000063a8       ??_C@_1M@FFFIGIGK@?$AAb?$AAg?$AA?9?$AAB?$AAG?$AA?$AA@ 100403a8     LIBCMT:winapinls.obj
 0002:000063b4       ??_C@_1M@BJNKEDC@?$AAc?$AAa?$AA?9?$AAE?$AAS?$AA?$AA@ 100403b4     LIBCMT:winapinls.obj
 0002:000063c0       ??_C@_1M@IJJHFJHA@?$AAc?$AAs?$AA?9?$AAC?$AAZ?$AA?$AA@ 100403c0     LIBCMT:winapinls.obj
 0002:000063cc       ??_C@_1M@CLPEOBGI@?$AAd?$AAa?$AA?9?$AAD?$AAK?$AA?$AA@ 100403cc     LIBCMT:winapinls.obj
 0002:000063d8       ??_C@_1M@MCMADGCB@?$AAd?$AAe?$AA?9?$AAD?$AAE?$AA?$AA@ 100403d8     LIBCMT:winapinls.obj
 0002:000063e4       ??_C@_1M@OOCKEMAM@?$AAe?$AAl?$AA?9?$AAG?$AAR?$AA?$AA@ 100403e4     LIBCMT:winapinls.obj
 0002:000063f0       ??_C@_1M@DDNJFGID@?$AAf?$AAi?$AA?9?$AAF?$AAI?$AA?$AA@ 100403f0     LIBCMT:winapinls.obj
 0002:000063fc       ??_C@_1M@GLIPPMAC@?$AAf?$AAr?$AA?9?$AAF?$AAR?$AA?$AA@ 100403fc     LIBCMT:winapinls.obj
 0002:00006408       ??_C@_1M@GFMCHPE@?$AAh?$AAe?$AA?9?$AAI?$AAL?$AA?$AA@ 10040408     LIBCMT:winapinls.obj
 0002:00006414       ??_C@_1M@MHLPGNKM@?$AAh?$AAu?$AA?9?$AAH?$AAU?$AA?$AA@ 10040414     LIBCMT:winapinls.obj
 0002:00006420       ??_C@_1M@LPDDNNPN@?$AAi?$AAs?$AA?9?$AAI?$AAS?$AA?$AA@ 10040420     LIBCMT:winapinls.obj
 0002:0000642c       ??_C@_1M@MADIPODN@?$AAi?$AAt?$AA?9?$AAI?$AAT?$AA?$AA@ 1004042c     LIBCMT:winapinls.obj
 0002:00006438       ??_C@_1M@IHBJJGG@?$AAn?$AAl?$AA?9?$AAN?$AAL?$AA?$AA@ 10040438     LIBCMT:winapinls.obj
 0002:00006444       ??_C@_1M@EANAGDL@?$AAn?$AAb?$AA?9?$AAN?$AAO?$AA?$AA@ 10040444     LIBCMT:winapinls.obj
 0002:00006450       ??_C@_1M@NEIEMEGP@?$AAp?$AAl?$AA?9?$AAP?$AAL?$AA?$AA@ 10040450     LIBCMT:winapinls.obj
 0002:0000645c       ??_C@_1M@BOCFIGEP@?$AAp?$AAt?$AA?9?$AAB?$AAR?$AA?$AA@ 1004045c     LIBCMT:winapinls.obj
 0002:00006468       ??_C@_1M@IMPFOPBG@?$AAr?$AAo?$AA?9?$AAR?$AAO?$AA?$AA@ 10040468     LIBCMT:winapinls.obj
 0002:00006474       ??_C@_1M@IDNNEJMM@?$AAr?$AAu?$AA?9?$AAR?$AAU?$AA?$AA@ 10040474     LIBCMT:winapinls.obj
 0002:00006480       ??_C@_1M@LILEEOGM@?$AAh?$AAr?$AA?9?$AAH?$AAR?$AA?$AA@ 10040480     LIBCMT:winapinls.obj
 0002:0000648c       ??_C@_1M@FKIFEHPB@?$AAs?$AAk?$AA?9?$AAS?$AAK?$AA?$AA@ 1004048c     LIBCMT:winapinls.obj
 0002:00006498       ??_C@_1M@LJMAMNPJ@?$AAs?$AAq?$AA?9?$AAA?$AAL?$AA?$AA@ 10040498     LIBCMT:winapinls.obj
 0002:000064a4       ??_C@_1M@GIAKDKJK@?$AAs?$AAv?$AA?9?$AAS?$AAE?$AA?$AA@ 100404a4     LIBCMT:winapinls.obj
 0002:000064b0       ??_C@_1M@MKJKIKCL@?$AAt?$AAh?$AA?9?$AAT?$AAH?$AA?$AA@ 100404b0     LIBCMT:winapinls.obj
 0002:000064bc       ??_C@_1M@MFLCCMPB@?$AAt?$AAr?$AA?9?$AAT?$AAR?$AA?$AA@ 100404bc     LIBCMT:winapinls.obj
 0002:000064c8       ??_C@_1M@OIJHDKJN@?$AAu?$AAr?$AA?9?$AAP?$AAK?$AA?$AA@ 100404c8     LIBCMT:winapinls.obj
 0002:000064d4       ??_C@_1M@LHIPCIEK@?$AAi?$AAd?$AA?9?$AAI?$AAD?$AA?$AA@ 100404d4     LIBCMT:winapinls.obj
 0002:000064e0       ??_C@_1M@MFMOBGI@?$AAu?$AAk?$AA?9?$AAU?$AAA?$AA?$AA@ 100404e0     LIBCMT:winapinls.obj
 0002:000064ec       ??_C@_1M@OBGLJIPL@?$AAb?$AAe?$AA?9?$AAB?$AAY?$AA?$AA@ 100404ec     LIBCMT:winapinls.obj
 0002:000064f8       ??_C@_1M@BCFAJEAD@?$AAs?$AAl?$AA?9?$AAS?$AAI?$AA?$AA@ 100404f8     LIBCMT:winapinls.obj
 0002:00006504       ??_C@_1M@FKFFEDDN@?$AAe?$AAt?$AA?9?$AAE?$AAE?$AA?$AA@ 10040504     LIBCMT:winapinls.obj
 0002:00006510       ??_C@_1M@KGKKAACI@?$AAl?$AAv?$AA?9?$AAL?$AAV?$AA?$AA@ 10040510     LIBCMT:winapinls.obj
 0002:0000651c       ??_C@_1M@IFGBIJO@?$AAl?$AAt?$AA?9?$AAL?$AAT?$AA?$AA@ 1004051c     LIBCMT:winapinls.obj
 0002:00006528       ??_C@_1M@FGEAHEDM@?$AAf?$AAa?$AA?9?$AAI?$AAR?$AA?$AA@ 10040528     LIBCMT:winapinls.obj
 0002:00006534       ??_C@_1M@KBMAIBFN@?$AAv?$AAi?$AA?9?$AAV?$AAN?$AA?$AA@ 10040534     LIBCMT:winapinls.obj
 0002:00006540       ??_C@_1M@GPCBKDJK@?$AAh?$AAy?$AA?9?$AAA?$AAM?$AA?$AA@ 10040540     LIBCMT:winapinls.obj
 0002:0000654c       ??_C@_1BG@BECMDDJB@?$AAa?$AAz?$AA?9?$AAA?$AAZ?$AA?9?$AAL?$AAa?$AAt?$AAn?$AA?$AA@ 1004054c     LIBCMT:winapinls.obj
 0002:00006564       ??_C@_1M@MAOFCAEA@?$AAe?$AAu?$AA?9?$AAE?$AAS?$AA?$AA@ 10040564     LIBCMT:winapinls.obj
 0002:00006570       ??_C@_1M@IGHABKPI@?$AAm?$AAk?$AA?9?$AAM?$AAK?$AA?$AA@ 10040570     LIBCMT:winapinls.obj
 0002:0000657c       ??_C@_1M@IAIGNEJG@?$AAt?$AAn?$AA?9?$AAZ?$AAA?$AA?$AA@ 1004057c     LIBCMT:winapinls.obj
 0002:00006588       ??_C@_1M@IIJCOJFA@?$AAx?$AAh?$AA?9?$AAZ?$AAA?$AA?$AA@ 10040588     LIBCMT:winapinls.obj
 0002:00006594       ??_C@_1M@LGPJHNJH@?$AAz?$AAu?$AA?9?$AAZ?$AAA?$AA?$AA@ 10040594     LIBCMT:winapinls.obj
 0002:000065a0       ??_C@_1M@HOKAOIO@?$AAa?$AAf?$AA?9?$AAZ?$AAA?$AA?$AA@ 100405a0     LIBCMT:winapinls.obj
 0002:000065ac       ??_C@_1M@DPCLHLIE@?$AAk?$AAa?$AA?9?$AAG?$AAE?$AA?$AA@ 100405ac     LIBCMT:winapinls.obj
 0002:000065b8       ??_C@_1M@BLKMHJBI@?$AAf?$AAo?$AA?9?$AAF?$AAO?$AA?$AA@ 100405b8     LIBCMT:winapinls.obj
 0002:000065c4       ??_C@_1M@LGGJAPPB@?$AAh?$AAi?$AA?9?$AAI?$AAN?$AA?$AA@ 100405c4     LIBCMT:winapinls.obj
 0002:000065d0       ??_C@_1M@FIKPIHFE@?$AAm?$AAt?$AA?9?$AAM?$AAT?$AA?$AA@ 100405d0     LIBCMT:winapinls.obj
 0002:000065dc       ??_C@_1M@HEGGPBFA@?$AAs?$AAe?$AA?9?$AAN?$AAO?$AA?$AA@ 100405dc     LIBCMT:winapinls.obj
 0002:000065e8       ??_C@_1M@EIBJEEPA@?$AAm?$AAs?$AA?9?$AAM?$AAY?$AA?$AA@ 100405e8     LIBCMT:winapinls.obj
 0002:000065f4       ??_C@_1M@FHLBGMPP@?$AAk?$AAk?$AA?9?$AAK?$AAZ?$AA?$AA@ 100405f4     LIBCMT:winapinls.obj
 0002:00006600       ??_C@_1M@NGJJLCGI@?$AAk?$AAy?$AA?9?$AAK?$AAG?$AA?$AA@ 10040600     LIBCMT:winapinls.obj
 0002:0000660c       ??_C@_1M@GIENNBFC@?$AAs?$AAw?$AA?9?$AAK?$AAE?$AA?$AA@ 1004060c     LIBCMT:winapinls.obj
 0002:00006618       ??_C@_1BG@NDGMJIMJ@?$AAu?$AAz?$AA?9?$AAU?$AAZ?$AA?9?$AAL?$AAa?$AAt?$AAn?$AA?$AA@ 10040618     LIBCMT:winapinls.obj
 0002:00006630       ??_C@_1M@IDCCIHBC@?$AAt?$AAt?$AA?9?$AAR?$AAU?$AA?$AA@ 10040630     LIBCMT:winapinls.obj
 0002:0000663c       ??_C@_1M@LOICPMOJ@?$AAb?$AAn?$AA?9?$AAI?$AAN?$AA?$AA@ 1004063c     LIBCMT:winapinls.obj
 0002:00006648       ??_C@_1M@KPKKNEAH@?$AAp?$AAa?$AA?9?$AAI?$AAN?$AA?$AA@ 10040648     LIBCMT:winapinls.obj
 0002:00006654       ??_C@_1M@PJGPPBOG@?$AAg?$AAu?$AA?9?$AAI?$AAN?$AA?$AA@ 10040654     LIBCMT:winapinls.obj
 0002:00006660       ??_C@_1M@KMKMOPHI@?$AAt?$AAa?$AA?9?$AAI?$AAN?$AA?$AA@ 10040660     LIBCMT:winapinls.obj
 0002:0000666c       ??_C@_1M@KFEHEPAC@?$AAt?$AAe?$AA?9?$AAI?$AAN?$AA?$AA@ 1004066c     LIBCMT:winapinls.obj
 0002:00006678       ??_C@_1M@CDCLMGHI@?$AAk?$AAn?$AA?9?$AAI?$AAN?$AA?$AA@ 10040678     LIBCMT:winapinls.obj
 0002:00006684       ??_C@_1M@MIODLDKF@?$AAm?$AAl?$AA?9?$AAI?$AAN?$AA?$AA@ 10040684     LIBCMT:winapinls.obj
 0002:00006690       ??_C@_1M@PBIEACPO@?$AAm?$AAr?$AA?9?$AAI?$AAN?$AA?$AA@ 10040690     LIBCMT:winapinls.obj
 0002:0000669c       ??_C@_1M@NIDEAGPH@?$AAs?$AAa?$AA?9?$AAI?$AAN?$AA?$AA@ 1004069c     LIBCMT:winapinls.obj
 0002:000066a8       ??_C@_1M@FHIHCBIO@?$AAm?$AAn?$AA?9?$AAM?$AAN?$AA?$AA@ 100406a8     LIBCMT:winapinls.obj
 0002:000066b4       ??_C@_1M@JAIJPENP@?$AAc?$AAy?$AA?9?$AAG?$AAB?$AA?$AA@ 100406b4     LIBCMT:winapinls.obj
 0002:000066c0       ??_C@_1M@PHGFBEPN@?$AAg?$AAl?$AA?9?$AAE?$AAS?$AA?$AA@ 100406c0     LIBCMT:winapinls.obj
 0002:000066cc       ??_C@_1O@KPIPDNCP@?$AAk?$AAo?$AAk?$AA?9?$AAI?$AAN?$AA?$AA@ 100406cc     LIBCMT:winapinls.obj
 0002:000066dc       ??_C@_1O@KNHJLDJA@?$AAs?$AAy?$AAr?$AA?9?$AAS?$AAY?$AA?$AA@ 100406dc     LIBCMT:winapinls.obj
 0002:000066ec       ??_C@_1O@MKEKBLAH@?$AAd?$AAi?$AAv?$AA?9?$AAM?$AAV?$AA?$AA@ 100406ec     LIBCMT:winapinls.obj
 0002:000066fc       ??_C@_1O@OHDCKDDF@?$AAq?$AAu?$AAz?$AA?9?$AAB?$AAO?$AA?$AA@ 100406fc     LIBCMT:winapinls.obj
 0002:0000670c       ??_C@_1M@LEPJNLFD@?$AAn?$AAs?$AA?9?$AAZ?$AAA?$AA?$AA@ 1004070c     LIBCMT:winapinls.obj
 0002:00006718       ??_C@_1M@OMLEIIJB@?$AAm?$AAi?$AA?9?$AAN?$AAZ?$AA?$AA@ 10040718     LIBCMT:winapinls.obj
 0002:00006724       ??_C@_1M@PMPEAILG@?$AAa?$AAr?$AA?9?$AAI?$AAQ?$AA?$AA@ 10040724     LIBCMT:winapinls.obj
 0002:00006730       ??_C@_1M@CNKPNOEE@?$AAd?$AAe?$AA?9?$AAC?$AAH?$AA?$AA@ 10040730     LIBCMT:winapinls.obj
 0002:0000673c       ??_C@_1M@LKMGMLKO@?$AAe?$AAn?$AA?9?$AAG?$AAB?$AA?$AA@ 1004073c     LIBCMT:winapinls.obj
 0002:00006748       ??_C@_1M@PGKJFFGL@?$AAe?$AAs?$AA?9?$AAM?$AAX?$AA?$AA@ 10040748     LIBCMT:winapinls.obj
 0002:00006754       ??_C@_1M@DNNANBDC@?$AAf?$AAr?$AA?9?$AAB?$AAE?$AA?$AA@ 10040754     LIBCMT:winapinls.obj
 0002:00006760       ??_C@_1M@HLGMDFHM@?$AAi?$AAt?$AA?9?$AAC?$AAH?$AA?$AA@ 10040760     LIBCMT:winapinls.obj
 0002:0000676c       ??_C@_1M@CLLBGJH@?$AAn?$AAl?$AA?9?$AAB?$AAE?$AA?$AA@ 1004076c     LIBCMT:winapinls.obj
 0002:00006778       ??_C@_1M@BODBOGLF@?$AAn?$AAn?$AA?9?$AAN?$AAO?$AA?$AA@ 10040778     LIBCMT:winapinls.obj
 0002:00006784       ??_C@_1M@HFFAHKAD@?$AAp?$AAt?$AA?9?$AAP?$AAT?$AA?$AA@ 10040784     LIBCMT:winapinls.obj
 0002:00006790       ??_C@_1BG@LNOAKHIE@?$AAs?$AAr?$AA?9?$AAS?$AAP?$AA?9?$AAL?$AAa?$AAt?$AAn?$AA?$AA@ 10040790     LIBCMT:winapinls.obj
 0002:000067a8       ??_C@_1M@HBMHBGAK@?$AAs?$AAv?$AA?9?$AAF?$AAI?$AA?$AA@ 100407a8     LIBCMT:winapinls.obj
 0002:000067b4       ??_C@_1BG@DGCJGJBE@?$AAa?$AAz?$AA?9?$AAA?$AAZ?$AA?9?$AAC?$AAy?$AAr?$AAl?$AA?$AA@ 100407b4     LIBCMT:winapinls.obj
 0002:000067cc       ??_C@_1M@KEJDAAHB@?$AAs?$AAe?$AA?9?$AAS?$AAE?$AA?$AA@ 100407cc     LIBCMT:winapinls.obj
 0002:000067d8       ??_C@_1M@HEIBJJAD@?$AAm?$AAs?$AA?9?$AAB?$AAN?$AA?$AA@ 100407d8     LIBCMT:winapinls.obj
 0002:000067e4       ??_C@_1BG@PBGJMCEM@?$AAu?$AAz?$AA?9?$AAU?$AAZ?$AA?9?$AAC?$AAy?$AAr?$AAl?$AA?$AA@ 100407e4     LIBCMT:winapinls.obj
 0002:000067fc       ??_C@_1O@LAOBCMDF@?$AAq?$AAu?$AAz?$AA?9?$AAE?$AAC?$AA?$AA@ 100407fc     LIBCMT:winapinls.obj
 0002:0000680c       ??_C@_1M@POEEMAIO@?$AAa?$AAr?$AA?9?$AAE?$AAG?$AA?$AA@ 1004080c     LIBCMT:winapinls.obj
 0002:00006818       ??_C@_1M@EFAKDEDL@?$AAz?$AAh?$AA?9?$AAH?$AAK?$AA?$AA@ 10040818     LIBCMT:winapinls.obj
 0002:00006824       ??_C@_1M@HKKIJHGI@?$AAd?$AAe?$AA?9?$AAA?$AAT?$AA?$AA@ 10040824     LIBCMT:winapinls.obj
 0002:00006830       ??_C@_1M@KBFBEHJF@?$AAe?$AAn?$AA?9?$AAA?$AAU?$AA?$AA@ 10040830     LIBCMT:winapinls.obj
 0002:0000683c       ??_C@_1M@MNPLFAAH@?$AAe?$AAs?$AA?9?$AAE?$AAS?$AA?$AA@ 1004083c     LIBCMT:winapinls.obj
 0002:00006848       ??_C@_1M@HJOOJFMA@?$AAf?$AAr?$AA?9?$AAC?$AAA?$AA?$AA@ 10040848     LIBCMT:winapinls.obj
 0002:00006854       ??_C@_1BG@JPOFPNAB@?$AAs?$AAr?$AA?9?$AAS?$AAP?$AA?9?$AAC?$AAy?$AAr?$AAl?$AA?$AA@ 10040854     LIBCMT:winapinls.obj
 0002:0000686c       ??_C@_1M@LNFOCMOB@?$AAs?$AAe?$AA?9?$AAF?$AAI?$AA?$AA@ 1004086c     LIBCMT:winapinls.obj
 0002:00006878       ??_C@_1O@MGJBOAMB@?$AAq?$AAu?$AAz?$AA?9?$AAP?$AAE?$AA?$AA@ 10040878     LIBCMT:winapinls.obj
 0002:00006888       ??_C@_1M@GJINLBOK@?$AAa?$AAr?$AA?9?$AAL?$AAY?$AA?$AA@ 10040888     LIBCMT:winapinls.obj
 0002:00006894       ??_C@_1M@GGMNHJNL@?$AAz?$AAh?$AA?9?$AAS?$AAG?$AA?$AA@ 10040894     LIBCMT:winapinls.obj
 0002:000068a0       ??_C@_1M@HOIKODND@?$AAd?$AAe?$AA?9?$AAL?$AAU?$AA?$AA@ 100408a0     LIBCMT:winapinls.obj
 0002:000068ac       ??_C@_1M@DDOCCGFG@?$AAe?$AAn?$AA?9?$AAC?$AAA?$AA?$AA@ 100408ac     LIBCMT:winapinls.obj
 0002:000068b8       ??_C@_1M@BNOEMJLF@?$AAe?$AAs?$AA?9?$AAG?$AAT?$AA?$AA@ 100408b8     LIBCMT:winapinls.obj
 0002:000068c4       ??_C@_1M@EOGNKEK@?$AAf?$AAr?$AA?9?$AAC?$AAH?$AA?$AA@ 100408c4     LIBCMT:winapinls.obj
 0002:000068d0       ??_C@_1M@FLIDJFHL@?$AAh?$AAr?$AA?9?$AAB?$AAA?$AA?$AA@ 100408d0     LIBCMT:winapinls.obj
 0002:000068dc       ??_C@_1O@FMCELNAJ@?$AAs?$AAm?$AAj?$AA?9?$AAN?$AAO?$AA?$AA@ 100408dc     LIBCMT:winapinls.obj
 0002:000068ec       ??_C@_1M@JHGLJMGJ@?$AAa?$AAr?$AA?9?$AAD?$AAZ?$AA?$AA@ 100408ec     LIBCMT:winapinls.obj
 0002:000068f8       ??_C@_1M@JKKFDCNP@?$AAz?$AAh?$AA?9?$AAM?$AAO?$AA?$AA@ 100408f8     LIBCMT:winapinls.obj
 0002:00006904       ??_C@_1M@GEEFALPE@?$AAd?$AAe?$AA?9?$AAL?$AAI?$AA?$AA@ 10040904     LIBCMT:winapinls.obj
 0002:00006910       ??_C@_1M@IGEOFBG@?$AAe?$AAn?$AA?9?$AAN?$AAZ?$AA?$AA@ 10040910     LIBCMT:winapinls.obj
 0002:0000691c       ??_C@_1M@KDBONEHP@?$AAe?$AAs?$AA?9?$AAC?$AAR?$AA?$AA@ 1004091c     LIBCMT:winapinls.obj
 0002:00006928       ??_C@_1M@FHMDOHNN@?$AAf?$AAr?$AA?9?$AAL?$AAU?$AA?$AA@ 10040928     LIBCMT:winapinls.obj
 0002:00006934       ??_C@_1BG@NFKKMAFG@?$AAb?$AAs?$AA?9?$AAB?$AAA?$AA?9?$AAL?$AAa?$AAt?$AAn?$AA?$AA@ 10040934     LIBCMT:winapinls.obj
 0002:0000694c       ??_C@_1O@IMNBEMCI@?$AAs?$AAm?$AAj?$AA?9?$AAS?$AAE?$AA?$AA@ 1004094c     LIBCMT:winapinls.obj
 0002:0000695c       ??_C@_1M@DHHMBNDP@?$AAa?$AAr?$AA?9?$AAM?$AAA?$AA?$AA@ 1004095c     LIBCMT:winapinls.obj
 0002:00006968       ??_C@_1M@BNBLJCGH@?$AAe?$AAn?$AA?9?$AAI?$AAE?$AA?$AA@ 10040968     LIBCMT:winapinls.obj
 0002:00006974       ??_C@_1M@GEPAFMDL@?$AAe?$AAs?$AA?9?$AAP?$AAA?$AA?$AA@ 10040974     LIBCMT:winapinls.obj
 0002:00006980       ??_C@_1M@OJONDMDL@?$AAf?$AAr?$AA?9?$AAM?$AAC?$AA?$AA@ 10040980     LIBCMT:winapinls.obj
 0002:0000698c       ??_C@_1BG@OBCNFJB@?$AAs?$AAr?$AA?9?$AAB?$AAA?$AA?9?$AAL?$AAa?$AAt?$AAn?$AA?$AA@ 1004098c     LIBCMT:winapinls.obj
 0002:000069a4       ??_C@_1O@KEMEEGPO@?$AAs?$AAm?$AAa?$AA?9?$AAN?$AAO?$AA?$AA@ 100409a4     LIBCMT:winapinls.obj
 0002:000069b4       ??_C@_1M@ELMGFODK@?$AAa?$AAr?$AA?9?$AAT?$AAN?$AA?$AA@ 100409b4     LIBCMT:winapinls.obj
 0002:000069c0       ??_C@_1M@BHDLHFAF@?$AAe?$AAn?$AA?9?$AAZ?$AAA?$AA?$AA@ 100409c0     LIBCMT:winapinls.obj
 0002:000069cc       ??_C@_1M@BMGIGLIF@?$AAe?$AAs?$AA?9?$AAD?$AAO?$AA?$AA@ 100409cc     LIBCMT:winapinls.obj
 0002:000069d8       ??_C@_1BG@CMBHIPBE@?$AAs?$AAr?$AA?9?$AAB?$AAA?$AA?9?$AAC?$AAy?$AAr?$AAl?$AA?$AA@ 100409d8     LIBCMT:winapinls.obj
 0002:000069f0       ??_C@_1O@HEDBLHNP@?$AAs?$AAm?$AAa?$AA?9?$AAS?$AAE?$AA?$AA@ 100409f0     LIBCMT:winapinls.obj
 0002:00006a00       ??_C@_1M@DAGCADIM@?$AAa?$AAr?$AA?9?$AAO?$AAM?$AA?$AA@ 10040a00     LIBCMT:winapinls.obj
 0002:00006a0c       ??_C@_1M@FODLMICG@?$AAe?$AAn?$AA?9?$AAJ?$AAM?$AA?$AA@ 10040a0c     LIBCMT:winapinls.obj
 0002:00006a18       ??_C@_1M@DNMLCIHB@?$AAe?$AAs?$AA?9?$AAV?$AAE?$AA?$AA@ 10040a18     LIBCMT:winapinls.obj
 0002:00006a24       ??_C@_1O@EOKHMKJK@?$AAs?$AAm?$AAs?$AA?9?$AAF?$AAI?$AA?$AA@ 10040a24     LIBCMT:winapinls.obj
 0002:00006a34       ??_C@_1M@CAFJMKOF@?$AAa?$AAr?$AA?9?$AAY?$AAE?$AA?$AA@ 10040a34     LIBCMT:winapinls.obj
 0002:00006a40       ??_C@_1M@CBFHIJLI@?$AAe?$AAn?$AA?9?$AAC?$AAB?$AA?$AA@ 10040a40     LIBCMT:winapinls.obj
 0002:00006a4c       ??_C@_1M@BGNFLDN@?$AAe?$AAs?$AA?9?$AAC?$AAO?$AA?$AA@ 10040a4c     LIBCMT:winapinls.obj
 0002:00006a58       ??_C@_1O@JMPHMAMC@?$AAs?$AAm?$AAn?$AA?9?$AAF?$AAI?$AA?$AA@ 10040a58     LIBCMT:winapinls.obj
 0002:00006a68       ??_C@_1M@JLANABKE@?$AAa?$AAr?$AA?9?$AAS?$AAY?$AA?$AA@ 10040a68     LIBCMT:winapinls.obj
 0002:00006a74       ??_C@_1M@HPKGCFGN@?$AAe?$AAn?$AA?9?$AAB?$AAZ?$AA?$AA@ 10040a74     LIBCMT:winapinls.obj
 0002:00006a80       ??_C@_1M@OLJCMLGM@?$AAe?$AAs?$AA?9?$AAP?$AAE?$AA?$AA@ 10040a80     LIBCMT:winapinls.obj
 0002:00006a8c       ??_C@_1M@MKKGFKLE@?$AAa?$AAr?$AA?9?$AAJ?$AAO?$AA?$AA@ 10040a8c     LIBCMT:winapinls.obj
 0002:00006a98       ??_C@_1M@EKPGLDNI@?$AAe?$AAn?$AA?9?$AAT?$AAT?$AA?$AA@ 10040a98     LIBCMT:winapinls.obj
 0002:00006aa4       ??_C@_1M@OONGHFHE@?$AAe?$AAs?$AA?9?$AAA?$AAR?$AA?$AA@ 10040aa4     LIBCMT:winapinls.obj
 0002:00006ab0       ??_C@_1M@OOJFGBHE@?$AAa?$AAr?$AA?9?$AAL?$AAB?$AA?$AA@ 10040ab0     LIBCMT:winapinls.obj
 0002:00006abc       ??_C@_1M@GCEJHNEG@?$AAe?$AAn?$AA?9?$AAZ?$AAW?$AA?$AA@ 10040abc     LIBCMT:winapinls.obj
 0002:00006ac8       ??_C@_1M@JNOCAHJI@?$AAe?$AAs?$AA?9?$AAE?$AAC?$AA?$AA@ 10040ac8     LIBCMT:winapinls.obj
 0002:00006ad4       ??_C@_1M@JEFHPGGB@?$AAa?$AAr?$AA?9?$AAK?$AAW?$AA?$AA@ 10040ad4     LIBCMT:winapinls.obj
 0002:00006ae0       ??_C@_1M@MLKIBJOJ@?$AAe?$AAn?$AA?9?$AAP?$AAH?$AA?$AA@ 10040ae0     LIBCMT:winapinls.obj
 0002:00006aec       ??_C@_1M@BDNIPEND@?$AAe?$AAs?$AA?9?$AAC?$AAL?$AA?$AA@ 10040aec     LIBCMT:winapinls.obj
 0002:00006af8       ??_C@_1M@MPNMEKBD@?$AAa?$AAr?$AA?9?$AAA?$AAE?$AA?$AA@ 10040af8     LIBCMT:winapinls.obj
 0002:00006b04       ??_C@_1M@KBJALCPI@?$AAe?$AAs?$AA?9?$AAU?$AAY?$AA?$AA@ 10040b04     LIBCMT:winapinls.obj
 0002:00006b10       ??_C@_1M@LLCCOAGA@?$AAa?$AAr?$AA?9?$AAB?$AAH?$AA?$AA@ 10040b10     LIBCMT:winapinls.obj
 0002:00006b1c       ??_C@_1M@PBFNCDEL@?$AAe?$AAs?$AA?9?$AAP?$AAY?$AA?$AA@ 10040b1c     LIBCMT:winapinls.obj
 0002:00006b28       ??_C@_1M@EDGINPNP@?$AAa?$AAr?$AA?9?$AAQ?$AAA?$AA?$AA@ 10040b28     LIBCMT:winapinls.obj
 0002:00006b34       ??_C@_1M@MKDBIIJI@?$AAe?$AAs?$AA?9?$AAB?$AAO?$AA?$AA@ 10040b34     LIBCMT:winapinls.obj
 0002:00006b40       ??_C@_1M@CPKKEBLD@?$AAe?$AAs?$AA?9?$AAS?$AAV?$AA?$AA@ 10040b40     LIBCMT:winapinls.obj
 0002:00006b4c       ??_C@_1M@NDBGMMJL@?$AAe?$AAs?$AA?9?$AAH?$AAN?$AA?$AA@ 10040b4c     LIBCMT:winapinls.obj
 0002:00006b58       ??_C@_1M@JIJIBHDP@?$AAe?$AAs?$AA?9?$AAN?$AAI?$AA?$AA@ 10040b58     LIBCMT:winapinls.obj
 0002:00006b64       ??_C@_1M@CGFMKEEK@?$AAe?$AAs?$AA?9?$AAP?$AAR?$AA?$AA@ 10040b64     LIBCMT:winapinls.obj
 0002:00006b70       ??_C@_1O@ICJHKIIK@?$AAz?$AAh?$AA?9?$AAC?$AAH?$AAT?$AA?$AA@ 10040b70     LIBCMT:winapinls.obj
 0002:00006b80       ??_C@_15CLNEJCE@?$AAs?$AAr?$AA?$AA@ 10040b80     LIBCMT:winapinls.obj
 0002:00006b88       ??_C@_1M@KAHEKEIG@?$AAa?$AAf?$AA?9?$AAz?$AAa?$AA?$AA@ 10040b88     LIBCMT:winapinls.obj
 0002:00006b94       ??_C@_1M@GIECOABL@?$AAa?$AAr?$AA?9?$AAa?$AAe?$AA?$AA@ 10040b94     LIBCMT:winapinls.obj
 0002:00006ba0       ??_C@_1M@BMLMEKGI@?$AAa?$AAr?$AA?9?$AAb?$AAh?$AA?$AA@ 10040ba0     LIBCMT:winapinls.obj
 0002:00006bac       ??_C@_1M@DAPFDGGB@?$AAa?$AAr?$AA?9?$AAd?$AAz?$AA?$AA@ 10040bac     LIBCMT:winapinls.obj
 0002:00006bb8       ??_C@_1M@FJNKGKIG@?$AAa?$AAr?$AA?9?$AAe?$AAg?$AA?$AA@ 10040bb8     LIBCMT:winapinls.obj
 0002:00006bc4       ??_C@_1M@FLGKKCLO@?$AAa?$AAr?$AA?9?$AAi?$AAq?$AA?$AA@ 10040bc4     LIBCMT:winapinls.obj
 0002:00006bd0       ??_C@_1M@GNDIPALM@?$AAa?$AAr?$AA?9?$AAj?$AAo?$AA?$AA@ 10040bd0     LIBCMT:winapinls.obj
 0002:00006bdc       ??_C@_1M@DDMJFMGJ@?$AAa?$AAr?$AA?9?$AAk?$AAw?$AA?$AA@ 10040bdc     LIBCMT:winapinls.obj
 0002:00006be8       ??_C@_1M@EJALMLHM@?$AAa?$AAr?$AA?9?$AAl?$AAb?$AA?$AA@ 10040be8     LIBCMT:winapinls.obj
 0002:00006bf4       ??_C@_1M@MOBDBLOC@?$AAa?$AAr?$AA?9?$AAl?$AAy?$AA?$AA@ 10040bf4     LIBCMT:winapinls.obj
 0002:00006c00       ??_C@_1M@JAOCLHDH@?$AAa?$AAr?$AA?9?$AAm?$AAa?$AA?$AA@ 10040c00     LIBCMT:winapinls.obj
 0002:00006c0c       ??_C@_1M@JHPMKJIE@?$AAa?$AAr?$AA?9?$AAo?$AAm?$AA?$AA@ 10040c0c     LIBCMT:winapinls.obj
 0002:00006c18       ??_C@_1M@OEPGHFNH@?$AAa?$AAr?$AA?9?$AAq?$AAa?$AA?$AA@ 10040c18     LIBCMT:winapinls.obj
 0002:00006c24       ??_C@_1M@KJDONENM@?$AAa?$AAr?$AA?9?$AAs?$AAa?$AA?$AA@ 10040c24     LIBCMT:winapinls.obj
 0002:00006c30       ??_C@_1M@DMJDKLKM@?$AAa?$AAr?$AA?9?$AAs?$AAy?$AA?$AA@ 10040c30     LIBCMT:winapinls.obj
 0002:00006c3c       ??_C@_1M@OMFIPEDC@?$AAa?$AAr?$AA?9?$AAt?$AAn?$AA?$AA@ 10040c3c     LIBCMT:winapinls.obj
 0002:00006c48       ??_C@_1M@IHMHGAON@?$AAa?$AAr?$AA?9?$AAy?$AAe?$AA?$AA@ 10040c48     LIBCMT:winapinls.obj
 0002:00006c54       ??_C@_1BG@KDCPGJGB@?$AAa?$AAz?$AA?9?$AAa?$AAz?$AA?9?$AAc?$AAy?$AAr?$AAl?$AA?$AA@ 10040c54     LIBCMT:winapinls.obj
 0002:00006c6c       ??_C@_1BG@IBCKDDOE@?$AAa?$AAz?$AA?9?$AAa?$AAz?$AA?9?$AAl?$AAa?$AAt?$AAn?$AA?$AA@ 10040c6c     LIBCMT:winapinls.obj
 0002:00006c84       ??_C@_1M@EGPFDCPD@?$AAb?$AAe?$AA?9?$AAb?$AAy?$AA?$AA@ 10040c84     LIBCMT:winapinls.obj
 0002:00006c90       ??_C@_1M@PCMGMCGC@?$AAb?$AAg?$AA?9?$AAb?$AAg?$AA?$AA@ 10040c90     LIBCMT:winapinls.obj
 0002:00006c9c       ??_C@_1M@BJBMFGOB@?$AAb?$AAn?$AA?9?$AAi?$AAn?$AA?$AA@ 10040c9c     LIBCMT:winapinls.obj
 0002:00006ca8       ??_C@_1BG@EAKMMACD@?$AAb?$AAs?$AA?9?$AAb?$AAa?$AA?9?$AAl?$AAa?$AAt?$AAn?$AA?$AA@ 10040ca8     LIBCMT:winapinls.obj
 0002:00006cc0       ??_C@_1M@KGADAODK@?$AAc?$AAa?$AA?9?$AAe?$AAs?$AA?$AA@ 10040cc0     LIBCMT:winapinls.obj
 0002:00006ccc       ??_C@_1M@COAJPDHI@?$AAc?$AAs?$AA?9?$AAc?$AAz?$AA?$AA@ 10040ccc     LIBCMT:winapinls.obj
 0002:00006cd8       ??_C@_1M@DHBHFONH@?$AAc?$AAy?$AA?9?$AAg?$AAb?$AA?$AA@ 10040cd8     LIBCMT:winapinls.obj
 0002:00006ce4       ??_C@_1M@IMGKELGA@?$AAd?$AAa?$AA?9?$AAd?$AAk?$AA?$AA@ 10040ce4     LIBCMT:winapinls.obj
 0002:00006cf0       ??_C@_1M@NNDGDNGA@?$AAd?$AAe?$AA?9?$AAa?$AAt?$AA?$AA@ 10040cf0     LIBCMT:winapinls.obj
 0002:00006cfc       ??_C@_1M@IKDBHEEM@?$AAd?$AAe?$AA?9?$AAc?$AAh?$AA?$AA@ 10040cfc     LIBCMT:winapinls.obj
 0002:00006d08       ??_C@_1M@GFFOJMCJ@?$AAd?$AAe?$AA?9?$AAd?$AAe?$AA?$AA@ 10040d08     LIBCMT:winapinls.obj
 0002:00006d14       ??_C@_1M@MDNLKBPM@?$AAd?$AAe?$AA?9?$AAl?$AAi?$AA?$AA@ 10040d14     LIBCMT:winapinls.obj
 0002:00006d20       ??_C@_1M@NJBEEJNL@?$AAd?$AAe?$AA?9?$AAl?$AAu?$AA?$AA@ 10040d20     LIBCMT:winapinls.obj
 0002:00006d2c       ??_C@_1O@GNNELBAP@?$AAd?$AAi?$AAv?$AA?9?$AAm?$AAv?$AA?$AA@ 10040d2c     LIBCMT:winapinls.obj
 0002:00006d3c       ??_C@_1M@EJLEOGAE@?$AAe?$AAl?$AA?9?$AAg?$AAr?$AA?$AA@ 10040d3c     LIBCMT:winapinls.obj
 0002:00006d48       ??_C@_1M@GMPONJN@?$AAe?$AAn?$AA?9?$AAa?$AAu?$AA?$AA@ 10040d48     LIBCMT:winapinls.obj
 0002:00006d54       ??_C@_1M@NIDIIPGF@?$AAe?$AAn?$AA?9?$AAb?$AAz?$AA?$AA@ 10040d54     LIBCMT:winapinls.obj
 0002:00006d60       ??_C@_1M@JEHMIMFO@?$AAe?$AAn?$AA?9?$AAc?$AAa?$AA?$AA@ 10040d60     LIBCMT:winapinls.obj
 0002:00006d6c       ??_C@_1M@IGMJCDLA@?$AAe?$AAn?$AA?9?$AAc?$AAb?$AA?$AA@ 10040d6c     LIBCMT:winapinls.obj
 0002:00006d78       ??_C@_1M@BNFIGBKG@?$AAe?$AAn?$AA?9?$AAg?$AAb?$AA?$AA@ 10040d78     LIBCMT:winapinls.obj
 0002:00006d84       ??_C@_1M@LKIFDIGP@?$AAe?$AAn?$AA?9?$AAi?$AAe?$AA?$AA@ 10040d84     LIBCMT:winapinls.obj
 0002:00006d90       ??_C@_1M@PJKFGCCO@?$AAe?$AAn?$AA?9?$AAj?$AAm?$AA?$AA@ 10040d90     LIBCMT:winapinls.obj
 0002:00006d9c       ??_C@_1M@KPPKEPBO@?$AAe?$AAn?$AA?9?$AAn?$AAz?$AA?$AA@ 10040d9c     LIBCMT:winapinls.obj
 0002:00006da8       ??_C@_1M@GMDGLDOB@?$AAe?$AAn?$AA?9?$AAp?$AAh?$AA?$AA@ 10040da8     LIBCMT:winapinls.obj
 0002:00006db4       ??_C@_1M@ONGIBJNA@?$AAe?$AAn?$AA?9?$AAt?$AAt?$AA?$AA@ 10040db4     LIBCMT:winapinls.obj
 0002:00006dc0       ??_C@_1M@LLODPCMM@?$AAe?$AAn?$AA?9?$AAu?$AAs?$AA?$AA@ 10040dc0     LIBCMT:winapinls.obj
 0002:00006dcc       ??_C@_1M@LAKFNPAN@?$AAe?$AAn?$AA?9?$AAz?$AAa?$AA?$AA@ 10040dcc     LIBCMT:winapinls.obj
 0002:00006dd8       ??_C@_1M@MFNHNHEO@?$AAe?$AAn?$AA?9?$AAz?$AAw?$AA?$AA@ 10040dd8     LIBCMT:winapinls.obj
 0002:00006de4       ??_C@_1M@EJEINPHM@?$AAe?$AAs?$AA?9?$AAa?$AAr?$AA?$AA@ 10040de4     LIBCMT:winapinls.obj
 0002:00006df0       ??_C@_1M@GNKPCCJA@?$AAe?$AAs?$AA?9?$AAb?$AAo?$AA?$AA@ 10040df0     LIBCMT:winapinls.obj
 0002:00006dfc       ??_C@_1M@LEEGFONL@?$AAe?$AAs?$AA?9?$AAc?$AAl?$AA?$AA@ 10040dfc     LIBCMT:winapinls.obj
 0002:00006e08       ??_C@_1M@KGPDPBDF@?$AAe?$AAs?$AA?9?$AAc?$AAo?$AA?$AA@ 10040e08     LIBCMT:winapinls.obj
 0002:00006e14       ??_C@_1M@EIAHOHH@?$AAe?$AAs?$AA?9?$AAc?$AAr?$AA?$AA@ 10040e14     LIBCMT:winapinls.obj
 0002:00006e20       ??_C@_1M@LLPGMBIN@?$AAe?$AAs?$AA?9?$AAd?$AAo?$AA?$AA@ 10040e20     LIBCMT:winapinls.obj
 0002:00006e2c       ??_C@_1M@DKHMKNJA@?$AAe?$AAs?$AA?9?$AAe?$AAc?$AA?$AA@ 10040e2c     LIBCMT:winapinls.obj
 0002:00006e38       ??_C@_1M@GKGFPKAP@?$AAe?$AAs?$AA?9?$AAe?$AAs?$AA?$AA@ 10040e38     LIBCMT:winapinls.obj
 0002:00006e44       ??_C@_1M@LKHKGDLN@?$AAe?$AAs?$AA?9?$AAg?$AAt?$AA?$AA@ 10040e44     LIBCMT:winapinls.obj
 0002:00006e50       ??_C@_1M@HEIIGGJD@?$AAe?$AAs?$AA?9?$AAh?$AAn?$AA?$AA@ 10040e50     LIBCMT:winapinls.obj
 0002:00006e5c       ??_C@_1M@FBDHPPGD@?$AAe?$AAs?$AA?9?$AAm?$AAx?$AA?$AA@ 10040e5c     LIBCMT:winapinls.obj
 0002:00006e68       ??_C@_1M@DPAGLNDH@?$AAe?$AAs?$AA?9?$AAn?$AAi?$AA?$AA@ 10040e68     LIBCMT:winapinls.obj
 0002:00006e74       ??_C@_1M@MDGOPGDD@?$AAe?$AAs?$AA?9?$AAp?$AAa?$AA?$AA@ 10040e74     LIBCMT:winapinls.obj
 0002:00006e80       ??_C@_1M@EMAMGBGE@?$AAe?$AAs?$AA?9?$AAp?$AAe?$AA?$AA@ 10040e80     LIBCMT:winapinls.obj
 0002:00006e8c       ??_C@_1M@IBMCAOEC@?$AAe?$AAs?$AA?9?$AAp?$AAr?$AA?$AA@ 10040e8c     LIBCMT:winapinls.obj
 0002:00006e98       ??_C@_1M@FGMDIJED@?$AAe?$AAs?$AA?9?$AAp?$AAy?$AA?$AA@ 10040e98     LIBCMT:winapinls.obj
 0002:00006ea4       ??_C@_1M@IIDEOLLL@?$AAe?$AAs?$AA?9?$AAs?$AAv?$AA?$AA@ 10040ea4     LIBCMT:winapinls.obj
 0002:00006eb0       ??_C@_1M@GAOBIPA@?$AAe?$AAs?$AA?9?$AAu?$AAy?$AA?$AA@ 10040eb0     LIBCMT:winapinls.obj
 0002:00006ebc       ??_C@_1M@JKFFICHJ@?$AAe?$AAs?$AA?9?$AAv?$AAe?$AA?$AA@ 10040ebc     LIBCMT:winapinls.obj
 0002:00006ec8       ??_C@_1M@PNMLOJDF@?$AAe?$AAt?$AA?9?$AAe?$AAe?$AA?$AA@ 10040ec8     LIBCMT:winapinls.obj
 0002:00006ed4       ??_C@_1M@GHHLIKEI@?$AAe?$AAu?$AA?9?$AAe?$AAs?$AA?$AA@ 10040ed4     LIBCMT:winapinls.obj
 0002:00006ee0       ??_C@_1M@PBNONODE@?$AAf?$AAa?$AA?9?$AAi?$AAr?$AA?$AA@ 10040ee0     LIBCMT:winapinls.obj
 0002:00006eec       ??_C@_1M@JEEHPMIL@?$AAf?$AAi?$AA?9?$AAf?$AAi?$AA?$AA@ 10040eec     LIBCMT:winapinls.obj
 0002:00006ef8       ??_C@_1M@LMDCNDBA@?$AAf?$AAo?$AA?9?$AAf?$AAo?$AA?$AA@ 10040ef8     LIBCMT:winapinls.obj
 0002:00006f04       ??_C@_1M@JKEOHLDK@?$AAf?$AAr?$AA?9?$AAb?$AAe?$AA?$AA@ 10040f04     LIBCMT:winapinls.obj
 0002:00006f10       ??_C@_1M@NOHADPMI@?$AAf?$AAr?$AA?9?$AAc?$AAa?$AA?$AA@ 10040f10     LIBCMT:winapinls.obj
 0002:00006f1c       ??_C@_1M@KDHIHAEC@?$AAf?$AAr?$AA?9?$AAc?$AAh?$AA?$AA@ 10040f1c     LIBCMT:winapinls.obj
 0002:00006f28       ??_C@_1M@MMBBFGAK@?$AAf?$AAr?$AA?9?$AAf?$AAr?$AA?$AA@ 10040f28     LIBCMT:winapinls.obj
 0002:00006f34       ??_C@_1M@PAFNENNF@?$AAf?$AAr?$AA?9?$AAl?$AAu?$AA?$AA@ 10040f34     LIBCMT:winapinls.obj
 0002:00006f40       ??_C@_1M@EOHDJGDD@?$AAf?$AAr?$AA?9?$AAm?$AAc?$AA?$AA@ 10040f40     LIBCMT:winapinls.obj
 0002:00006f4c       ??_C@_1M@FAPLLOPF@?$AAg?$AAl?$AA?9?$AAe?$AAs?$AA?$AA@ 10040f4c     LIBCMT:winapinls.obj
 0002:00006f58       ??_C@_1M@FOPBFLOO@?$AAg?$AAu?$AA?9?$AAi?$AAn?$AA?$AA@ 10040f58     LIBCMT:winapinls.obj
 0002:00006f64       ??_C@_1M@KBMCINPM@?$AAh?$AAe?$AA?9?$AAi?$AAl?$AA?$AA@ 10040f64     LIBCMT:winapinls.obj
 0002:00006f70       ??_C@_1M@BBPHKFPJ@?$AAh?$AAi?$AA?9?$AAi?$AAn?$AA?$AA@ 10040f70     LIBCMT:winapinls.obj
 0002:00006f7c       ??_C@_1M@PMBNDPHD@?$AAh?$AAr?$AA?9?$AAb?$AAa?$AA?$AA@ 10040f7c     LIBCMT:winapinls.obj
 0002:00006f88       ??_C@_1M@BPCKOEGE@?$AAh?$AAr?$AA?9?$AAh?$AAr?$AA?$AA@ 10040f88     LIBCMT:winapinls.obj
 0002:00006f94       ??_C@_1M@GACBMHKE@?$AAh?$AAu?$AA?9?$AAh?$AAu?$AA?$AA@ 10040f94     LIBCMT:winapinls.obj
 0002:00006fa0       ??_C@_1M@MILPAJJC@?$AAh?$AAy?$AA?9?$AAa?$AAm?$AA?$AA@ 10040fa0     LIBCMT:winapinls.obj
 0002:00006fac       ??_C@_1M@BABBICEC@?$AAi?$AAd?$AA?9?$AAi?$AAd?$AA?$AA@ 10040fac     LIBCMT:winapinls.obj
 0002:00006fb8       ??_C@_1M@BIKNHHPF@?$AAi?$AAs?$AA?9?$AAi?$AAs?$AA?$AA@ 10040fb8     LIBCMT:winapinls.obj
 0002:00006fc4       ??_C@_1M@NMPCJPHE@?$AAi?$AAt?$AA?9?$AAc?$AAh?$AA?$AA@ 10040fc4     LIBCMT:winapinls.obj
 0002:00006fd0       ??_C@_1M@GHKGFEDF@?$AAi?$AAt?$AA?9?$AAi?$AAt?$AA?$AA@ 10040fd0     LIBCMT:winapinls.obj
 0002:00006fdc       ??_C@_1M@NIEJCJJA@?$AAj?$AAa?$AA?9?$AAj?$AAp?$AA?$AA@ 10040fdc     LIBCMT:winapinls.obj
 0002:00006fe8       ??_C@_1M@JILFNBIM@?$AAk?$AAa?$AA?9?$AAg?$AAe?$AA?$AA@ 10040fe8     LIBCMT:winapinls.obj
 0002:00006ff4       ??_C@_1M@PACPMGPH@?$AAk?$AAk?$AA?9?$AAk?$AAz?$AA?$AA@ 10040ff4     LIBCMT:winapinls.obj
 0002:00007000       ??_C@_1M@IELFGMHA@?$AAk?$AAn?$AA?9?$AAi?$AAn?$AA?$AA@ 10041000     LIBCMT:winapinls.obj
 0002:0000700c       ??_C@_1O@IBBJHCH@?$AAk?$AAo?$AAk?$AA?9?$AAi?$AAn?$AA?$AA@ 1004100c     LIBCMT:winapinls.obj
 0002:0000701c       ??_C@_1M@DMHAEOGC@?$AAk?$AAo?$AA?9?$AAk?$AAr?$AA?$AA@ 1004101c     LIBCMT:winapinls.obj
 0002:00007028       ??_C@_1M@HBAHBIGA@?$AAk?$AAy?$AA?9?$AAk?$AAg?$AA?$AA@ 10041028     LIBCMT:winapinls.obj
 0002:00007034       ??_C@_1M@KPMILCJG@?$AAl?$AAt?$AA?9?$AAl?$AAt?$AA?$AA@ 10041034     LIBCMT:winapinls.obj
 0002:00007040       ??_C@_1M@BDEKKCA@?$AAl?$AAv?$AA?9?$AAl?$AAv?$AA?$AA@ 10041040     LIBCMT:winapinls.obj
 0002:0000704c       ??_C@_1M@ELCKCCJJ@?$AAm?$AAi?$AA?9?$AAn?$AAz?$AA?$AA@ 1004104c     LIBCMT:winapinls.obj
 0002:00007058       ??_C@_1M@CBOOLAPA@?$AAm?$AAk?$AA?9?$AAm?$AAk?$AA?$AA@ 10041058     LIBCMT:winapinls.obj
 0002:00007064       ??_C@_1M@GPHNBJKN@?$AAm?$AAl?$AA?9?$AAi?$AAn?$AA?$AA@ 10041064     LIBCMT:winapinls.obj
 0002:00007070       ??_C@_1M@PABJILIG@?$AAm?$AAn?$AA?9?$AAm?$AAn?$AA?$AA@ 10041070     LIBCMT:winapinls.obj
 0002:0000707c       ??_C@_1M@FGBKKIPG@?$AAm?$AAr?$AA?9?$AAi?$AAn?$AA?$AA@ 1004107c     LIBCMT:winapinls.obj
 0002:00007088       ??_C@_1M@NDBPDDAL@?$AAm?$AAs?$AA?9?$AAb?$AAn?$AA?$AA@ 10041088     LIBCMT:winapinls.obj
 0002:00007094       ??_C@_1M@OPIHOOPI@?$AAm?$AAs?$AA?9?$AAm?$AAy?$AA?$AA@ 10041094     LIBCMT:winapinls.obj
 0002:000070a0       ??_C@_1M@PPDBCNFM@?$AAm?$AAt?$AA?9?$AAm?$AAt?$AA?$AA@ 100410a0     LIBCMT:winapinls.obj
 0002:000070ac       ??_C@_1M@KDJDKMDD@?$AAn?$AAb?$AA?9?$AAn?$AAo?$AA?$AA@ 100410ac     LIBCMT:winapinls.obj
 0002:000070b8       ??_C@_1M@KFCFLMJP@?$AAn?$AAl?$AA?9?$AAb?$AAe?$AA?$AA@ 100410b8     LIBCMT:winapinls.obj
 0002:000070c4       ??_C@_1M@KPOPDDGO@?$AAn?$AAl?$AA?9?$AAn?$AAl?$AA?$AA@ 100410c4     LIBCMT:winapinls.obj
 0002:000070d0       ??_C@_1M@LJKPEMLN@?$AAn?$AAn?$AA?9?$AAn?$AAo?$AA?$AA@ 100410d0     LIBCMT:winapinls.obj
 0002:000070dc       ??_C@_1M@BDGHHBFL@?$AAn?$AAs?$AA?9?$AAz?$AAa?$AA?$AA@ 100410dc     LIBCMT:winapinls.obj
 0002:000070e8       ??_C@_1M@IDEHOAP@?$AAp?$AAa?$AA?9?$AAi?$AAn?$AA?$AA@ 100410e8     LIBCMT:winapinls.obj
 0002:000070f4       ??_C@_1M@HDBKGOGH@?$AAp?$AAl?$AA?9?$AAp?$AAl?$AA?$AA@ 100410f4     LIBCMT:winapinls.obj
 0002:00007100       ??_C@_1M@LJLLCMEH@?$AAp?$AAt?$AA?9?$AAb?$AAr?$AA?$AA@ 10041100     LIBCMT:winapinls.obj
 0002:0000710c       ??_C@_1M@NCMONAAL@?$AAp?$AAt?$AA?9?$AAp?$AAt?$AA?$AA@ 1004110c     LIBCMT:winapinls.obj
 0002:00007118       ??_C@_1O@EAKMAJDN@?$AAq?$AAu?$AAz?$AA?9?$AAb?$AAo?$AA?$AA@ 10041118     LIBCMT:winapinls.obj
 0002:00007128       ??_C@_1O@BHHPIGDN@?$AAq?$AAu?$AAz?$AA?9?$AAe?$AAc?$AA?$AA@ 10041128     LIBCMT:winapinls.obj
 0002:00007138       ??_C@_1O@GBAPEKMJ@?$AAq?$AAu?$AAz?$AA?9?$AAp?$AAe?$AA?$AA@ 10041138     LIBCMT:winapinls.obj
 0002:00007148       ??_C@_1M@CLGLEFBO@?$AAr?$AAo?$AA?9?$AAr?$AAo?$AA?$AA@ 10041148     LIBCMT:winapinls.obj
 0002:00007154       ??_C@_1M@CEEDODME@?$AAr?$AAu?$AA?9?$AAr?$AAu?$AA?$AA@ 10041154     LIBCMT:winapinls.obj
 0002:00007160       ??_C@_1M@HPKKKMPP@?$AAs?$AAa?$AA?9?$AAi?$AAn?$AA?$AA@ 10041160     LIBCMT:winapinls.obj
 0002:0000716c       ??_C@_1M@BKMAIGOJ@?$AAs?$AAe?$AA?9?$AAf?$AAi?$AA?$AA@ 1004116c     LIBCMT:winapinls.obj
 0002:00007178       ??_C@_1M@NDPIFLFI@?$AAs?$AAe?$AA?9?$AAn?$AAo?$AA?$AA@ 10041178     LIBCMT:winapinls.obj
 0002:00007184       ??_C@_1M@DANKKHJ@?$AAs?$AAe?$AA?9?$AAs?$AAe?$AA?$AA@ 10041184     LIBCMT:winapinls.obj
 0002:00007190       ??_C@_1M@PNBLONPJ@?$AAs?$AAk?$AA?9?$AAs?$AAk?$AA?$AA@ 10041190     LIBCMT:winapinls.obj
 0002:0000719c       ??_C@_1M@LFMODOAL@?$AAs?$AAl?$AA?9?$AAs?$AAi?$AA?$AA@ 1004119c     LIBCMT:winapinls.obj
 0002:000071a8       ??_C@_1O@DFKOMPG@?$AAs?$AAm?$AAa?$AA?9?$AAn?$AAo?$AA?$AA@ 100411a8     LIBCMT:winapinls.obj
 0002:000071b8       ??_C@_1O@NDKPBNNH@?$AAs?$AAm?$AAa?$AA?9?$AAs?$AAe?$AA?$AA@ 100411b8     LIBCMT:winapinls.obj
 0002:000071c8       ??_C@_1O@PLLKBHAB@?$AAs?$AAm?$AAj?$AA?9?$AAn?$AAo?$AA?$AA@ 100411c8     LIBCMT:winapinls.obj
 0002:000071d8       ??_C@_1O@CLEPOGCA@?$AAs?$AAm?$AAj?$AA?9?$AAs?$AAe?$AA?$AA@ 100411d8     LIBCMT:winapinls.obj
 0002:000071e8       ??_C@_1O@DLGJGKMK@?$AAs?$AAm?$AAn?$AA?9?$AAf?$AAi?$AA?$AA@ 100411e8     LIBCMT:winapinls.obj
 0002:000071f8       ??_C@_1O@OJDJGAJC@?$AAs?$AAm?$AAs?$AA?9?$AAf?$AAi?$AA?$AA@ 100411f8     LIBCMT:winapinls.obj
 0002:00007208       ??_C@_1M@BOFOGHPB@?$AAs?$AAq?$AA?9?$AAa?$AAl?$AA?$AA@ 10041208     LIBCMT:winapinls.obj
 0002:00007214       ??_C@_1BG@LJBBIPGB@?$AAs?$AAr?$AA?9?$AAb?$AAa?$AA?9?$AAc?$AAy?$AAr?$AAl?$AA?$AA@ 10041214     LIBCMT:winapinls.obj
 0002:0000722c       ??_C@_1BG@JLBENFOE@?$AAs?$AAr?$AA?9?$AAb?$AAa?$AA?9?$AAl?$AAa?$AAt?$AAn?$AA?$AA@ 1004122c     LIBCMT:winapinls.obj
 0002:00007244       ??_C@_1BG@KODPNHE@?$AAs?$AAr?$AA?9?$AAs?$AAp?$AA?9?$AAc?$AAy?$AAr?$AAl?$AA?$AA@ 10041244     LIBCMT:winapinls.obj
 0002:0000725c       ??_C@_1BG@CIOGKHPB@?$AAs?$AAr?$AA?9?$AAs?$AAp?$AA?9?$AAl?$AAa?$AAt?$AAn?$AA?$AA@ 1004125c     LIBCMT:winapinls.obj
 0002:00007274       ??_C@_1M@NGFJLMAC@?$AAs?$AAv?$AA?9?$AAf?$AAi?$AA?$AA@ 10041274     LIBCMT:winapinls.obj
 0002:00007280       ??_C@_1M@MPJEJAJC@?$AAs?$AAv?$AA?9?$AAs?$AAe?$AA?$AA@ 10041280     LIBCMT:winapinls.obj
 0002:0000728c       ??_C@_1M@MPNDHLFK@?$AAs?$AAw?$AA?9?$AAk?$AAe?$AA?$AA@ 1004128c     LIBCMT:winapinls.obj
 0002:00007298       ??_C@_1O@KOHBJJI@?$AAs?$AAy?$AAr?$AA?9?$AAs?$AAy?$AA?$AA@ 10041298     LIBCMT:winapinls.obj
 0002:000072a8       ??_C@_1M@LDCEFHA@?$AAt?$AAa?$AA?9?$AAi?$AAn?$AA?$AA@ 100412a8     LIBCMT:winapinls.obj
 0002:000072b4       ??_C@_1M@CNJOFAK@?$AAt?$AAe?$AA?9?$AAi?$AAn?$AA?$AA@ 100412b4     LIBCMT:winapinls.obj
 0002:000072c0       ??_C@_1M@GNAECACD@?$AAt?$AAh?$AA?9?$AAt?$AAh?$AA?$AA@ 100412c0     LIBCMT:winapinls.obj
 0002:000072cc       ??_C@_1M@CHBIHOJO@?$AAt?$AAn?$AA?9?$AAz?$AAa?$AA?$AA@ 100412cc     LIBCMT:winapinls.obj
 0002:000072d8       ??_C@_1M@GCCMIGPJ@?$AAt?$AAr?$AA?9?$AAt?$AAr?$AA?$AA@ 100412d8     LIBCMT:winapinls.obj
 0002:000072e4       ??_C@_1M@CELMCNBK@?$AAt?$AAt?$AA?9?$AAr?$AAu?$AA?$AA@ 100412e4     LIBCMT:winapinls.obj
 0002:000072f0       ??_C@_1M@KLMCELGA@?$AAu?$AAk?$AA?9?$AAu?$AAa?$AA?$AA@ 100412f0     LIBCMT:winapinls.obj
 0002:000072fc       ??_C@_1M@EPAJJAJF@?$AAu?$AAr?$AA?9?$AAp?$AAk?$AA?$AA@ 100412fc     LIBCMT:winapinls.obj
 0002:00007308       ??_C@_1BG@GEGPMCDJ@?$AAu?$AAz?$AA?9?$AAu?$AAz?$AA?9?$AAc?$AAy?$AAr?$AAl?$AA?$AA@ 10041308     LIBCMT:winapinls.obj
 0002:00007320       ??_C@_1BG@EGGKJILM@?$AAu?$AAz?$AA?9?$AAu?$AAz?$AA?9?$AAl?$AAa?$AAt?$AAn?$AA?$AA@ 10041320     LIBCMT:winapinls.obj
 0002:00007338       ??_C@_1M@GFOCLFF@?$AAv?$AAi?$AA?9?$AAv?$AAn?$AA?$AA@ 10041338     LIBCMT:winapinls.obj
 0002:00007344       ??_C@_1M@CPAMEDFI@?$AAx?$AAh?$AA?9?$AAz?$AAa?$AA?$AA@ 10041344     LIBCMT:winapinls.obj
 0002:00007350       ??_C@_1O@EBKIFIGN@?$AAz?$AAh?$AA?9?$AAc?$AAh?$AAs?$AA?$AA@ 10041350     LIBCMT:winapinls.obj
 0002:00007360       ??_C@_1O@NMHPGANE@?$AAz?$AAh?$AA?9?$AAc?$AAh?$AAt?$AA?$AA@ 10041360     LIBCMT:winapinls.obj
 0002:00007370       ??_C@_1M@LPINJOMC@?$AAz?$AAh?$AA?9?$AAc?$AAn?$AA?$AA@ 10041370     LIBCMT:winapinls.obj
 0002:0000737c       ??_C@_1M@OCJEJODD@?$AAz?$AAh?$AA?9?$AAh?$AAk?$AA?$AA@ 1004137c     LIBCMT:winapinls.obj
 0002:00007388       ??_C@_1M@DNDLJINH@?$AAz?$AAh?$AA?9?$AAm?$AAo?$AA?$AA@ 10041388     LIBCMT:winapinls.obj
 0002:00007394       ??_C@_1M@MBFDNDND@?$AAz?$AAh?$AA?9?$AAs?$AAg?$AA?$AA@ 10041394     LIBCMT:winapinls.obj
 0002:000073a0       ??_C@_1M@IMEPLEPE@?$AAz?$AAh?$AA?9?$AAt?$AAw?$AA?$AA@ 100413a0     LIBCMT:winapinls.obj
 0002:000073ac       ??_C@_1M@BBGHNHJP@?$AAz?$AAu?$AA?9?$AAz?$AAa?$AA?$AA@ 100413ac     LIBCMT:winapinls.obj
 0002:000073b8       ___lookuptable_s           100413b8     LIBCMT:outputs.obj
 0002:00007418       ___lc_category             10041418     LIBCMT:wsetloca.obj
 0002:00007460       ??_C@_1O@GIFLHMA@?$AAL?$AAC?$AA_?$AAA?$AAL?$AAL?$AA?$AA@ 10041460     LIBCMT:wsetloca.obj
 0002:00007470       ??_C@_1BG@PPOMIBNJ@?$AAL?$AAC?$AA_?$AAC?$AAO?$AAL?$AAL?$AAA?$AAT?$AAE?$AA?$AA@ 10041470     LIBCMT:wsetloca.obj
 0002:00007488       ??_C@_1BC@FFJGAPJM@?$AAL?$AAC?$AA_?$AAC?$AAT?$AAY?$AAP?$AAE?$AA?$AA@ 10041488     LIBCMT:wsetloca.obj
 0002:0000749c       ??_C@_1BI@PCKFNJFB@?$AAL?$AAC?$AA_?$AAM?$AAO?$AAN?$AAE?$AAT?$AAA?$AAR?$AAY?$AA?$AA@ 1004149c     LIBCMT:wsetloca.obj
 0002:000074b4       ??_C@_1BG@ENIEDKID@?$AAL?$AAC?$AA_?$AAN?$AAU?$AAM?$AAE?$AAR?$AAI?$AAC?$AA?$AA@ 100414b4     LIBCMT:wsetloca.obj
 0002:000074cc       ??_C@_1BA@HAAOMIIG@?$AAL?$AAC?$AA_?$AAT?$AAI?$AAM?$AAE?$AA?$AA@ 100414cc     LIBCMT:wsetloca.obj
 0002:00007560       ??_C@_15NBPDDFIP@?$AA?$DN?$AA?$DL?$AA?$AA@ 10041560     LIBCMT:wsetloca.obj
 0002:00007568       ??_C@_13PJJBFPED@?$AA?$DL?$AA?$AA@ 10041568     LIBCMT:wsetloca.obj
 0002:0000756c       ??_C@_13NMPKAAJP@?$AA?$DN?$AA?$AA@ 1004156c     LIBCMT:wsetloca.obj
 0002:00007570       ??_C@_13FHBKNHDA@?$AAC?$AA?$AA@ 10041570     LIBCMT:wsetloca.obj
 0002:00007574       ??_C@_17MBJJLFDM@?$AA_?$AA?4?$AA?0?$AA?$AA@ 10041574     LIBCMT:wsetloca.obj
 0002:0000757c       ??_C@_13ENNFDPBH@?$AA_?$AA?$AA@ 1004157c     LIBCMT:wsetloca.obj
 0002:00007580       ??_C@_13JOFGPIOO@?$AA?4?$AA?$AA@ 10041580     LIBCMT:wsetloca.obj
 0002:00007584       ??_C@_06PGGFOGJG@1?$CDSNAN?$AA@ 10041584     LIBCMT:x10fout.obj
 0002:0000758c       ??_C@_05PHHOCPM@1?$CDIND?$AA@ 1004158c     LIBCMT:x10fout.obj
 0002:00007594       ??_C@_05DNEBIAHO@1?$CDINF?$AA@ 10041594     LIBCMT:x10fout.obj
 0002:0000759c       ??_C@_06IMKFLFPG@1?$CDQNAN?$AA@ 1004159c     LIBCMT:x10fout.obj
 0002:000075a8       ___newctype                100415a8     LIBCMT:ctype.obj
 0002:000078a8       __wctype                   100418a8     LIBCMT:ctype.obj
 0002:00007ab0       ___newclmap                10041ab0     LIBCMT:ctype.obj
 0002:00007c30       ___newcumap                10041c30     LIBCMT:ctype.obj
 0002:00007db0       ??_C@_0M@HHGEPIBF@CreateFile2?$AA@ 10041db0     LIBCMT:wopen.obj
 0002:00007dbc       ??_C@_1BA@BALFACEM@?$AAC?$AAO?$AAN?$AAO?$AAU?$AAT?$AA$?$AA?$AA@ 10041dbc     LIBCMT:initcon.obj
 0002:00007dd0       ___rg_language             10041dd0     LIBCMT:getqloc.obj
 0002:000080dc       ??_C@_1BC@LLOKLNP@?$AAa?$AAm?$AAe?$AAr?$AAi?$AAc?$AAa?$AAn?$AA?$AA@ 100420dc     LIBCMT:getqloc.obj
 0002:000080f0       ??_C@_1CC@HEIGCDGG@?$AAa?$AAm?$AAe?$AAr?$AAi?$AAc?$AAa?$AAn?$AA?5?$AAe?$AAn?$AAg?$AAl?$AAi?$AAs?$AAh?$AA?$AA@ 100420f0     LIBCMT:getqloc.obj
 0002:00008114       ??_C@_1CC@IHCNOMIN@?$AAa?$AAm?$AAe?$AAr?$AAi?$AAc?$AAa?$AAn?$AA?9?$AAe?$AAn?$AAg?$AAl?$AAi?$AAs?$AAh?$AA?$AA@ 10042114     LIBCMT:getqloc.obj
 0002:00008138       ??_C@_1BG@GKAGPCGG@?$AAa?$AAu?$AAs?$AAt?$AAr?$AAa?$AAl?$AAi?$AAa?$AAn?$AA?$AA@ 10042138     LIBCMT:getqloc.obj
 0002:00008150       ??_C@_1BA@GMENCENF@?$AAb?$AAe?$AAl?$AAg?$AAi?$AAa?$AAn?$AA?$AA@ 10042150     LIBCMT:getqloc.obj
 0002:00008160       ??_C@_1BC@PJMIIAAN@?$AAc?$AAa?$AAn?$AAa?$AAd?$AAi?$AAa?$AAn?$AA?$AA@ 10042160     LIBCMT:getqloc.obj
 0002:00008174       ??_C@_17NOIMNFBF@?$AAc?$AAh?$AAh?$AA?$AA@ 10042174     LIBCMT:getqloc.obj
 0002:0000817c       ??_C@_17GGDALCHA@?$AAc?$AAh?$AAi?$AA?$AA@ 1004217c     LIBCMT:getqloc.obj
 0002:00008184       ??_C@_1BA@NPNJKIBL@?$AAc?$AAh?$AAi?$AAn?$AAe?$AAs?$AAe?$AA?$AA@ 10042184     LIBCMT:getqloc.obj
 0002:00008194       ??_C@_1CC@DINBAMMJ@?$AAc?$AAh?$AAi?$AAn?$AAe?$AAs?$AAe?$AA?9?$AAh?$AAo?$AAn?$AAg?$AAk?$AAo?$AAn?$AAg?$AA?$AA@ 10042194     LIBCMT:getqloc.obj
 0002:000081b8       ??_C@_1CG@IOBJPACO@?$AAc?$AAh?$AAi?$AAn?$AAe?$AAs?$AAe?$AA?9?$AAs?$AAi?$AAm?$AAp?$AAl?$AAi?$AAf?$AAi?$AAe?$AAd?$AA?$AA@ 100421b8     LIBCMT:getqloc.obj
 0002:000081e0       ??_C@_1CE@GAJNDCKG@?$AAc?$AAh?$AAi?$AAn?$AAe?$AAs?$AAe?$AA?9?$AAs?$AAi?$AAn?$AAg?$AAa?$AAp?$AAo?$AAr?$AAe?$AA?$AA@ 100421e0     LIBCMT:getqloc.obj
 0002:00008204       ??_C@_1CI@PAJPIOOD@?$AAc?$AAh?$AAi?$AAn?$AAe?$AAs?$AAe?$AA?9?$AAt?$AAr?$AAa?$AAd?$AAi?$AAt?$AAi?$AAo?$AAn?$AAa?$AAl?$AA?$AA@ 10042204     LIBCMT:getqloc.obj
 0002:0000822c       ??_C@_1BM@NILJBMMD@?$AAd?$AAu?$AAt?$AAc?$AAh?$AA?9?$AAb?$AAe?$AAl?$AAg?$AAi?$AAa?$AAn?$AA?$AA@ 1004222c     LIBCMT:getqloc.obj
 0002:00008248       ??_C@_1CC@OOJPJNEJ@?$AAe?$AAn?$AAg?$AAl?$AAi?$AAs?$AAh?$AA?9?$AAa?$AAm?$AAe?$AAr?$AAi?$AAc?$AAa?$AAn?$AA?$AA@ 10042248     LIBCMT:getqloc.obj
 0002:0000826c       ??_C@_1BI@IOLFEEM@?$AAe?$AAn?$AAg?$AAl?$AAi?$AAs?$AAh?$AA?9?$AAa?$AAu?$AAs?$AA?$AA@ 1004226c     LIBCMT:getqloc.obj
 0002:00008284       ??_C@_1BO@HFFNLENJ@?$AAe?$AAn?$AAg?$AAl?$AAi?$AAs?$AAh?$AA?9?$AAb?$AAe?$AAl?$AAi?$AAz?$AAe?$AA?$AA@ 10042284     LIBCMT:getqloc.obj
 0002:000082a4       ??_C@_1BI@HAPKJMPO@?$AAe?$AAn?$AAg?$AAl?$AAi?$AAs?$AAh?$AA?9?$AAc?$AAa?$AAn?$AA?$AA@ 100422a4     LIBCMT:getqloc.obj
 0002:000082bc       ??_C@_1CE@HLNDMIOJ@?$AAe?$AAn?$AAg?$AAl?$AAi?$AAs?$AAh?$AA?9?$AAc?$AAa?$AAr?$AAi?$AAb?$AAb?$AAe?$AAa?$AAn?$AA?$AA@ 100422bc     LIBCMT:getqloc.obj
 0002:000082e0       ??_C@_1BI@LDHJHHAC@?$AAe?$AAn?$AAg?$AAl?$AAi?$AAs?$AAh?$AA?9?$AAi?$AAr?$AAe?$AA?$AA@ 100422e0     LIBCMT:getqloc.obj
 0002:000082f8       ??_C@_1CA@NJMMCFOC@?$AAe?$AAn?$AAg?$AAl?$AAi?$AAs?$AAh?$AA?9?$AAj?$AAa?$AAm?$AAa?$AAi?$AAc?$AAa?$AA?$AA@ 100422f8     LIBCMT:getqloc.obj
 0002:00008318       ??_C@_1BG@BHJEBBGG@?$AAe?$AAn?$AAg?$AAl?$AAi?$AAs?$AAh?$AA?9?$AAn?$AAz?$AA?$AA@ 10042318     LIBCMT:getqloc.obj
 0002:00008330       ??_C@_1CK@FGOEJJCO@?$AAe?$AAn?$AAg?$AAl?$AAi?$AAs?$AAh?$AA?9?$AAs?$AAo?$AAu?$AAt?$AAh?$AA?5?$AAa?$AAf?$AAr?$AAi?$AAc?$AAa?$AA?$AA@ 10042330     LIBCMT:getqloc.obj
 0002:0000835c       ??_C@_1DE@PDBJPCJ@?$AAe?$AAn?$AAg?$AAl?$AAi?$AAs?$AAh?$AA?9?$AAt?$AAr?$AAi?$AAn?$AAi?$AAd?$AAa?$AAd?$AA?5?$AAy?$AA?5?$AAt?$AAo?$AAb?$AAa?$AAg?$AAo?$AA?$AA@ 1004235c     LIBCMT:getqloc.obj
 0002:00008390       ??_C@_1BG@JGCANDME@?$AAe?$AAn?$AAg?$AAl?$AAi?$AAs?$AAh?$AA?9?$AAu?$AAk?$AA?$AA@ 10042390     LIBCMT:getqloc.obj
 0002:000083a8       ??_C@_1BG@DINKMLE@?$AAe?$AAn?$AAg?$AAl?$AAi?$AAs?$AAh?$AA?9?$AAu?$AAs?$AA?$AA@ 100423a8     LIBCMT:getqloc.obj
 0002:000083c0       ??_C@_1BI@NMFDBHJE@?$AAe?$AAn?$AAg?$AAl?$AAi?$AAs?$AAh?$AA?9?$AAu?$AAs?$AAa?$AA?$AA@ 100423c0     LIBCMT:getqloc.obj
 0002:000083d8       ??_C@_1BO@OIHKJKII@?$AAf?$AAr?$AAe?$AAn?$AAc?$AAh?$AA?9?$AAb?$AAe?$AAl?$AAg?$AAi?$AAa?$AAn?$AA?$AA@ 100423d8     LIBCMT:getqloc.obj
 0002:000083f8       ??_C@_1CA@NKAELJKI@?$AAf?$AAr?$AAe?$AAn?$AAc?$AAh?$AA?9?$AAc?$AAa?$AAn?$AAa?$AAd?$AAi?$AAa?$AAn?$AA?$AA@ 100423f8     LIBCMT:getqloc.obj
 0002:00008418       ??_C@_1CE@MGKCNLGN@?$AAf?$AAr?$AAe?$AAn?$AAc?$AAh?$AA?9?$AAl?$AAu?$AAx?$AAe?$AAm?$AAb?$AAo?$AAu?$AAr?$AAg?$AA?$AA@ 10042418     LIBCMT:getqloc.obj
 0002:0000843c       ??_C@_1BK@CEGEAILM@?$AAf?$AAr?$AAe?$AAn?$AAc?$AAh?$AA?9?$AAs?$AAw?$AAi?$AAs?$AAs?$AA?$AA@ 1004243c     LIBCMT:getqloc.obj
 0002:00008458       ??_C@_1CA@PAFKEOCC@?$AAg?$AAe?$AAr?$AAm?$AAa?$AAn?$AA?9?$AAa?$AAu?$AAs?$AAt?$AAr?$AAi?$AAa?$AAn?$AA?$AA@ 10042458     LIBCMT:getqloc.obj
 0002:00008478       ??_C@_1CI@HCFHGOFD@?$AAg?$AAe?$AAr?$AAm?$AAa?$AAn?$AA?9?$AAl?$AAi?$AAc?$AAh?$AAt?$AAe?$AAn?$AAs?$AAt?$AAe?$AAi?$AAn?$AA?$AA@ 10042478     LIBCMT:getqloc.obj
 0002:000084a0       ??_C@_1CE@FEDDNPDG@?$AAg?$AAe?$AAr?$AAm?$AAa?$AAn?$AA?9?$AAl?$AAu?$AAx?$AAe?$AAm?$AAb?$AAo?$AAu?$AAr?$AAg?$AA?$AA@ 100424a0     LIBCMT:getqloc.obj
 0002:000084c4       ??_C@_1BK@LIMINNMN@?$AAg?$AAe?$AAr?$AAm?$AAa?$AAn?$AA?9?$AAs?$AAw?$AAi?$AAs?$AAs?$AA?$AA@ 100424c4     LIBCMT:getqloc.obj
 0002:000084e0       ??_C@_1BM@LGMDBEPD@?$AAi?$AAr?$AAi?$AAs?$AAh?$AA?9?$AAe?$AAn?$AAg?$AAl?$AAi?$AAs?$AAh?$AA?$AA@ 100424e0     LIBCMT:getqloc.obj
 0002:000084fc       ??_C@_1BM@NNCFBAEE@?$AAi?$AAt?$AAa?$AAl?$AAi?$AAa?$AAn?$AA?9?$AAs?$AAw?$AAi?$AAs?$AAs?$AA?$AA@ 100424fc     LIBCMT:getqloc.obj
 0002:00008518       ??_C@_1BE@FEDJNPIB@?$AAn?$AAo?$AAr?$AAw?$AAe?$AAg?$AAi?$AAa?$AAn?$AA?$AA@ 10042518     LIBCMT:getqloc.obj
 0002:0000852c       ??_C@_1CC@CILKDEIE@?$AAn?$AAo?$AAr?$AAw?$AAe?$AAg?$AAi?$AAa?$AAn?$AA?9?$AAb?$AAo?$AAk?$AAm?$AAa?$AAl?$AA?$AA@ 1004252c     LIBCMT:getqloc.obj
 0002:00008550       ??_C@_1CE@DHMMHEPL@?$AAn?$AAo?$AAr?$AAw?$AAe?$AAg?$AAi?$AAa?$AAn?$AA?9?$AAn?$AAy?$AAn?$AAo?$AAr?$AAs?$AAk?$AA?$AA@ 10042550     LIBCMT:getqloc.obj
 0002:00008574       ??_C@_1CK@OPNMHECD@?$AAp?$AAo?$AAr?$AAt?$AAu?$AAg?$AAu?$AAe?$AAs?$AAe?$AA?9?$AAb?$AAr?$AAa?$AAz?$AAi?$AAl?$AAi?$AAa?$AAn?$AA?$AA@ 10042574     LIBCMT:getqloc.obj
 0002:000085a0       ??_C@_1CE@KEEHCDB@?$AAs?$AAp?$AAa?$AAn?$AAi?$AAs?$AAh?$AA?9?$AAa?$AAr?$AAg?$AAe?$AAn?$AAt?$AAi?$AAn?$AAa?$AA?$AA@ 100425a0     LIBCMT:getqloc.obj
 0002:000085c4       ??_C@_1CA@GIAOLHJD@?$AAs?$AAp?$AAa?$AAn?$AAi?$AAs?$AAh?$AA?9?$AAb?$AAo?$AAl?$AAi?$AAv?$AAi?$AAa?$AA?$AA@ 100425c4     LIBCMT:getqloc.obj
 0002:000085e4       ??_C@_1BM@OJNDFNPD@?$AAs?$AAp?$AAa?$AAn?$AAi?$AAs?$AAh?$AA?9?$AAc?$AAh?$AAi?$AAl?$AAe?$AA?$AA@ 100425e4     LIBCMT:getqloc.obj
 0002:00008600       ??_C@_1CC@OCOLPALL@?$AAs?$AAp?$AAa?$AAn?$AAi?$AAs?$AAh?$AA?9?$AAc?$AAo?$AAl?$AAo?$AAm?$AAb?$AAi?$AAa?$AA?$AA@ 10042600     LIBCMT:getqloc.obj
 0002:00008624       ??_C@_1CG@BPOFMKBB@?$AAs?$AAp?$AAa?$AAn?$AAi?$AAs?$AAh?$AA?9?$AAc?$AAo?$AAs?$AAt?$AAa?$AA?5?$AAr?$AAi?$AAc?$AAa?$AA?$AA@ 10042624     LIBCMT:getqloc.obj
 0002:0000864c       ??_C@_1DG@IGOBAPBB@?$AAs?$AAp?$AAa?$AAn?$AAi?$AAs?$AAh?$AA?9?$AAd?$AAo?$AAm?$AAi?$AAn?$AAi?$AAc?$AAa?$AAn?$AA?5?$AAr?$AAe?$AAp?$AAu?$AAb?$AAl?$AAi?$AAc?$AA?$AA@ 1004264c     LIBCMT:getqloc.obj
 0002:00008684       ??_C@_1CA@JHAPGEGI@?$AAs?$AAp?$AAa?$AAn?$AAi?$AAs?$AAh?$AA?9?$AAe?$AAc?$AAu?$AAa?$AAd?$AAo?$AAr?$AA?$AA@ 10042684     LIBCMT:getqloc.obj
 0002:000086a4       ??_C@_1CI@LAPALJPP@?$AAs?$AAp?$AAa?$AAn?$AAi?$AAs?$AAh?$AA?9?$AAe?$AAl?$AA?5?$AAs?$AAa?$AAl?$AAv?$AAa?$AAd?$AAo?$AAr?$AA?$AA@ 100426a4     LIBCMT:getqloc.obj
 0002:000086cc       ??_C@_1CE@PDGBOFOM@?$AAs?$AAp?$AAa?$AAn?$AAi?$AAs?$AAh?$AA?9?$AAg?$AAu?$AAa?$AAt?$AAe?$AAm?$AAa?$AAl?$AAa?$AA?$AA@ 100426cc     LIBCMT:getqloc.obj
 0002:000086f0       ??_C@_1CC@NBEBAODI@?$AAs?$AAp?$AAa?$AAn?$AAi?$AAs?$AAh?$AA?9?$AAh?$AAo?$AAn?$AAd?$AAu?$AAr?$AAa?$AAs?$AA?$AA@ 100426f0     LIBCMT:getqloc.obj
 0002:00008714       ??_C@_1CA@LLKGHBMF@?$AAs?$AAp?$AAa?$AAn?$AAi?$AAs?$AAh?$AA?9?$AAm?$AAe?$AAx?$AAi?$AAc?$AAa?$AAn?$AA?$AA@ 10042714     LIBCMT:getqloc.obj
 0002:00008734       ??_C@_1BO@LKNDOIGD@?$AAs?$AAp?$AAa?$AAn?$AAi?$AAs?$AAh?$AA?9?$AAm?$AAo?$AAd?$AAe?$AAr?$AAn?$AA?$AA@ 10042734     LIBCMT:getqloc.obj
 0002:00008754       ??_C@_1CE@NMDMOEEB@?$AAs?$AAp?$AAa?$AAn?$AAi?$AAs?$AAh?$AA?9?$AAn?$AAi?$AAc?$AAa?$AAr?$AAa?$AAg?$AAu?$AAa?$AA?$AA@ 10042754     LIBCMT:getqloc.obj
 0002:00008778       ??_C@_1BO@LLCBEJGB@?$AAs?$AAp?$AAa?$AAn?$AAi?$AAs?$AAh?$AA?9?$AAp?$AAa?$AAn?$AAa?$AAm?$AAa?$AA?$AA@ 10042778     LIBCMT:getqloc.obj
 0002:00008798       ??_C@_1CC@FKPGGIHO@?$AAs?$AAp?$AAa?$AAn?$AAi?$AAs?$AAh?$AA?9?$AAp?$AAa?$AAr?$AAa?$AAg?$AAu?$AAa?$AAy?$AA?$AA@ 10042798     LIBCMT:getqloc.obj
 0002:000087bc       ??_C@_1BK@CDEIHOOP@?$AAs?$AAp?$AAa?$AAn?$AAi?$AAs?$AAh?$AA?9?$AAp?$AAe?$AAr?$AAu?$AA?$AA@ 100427bc     LIBCMT:getqloc.obj
 0002:000087d8       ??_C@_1CI@GAHAKKGP@?$AAs?$AAp?$AAa?$AAn?$AAi?$AAs?$AAh?$AA?9?$AAp?$AAu?$AAe?$AAr?$AAt?$AAo?$AA?5?$AAr?$AAi?$AAc?$AAo?$AA?$AA@ 100427d8     LIBCMT:getqloc.obj
 0002:00008800       ??_C@_1CA@NKJBCAGP@?$AAs?$AAp?$AAa?$AAn?$AAi?$AAs?$AAh?$AA?9?$AAu?$AAr?$AAu?$AAg?$AAu?$AAa?$AAy?$AA?$AA@ 10042800     LIBCMT:getqloc.obj
 0002:00008820       ??_C@_1CE@ODILCONM@?$AAs?$AAp?$AAa?$AAn?$AAi?$AAs?$AAh?$AA?9?$AAv?$AAe?$AAn?$AAe?$AAz?$AAu?$AAe?$AAl?$AAa?$AA?$AA@ 10042820     LIBCMT:getqloc.obj
 0002:00008844       ??_C@_1CA@OBNMCGFO@?$AAs?$AAw?$AAe?$AAd?$AAi?$AAs?$AAh?$AA?9?$AAf?$AAi?$AAn?$AAl?$AAa?$AAn?$AAd?$AA?$AA@ 10042844     LIBCMT:getqloc.obj
 0002:00008864       ??_C@_1M@PIPDDPPI@?$AAs?$AAw?$AAi?$AAs?$AAs?$AA?$AA@ 10042864     LIBCMT:getqloc.obj
 0002:00008870       ??_C@_15GMFIMNFM@?$AAu?$AAs?$AA?$AA@ 10042870     LIBCMT:getqloc.obj
 0002:00008878       ??_C@_17HAEBFAGL@?$AAu?$AAs?$AAa?$AA?$AA@ 10042878     LIBCMT:getqloc.obj
 0002:00008880       ___rg_country              10042880     LIBCMT:getqloc.obj
 0002:00008994       ??_C@_1BA@DPFJEPHB@?$AAa?$AAm?$AAe?$AAr?$AAi?$AAc?$AAa?$AA?$AA@ 10042994     LIBCMT:getqloc.obj
 0002:000089a4       ??_C@_1BA@ELOGGFK@?$AAb?$AAr?$AAi?$AAt?$AAa?$AAi?$AAn?$AA?$AA@ 100429a4     LIBCMT:getqloc.obj
 0002:000089b4       ??_C@_1M@GHBGIGDA@?$AAc?$AAh?$AAi?$AAn?$AAa?$AA?$AA@ 100429b4     LIBCMT:getqloc.obj
 0002:000089c0       ??_C@_1M@NCHEJOPO@?$AAc?$AAz?$AAe?$AAc?$AAh?$AA?$AA@ 100429c0     LIBCMT:getqloc.obj
 0002:000089cc       ??_C@_1BA@BKPAPBLA@?$AAe?$AAn?$AAg?$AAl?$AAa?$AAn?$AAd?$AA?$AA@ 100429cc     LIBCMT:getqloc.obj
 0002:000089dc       ??_C@_1BM@HKBCKIPC@?$AAg?$AAr?$AAe?$AAa?$AAt?$AA?5?$AAb?$AAr?$AAi?$AAt?$AAa?$AAi?$AAn?$AA?$AA@ 100429dc     LIBCMT:getqloc.obj
 0002:000089f8       ??_C@_1BA@PPCHPGJB@?$AAh?$AAo?$AAl?$AAl?$AAa?$AAn?$AAd?$AA?$AA@ 100429f8     LIBCMT:getqloc.obj
 0002:00008a08       ??_C@_1BE@JBMPEGDG@?$AAh?$AAo?$AAn?$AAg?$AA?9?$AAk?$AAo?$AAn?$AAg?$AA?$AA@ 10042a08     LIBCMT:getqloc.obj
 0002:00008a1c       ??_C@_1BI@KOELBBPJ@?$AAn?$AAe?$AAw?$AA?9?$AAz?$AAe?$AAa?$AAl?$AAa?$AAn?$AAd?$AA?$AA@ 10042a1c     LIBCMT:getqloc.obj
 0002:00008a34       ??_C@_15HIEBHAIO@?$AAn?$AAz?$AA?$AA@ 10042a34     LIBCMT:getqloc.obj
 0002:00008a3c       ??_C@_1BC@CHBCPFPI@?$AAp?$AAr?$AA?5?$AAc?$AAh?$AAi?$AAn?$AAa?$AA?$AA@ 10042a3c     LIBCMT:getqloc.obj
 0002:00008a50       ??_C@_1BC@JAOIIFKD@?$AAp?$AAr?$AA?9?$AAc?$AAh?$AAi?$AAn?$AAa?$AA?$AA@ 10042a50     LIBCMT:getqloc.obj
 0002:00008a64       ??_C@_1BI@BEHPPHKC@?$AAp?$AAu?$AAe?$AAr?$AAt?$AAo?$AA?9?$AAr?$AAi?$AAc?$AAo?$AA?$AA@ 10042a64     LIBCMT:getqloc.obj
 0002:00008a7c       ??_C@_1O@PAEOFKDI@?$AAs?$AAl?$AAo?$AAv?$AAa?$AAk?$AA?$AA@ 10042a7c     LIBCMT:getqloc.obj
 0002:00008a8c       ??_C@_1BK@FIHMCKAM@?$AAs?$AAo?$AAu?$AAt?$AAh?$AA?5?$AAa?$AAf?$AAr?$AAi?$AAc?$AAa?$AA?$AA@ 10042a8c     LIBCMT:getqloc.obj
 0002:00008aa8       ??_C@_1BI@NAEOODKB@?$AAs?$AAo?$AAu?$AAt?$AAh?$AA?5?$AAk?$AAo?$AAr?$AAe?$AAa?$AA?$AA@ 10042aa8     LIBCMT:getqloc.obj
 0002:00008ac0       ??_C@_1BK@FBDGGIFF@?$AAs?$AAo?$AAu?$AAt?$AAh?$AA?9?$AAa?$AAf?$AAr?$AAi?$AAc?$AAa?$AA?$AA@ 10042ac0     LIBCMT:getqloc.obj
 0002:00008adc       ??_C@_1BI@GHLEJDPK@?$AAs?$AAo?$AAu?$AAt?$AAh?$AA?9?$AAk?$AAo?$AAr?$AAe?$AAa?$AA?$AA@ 10042adc     LIBCMT:getqloc.obj
 0002:00008af4       ??_C@_1CE@PLHLOMJF@?$AAt?$AAr?$AAi?$AAn?$AAi?$AAd?$AAa?$AAd?$AA?5?$AA?$CG?$AA?5?$AAt?$AAo?$AAb?$AAa?$AAg?$AAo?$AA?$AA@ 10042af4     LIBCMT:getqloc.obj
 0002:00008b18       ??_C@_1BO@MODIMHHI@?$AAu?$AAn?$AAi?$AAt?$AAe?$AAd?$AA?9?$AAk?$AAi?$AAn?$AAg?$AAd?$AAo?$AAm?$AA?$AA@ 10042b18     LIBCMT:getqloc.obj
 0002:00008b38       ??_C@_1BM@FFHJONBJ@?$AAu?$AAn?$AAi?$AAt?$AAe?$AAd?$AA?9?$AAs?$AAt?$AAa?$AAt?$AAe?$AAs?$AA?$AA@ 10042b38     LIBCMT:getqloc.obj
 0002:00008b54       ___rg_language_count       10042b54     LIBCMT:getqloc.obj
 0002:00008b58       ___rg_country_count        10042b58     LIBCMT:getqloc.obj
 0002:00008b5c       ??_C@_17DNCLJFIF@?$AAA?$AAC?$AAP?$AA?$AA@ 10042b5c     LIBCMT:getqloc.obj
 0002:00008b64       ??_C@_17CIKBIHLH@?$AAO?$AAC?$AAP?$AA?$AA@ 10042b64     LIBCMT:getqloc.obj
 0002:00008b6c       ___rglangidNotDefault      10042b6c     LIBCMT:getqloc_downlevel.obj
 0002:00008b80       __real@00000000            10042b80     LIBCMT:wcstoq.obj
 0002:00008b88       __load_config_used         10042b88     LIBCMT:loadcfg.obj
 0002:0000a200       ___safe_se_handler_table   10044200     <linker-defined>
 0002:0000a310       ___rtc_iaa                 10044310     LIBCMT:initsect.obj
 0002:0000a414       ___rtc_izz                 10044414     LIBCMT:initsect.obj
 0002:0000a518       ___rtc_taa                 10044518     LIBCMT:initsect.obj
 0002:0000a61c       ___rtc_tzz                 1004461c     LIBCMT:initsect.obj
 0003:00000280       _slrttestmdl_P             10046280     slrttestmdl_data.obj
 0003:000002c8       _pci20041digout            100462c8     xpctarget.obj
 0003:000002cc       _nipcdio24cnfg             100462cc     xpctarget.obj
 0003:000002d0       _rtddm6604cnfg             100462d0     xpctarget.obj
 0003:000003f4       _DefaultCOMIOBase          100463f4     xpcruntime:xpcimports.obj
 0003:00000404       _DefaultCOMIRQ             10046404     xpcruntime:xpcimports.obj
 0003:00000420       __fltused                  10046420     LIBCMT:fpinit.obj
 0003:00000424       __ldused                   10046424     LIBCMT:fpinit.obj
 0003:00000430       __iob                      10046430     LIBCMT:_file.obj
 0003:000006b0       ___isa_enabled             100466b0     LIBCMT:cpu_disp.obj
 0003:000006b4       ___security_cookie         100466b4     LIBCMT:gs_cookie.obj
 0003:000006b8       ___security_cookie_complement 100466b8     LIBCMT:gs_cookie.obj
 0003:00000890       __cfltcvt_tab              10046890     LIBCMT:cmiscdat.obj
 0003:000009e0       __mbctype                  100469e0     LIBCMT:mbctype.obj
 0003:00000ae8       __mbcasemap                10046ae8     LIBCMT:mbctype.obj
 0003:00000be8       ___initialmbcinfo          10046be8     LIBCMT:mbctype.obj
 0003:00000e0c       ___ptmbcinfo               10046e0c     LIBCMT:mbctype.obj
 0003:00000f00       ___nullstring              10046f00     LIBCMT:output.obj
 0003:00000f04       ___wnullstring             10046f04     LIBCMT:output.obj
 0003:00000f08       ___badioinfo               10046f08     LIBCMT:ioinit.obj
 0003:00000f48       __lookuptrailbytes         10046f48     LIBCMT:read.obj
 0003:00001048       __d_inf                    10047048     LIBCMT:util.obj
 0003:00001050       __d_ind                    10047050     LIBCMT:util.obj
 0003:00001058       __d_max                    10047058     LIBCMT:util.obj
 0003:00001060       __d_min                    10047060     LIBCMT:util.obj
 0003:00001068       __d_mzero                  10047068     LIBCMT:util.obj
 0003:00001174       ___abort_behavior          10047174     LIBCMT:abort.obj
 0003:00001178       ___flsindex                10047178     LIBCMT:tidtable.obj
 0003:00001180       ___mb_cur_max              10047180     LIBCMT:nlsdata.obj
 0003:00001184       ___wclocalestr             10047184     LIBCMT:nlsdata.obj
 0003:00001188       ___lc_time_c               10047188     LIBCMT:nlsdata.obj
 0003:000012ec       ___ptlocinfo               100472ec     LIBCMT:nlsdata.obj
 0003:000012f0       ___initiallocinfo          100472f0     LIBCMT:nlsdata.obj
 0003:000013a8       ___initiallocalestructinfo 100473a8     LIBCMT:nlsdata.obj
 0003:000013b0       ___globallocalestatus      100473b0     LIBCMT:glstatus.obj
 0003:000013c0       __NLG_Destination          100473c0     LIBCMT:exsup.obj
 0003:000013d0       __matherr_flag             100473d0     LIBCMT:matherr.obj
 0003:000013d8       ___lconv                   100473d8     LIBCMT:lconv.obj
 0003:000013dc       ___lconv_static_decimal    100473dc     LIBCMT:lconv.obj
 0003:000013e0       ___lconv_c                 100473e0     LIBCMT:lconv.obj
 0003:00001430       ___lconv_static_W_decimal  10047430     LIBCMT:lconv.obj
 0003:00001468       __pctype                   10047468     LIBCMT:ctype.obj
 0003:0000146c       __pwctype                  1004746c     LIBCMT:ctype.obj
 0003:00001470       __confh                    10047470     LIBCMT:initcon.obj
 0003:00001478       __pow10pos                 10047478     LIBCMT:constpow.obj
 0003:000015d8       __pow10neg                 100475d8     LIBCMT:constpow.obj
 0003:00001740       __HUGE                     10047740     LIBCMT:huge.obj
 0003:00001cd0       ___isa_available_default   10047cd0     rt_logging.obj
 0003:00001cd8       _pci20098PortA             10047cd8     xpctarget.obj
 0003:00001cdc       _pci20098PortB             10047cdc     xpctarget.obj
 0003:00001ce0       _siepowercan_firmware_initialized 10047ce0     xpctarget.obj
 0003:00001ce4       _siepowercan_port1_configured 10047ce4     xpctarget.obj
 0003:00001ce8       _siepowercan_port2_configured 10047ce8     xpctarget.obj
 0003:00001cec       _CANAC2_FIRMWARE_LOADED    10047cec     xpctarget.obj
 0003:00001cf0       _rs232ports                10047cf0     xpctarget.obj
 0003:00001d00       _NI_AT_MIO_16F_5_commreg2  10047d00     xpctarget.obj
 0003:00001d04       _RTD_DM6430_init           10047d04     xpctarget.obj
 0003:00001d08       _RTD_DM6420_init           10047d08     xpctarget.obj
 0003:00001d0c       _CANAC2_FIRMWARE_LOADED_mb1 10047d0c     xpctarget.obj
 0003:00001d10       _CANAC2_FIRMWARE_LOADED_mb2 10047d10     xpctarget.obj
 0003:00001d14       _CANAC2_FIRMWARE_LOADED_mb3 10047d14     xpctarget.obj
 0003:00001d18       _xmlsize                   10047d18     xpctarget.obj
 0003:00001d30       ___fastflag                10047d30     LIBCMT:fpinit.obj
 0003:00002058       __C_Exit_Done              10048058     LIBCMT:crt0dat.obj
 0003:0000205c       ___argc                    1004805c     LIBCMT:crt0dat.obj
 0003:00002060       ___argv                    10048060     LIBCMT:crt0dat.obj
 0003:00002064       ___wargv                   10048064     LIBCMT:crt0dat.obj
 0003:00002068       __environ                  10048068     LIBCMT:crt0dat.obj
 0003:0000206c       __wenviron                 1004806c     LIBCMT:crt0dat.obj
 0003:00002070       __pgmptr                   10048070     LIBCMT:crt0dat.obj
 0003:00002074       __wpgmptr                  10048074     LIBCMT:crt0dat.obj
 0003:00002078       __umaskval                 10048078     LIBCMT:crt0dat.obj
 0003:0000207c       __exitflag                 1004807c     LIBCMT:crt0dat.obj
 0003:00002080       __C_Termination_Done       10048080     LIBCMT:crt0dat.obj
 0003:00002084       ___winitenv                10048084     LIBCMT:crt0dat.obj
 0003:00002088       ___initenv                 10048088     LIBCMT:crt0dat.obj
 0003:0000208c       __cflush                   1004808c     LIBCMT:_file.obj
 0003:00002094       ___isa_available           10048094     LIBCMT:cpu_disp.obj
 0003:00002098       ___favor                   10048098     LIBCMT:cpu_disp.obj
 0003:000020a0       __aenvptr                  100480a0     LIBCMT:dllcrt0.obj
 0003:000020a4       __wenvptr                  100480a4     LIBCMT:dllcrt0.obj
 0003:000020a8       ?_pnhHeap@@3P6AHI@ZA       100480a8     LIBCMT:handler.obj
 0003:000020b0       ___app_type                100480b0     LIBCMT:crt0msg.obj
 0003:000026e0       __newmode                  100486e0     LIBCMT:_newmode.obj
 0003:000026e4       __crtheap                  100486e4     LIBCMT:heapinit.obj
 0003:000026e8       ___pInvalidArgHandler      100486e8     LIBCMT:invarg.obj
 0003:00002840       __maxwait                  10048840     LIBCMT:crtheap.obj
 0003:00002844       ?__pInconsistency@@3P6AXXZA 10048844     LIBCMT:hooks.obj
 0003:00002848       ___pPurecall               10048848     LIBCMT:inithelp.obj
 0003:00002864       ___mbcodepage              10048864     LIBCMT:mbctype.obj
 0003:00002868       ___ismbcodepage            10048868     LIBCMT:mbctype.obj
 0003:0000286c       ___mbulinfo                1004886c     LIBCMT:mbctype.obj
 0003:00002878       ___mblocalename            10048878     LIBCMT:mbctype.obj
 0003:00002880       __stdbuf                   10048880     LIBCMT:_sftbuf.obj
 0003:00002888       ___pioinfo                 10048888     LIBCMT:ioinit.obj
 0003:00002988       ___error_mode              10048988     LIBCMT:errmode.obj
 0003:00002aa8       __outputformat             10048aa8     LIBCMT:outputformat.obj
 0003:00002ab0       __commode                  10048ab0     LIBCMT:ncommode.obj
 0003:00002ab4       ___lconv_static_null       10048ab4     LIBCMT:lconv.obj
 0003:00002ab8       ___lconv_static_W_null     10048ab8     LIBCMT:lconv.obj
 0003:00002abc       ___locale_changed          10048abc     LIBCMT:wsetloca.obj
 0003:00002ac0       __fmode                    10048ac0     LIBCMT:txtmode.obj
 0003:00002ae0       _CANAC2_2_receiveindex_mb3 10048ae0     <common>
 0003:00005bb4       _CANAC2_2_receivemaxindex_mb3 1004bbb4     <common>
 0003:00005bc0       _CANAC2_2_sendindex_mb3    1004bbc0     <common>
 0003:00005ee0       _CANAC2_2_sendmaxindex_mb3 1004bee0     <common>
 0003:00005f00       _CANAC2_1_receiveindex_mb3 1004bf00     <common>
 0003:00006220       _CANAC2_1_receivemaxindex_mb3 1004c220     <common>
 0003:00006240       _CANAC2_1_sendindex_mb3    1004c240     <common>
 0003:00006560       _CANAC2_1_sendmaxindex_mb3 1004c560     <common>
 0003:00006580       _CANAC2_2_receive_mb3      1004c580     <common>
 0003:000068a0       _CANAC2_2_send_mb3         1004c8a0     <common>
 0003:00006bc0       _CANAC2_1_receive_mb3      1004cbc0     <common>
 0003:00006ee0       _CANAC2_1_send_mb3         1004cee0     <common>
 0003:00007200       _CANAC2_2_receiveindex_mb2 1004d200     <common>
 0003:00007520       _CANAC2_2_receivemaxindex_mb2 1004d520     <common>
 0003:00007540       _CANAC2_2_sendindex_mb2    1004d540     <common>
 0003:00007860       _CANAC2_2_sendmaxindex_mb2 1004d860     <common>
 0003:00007880       _CANAC2_1_receiveindex_mb2 1004d880     <common>
 0003:00007ba0       _CANAC2_1_receivemaxindex_mb2 1004dba0     <common>
 0003:00007bc0       _CANAC2_1_sendindex_mb2    1004dbc0     <common>
 0003:00007ee0       _CANAC2_1_sendmaxindex_mb2 1004dee0     <common>
 0003:00007f00       _CANAC2_2_receive_mb2      1004df00     <common>
 0003:00008220       _CANAC2_2_send_mb2         1004e220     <common>
 0003:00008540       _CANAC2_1_receive_mb2      1004e540     <common>
 0003:00008860       _CANAC2_1_send_mb2         1004e860     <common>
 0003:00008b80       _CANAC2_2_receiveindex_mb1 1004eb80     <common>
 0003:00008ea0       _CANAC2_2_receivemaxindex_mb1 1004eea0     <common>
 0003:00008ec0       _CANAC2_2_sendindex_mb1    1004eec0     <common>
 0003:000091e0       _CANAC2_2_sendmaxindex_mb1 1004f1e0     <common>
 0003:00009200       _CANAC2_1_receiveindex_mb1 1004f200     <common>
 0003:00009520       _CANAC2_1_receivemaxindex_mb1 1004f520     <common>
 0003:00009540       _CANAC2_1_sendindex_mb1    1004f540     <common>
 0003:00009860       _CANAC2_1_sendmaxindex_mb1 1004f860     <common>
 0003:00009880       _CANAC2_2_receive_mb1      1004f880     <common>
 0003:00009ba0       _CANAC2_2_send_mb1         1004fba0     <common>
 0003:00009ec0       _CANAC2_1_receive_mb1      1004fec0     <common>
 0003:0000a1e0       _CANAC2_1_send_mb1         100501e0     <common>
 0003:0000a500       _CANAC2_2_receiveindex     10050500     <common>
 0003:0000a820       _CANAC2_2_receivemaxindex  10050820     <common>
 0003:0000a840       _CANAC2_2_sendindex        10050840     <common>
 0003:0000ab60       _CANAC2_2_sendmaxindex     10050b60     <common>
 0003:0000ab80       _CANAC2_1_receiveindex     10050b80     <common>
 0003:0000aea0       _CANAC2_1_receivemaxindex  10050ea0     <common>
 0003:0000aec0       _CANAC2_1_sendindex        10050ec0     <common>
 0003:0000b1e0       _CANAC2_1_sendmaxindex     100511e0     <common>
 0003:0000b200       _CANAC2_2_receive          10051200     <common>
 0003:0000b520       _CANAC2_2_send             10051520     <common>
 0003:0000b840       _CANAC2_1_receive          10051840     <common>
 0003:0000bb60       _CANAC2_1_send             10051b60     <common>
 0003:0000be80       _siepowercan_can_object_buffer_port2 10051e80     <common>
 0003:0000fea0       _siepowercan_can_object_buffer_port1 10055ea0     <common>
 0003:00013ea0       _rtNaNF                    10059ea0     <common>
 0003:00013eb4       _rtMinusInfF               10059eb4     <common>
 0003:00013eb8       _rtInfF                    10059eb8     <common>
 0003:00013ec0       _rtNaN                     10059ec0     <common>
 0003:00013ec8       _rtMinusInf                10059ec8     <common>
 0003:00013ed0       _rtInf                     10059ed0     <common>
 0003:00013ee0       _slrttestmdl_M_            10059ee0     <common>
 0003:000142a0       _slrttestmdl_Y             1005a2a0     <common>
 0003:000142b0       _slrttestmdl_DW            1005a2b0     <common>
 0003:000142c0       _slrttestmdl_X             1005a2c0     <common>
 0003:000142e0       _slrttestmdl_B             1005a2e0     <common>
 0003:00014318       _xpceaddEvent              1005a318     <common>
 0003:00014368       _xpceDeRegisterISR         1005a368     <common>
 0003:0001436c       _xpceRegisterISR           1005a36c     <common>
 0003:00014370       _xpcIsModelInit            1005a370     <common>
 0003:00014374       _xpcGetElapsedTime         1005a374     <common>
 0003:00014378       _xpcBusyWait               1005a378     <common>
 0003:0001437c       _xpcFreePhysicalMemory     1005a37c     <common>
 0003:00014380       _xpcAllocPhysicalMemory    1005a380     <common>
 0003:00014384       _xpcReserveMemoryRegion    1005a384     <common>
 0003:00014388       _xpcOutpB                  1005a388     <common>
 0003:0001438c       _xpcOutpW                  1005a38c     <common>
 0003:00014390       _xpcOutpDW                 1005a390     <common>
 0003:00014394       _xpcInpB                   1005a394     <common>
 0003:00014398       _xpcInpW                   1005a398     <common>
 0003:0001439c       _xpcInpDW                  1005a39c     <common>
 0003:000143a0       _slTestRegAssessment       1005a3a0     <common>
 0003:000143a4       _slTestTerminate           1005a3a4     <common>
 0003:000143a8       _slTestEvalOnFail          1005a3a8     <common>
 0003:000143ac       _slTestLogAssessments      1005a3ac     <common>
 0003:000143b0       _slTestInitialize          1005a3b0     <common>
 0003:000143b4       _unRegisterPTPTimeRead     1005a3b4     <common>
 0003:000143b8       _registerPTPTimeRead       1005a3b8     <common>
 0003:000143bc       _slrteGetCurrentStepSize   1005a3bc     <common>
 0003:000143c0       _slrteSetStepSizeDelta     1005a3c0     <common>
 0003:000143c4       _xpceGetIntTimerGranularityNS 1005a3c4     <common>
 0003:000143c8       _sendToAsyncQueueTgtAppSvc 1005a3c8     <common>
 0003:000143cc       _terminateToAsyncQueueTgtAppSvc 1005a3cc     <common>
 0003:000143d0       _startToAsyncQueueTgtAppSvc 1005a3d0     <common>
 0003:000143d4       _getStatusFlags            1005a3d4     <common>
 0003:000143d8       _getCommService            1005a3d8     <common>
 0003:000143dc       _getMemoryService          1005a3dc     <common>
 0003:000143e0       _StreamVideo               1005a3e0     <common>
 0003:000143e4       _StopVideoDisplay          1005a3e4     <common>
 0003:000143e8       _StartVideoDisplay         1005a3e8     <common>
 0003:000143ec       _DestroyVideoDisplay       1005a3ec     <common>
 0003:000143f0       _CreateVideoDisplay        1005a3f0     <common>
 0003:000143f4       _ConvertUImage             1005a3f4     <common>
 0003:000143f8       _StopVideo                 1005a3f8     <common>
 0003:000143fc       _ReadFrameBuffer           1005a3fc     <common>
 0003:00014400       _StartVideo                1005a400     <common>
 0003:00014404       _GetVideoConfigs           1005a404     <common>
 0003:00014408       _FindUsbVideoDevice        1005a408     <common>
 0003:0001440c       _xpceDeleteSemaphore       1005a40c     <common>
 0003:00014410       _xpceSignalSemaphore       1005a410     <common>
 0003:00014414       _xpceWaitSemaphore         1005a414     <common>
 0003:00014418       _xpceCreateSemaphore       1005a418     <common>
 0003:0001441c       _TBGiveSpinFast            1005a41c     <common>
 0003:00014420       _TBTakeSpinFast            1005a420     <common>
 0003:00014424       _TBDeleteSpin              1005a424     <common>
 0003:00014428       _TBCreateSpin              1005a428     <common>
 0003:0001442c       _xpceScopeAcqOK            1005a42c     <common>
 0003:00014430       _rl32eRestartAcquisition   1005a430     <common>
 0003:00014434       _rl32eSetTargetScopeSigFt  1005a434     <common>
 0003:00014438       _rl32eSetTargetScope       1005a438     <common>
 0003:0001443c       _xpceFSScopeSet            1005a43c     <common>
 0003:00014440       _rl32eSetScope             1005a440     <common>
 0003:00014444       _rl32eAddSignal            1005a444     <common>
 0003:00014448       _rl32eGetSignalNo          1005a448     <common>
 0003:0001444c       _rl32eDefScope             1005a44c     <common>
 0003:00014450       _rl32eScopeExists          1005a450     <common>
 0003:00014454       _xpceUDPClose              1005a454     <common>
 0003:00014458       _xpceUDPReceive            1005a458     <common>
 0003:0001445c       _xpceUDPSend               1005a45c     <common>
 0003:00014460       _xpceUDPOpenReceive        1005a460     <common>
 0003:00014464       _xpceUDPOpenSend           1005a464     <common>
 0003:00014468       _rl32eSendBlock            1005a468     <common>
 0003:0001446c       _rl32eLineStatus           1005a46c     <common>
 0003:00014470       _rl32eReceiveBufferCount   1005a470     <common>
 0003:00014474       _rl32eReceiveChar          1005a474     <common>
 0003:00014478       _rl32eSendChar             1005a478     <common>
 0003:0001447c       _rl32eCloseCOMPort         1005a47c     <common>
 0003:00014480       _rl32eInitCOMPort          1005a480     <common>
 0003:00014484       _xpceGetParamDims          1005a484     <common>
 0003:00014488       _xpceGetParameter          1005a488     <common>
 0003:0001448c       _xpceSetParameter          1005a48c     <common>
 0003:00014490       _xpceGetSignalValue        1005a490     <common>
 0003:00014494       _xpceAssignPCIInterrupt    1005a494     <common>
 0003:00014498       _rl32eGetPCIInfoAtSlot     1005a498     <common>
 0003:0001449c       _rl32eGetPCIInfo           1005a49c     <common>
 0003:000144a0       _rl32eShowPCIInfo          1005a4a0     <common>
 0003:000144a4       _rl32eShowPCIDev           1005a4a4     <common>
 0003:000144a8       _xpceGetTET                1005a4a8     <common>
 0003:000144ac       _xpceFTSubtract            1005a4ac     <common>
 0003:000144b0       _xpceFTAdd                 1005a4b0     <common>
 0003:000144b4       _xpceFTReadTime            1005a4b4     <common>
 0003:000144b8       ___unguarded_readlc_active 1005a4b8     <common>
 0003:000144c8       ___setlc_active            1005a4c8     <common>
 0003:000144cc       __nhandle                  1005a4cc     <common>
 0003:000144d8       __pDestructExceptionObject 1005a4d8     <common>
 0003:00014500       _encodedKERNEL32Functions  1005a500     <common>
 0003:000145a8       __debugger_hook_dummy      1005a5a8     <common>
 0003:000145b4       __acmdln                   1005a5b4     <common>
 0003:000145c0       __bufin                    1005a5c0     <common>
 0003:000158fc       ___piob                    1005b8fc     <common>
 0003:00015900       __nstream                  1005b900     <common>
 0003:00015904       ___dyn_tls_init_callback   1005b904     <common>
 0003:00015914       ___onexitend               1005b914     <common>
 0003:00015918       ___onexitbegin             1005b918     <common>
 0003:0001591c       ___mbctype_initialized     1005b91c     <common>
 0003:00015920       ___env_initialized         1005b920     <common>
 0004:00000000       __imp__GetModuleHandleA@4  1005c000     kernel32:KERNEL32.dll
 0004:00000004       __imp__GetProcAddress@8    1005c004     kernel32:KERNEL32.dll
 0004:00000008       __imp__HeapAlloc@12        1005c008     kernel32:KERNEL32.dll
 0004:0000000c       __imp__IsDebuggerPresent@0 1005c00c     kernel32:KERNEL32.dll
 0004:00000010       __imp__IsProcessorFeaturePresent@4 1005c010     kernel32:KERNEL32.dll
 0004:00000014       __imp__EncodePointer@4     1005c014     kernel32:KERNEL32.dll
 0004:00000018       __imp__DecodePointer@4     1005c018     kernel32:KERNEL32.dll
 0004:0000001c       __imp__GetLastError@0      1005c01c     kernel32:KERNEL32.dll
 0004:00000020       __imp__ExitProcess@4       1005c020     kernel32:KERNEL32.dll
 0004:00000024       __imp__GetModuleHandleExW@12 1005c024     kernel32:KERNEL32.dll
 0004:00000028       __imp__AreFileApisANSI@0   1005c028     kernel32:KERNEL32.dll
 0004:0000002c       __imp__MultiByteToWideChar@24 1005c02c     kernel32:KERNEL32.dll
 0004:00000030       __imp__WideCharToMultiByte@32 1005c030     kernel32:KERNEL32.dll
 0004:00000034       __imp__HeapFree@12         1005c034     kernel32:KERNEL32.dll
 0004:00000038       __imp__HeapReAlloc@16      1005c038     kernel32:KERNEL32.dll
 0004:0000003c       __imp__EnterCriticalSection@4 1005c03c     kernel32:KERNEL32.dll
 0004:00000040       __imp__LeaveCriticalSection@4 1005c040     kernel32:KERNEL32.dll
 0004:00000044       __imp__GetStdHandle@4      1005c044     kernel32:KERNEL32.dll
 0004:00000048       __imp__GetFileType@4       1005c048     kernel32:KERNEL32.dll
 0004:0000004c       __imp__GetModuleFileNameW@12 1005c04c     kernel32:KERNEL32.dll
 0004:00000050       __imp__WriteConsoleW@20    1005c050     kernel32:KERNEL32.dll
 0004:00000054       __imp__GetCommandLineA@0   1005c054     kernel32:KERNEL32.dll
 0004:00000058       __imp__GetCurrentThreadId@0 1005c058     kernel32:KERNEL32.dll
 0004:0000005c       __imp__WriteFile@20        1005c05c     kernel32:KERNEL32.dll
 0004:00000060       __imp__GetProcessHeap@0    1005c060     kernel32:KERNEL32.dll
 0004:00000064       __imp__UnhandledExceptionFilter@4 1005c064     kernel32:KERNEL32.dll
 0004:00000068       __imp__SetUnhandledExceptionFilter@4 1005c068     kernel32:KERNEL32.dll
 0004:0000006c       __imp__SetLastError@4      1005c06c     kernel32:KERNEL32.dll
 0004:00000070       __imp__InitializeCriticalSectionAndSpinCount@8 1005c070     kernel32:KERNEL32.dll
 0004:00000074       __imp__CreateEventW@16     1005c074     kernel32:KERNEL32.dll
 0004:00000078       __imp__Sleep@4             1005c078     kernel32:KERNEL32.dll
 0004:0000007c       __imp__GetCurrentProcess@0 1005c07c     kernel32:KERNEL32.dll
 0004:00000080       __imp__TerminateProcess@8  1005c080     kernel32:KERNEL32.dll
 0004:00000084       __imp__TlsAlloc@0          1005c084     kernel32:KERNEL32.dll
 0004:00000088       __imp__TlsGetValue@4       1005c088     kernel32:KERNEL32.dll
 0004:0000008c       __imp__TlsSetValue@8       1005c08c     kernel32:KERNEL32.dll
 0004:00000090       __imp__TlsFree@4           1005c090     kernel32:KERNEL32.dll
 0004:00000094       __imp__GetStartupInfoW@4   1005c094     kernel32:KERNEL32.dll
 0004:00000098       __imp__GetTickCount@0      1005c098     kernel32:KERNEL32.dll
 0004:0000009c       __imp__GetModuleHandleW@4  1005c09c     kernel32:KERNEL32.dll
 0004:000000a0       __imp__CreateSemaphoreW@16 1005c0a0     kernel32:KERNEL32.dll
 0004:000000a4       __imp__DeleteCriticalSection@4 1005c0a4     kernel32:KERNEL32.dll
 0004:000000a8       __imp__FatalAppExitA@8     1005c0a8     kernel32:KERNEL32.dll
 0004:000000ac       __imp__SetConsoleCtrlHandler@8 1005c0ac     kernel32:KERNEL32.dll
 0004:000000b0       __imp__FreeLibrary@4       1005c0b0     kernel32:KERNEL32.dll
 0004:000000b4       __imp__LoadLibraryExW@12   1005c0b4     kernel32:KERNEL32.dll
 0004:000000b8       __imp__IsValidCodePage@4   1005c0b8     kernel32:KERNEL32.dll
 0004:000000bc       __imp__GetACP@0            1005c0bc     kernel32:KERNEL32.dll
 0004:000000c0       __imp__GetOEMCP@0          1005c0c0     kernel32:KERNEL32.dll
 0004:000000c4       __imp__GetCPInfo@8         1005c0c4     kernel32:KERNEL32.dll
 0004:000000c8       __imp__CloseHandle@4       1005c0c8     kernel32:KERNEL32.dll
 0004:000000cc       __imp__RtlUnwind@16        1005c0cc     kernel32:KERNEL32.dll
 0004:000000d0       __imp__ReadFile@20         1005c0d0     kernel32:KERNEL32.dll
 0004:000000d4       __imp__GetConsoleMode@8    1005c0d4     kernel32:KERNEL32.dll
 0004:000000d8       __imp__ReadConsoleW@20     1005c0d8     kernel32:KERNEL32.dll
 0004:000000dc       __imp__GetConsoleCP@0      1005c0dc     kernel32:KERNEL32.dll
 0004:000000e0       __imp__DeleteFileW@4       1005c0e0     kernel32:KERNEL32.dll
 0004:000000e4       __imp__SetFilePointerEx@20 1005c0e4     kernel32:KERNEL32.dll
 0004:000000e8       __imp__RaiseException@16   1005c0e8     kernel32:KERNEL32.dll
 0004:000000ec       __imp__OutputDebugStringW@4 1005c0ec     kernel32:KERNEL32.dll
 0004:000000f0       __imp__GetCurrentThread@0  1005c0f0     kernel32:KERNEL32.dll
 0004:000000f4       __imp__GetModuleFileNameA@12 1005c0f4     kernel32:KERNEL32.dll
 0004:000000f8       __imp__QueryPerformanceCounter@4 1005c0f8     kernel32:KERNEL32.dll
 0004:000000fc       __imp__GetCurrentProcessId@0 1005c0fc     kernel32:KERNEL32.dll
 0004:00000100       __imp__GetSystemTimeAsFileTime@4 1005c100     kernel32:KERNEL32.dll
 0004:00000104       __imp__GetEnvironmentStringsW@0 1005c104     kernel32:KERNEL32.dll
 0004:00000108       __imp__FreeEnvironmentStringsW@4 1005c108     kernel32:KERNEL32.dll
 0004:0000010c       __imp__HeapSize@12         1005c10c     kernel32:KERNEL32.dll
 0004:00000110       __imp__GetDateFormatW@24   1005c110     kernel32:KERNEL32.dll
 0004:00000114       __imp__GetTimeFormatW@24   1005c114     kernel32:KERNEL32.dll
 0004:00000118       __imp__CompareStringW@24   1005c118     kernel32:KERNEL32.dll
 0004:0000011c       __imp__LCMapStringW@24     1005c11c     kernel32:KERNEL32.dll
 0004:00000120       __imp__GetLocaleInfoW@16   1005c120     kernel32:KERNEL32.dll
 0004:00000124       __imp__IsValidLocale@8     1005c124     kernel32:KERNEL32.dll
 0004:00000128       __imp__GetUserDefaultLCID@0 1005c128     kernel32:KERNEL32.dll
 0004:0000012c       __imp__EnumSystemLocalesW@8 1005c12c     kernel32:KERNEL32.dll
 0004:00000130       __imp__GetStringTypeW@16   1005c130     kernel32:KERNEL32.dll
 0004:00000134       __imp__FlushFileBuffers@4  1005c134     kernel32:KERNEL32.dll
 0004:00000138       __imp__SetStdHandle@8      1005c138     kernel32:KERNEL32.dll
 0004:0000013c       __imp__CreateFileW@28      1005c13c     kernel32:KERNEL32.dll
 0004:00000140       __imp__SetEndOfFile@4      1005c140     kernel32:KERNEL32.dll
 0004:00000144       \177KERNEL32_NULL_THUNK_DATA 1005c144     kernel32:KERNEL32.dll
 0004:000001b0       __IMPORT_DESCRIPTOR_KERNEL32 1005c1b0     kernel32:KERNEL32.dll
 0004:000001c4       __NULL_IMPORT_DESCRIPTOR   1005c1c4     kernel32:KERNEL32.dll

 entry point at        0001:0000f083

