 Pos_PID_xpc

 Timestamp is 587a9bb6 (Sat Jan 14 16:44:22 2017)

 Preferred load address is 10000000

 Start         Length     Name                   Class
 0001:00000000 0004248eH .text$mn                CODE
 0002:00000000 00000104H .CRT$XCA                DATA
 0002:00000104 00000104H .CRT$XCZ                DATA
 0002:00000208 00000104H .CRT$XIA                DATA
 0002:0000030c 00000118H .CRT$XIC                DATA
 0002:00000424 00000104H .CRT$XIZ                DATA
 0002:00000528 00000104H .CRT$XPA                DATA
 0002:0000062c 00000109H .CRT$XPX                DATA
 0002:00000738 00000104H .CRT$XPXA               DATA
 0002:0000083c 00000104H .CRT$XPZ                DATA
 0002:00000940 00000104H .CRT$XTA                DATA
 0002:00000a44 00000104H .CRT$XTZ                DATA
 0002:00000b50 00011e46H .rdata                  DATA
 0002:00012998 00000199H .rdata$debug            DATA
 0002:00012b40 0000010eH .rdata$sxdata           DATA
 0002:00012c50 00000104H .rtc$IAA                DATA
 0002:00012d54 00000104H .rtc$IZZ                DATA
 0002:00012e58 00000104H .rtc$TAA                DATA
 0002:00012f5c 00000104H .rtc$TZZ                DATA
 0002:00013060 00000991H .xdata$x                DATA
 0002:00013a00 00000214H .edata                  DATA
 0003:00000000 000032e3H .data                   DATA
 0003:00003300 00017484H .bss                    DATA
 0004:00000000 000001b0H .idata$5                DATA
 0004:000001b0 00000014H .idata$2                DATA
 0004:000001c4 00000014H .idata$3                DATA
 0004:000001d8 000001b0H .idata$4                DATA
 0004:00000388 0000076bH .idata$6                DATA

  Address         Publics by Value              Rva+Base       Lib:Object

 0000:00000000       ___guard_fids_table        00000000     <absolute>
 0000:00000000       ___guard_flags             00000000     <absolute>
 0000:00000000       __except_list              00000000     <absolute>
 0000:00000000       ___guard_fids_count        00000000     <absolute>
 0000:00000003       ___safe_se_handler_count   00000003     <absolute>
 0000:00000000       ___ImageBase               10000000     <linker-defined>
 0001:000003c0       _MWDSP_EPH_R_B             100013c0 f   Pos_PID.obj
 0001:00000480       _MWDSP_EPH_R_D             10001480 f   Pos_PID.obj
 0001:00000550       _MdlInitialize             10001550 f   Pos_PID.obj
 0001:00000560       _MdlInitializeSampleTimes  10001560 f   Pos_PID.obj
 0001:00000570       _MdlInitializeSizes        10001570 f   Pos_PID.obj
 0001:00000580       _MdlOutputs                10001580 f   Pos_PID.obj
 0001:00000590       _MdlStart                  10001590 f   Pos_PID.obj
 0001:000005a0       _MdlTerminate              100015a0 f   Pos_PID.obj
 0001:000005b0       _MdlUpdate                 100015b0 f   Pos_PID.obj
 0001:000005c0       _Pos_PID                   100015c0 f   Pos_PID.obj
 0001:00002420       _Pos_PID_Deadbandpulsecounter 10003420 f   Pos_PID.obj
 0001:00002480       _Pos_PID_derivatives       10003480 f   Pos_PID.obj
 0001:000024f0       _Pos_PID_initialize        100034f0 f   Pos_PID.obj
 0001:000032d0       _Pos_PID_output            100042d0 f   Pos_PID.obj
 0001:000044e0       _Pos_PID_terminate         100054e0 f   Pos_PID.obj
 0001:00004590       _Pos_PID_update            10005590 f   Pos_PID.obj
 0001:00004750       _binsearch_u32d            10005750 f   Pos_PID.obj
 0001:000047b0       _plook_u32d_bincka         100057b0 f   Pos_PID.obj
 0001:00004800       _rt_ODECreateIntegrationData 10005800 f   Pos_PID.obj
 0001:00004810       _rt_ODEDestroyIntegrationData 10005810 f   Pos_PID.obj
 0001:00004820       _rt_ODEUpdateContinuousStates 10005820 f   Pos_PID.obj
 0001:00004e20       _Pos_PID_GetCAPIStaticMap  10005e20 f   Pos_PID_capi.obj
 0001:00004e30       _Pos_PID_InitializeDataMapInfo 10005e30 f   Pos_PID_capi.obj
 0001:00004ec0       _TgtConnBackgroundTask     10005ec0 f   Pos_PID_tgtconn.obj
 0001:00004ed0       _TgtConnInit               10005ed0 f   Pos_PID_tgtconn.obj
 0001:00004ef0       _TgtConnPostStep           10005ef0 f   Pos_PID_tgtconn.obj
 0001:00004f00       _TgtConnPreStep            10005f00 f   Pos_PID_tgtconn.obj
 0001:00004f10       _TgtConnTerm               10005f10 f   Pos_PID_tgtconn.obj
 0001:00004f20       _rtGetInf                  10005f20 f   rtGetInf.obj
 0001:00004f50       _rtGetInfF                 10005f50 f   rtGetInf.obj
 0001:00004f70       _rtGetMinusInf             10005f70 f   rtGetInf.obj
 0001:00004fa0       _rtGetMinusInfF            10005fa0 f   rtGetInf.obj
 0001:00004fc0       _rtGetNaN                  10005fc0 f   rtGetNaN.obj
 0001:00004ff0       _rtGetNaNF                 10005ff0 f   rtGetNaN.obj
 0001:00005920       _rt_CreateLogVar           10006920 f   rt_logging.obj
 0001:000059b0       _rt_CreateLogVarWithConvert 100069b0 f   rt_logging.obj
 0001:00006330       _rt_CreateStructLogVar     10007330 f   rt_logging.obj
 0001:000070a0       _rt_GetMxIdFromDTypeId     100080a0 f   rt_logging.obj
 0001:000070d0       _rt_GetMxIdFromDTypeIdForRSim 100080d0 f   rt_logging.obj
 0001:00009a10       _rt_StartDataLogging       1000aa10 f   rt_logging.obj
 0001:00009ed0       _rt_StartDataLoggingWithStartTime 1000aed0 f   rt_logging.obj
 0001:0000a830       _rt_StopDataLogging        1000b830 f   rt_logging.obj
 0001:0000a850       _rt_StopDataLoggingImpl    1000b850 f   rt_logging.obj
 0001:0000ab70       _rt_UpdateLogVar           1000bb70 f   rt_logging.obj
 0001:0000bf30       _rt_UpdateStructLogVar     1000cf30 f   rt_logging.obj
 0001:0000bfc0       _rt_UpdateTXXFYLogVars     1000cfc0 f   rt_logging.obj
 0001:0000c300       _rt_UpdateTXYLogVars       1000d300 f   rt_logging.obj
 0001:0000c550       _rt_CleanUpForStateLogWithMMI 1000d550 f   rt_logging_mmi.obj
 0001:0000c660       _rt_FillStateSigInfoFromMMI 1000d660 f   rt_logging_mmi.obj
 0001:0000ca10       _rt_mxCreateCharMatrixFromStrings 1000da10 f   rt_matrx.obj
 0001:0000cb60       _rt_mxCreateDoubleMatrix   1000db60 f   rt_matrx.obj
 0001:0000cbc0       _rt_mxCreateNumericArray   1000dbc0 f   rt_matrx.obj
 0001:0000cc40       _rt_mxCreateString         1000dc40 f   rt_matrx.obj
 0001:0000ccd0       _rt_mxDuplicateArray       1000dcd0 f   rt_matrx.obj
 0001:0000cd30       _rt_mxGetDimensions        1000dd30 f   rt_matrx.obj
 0001:0000cd70       _rt_mxGetEps               1000dd70 f   rt_matrx.obj
 0001:0000cd80       _rt_mxGetString            1000dd80 f   rt_matrx.obj
 0001:0000ce00       _rtIsInf                   1000de00 f   rt_nonfinite.obj
 0001:0000ce40       _rtIsInfF                  1000de40 f   rt_nonfinite.obj
 0001:0000ce80       _rtIsNaN                   1000de80 f   rt_nonfinite.obj
 0001:0000cea0       _rtIsNaNF                  1000dea0 f   rt_nonfinite.obj
 0001:0000cec0       _rt_InitInfAndNaN          1000dec0 f   rt_nonfinite.obj
 0001:0000cf20       _rtPrintfNoOp              1000df20 f   rt_printf.obj
 0001:0000cf30       _rtwCAPI_CountSysRan       1000df30 f   rtw_modelmap_utils.obj
 0001:0000cfd0       _rtwCAPI_EncodePath        1000dfd0 f   rtw_modelmap_utils.obj
 0001:0000d0c0       _rtwCAPI_FillSysRan        1000e0c0 f   rtw_modelmap_utils.obj
 0001:0000d1b0       _rtwCAPI_FreeFullPaths     1000e1b0 f   rtw_modelmap_utils.obj
 0001:0000d240       _rtwCAPI_GetFullStateBlockPath 1000e240 f   rtw_modelmap_utils.obj
 0001:0000d3f0       _rtwCAPI_GetNumContStateRecords 1000e3f0 f   rtw_modelmap_utils.obj
 0001:0000d4b0       _rtwCAPI_GetNumSigLogRecords 1000e4b0 f   rtw_modelmap_utils.obj
 0001:0000d500       _rtwCAPI_GetNumSigLogRecordsForRTWLogging 1000e500 f   rtw_modelmap_utils.obj
 0001:0000d590       _rtwCAPI_GetNumStateRecords 1000e590 f   rtw_modelmap_utils.obj
 0001:0000d5e0       _rtwCAPI_GetNumStateRecordsForRTWLogging 1000e5e0 f   rtw_modelmap_utils.obj
 0001:0000d670       _rtwCAPI_GetSigAddrFromMap 1000e670 f   rtw_modelmap_utils.obj
 0001:0000d730       _rtwCAPI_GetSigLogRecordInfo 1000e730 f   rtw_modelmap_utils.obj
 0001:0000db60       _rtwCAPI_GetStateRecordInfo 1000eb60 f   rtw_modelmap_utils.obj
 0001:0000e010       _rtwCAPI_GetStateWidth     1000f010 f   rtw_modelmap_utils.obj
 0001:0000e070       _rtwCAPI_HasStates         1000f070 f   rtw_modelmap_utils.obj
 0001:0000e0e0       _rtwCAPI_UpdateFullPaths   1000f0e0 f   rtw_modelmap_utils.obj
 0001:0000e2c0       _DllMain@12                1000f2c0 f   xpctarget.obj
 0001:0000e2d0       _Pos_PID_ChangeStepSize    1000f2d0 f   xpctarget.obj
 0001:0000e340       _SLRTSetErrorStatus        1000f340 f   xpctarget.obj
 0001:0000e360       _changeStepSize            1000f360 f   xpctarget.obj
 0001:0000e3d0       _getDLMVersion             1000f3d0 f   xpctarget.obj
 0001:0000e3e0       _getRefMdlPath             1000f3e0 f   xpctarget.obj
 0001:0000e460       _getRefMdlSignalNumber     1000f460 f   xpctarget.obj
 0001:0000e510       _getrlmdlinfo              1000f510 f   xpctarget.obj
 0001:0000e6f0       _updateDiscreteEvents      1000f6f0 f   xpctarget.obj
 0001:0000e700       _getNumRef                 1000f700 f   appmappingData.obj
 0001:0000e710       _encconteccnt328mpci       1000f710 f   encconteccnt328mpci.obj
 0001:000101e0       _xpcudpbytereceive         100111e0 f   xpcudpbytereceive.obj
 0001:00010620       _dacbpcidda0x12            10011620 f   dacbpcidda0x12.obj
 0001:000111c0       _dopci8255                 100121c0 f   dopci8255.obj
 0001:000120d0       _dipci8255                 100130d0 f   dipci8255.obj
 0001:00012c70       _GetPCIDeviceFull          10013c70 f   xpcruntime:xpcimports.obj
 0001:00012ca0       _ShowPCIDevice             10013ca0 f   xpcruntime:xpcimports.obj
 0001:00013310       _xpcGetPciConfigAtSlot     10014310 f   xpcruntime:xpcimports.obj
 0001:00013590       _xpcInitProcs              10014590 f   xpcruntime:xpcimports.obj
 0001:000140f0       _xpceuploadevent           100150f0 f   xpcruntime:xpcimports.obj
 0001:000140f1       __heap_alloc               100150f1 f i LIBCMT:malloc.obj
 0001:0001412e       _malloc                    1001512e f   LIBCMT:malloc.obj
 0001:000141c0       __get_printf_count_output  100151c0 f   LIBCMT:printf.obj
 0001:000141d5       __printf_l                 100151d5 f   LIBCMT:printf.obj
 0001:000141ec       __printf_p                 100151ec f   LIBCMT:printf.obj
 0001:00014202       __printf_p_l               10015202 f   LIBCMT:printf.obj
 0001:00014219       __printf_s_l               10015219 f   LIBCMT:printf.obj
 0001:00014230       __set_printf_count_output  10015230 f   LIBCMT:printf.obj
 0001:00014258       _printf                    10015258 f   LIBCMT:printf.obj
 0001:00014307       _printf_s                  10015307 f   LIBCMT:printf.obj
 0001:0001431d       ___libm_sse2_cos           1001531d f   LIBCMT:cos_sse2.obj
 0001:000144be       ___libm_sse2_sin           100154be f   LIBCMT:sin_sse2.obj
 0001:00014670       _memcpy                    10015670 f   LIBCMT:memcpy.obj
 0001:00014cc0       _memset                    10015cc0 f   LIBCMT:memset.obj
 0001:00014d50       __fpmath                   10015d50 f   LIBCMT:fpinit.obj
 0001:00014d67       ___setfflag                10015d67 f   LIBCMT:fpinit.obj
 0001:00014d7a       __cfltcvt_init             10015d7a f   LIBCMT:fpinit.obj
 0001:00014dda       ___raise_securityfailure   10015dda f   LIBCMT:gs_report.obj
 0001:00014e17       ___report_gsfailure        10015e17 f   LIBCMT:gs_report.obj
 0001:00014f12       ___report_rangecheckfailure 10015f12 f   LIBCMT:gs_report.obj
 0001:00014f1e       ___report_securityfailure  10015f1e f   LIBCMT:gs_report.obj
 0001:00014fee       ___report_securityfailureEx 10015fee f   LIBCMT:gs_report.obj
 0001:00015104       ___copy_path_to_wide_string 10016104 f   LIBCMT:crt0dat.obj
 0001:000151b6       ___copy_to_char            100161b6 f   LIBCMT:crt0dat.obj
 0001:0001526b       ___crtCorExitProcess       1001626b f   LIBCMT:crt0dat.obj
 0001:0001529f       ___crtExitProcess          1001629f f   LIBCMT:crt0dat.obj
 0001:000152b5       ___freeCrtMemory           100162b5 f   LIBCMT:crt0dat.obj
 0001:000153c2       __amsg_exit                100163c2 f   LIBCMT:crt0dat.obj
 0001:000153de       __c_exit                   100163de f   LIBCMT:crt0dat.obj
 0001:000153ed       __cexit                    100163ed f   LIBCMT:crt0dat.obj
 0001:000153fc       __cinit                    100163fc f   LIBCMT:crt0dat.obj
 0001:00015480       __exit                     10016480 f   LIBCMT:crt0dat.obj
 0001:00015494       __exit_app                 10016494 f   LIBCMT:crt0dat.obj
 0001:000154a2       __get_pgmptr               100164a2 f   LIBCMT:crt0dat.obj
 0001:000154d1       __get_wpgmptr              100164d1 f   LIBCMT:crt0dat.obj
 0001:00015500       __init_pointers            10016500 f   LIBCMT:crt0dat.obj
 0001:0001556e       __initterm_e               1001656e f   LIBCMT:crt0dat.obj
 0001:00015590       __lockexit                 10016590 f   LIBCMT:crt0dat.obj
 0001:00015599       __unlockexit               10016599 f   LIBCMT:crt0dat.obj
 0001:000156d1       _exit                      100166d1 f   LIBCMT:crt0dat.obj
 0001:000156e5       _calloc                    100166e5 f   LIBCMT:calloc.obj
 0001:00015725       _free                      10016725 f   LIBCMT:free.obj
 0001:0001575d       _realloc                   1001675d f   LIBCMT:realloc.obj
 0001:00015810       _memmove                   10016810 f   LIBCMT:memmove.obj
 0001:00015e60       _strchr                    10016e60 f   LIBCMT:strchr.obj
 0001:00015ece       ___from_strstr_to_strchr   10016ece     LIBCMT:strchr.obj
 0001:00015f90       _strncat                   10016f90 f   LIBCMT:strncat.obj
 0001:000160d0       _strncpy                   100170d0 f   LIBCMT:strncpy.obj
 0001:000161f4       ___initstdio               100171f4 f   LIBCMT:_file.obj
 0001:00016267       ___endstdio                10017267 f   LIBCMT:_file.obj
 0001:0001628e       ___iob_func                1001728e f   LIBCMT:_file.obj
 0001:00016294       __lock_file                10017294 f   LIBCMT:_file.obj
 0001:000162d3       __lock_file2               100172d3 f   LIBCMT:_file.obj
 0001:00016303       __unlock_file              10017303 f   LIBCMT:_file.obj
 0001:0001633d       __unlock_file2             1001733d f   LIBCMT:_file.obj
 0001:0001636a       __fclose_nolock            1001736a f   LIBCMT:fclose.obj
 0001:000163d6       _fclose                    100173d6 f   LIBCMT:fclose.obj
 0001:0001644d       __fsopen                   1001744d f   LIBCMT:fopen.obj
 0001:00016511       _fopen                     10017511 f   LIBCMT:fopen.obj
 0001:00016526       _fopen_s                   10017526 f   LIBCMT:fopen.obj
 0001:0001656b       __fprintf_l                1001756b f   LIBCMT:fprintf.obj
 0001:00016585       __fprintf_p                10017585 f   LIBCMT:fprintf.obj
 0001:0001659e       __fprintf_p_l              1001759e f   LIBCMT:fprintf.obj
 0001:000165b8       __fprintf_s_l              100175b8 f   LIBCMT:fprintf.obj
 0001:000165d2       _fprintf                   100175d2 f   LIBCMT:fprintf.obj
 0001:000166e4       _fprintf_s                 100176e4 f   LIBCMT:fprintf.obj
 0001:000166fd       __fread_nolock             100176fd f   LIBCMT:fread.obj
 0001:00016718       __fread_nolock_s           10017718 f   LIBCMT:fread.obj
 0001:000168dd       _fread                     100178dd f   LIBCMT:fread.obj
 0001:000168f8       _fread_s                   100178f8 f   LIBCMT:fread.obj
 0001:00016989       __fwrite_nolock            10017989 f   LIBCMT:fwrite.obj
 0001:00016ae2       _fwrite                    10017ae2 f   LIBCMT:fwrite.obj
 0001:00016b64       __unlink                   10017b64 f   LIBCMT:unlink.obj
 0001:00016b6d       _remove                    10017b6d f   LIBCMT:unlink.obj
 0001:00016baf       _rewind                    10017baf f   LIBCMT:rewind.obj
 0001:00016c6e       __scprintf                 10017c6e f   LIBCMT:sprintf.obj
 0001:00016c81       __scprintf_l               10017c81 f   LIBCMT:sprintf.obj
 0001:00016c98       __scprintf_p               10017c98 f   LIBCMT:sprintf.obj
 0001:00016cab       __scprintf_p_l             10017cab f   LIBCMT:sprintf.obj
 0001:00016cc2       __snprintf_s               10017cc2 f   LIBCMT:sprintf.obj
 0001:00016ce1       __snprintf_s_l             10017ce1 f   LIBCMT:sprintf.obj
 0001:00016d01       __sprintf_l                10017d01 f   LIBCMT:sprintf.obj
 0001:00016d1b       __sprintf_p                10017d1b f   LIBCMT:sprintf.obj
 0001:00016d37       __sprintf_p_l              10017d37 f   LIBCMT:sprintf.obj
 0001:00016d54       __sprintf_s_l              10017d54 f   LIBCMT:sprintf.obj
 0001:00016d71       _sprintf                   10017d71 f   LIBCMT:sprintf.obj
 0001:00016df5       _sprintf_s                 10017df5 f   LIBCMT:sprintf.obj
 0001:00016e11       _ldexp                     10017e11 f   LIBCMT:ldexp.obj
 0001:00016ffd       @__security_check_cookie@4 10017ffd f   LIBCMT:secchk.obj
 0001:00017010       __ftoui3                   10018010 f   LIBCMT:ftol3.obj
 0001:0001701f       __ftoul3                   1001801f f   LIBCMT:ftol3.obj
 0001:0001702e       __ftol3                    1001802e f   LIBCMT:ftol3.obj
 0001:0001703b       __ftol3_NaN                1001803b f   LIBCMT:ftol3.obj
 0001:00017053       __ftol3_work               10018053 f   LIBCMT:ftol3.obj
 0001:000170d9       __ftol3_common             100180d9 f   LIBCMT:ftol3.obj
 0001:0001719b       __ftol3_arg_error          1001819b f   LIBCMT:ftol3.obj
 0001:000171ad       __ftol3_except             100181ad f   LIBCMT:ftol3.obj
 0001:000171ef       __dtoui3                   100181ef f   LIBCMT:ftol3.obj
 0001:000171fe       __dtoul3                   100181fe f   LIBCMT:ftol3.obj
 0001:0001720d       __dtol3                    1001820d f   LIBCMT:ftol3.obj
 0001:0001721a       __dtol3_NaN                1001821a f   LIBCMT:ftol3.obj
 0001:00017237       __dtol3_work               10018237 f   LIBCMT:ftol3.obj
 0001:0001731c       __ultod3                   1001831c f   LIBCMT:ftol3.obj
 0001:000173ad       __ltod3                    100183ad f   LIBCMT:ftol3.obj
 0001:000173db       ___isa_available_init      100183db f   LIBCMT:cpu_disp.obj
 0001:00017554       __invoke_watson_if_error   10018554 f i LIBCMT:wassert.obj
 0001:00017574       __wassert                  10018574 f   LIBCMT:wassert.obj
 0001:00017c18       __CRT_INIT@12              10018c18 f   LIBCMT:dllcrt0.obj
 0001:00017d8a       __DllMainCRTStartup@12     10018d8a f   LIBCMT:dllcrt0.obj
 0001:00017ebb       ___DllXcptFilter           10018ebb f   LIBCMT:dllcrt0.obj
 0001:00017ee0       ?_query_new_handler@@YAP6AHI@ZXZ 10018ee0 f   LIBCMT:handler.obj
 0001:00017eed       ?_set_new_handler@@YAP6AHI@ZH@Z 10018eed f   LIBCMT:handler.obj
 0001:00017ef6       ?_set_new_handler@@YAP6AHI@ZP6AHI@Z@Z 10018ef6 f   LIBCMT:handler.obj
 0001:00017f2b       __callnewh                 10018f2b f   LIBCMT:handler.obj
 0001:00017f51       __initp_heap_handler       10018f51 f   LIBCMT:handler.obj
 0001:00017f5e       __FF_MSGBANNER             10018f5e f   LIBCMT:crt0msg.obj
 0001:00017f97       __GET_RTERRMSG             10018f97 f   LIBCMT:crt0msg.obj
 0001:00017fbb       __NMSG_WRITE               10018fbb f   LIBCMT:crt0msg.obj
 0001:00018178       ___doserrno                10019178 f   LIBCMT:dosmap.obj
 0001:0001818b       __dosmaperr                1001918b f   LIBCMT:dosmap.obj
 0001:000181ac       __errno                    100191ac f   LIBCMT:dosmap.obj
 0001:000181bf       __get_doserrno             100191bf f   LIBCMT:dosmap.obj
 0001:000181e2       __get_errno                100191e2 f   LIBCMT:dosmap.obj
 0001:00018205       __get_errno_from_oserr     10019205 f   LIBCMT:dosmap.obj
 0001:00018246       __set_doserrno             10019246 f   LIBCMT:dosmap.obj
 0001:00018265       __set_errno                10019265 f   LIBCMT:dosmap.obj
 0001:00018284       __get_heap_handle          10019284 f   LIBCMT:heapinit.obj
 0001:0001828a       __heap_init                1001928a f   LIBCMT:heapinit.obj
 0001:0001829f       __heap_term                1001929f f   LIBCMT:heapinit.obj
 0001:000182a7       ?_invalid_parameter@@YAXPBG00II@Z 100192a7 f   LIBCMT:invarg.obj
 0001:000182ac       ?_invoke_watson@@YAXPBG00II@Z 100192ac f   LIBCMT:invarg.obj
 0001:000182c4       __call_reportfault         100192c4 f   LIBCMT:invarg.obj
 0001:000183e9       __get_invalid_parameter_handler 100193e9 f   LIBCMT:invarg.obj
 0001:000183f6       __initp_misc_invarg        100193f6 f   LIBCMT:invarg.obj
 0001:00018403       __invalid_parameter        10019403 f   LIBCMT:invarg.obj
 0001:0001842e       __invalid_parameter_noinfo 1001942e f   LIBCMT:invarg.obj
 0001:0001843e       __invalid_parameter_noinfo_noreturn 1001943e f   LIBCMT:invarg.obj
 0001:00018459       __invoke_watson            10019459 f   LIBCMT:invarg.obj
 0001:00018484       __set_invalid_parameter_handler 10019484 f   LIBCMT:invarg.obj
 0001:000184a9       __vprintf_l                100194a9 f   LIBCMT:vprintf.obj
 0001:000184c4       __vprintf_p                100194c4 f   LIBCMT:vprintf.obj
 0001:000184de       __vprintf_p_l              100194de f   LIBCMT:vprintf.obj
 0001:000184f9       __vprintf_s_l              100194f9 f   LIBCMT:vprintf.obj
 0001:00018514       _vprintf                   10019514 f   LIBCMT:vprintf.obj
 0001:0001852e       _vprintf_helper            1001952e f   LIBCMT:vprintf.obj
 0001:000185bb       _vprintf_s                 100195bb f   LIBCMT:vprintf.obj
 0001:000185d5       __ftbuf                    100195d5 f   LIBCMT:_sftbuf.obj
 0001:00018606       __stbuf                    10019606 f   LIBCMT:_sftbuf.obj
 0001:000186ac       ??0_LocaleUpdate@@QAE@PAUlocaleinfo_struct@@@Z 100196ac f i LIBCMT:output.obj
 0001:00018734       ??1_LocaleUpdate@@QAE@XZ   10019734 f i LIBCMT:output.obj
 0001:00018742       ?GetLocaleT@_LocaleUpdate@@QAEPAUlocaleinfo_struct@@XZ 10019742 f i LIBCMT:output.obj
 0001:00018745       __output_l                 10019745 f   LIBCMT:output.obj
 0001:000192c5       _get_int64_arg             1001a2c5 f i LIBCMT:output.obj
 0001:000192d8       _get_int_arg               1001a2d8 f i LIBCMT:output.obj
 0001:000192e8       _get_short_arg             1001a2e8 f i LIBCMT:output.obj
 0001:000193f0       __SEH_prolog4              1001a3f0 f   LIBCMT:sehprolg4.obj
 0001:00019435       __SEH_epilog4              1001a435 f   LIBCMT:sehprolg4.obj
 0001:00019490       __except_handler4          1001a490 f   LIBCMT:chandler4.obj
 0001:00019630       _cos                       1001a630 f   LIBCMT:cos.obj
 0001:00019670       __CIcos                    1001a670 f   LIBCMT:cos.obj
 0001:000196ab       __CIcos_default            1001a6ab f   LIBCMT:cos.obj
 0001:000196bf       __cos_default              1001a6bf     LIBCMT:cos.obj
 0001:00019760       _sin                       1001a760 f   LIBCMT:sin.obj
 0001:000197a0       __CIsin                    1001a7a0 f   LIBCMT:sin.obj
 0001:000197db       __CIsin_default            1001a7db f   LIBCMT:sin.obj
 0001:000197ef       __sin_default              1001a7ef     LIBCMT:sin.obj
 0001:00019889       __VEC_memset               1001a889 f   LIBCMT:p4_memset.obj
 0001:00019951       ?strrchr@@YAPADPADH@Z      1001a951 f i LIBCMT:cvt.obj
 0001:0001995a       __cfltcvt                  1001a95a f   LIBCMT:cvt.obj
 0001:0001997b       __cfltcvt_l                1001a97b f   LIBCMT:cvt.obj
 0001:00019a01       __cftoa                    1001aa01 f   LIBCMT:cvt.obj
 0001:00019a1f       __cftoa_l                  1001aa1f f   LIBCMT:cvt.obj
 0001:00019d7b       __cftoe                    1001ad7b f   LIBCMT:cvt.obj
 0001:00019eea       __cftoe_l                  1001aeea f   LIBCMT:cvt.obj
 0001:00019fb8       __cftof                    1001afb8 f   LIBCMT:cvt.obj
 0001:0001a0bf       __cftof_l                  1001b0bf f   LIBCMT:cvt.obj
 0001:0001a180       __cftog                    1001b180 f   LIBCMT:cvt.obj
 0001:0001a19e       __cftog_l                  1001b19e f   LIBCMT:cvt.obj
 0001:0001a29d       __cropzeros                1001b29d f   LIBCMT:cvt.obj
 0001:0001a2ae       __cropzeros_l              1001b2ae f   LIBCMT:cvt.obj
 0001:0001a32e       __fassign                  1001b32e f   LIBCMT:cvt.obj
 0001:0001a346       __fassign_l                1001b346 f   LIBCMT:cvt.obj
 0001:0001a388       __forcdecpt                1001b388 f   LIBCMT:cvt.obj
 0001:0001a399       __forcdecpt_l              1001b399 f   LIBCMT:cvt.obj
 0001:0001a40d       __positive                 1001b40d f   LIBCMT:cvt.obj
 0001:0001a44f       __setdefaultprecision      1001b44f f   LIBCMT:fp8.obj
 0001:0001a476       __initp_misc_cfltcvt_tab   1001b476 f   LIBCMT:cmiscdat.obj
 0001:0001a495       __crt_debugger_hook        1001b495 f   LIBCMT:dbghook.obj
 0001:0001a4ca       ___crtCloseThreadpoolTimer 1001b4ca f   LIBCMT:winapisupp.obj
 0001:0001a4e1       ___crtCloseThreadpoolWait  1001b4e1 f   LIBCMT:winapisupp.obj
 0001:0001a4f8       ___crtCreateEventExW       1001b4f8 f   LIBCMT:winapisupp.obj
 0001:0001a533       ___crtCreateSemaphoreExW   1001b533 f   LIBCMT:winapisupp.obj
 0001:0001a56d       ___crtCreateSymbolicLinkW  1001b56d f   LIBCMT:winapisupp.obj
 0001:0001a596       ___crtCreateThreadpoolTimer 1001b596 f   LIBCMT:winapisupp.obj
 0001:0001a5b7       ___crtCreateThreadpoolWait 1001b5b7 f   LIBCMT:winapisupp.obj
 0001:0001a5d8       ___crtFlsAlloc             1001b5d8 f   LIBCMT:winapisupp.obj
 0001:0001a5f6       ___crtFlsFree              1001b5f6 f   LIBCMT:winapisupp.obj
 0001:0001a615       ___crtFlsGetValue          1001b615 f   LIBCMT:winapisupp.obj
 0001:0001a634       ___crtFlsSetValue          1001b634 f   LIBCMT:winapisupp.obj
 0001:0001a656       ___crtFlushProcessWriteBuffers 1001b656 f   LIBCMT:winapisupp.obj
 0001:0001a666       ___crtFreeLibraryWhenCallbackReturns 1001b666 f   LIBCMT:winapisupp.obj
 0001:0001a680       ___crtGetCurrentProcessorNumber 1001b680 f   LIBCMT:winapisupp.obj
 0001:0001a692       ___crtGetFileInformationByHandleEx 1001b692 f   LIBCMT:winapisupp.obj
 0001:0001a6be       ___crtGetLogicalProcessorInformation 1001b6be f   LIBCMT:winapisupp.obj
 0001:0001a6e4       ___crtGetShowWindowMode    1001b6e4 f   LIBCMT:winapisupp.obj
 0001:0001a707       ___crtGetTickCount64       1001b707 f   LIBCMT:winapisupp.obj
 0001:0001a71f       ___crtInitializeCriticalSectionEx 1001b71f f   LIBCMT:winapisupp.obj
 0001:0001a74d       ___crtIsPackagedApp        1001b74d f   LIBCMT:winapisupp.obj
 0001:0001a78d       ___crtLoadWinApiPointers   1001b78d f   LIBCMT:winapisupp.obj
 0001:0001aa18       ___crtSetFileInformationByHandle 1001ba18 f   LIBCMT:winapisupp.obj
 0001:0001aa44       ___crtSetThreadStackGuarantee 1001ba44 f   LIBCMT:winapisupp.obj
 0001:0001aa5f       ___crtSetThreadpoolTimer   1001ba5f f   LIBCMT:winapisupp.obj
 0001:0001aa7f       ___crtSetThreadpoolWait    1001ba7f f   LIBCMT:winapisupp.obj
 0001:0001aa9c       ___crtSetUnhandledExceptionFilter 1001ba9c f   LIBCMT:winapisupp.obj
 0001:0001aaaa       ___crtSleep                1001baaa f   LIBCMT:winapisupp.obj
 0001:0001aab8       ___crtTerminateProcess     1001bab8 f   LIBCMT:winapisupp.obj
 0001:0001aacd       ___crtUnhandledException   1001bacd f   LIBCMT:winapisupp.obj
 0001:0001aae3       ___crtWaitForThreadpoolTimerCallbacks 1001bae3 f   LIBCMT:winapisupp.obj
 0001:0001aafd       __RTC_Initialize           1001bafd f   LIBCMT:initsect.obj
 0001:0001ab1d       __RTC_Terminate            1001bb1d f   LIBCMT:initsect.obj
 0001:0001ab3d       __lock                     1001bb3d f   LIBCMT:mlock.obj
 0001:0001ab71       __lockerr_exit             1001bb71 f   LIBCMT:mlock.obj
 0001:0001ab91       __mtdeletelocks            1001bb91 f   LIBCMT:mlock.obj
 0001:0001abe5       __mtinitlocknum            1001bbe5 f   LIBCMT:mlock.obj
 0001:0001ac8e       __mtinitlocks              1001bc8e f   LIBCMT:mlock.obj
 0001:0001acc7       __unlock                   1001bcc7 f   LIBCMT:mlock.obj
 0001:0001ace0       __FindPESection            1001bce0 f   LIBCMT:pesect.obj
 0001:0001ad30       __IsNonwritableInCurrentImage 1001bd30 f   LIBCMT:pesect.obj
 0001:0001adf0       __ValidateImageBase        1001bdf0 f   LIBCMT:pesect.obj
 0001:0001ae21       ___onexitinit              1001be21 f   LIBCMT:onexit.obj
 0001:0001ae50       __onexit                   1001be50 f   LIBCMT:onexit.obj
 0001:0001af4c       _atexit                    1001bf4c f   LIBCMT:onexit.obj
 0001:0001af61       __calloc_crt               1001bf61 f   LIBCMT:crtheap.obj
 0001:0001afa9       __malloc_crt               1001bfa9 f   LIBCMT:crtheap.obj
 0001:0001aff0       __realloc_crt              1001bff0 f   LIBCMT:crtheap.obj
 0001:0001b03a       __recalloc_crt             1001c03a f   LIBCMT:crtheap.obj
 0001:0001b088       __set_malloc_crt_max_wait  1001c088 f   LIBCMT:crtheap.obj
 0001:0001b09b       _wait_a_bit                1001c09b f i LIBCMT:crtheap.obj
 0001:0001b0bf       ?_inconsistency@@YAXXZ     1001c0bf f   LIBCMT:hooks.obj
 0001:0001b0f7       ?terminate@@YAXXZ          1001c0f7 f   LIBCMT:hooks.obj
 0001:0001b12b       ?unexpected@@YAXXZ         1001c12b f   LIBCMT:hooks.obj
 0001:0001b13e       __initp_eh_hooks           1001c13e f   LIBCMT:hooks.obj
 0001:0001b14f       ___getlocaleinfo           1001c14f f   LIBCMT:inithelp.obj
 0001:0001b328       __initp_misc_purevirt      1001c328 f   LIBCMT:inithelp.obj
 0001:0001b335       ___fpecode                 1001c335 f   LIBCMT:winsig.obj
 0001:0001b33e       ___get_sigabrt             1001c33e f   LIBCMT:winsig.obj
 0001:0001b34b       ___pxcptinfoptrs           1001c34b f   LIBCMT:winsig.obj
 0001:0001b354       __initp_misc_winsig        1001c354 f   LIBCMT:winsig.obj
 0001:0001b415       _raise                     1001c415 f   LIBCMT:winsig.obj
 0001:0001b60a       _signal                    1001c60a f   LIBCMT:winsig.obj
 0001:0001b861       __initp_misc_rand_s        1001c861 f   LIBCMT:rand_s.obj
 0001:0001b86e       _rand_s                    1001c86e f   LIBCMT:rand_s.obj
 0001:0001b974       ___initmbctable            1001c974 f   LIBCMT:mbctype.obj
 0001:0001bc2b       ___updatetmbcinfo          1001cc2b f   LIBCMT:mbctype.obj
 0001:0001bcd1       __getmbcp                  1001ccd1 f   LIBCMT:mbctype.obj
 0001:0001bd02       __setmbcp                  1001cd02 f   LIBCMT:mbctype.obj
 0001:0001beaa       __setmbcp_nolock           1001ceaa f   LIBCMT:mbctype.obj
 0001:0001c095       __calloc_impl              1001d095 f   LIBCMT:calloc_impl.obj
 0001:0001c10f       __fcloseall                1001d10f f   LIBCMT:closeall.obj
 0001:0001c1ac       __fflush_nolock            1001d1ac f   LIBCMT:fflush.obj
 0001:0001c1f2       __flush                    1001d1f2 f   LIBCMT:fflush.obj
 0001:0001c256       __flushall                 1001d256 f   LIBCMT:fflush.obj
 0001:0001c25f       _fflush                    1001d25f f   LIBCMT:fflush.obj
 0001:0001c39c       __fileno                   1001d39c f   LIBCMT:fileno.obj
 0001:0001c3c0       __close                    1001d3c0 f   LIBCMT:close.obj
 0001:0001c49b       __close_nolock             1001d49b f   LIBCMT:close.obj
 0001:0001c535       __freebuf                  1001d535 f   LIBCMT:_freebuf.obj
 0001:0001c565       __getstream                1001d565 f   LIBCMT:stream.obj
 0001:0001c684       __openfile                 1001d684 f   LIBCMT:_open.obj
 0001:0001c900       __local_unwind4            1001d900 f   LIBCMT:exsup4.obj
 0001:0001c9d6       __seh_longjmp_unwind4@4    1001d9d6 f   LIBCMT:exsup4.obj
 0001:0001c9f2       @_EH4_CallFilterFunc@8     1001d9f2 f   LIBCMT:exsup4.obj
 0001:0001ca09       @_EH4_TransferToHandler@8  1001da09 f   LIBCMT:exsup4.obj
 0001:0001ca22       @_EH4_GlobalUnwind2@8      1001da22 f   LIBCMT:exsup4.obj
 0001:0001ca3b       @_EH4_LocalUnwind@16       1001da3b f   LIBCMT:exsup4.obj
 0001:0001ca52       __vfprintf_l               1001da52 f   LIBCMT:vfprintf.obj
 0001:0001ca70       __vfprintf_p               1001da70 f   LIBCMT:vfprintf.obj
 0001:0001ca8d       __vfprintf_p_l             1001da8d f   LIBCMT:vfprintf.obj
 0001:0001caab       __vfprintf_s_l             1001daab f   LIBCMT:vfprintf.obj
 0001:0001cac9       _vfprintf                  1001dac9 f   LIBCMT:vfprintf.obj
 0001:0001cae6       _vfprintf_helper           1001dae6 f   LIBCMT:vfprintf.obj
 0001:0001cbf7       _vfprintf_s                1001dbf7 f   LIBCMT:vfprintf.obj
 0001:0001cc14       __ioinit                   1001dc14 f   LIBCMT:ioinit.obj
 0001:0001cec8       __ioterm                   1001dec8 f   LIBCMT:ioinit.obj
 0001:0001cf1a       __filbuf                   1001df1a f   LIBCMT:_filbuf.obj
 0001:0001d03b       _memcpy_s                  1001e03b f   LIBCMT:memcpy_s.obj
 0001:0001d0ba       __read                     1001e0ba f   LIBCMT:read.obj
 0001:0001d1ce       __read_nolock              1001e1ce f   LIBCMT:read.obj
 0001:0001d95f       __flsbuf                   1001e95f f   LIBCMT:_flsbuf.obj
 0001:0001daae       __write                    1001eaae f   LIBCMT:write.obj
 0001:0001db9d       __write_nolock             1001eb9d f   LIBCMT:write.obj
 0001:0001e402       __wremove                  1001f402 f   LIBCMT:wunlink.obj
 0001:0001e430       __wunlink                  1001f430 f   LIBCMT:wunlink.obj
 0001:0001e439       __lseek                    1001f439 f   LIBCMT:lseek.obj
 0001:0001e528       __lseek_nolock             1001f528 f   LIBCMT:lseek.obj
 0001:0001e5cf       __vscprintf                1001f5cf f   LIBCMT:vsprintf.obj
 0001:0001e5e9       __vscprintf_helper         1001f5e9 f   LIBCMT:vsprintf.obj
 0001:0001e645       __vscprintf_l              1001f645 f   LIBCMT:vsprintf.obj
 0001:0001e660       __vscprintf_p              1001f660 f   LIBCMT:vsprintf.obj
 0001:0001e67a       __vscprintf_p_l            1001f67a f   LIBCMT:vsprintf.obj
 0001:0001e695       __vsprintf_l               1001f695 f   LIBCMT:vsprintf.obj
 0001:0001e719       _vsprintf                  1001f719 f   LIBCMT:vsprintf.obj
 0001:0001e731       __vsnprintf_c              1001f731 f   LIBCMT:vsnprnc.obj
 0001:0001e758       __vsnprintf_c_l            1001f758 f   LIBCMT:vsnprnc.obj
 0001:0001e780       __vsnprintf_helper         1001f780 f   LIBCMT:vsnprnc.obj
 0001:0001e84a       __vsnprintf_s              1001f84a f   LIBCMT:vsnprnc.obj
 0001:0001e868       __vsnprintf_s_l            1001f868 f   LIBCMT:vsnprnc.obj
 0001:0001e968       __vsprintf_p               1001f968 f   LIBCMT:vsnprnc.obj
 0001:0001e98f       __vsprintf_p_l             1001f98f f   LIBCMT:vsnprnc.obj
 0001:0001e9b7       __vsprintf_s_l             1001f9b7 f   LIBCMT:vsnprnc.obj
 0001:0001ea2c       _vsprintf_s                1001fa2c f   LIBCMT:vsnprnc.obj
 0001:0001ea47       __chgsign                  1001fa47 f   LIBCMT:ieeemisc.obj
 0001:0001ea74       __chgsignf                 1001fa74 f   LIBCMT:ieeemisc.obj
 0001:0001ea95       __copysign                 1001fa95 f   LIBCMT:ieeemisc.obj
 0001:0001eabd       __copysignf                1001fabd f   LIBCMT:ieeemisc.obj
 0001:0001ead9       __finite                   1001fad9 f   LIBCMT:ieeemisc.obj
 0001:0001eaf1       __fpclass                  1001faf1 f   LIBCMT:ieeemisc.obj
 0001:0001eb8d       __isnan                    1001fb8d f   LIBCMT:ieeemisc.obj
 0001:0001ebc0       __logb                     1001fbc0 f   LIBCMT:ieeemisc.obj
 0001:0001eca1       __nextafter                1001fca1 f   LIBCMT:ieeemisc.obj
 0001:0001ef41       __scalb                    1001ff41 f   LIBCMT:ieeemisc.obj
 0001:0001ef59       __add_exp                  1001ff59 f   LIBCMT:util.obj
 0001:0001ef88       __decomp                   1001ff88 f   LIBCMT:util.obj
 0001:0001f05a       __get_exp                  1002005a f   LIBCMT:util.obj
 0001:0001f073       __set_bexp                 10020073 f   LIBCMT:util.obj
 0001:0001f09c       __set_exp                  1002009c f   LIBCMT:util.obj
 0001:0001f0cb       __sptype                   100200cb f   LIBCMT:util.obj
 0001:0001f126       __errcode                  10020126 f   LIBCMT:fpexcept.obj
 0001:0001f158       __except1                  10020158 f   LIBCMT:fpexcept.obj
 0001:0001f220       __except2                  10020220 f   LIBCMT:fpexcept.obj
 0001:0001f320       __handle_exc               10020320 f   LIBCMT:fpexcept.obj
 0001:0001f4fe       __handle_qnan1             100204fe f   LIBCMT:fpexcept.obj
 0001:0001f54e       __handle_qnan2             1002054e f   LIBCMT:fpexcept.obj
 0001:0001f5ae       __raise_exc                100205ae f   LIBCMT:fpexcept.obj
 0001:0001f5cf       __raise_exc_ex             100205cf f   LIBCMT:fpexcept.obj
 0001:0001f8b4       __raise_excf               100208b4 f   LIBCMT:fpexcept.obj
 0001:0001f8d5       __set_errno_from_matherr   100208d5 f   LIBCMT:fpexcept.obj
 0001:0001f902       __umatherr                 10020902 f   LIBCMT:fpexcept.obj
 0001:0001f9a2       ___clrfp_sse2              100209a2 f   LIBCMT:fpctrl.obj
 0001:0001f9c3       ___ctrlfp_sse2             100209c3 f   LIBCMT:fpctrl.obj
 0001:0001f9fc       ___fclrf_sse2              100209fc f   LIBCMT:fpctrl.obj
 0001:0001fa19       ___get_fpsr_sse2           10020a19 f   LIBCMT:fpctrl.obj
 0001:0001fa35       ___set_fpsr_sse2           10020a35 f   LIBCMT:fpctrl.obj
 0001:0001faab       ___set_statfp_sse2         10020aab f   LIBCMT:fpctrl.obj
 0001:0001fac4       ___statfp_sse2             10020ac4 f   LIBCMT:fpctrl.obj
 0001:0001fad9       __clrfp                    10020ad9 f   LIBCMT:fpctrl.obj
 0001:0001faea       __ctrlfp                   10020aea f   LIBCMT:fpctrl.obj
 0001:0001fb15       __set_statfp               10020b15 f   LIBCMT:fpctrl.obj
 0001:0001fb6d       __statfp                   10020b6d f   LIBCMT:fpctrl.obj
 0001:0001fb7d       _wcscat_s                  10020b7d f   LIBCMT:wcscat_s.obj
 0001:0001fbe9       _wcscpy_s                  10020be9 f   LIBCMT:wcscpy_s.obj
 0001:0001fc45       _wcslen                    10020c45 f   LIBCMT:wcslen.obj
 0001:0001fc5e       _wcsncat_s                 10020c5e f   LIBCMT:wcsncat_s.obj
 0001:0001fd2c       __set_abort_behavior       10020d2c f   LIBCMT:abort.obj
 0001:0001fd4b       _abort                     10020d4b f   LIBCMT:abort.obj
 0001:0001fd8e       ___set_app_type            10020d8e f   LIBCMT:errmode.obj
 0001:0001fd9b       __set_error_mode           10020d9b f   LIBCMT:errmode.obj
 0001:0001fef7       __i64tow_s                 10020ef7 f   LIBCMT:xtows.obj
 0001:0001ff28       __itow_s                   10020f28 f   LIBCMT:xtows.obj
 0001:0001ff51       __ltow_s                   10020f51 f   LIBCMT:xtows.obj
 0001:0001ff7b       __ui64tow_s                10020f7b f   LIBCMT:xtows.obj
 0001:0001ff96       __ultow_s                  10020f96 f   LIBCMT:xtows.obj
 0001:000200a1       _setvbuf                   100210a1 f   LIBCMT:setvbuf.obj
 0001:000201a7       __fwprintf_l               100211a7 f   LIBCMT:fwprintf.obj
 0001:000201c1       __fwprintf_p               100211c1 f   LIBCMT:fwprintf.obj
 0001:000201da       __fwprintf_p_l             100211da f   LIBCMT:fwprintf.obj
 0001:000201f4       __fwprintf_s_l             100211f4 f   LIBCMT:fwprintf.obj
 0001:0002020e       _fwprintf                  1002120e f   LIBCMT:fwprintf.obj
 0001:000202a2       _fwprintf_s                100212a2 f   LIBCMT:fwprintf.obj
 0001:000202bb       __vsnwprintf_s             100212bb f   LIBCMT:vswprnc.obj
 0001:000202d9       __vsnwprintf_s_l           100212d9 f   LIBCMT:vswprnc.obj
 0001:000203dd       __vswprintf_c              100213dd f   LIBCMT:vswprnc.obj
 0001:00020404       __vswprintf_c_l            10021404 f   LIBCMT:vswprnc.obj
 0001:0002042c       __vswprintf_helper         1002142c f   LIBCMT:vswprnc.obj
 0001:00020527       __vswprintf_p              10021527 f   LIBCMT:vswprnc.obj
 0001:0002054e       __vswprintf_p_l            1002154e f   LIBCMT:vswprnc.obj
 0001:00020576       __vswprintf_s_l            10021576 f   LIBCMT:vswprnc.obj
 0001:000205ed       _vswprintf_s               100215ed f   LIBCMT:vswprnc.obj
 0001:00020608       ___crtMessageBoxW          10021608 f   LIBCMT:crtmboxw.obj
 0001:000207ee       ___crtMessageBoxWaitThreadW@4 100217ee f   LIBCMT:crtmboxw.obj
 0001:0002080c       __XcptFilter               1002180c f   LIBCMT:winxfltr.obj
 0001:00020967       ___CppXcptFilter           10021967 f   LIBCMT:winxfltr.obj
 0001:000209b9       ___get_flsindex            100219b9 f   LIBCMT:tidtable.obj
 0001:000209bf       ___threadhandle            100219bf f   LIBCMT:tidtable.obj
 0001:000209c5       ___threadid                100219c5 f   LIBCMT:tidtable.obj
 0001:000209cb       __freefls@4                100219cb f   LIBCMT:tidtable.obj
 0001:00020b00       __freeptd                  10021b00 f   LIBCMT:tidtable.obj
 0001:00020b36       __getptd                   10021b36 f   LIBCMT:tidtable.obj
 0001:00020b4e       __getptd_noexit            10021b4e f   LIBCMT:tidtable.obj
 0001:00020bbd       __initptd                  10021bbd f   LIBCMT:tidtable.obj
 0001:00020c70       __mtinit                   10021c70 f   LIBCMT:tidtable.obj
 0001:00020ce6       __mtterm                   10021ce6 f   LIBCMT:tidtable.obj
 0001:00020d03       __set_pgmptr               10021d03 f i LIBCMT:stdargv.obj
 0001:00020d10       __setargv                  10021d10 f   LIBCMT:stdargv.obj
 0001:00020f3f       __setenvp                  10021f3f f   LIBCMT:stdenvp.obj
 0001:00021020       ___security_init_cookie    10022020 f   LIBCMT:gs_support.obj
 0001:000210bc       ___crtGetEnvironmentStringsA 100220bc f   LIBCMT:a_env.obj
 0001:00021150       _strlen                    10022150 f   LIBCMT:strlen.obj
 0001:000211db       _wcsncpy_s                 100221db f   LIBCMT:wcsncpy_s.obj
 0001:00021299       __output_s_l               10022299 f   LIBCMT:outputs.obj
 0001:00021f21       __output_p_l               10022f21 f   LIBCMT:outputp.obj
 0001:00023259       __validate_param_reuseA    10024259 f   LIBCMT:outputp.obj
 0001:0002338f       _get_crtdouble_arg         1002438f f i LIBCMT:outputp.obj
 0001:0002348e       __isatty                   1002448e f   LIBCMT:isatty.obj
 0001:000234e2       ___addlocaleref            100244e2 f   LIBCMT:localref.obj
 0001:00023577       ___freetlocinfo            10024577 f   LIBCMT:localref.obj
 0001:000236d1       ___removelocaleref         100246d1 f   LIBCMT:localref.obj
 0001:00023771       ___updatetlocinfo          10024771 f   LIBCMT:localref.obj
 0001:000237f1       __updatetlocinfoEx_nolock  100247f1 f   LIBCMT:localref.obj
 0001:0002383c       ___iswcsym                 1002483c f i LIBCMT:_wctype.obj
 0001:00023860       ___iswcsymf                10024860 f i LIBCMT:_wctype.obj
 0001:00023884       __isleadbyte_l             10024884 f i LIBCMT:_wctype.obj
 0001:000238be       __iswalnum_l               100248be f i LIBCMT:_wctype.obj
 0001:000238d2       __iswalpha_l               100248d2 f i LIBCMT:_wctype.obj
 0001:000238e6       __iswblank_l               100248e6 f i LIBCMT:_wctype.obj
 0001:00023901       __iswcntrl_l               10024901 f i LIBCMT:_wctype.obj
 0001:00023912       __iswcsym_l                10024912 f i LIBCMT:_wctype.obj
 0001:00023936       __iswcsymf_l               10024936 f i LIBCMT:_wctype.obj
 0001:0002395a       __iswdigit_l               1002495a f i LIBCMT:_wctype.obj
 0001:0002396b       __iswgraph_l               1002496b f i LIBCMT:_wctype.obj
 0001:0002397f       __iswlower_l               1002497f f i LIBCMT:_wctype.obj
 0001:00023990       __iswprint_l               10024990 f i LIBCMT:_wctype.obj
 0001:000239a4       __iswpunct_l               100249a4 f i LIBCMT:_wctype.obj
 0001:000239b5       __iswspace_l               100249b5 f i LIBCMT:_wctype.obj
 0001:000239c6       __iswupper_l               100249c6 f i LIBCMT:_wctype.obj
 0001:000239d7       __iswxdigit_l              100249d7 f i LIBCMT:_wctype.obj
 0001:000239eb       _isleadbyte                100249eb f i LIBCMT:_wctype.obj
 0001:000239fc       _iswalnum                  100249fc f i LIBCMT:_wctype.obj
 0001:00023a10       _iswalpha                  10024a10 f i LIBCMT:_wctype.obj
 0001:00023a24       _iswascii                  10024a24 f i LIBCMT:_wctype.obj
 0001:00023a36       _iswblank                  10024a36 f i LIBCMT:_wctype.obj
 0001:00023a51       _iswcntrl                  10024a51 f i LIBCMT:_wctype.obj
 0001:00023a62       _iswdigit                  10024a62 f i LIBCMT:_wctype.obj
 0001:00023a73       _iswgraph                  10024a73 f i LIBCMT:_wctype.obj
 0001:00023a87       _iswlower                  10024a87 f i LIBCMT:_wctype.obj
 0001:00023a98       _iswprint                  10024a98 f i LIBCMT:_wctype.obj
 0001:00023aac       _iswpunct                  10024aac f i LIBCMT:_wctype.obj
 0001:00023abd       _iswspace                  10024abd f i LIBCMT:_wctype.obj
 0001:00023ace       _iswupper                  10024ace f i LIBCMT:_wctype.obj
 0001:00023adf       _iswxdigit                 10024adf f i LIBCMT:_wctype.obj
 0001:00023af3       __wctomb_l                 10024af3 f   LIBCMT:wctomb.obj
 0001:00023b42       __wctomb_s_l               10024b42 f   LIBCMT:wctomb.obj
 0001:00023c66       _wctomb                    10024c66 f   LIBCMT:wctomb.obj
 0001:00023c99       _wctomb_s                  10024c99 f   LIBCMT:wctomb.obj
 0001:00023cc0       __aulldvrm                 10024cc0 f   LIBCMT:ulldvrm.obj
 0001:00023d55       __sse2_mathfcns_init       10024d55 f   LIBCMT:mathfcns.obj
 0001:00023d64       __set_SSE2_enable          10024d64 f   LIBCMT:mathfcns.obj
 0001:00023d90       __CIcos_pentium4           10024d90 f   LIBCMT:cos_pentium4.obj
 0001:00023da8       __cos_pentium4             10024da8     LIBCMT:cos_pentium4.obj
 0001:00023f40       __trandisp1                10024f40 f   LIBCMT:87disp.obj
 0001:00023fa7       __trandisp2                10024fa7 f   LIBCMT:87disp.obj
 0001:00024033       __rttospopde               10025033     LIBCMT:87disp.obj
 0001:00024038       __rttospop                 10025038     LIBCMT:87disp.obj
 0001:0002403a       __rtnospop                 1002503a     LIBCMT:87disp.obj
 0001:0002403c       __rttosnpop                1002503c     LIBCMT:87disp.obj
 0001:0002403d       __rtnospopde               1002503d     LIBCMT:87disp.obj
 0001:00024044       __rtzeropop                10025044     LIBCMT:87disp.obj
 0001:00024046       __rtzeronpop               10025046     LIBCMT:87disp.obj
 0001:0002404b       __rtonepop                 1002504b     LIBCMT:87disp.obj
 0001:0002404d       __rtonenpop                1002504d     LIBCMT:87disp.obj
 0001:00024052       __tosnan1                  10025052     LIBCMT:87disp.obj
 0001:0002407d       __nosnan2                  1002507d     LIBCMT:87disp.obj
 0001:0002407f       __tosnan2                  1002507f     LIBCMT:87disp.obj
 0001:000240a7       __nan2                     100250a7     LIBCMT:87disp.obj
 0001:000240e6       __rtindfpop                100250e6     LIBCMT:87disp.obj
 0001:000240e8       __rtindfnpop               100250e8     LIBCMT:87disp.obj
 0001:000240f9       __rttosnpopde              100250f9     LIBCMT:87disp.obj
 0001:00024103       __rtchsifneg               10025103     LIBCMT:87disp.obj
 0001:00024110       __twoToTOS                 10025110 f   LIBCMT:common.obj
 0001:00024125       __load_CW                  10025125 f   LIBCMT:common.obj
 0001:0002413c       __convertTOStoQNaN         1002513c f   LIBCMT:common.obj
 0001:00024155       __fload_withFB             10025155 f   LIBCMT:common.obj
 0001:00024198       __checkTOS_withFB          10025198 f   LIBCMT:common.obj
 0001:000241ae       __fast_exit                100251ae f   LIBCMT:common.obj
 0001:000241bb       __math_exit                100251bb f   LIBCMT:common.obj
 0001:000241e5       __check_overflow_exit      100251e5 f   LIBCMT:common.obj
 0001:000241f9       __check_range_exit         100251f9 f   LIBCMT:common.obj
 0001:000242a0       __startTwoArgErrorHandling 100252a0 f   LIBCMT:genexcep.obj
 0001:000242b7       __startOneArgErrorHandling 100252b7 f   LIBCMT:genexcep.obj
 0001:00024300       __CIsin_pentium4           10025300 f   LIBCMT:sin_pentium4.obj
 0001:00024318       __sin_pentium4             10025318     LIBCMT:sin_pentium4.obj
 0001:000244c8       ___isascii                 100254c8 f i LIBCMT:_ctype.obj
 0001:000244d8       ___iscsym                  100254d8 f i LIBCMT:_ctype.obj
 0001:000244f8       ___iscsymf                 100254f8 f i LIBCMT:_ctype.obj
 0001:00024515       ___toascii                 10025515 f i LIBCMT:_ctype.obj
 0001:00024520       __isalnum_l                10025520 f i LIBCMT:_ctype.obj
 0001:00024578       __isalpha_l                10025578 f i LIBCMT:_ctype.obj
 0001:000245d0       __isblank_l                100255d0 f i LIBCMT:_ctype.obj
 0001:0002462a       __iscntrl_l                1002562a f i LIBCMT:_ctype.obj
 0001:0002467c       __iscsym_l                 1002567c f i LIBCMT:_ctype.obj
 0001:0002469d       __iscsymf_l                1002569d f i LIBCMT:_ctype.obj
 0001:000246be       __isdigit_l                100256be f i LIBCMT:_ctype.obj
 0001:00024710       __isgraph_l                10025710 f i LIBCMT:_ctype.obj
 0001:00024768       __islower_l                10025768 f i LIBCMT:_ctype.obj
 0001:000247ba       __isprint_l                100257ba f i LIBCMT:_ctype.obj
 0001:00024812       __ispunct_l                10025812 f i LIBCMT:_ctype.obj
 0001:00024864       __isspace_l                10025864 f i LIBCMT:_ctype.obj
 0001:000248b6       __isupper_l                100258b6 f i LIBCMT:_ctype.obj
 0001:00024908       __isxdigit_l               10025908 f i LIBCMT:_ctype.obj
 0001:00024960       _isalnum                   10025960 f i LIBCMT:_ctype.obj
 0001:0002498d       _isalpha                   1002598d f i LIBCMT:_ctype.obj
 0001:000249ba       _isblank                   100259ba f i LIBCMT:_ctype.obj
 0001:000249ef       _iscntrl                   100259ef f i LIBCMT:_ctype.obj
 0001:00024a1a       _isdigit                   10025a1a f i LIBCMT:_ctype.obj
 0001:00024a45       _isgraph                   10025a45 f i LIBCMT:_ctype.obj
 0001:00024a72       _islower                   10025a72 f i LIBCMT:_ctype.obj
 0001:00024a9d       _isprint                   10025a9d f i LIBCMT:_ctype.obj
 0001:00024aca       _ispunct                   10025aca f i LIBCMT:_ctype.obj
 0001:00024af5       _isspace                   10025af5 f i LIBCMT:_ctype.obj
 0001:00024b20       _isupper                   10025b20 f i LIBCMT:_ctype.obj
 0001:00024b4b       _isxdigit                  10025b4b f i LIBCMT:_ctype.obj
 0001:00024b78       __tolower                  10025b78 f   LIBCMT:tolower.obj
 0001:00024b83       __tolower_l                10025b83 f   LIBCMT:tolower.obj
 0001:00024cc6       _tolower                   10025cc6 f   LIBCMT:tolower.obj
 0001:00024cf2       _strcpy_s                  10025cf2 f   LIBCMT:strcpy_s.obj
 0001:00024d50       _strrchr                   10025d50 f   LIBCMT:strrchr.obj
 0001:00024e87       __fptostr                  10025e87 f   LIBCMT:_fptostr.obj
 0001:00024f37       ___crt_atoflt_l            10025f37 f   LIBCMT:atodbl.obj
 0001:00024fdb       __atodbl                   10025fdb f   LIBCMT:atodbl.obj
 0001:00024ff0       __atodbl_l                 10025ff0 f   LIBCMT:atodbl.obj
 0001:0002507e       __atoflt                   1002607e f   LIBCMT:atodbl.obj
 0001:00025093       __atoflt_l                 10026093 f   LIBCMT:atodbl.obj
 0001:000250ab       __atoldbl                  100260ab f   LIBCMT:atodbl.obj
 0001:000250c0       __atoldbl_l                100260c0 f   LIBCMT:atodbl.obj
 0001:0002514f       ___dtold                   1002614f f   LIBCMT:cfout.obj
 0001:00025217       __fltout2                  10026217 f   LIBCMT:cfout.obj
 0001:000252b0       __alldvrm                  100262b0 f   LIBCMT:lldvrm.obj
 0001:00025390       __aullshr                  10026390 f   LIBCMT:ullshr.obj
 0001:000253af       __get_output_format        100263af f   LIBCMT:outputformat.obj
 0001:000253b5       __set_output_format        100263b5 f   LIBCMT:outputformat.obj
 0001:000253e7       __controlfp_s              100263e7 f   LIBCMT:contrlfp.obj
 0001:00025444       __fptrap                   10026444 f   LIBCMT:crt0fp.obj
 0001:0002544d       __msize                    1002644d f   LIBCMT:msize.obj
 0001:0002547e       __recalloc                 1002647e f   LIBCMT:recalloc.obj
 0001:000254e7       _strncpy_s                 100264e7 f   LIBCMT:strncpy_s.obj
 0001:0002566f       __MallocaIsSizeInRange     1002666f f i LIBCMT:a_loc.obj
 0001:00025680       __MarkAllocaS              10026680 f i LIBCMT:a_loc.obj
 0001:00025694       ___crtGetLocaleInfoA       10026694 f   LIBCMT:a_loc.obj
 0001:000256ce       __freea                    100266ce f i LIBCMT:a_loc.obj
 0001:000256ec       _GetTableIndexFromLcid     100266ec f   LIBCMT:winapinls.obj
 0001:00025721       _GetTableIndexFromLocaleName 10026721 f   LIBCMT:winapinls.obj
 0001:0002576f       ___crtCompareStringEx      1002676f f   LIBCMT:winapinls.obj
 0001:000257bb       ___crtDownlevelLCIDToLocaleName 100267bb f   LIBCMT:winapinls.obj
 0001:00025837       ___crtDownlevelLocaleNameToLCID 10026837 f   LIBCMT:winapinls.obj
 0001:00025875       ___crtEnumSystemLocalesEx  10026875 f   LIBCMT:winapinls.obj
 0001:000258b2       ___crtGetDateFormatEx      100268b2 f   LIBCMT:winapinls.obj
 0001:000258fb       ___crtGetLocaleInfoEx      100268fb f   LIBCMT:winapinls.obj
 0001:0002592a       ___crtGetTimeFormatEx      1002692a f   LIBCMT:winapinls.obj
 0001:0002595f       ___crtGetUserDefaultLocaleName 1002695f f   LIBCMT:winapinls.obj
 0001:0002598a       ___crtIsValidLocaleName    1002698a f   LIBCMT:winapinls.obj
 0001:000259b5       ___crtLCMapStringEx        100269b5 f   LIBCMT:winapinls.obj
 0001:00025a01       ___wcsnicmp_ascii          10026a01 f   LIBCMT:winapinls.obj
 0001:00025c93       ___crtLCMapStringA         10026c93 f   LIBCMT:a_map.obj
 0001:00025dd1       ___crtGetStringTypeA       10026dd1 f   LIBCMT:a_str.obj
 0001:00025e11       __commit                   10026e11 f   LIBCMT:commit.obj
 0001:00025efa       ___lock_fhandle            10026efa f   LIBCMT:osfinfo.obj
 0001:00025f88       __alloc_osfhnd             10026f88 f   LIBCMT:osfinfo.obj
 0001:00026131       __free_osfhnd              10027131 f   LIBCMT:osfinfo.obj
 0001:000261b7       __get_osfhandle            100271b7 f   LIBCMT:osfinfo.obj
 0001:0002621e       __open_osfhandle           1002721e f   LIBCMT:osfinfo.obj
 0001:00026334       __set_osfhnd               10027334 f   LIBCMT:osfinfo.obj
 0001:000263b6       __unlock_fhandle           100273b6 f   LIBCMT:osfinfo.obj
 0001:000263dc       __open                     100273dc f   LIBCMT:open.obj
 0001:0002648c       __sopen                    1002748c f   LIBCMT:open.obj
 0001:000264bf       __sopen_helper             100274bf f   LIBCMT:open.obj
 0001:00026588       __sopen_nolock             10027588 f   LIBCMT:open.obj
 0001:000265d6       __sopen_s                  100275d6 f   LIBCMT:open.obj
 0001:000265f4       __mbsnbcmp                 100275f4 f   LIBCMT:mbsnbcmp.obj
 0001:0002660c       __mbsnbcmp_l               1002760c f   LIBCMT:mbsnbcmp.obj
 0001:00026723       __mbsnbicmp                10027723 f   LIBCMT:mbsnbicm.obj
 0001:0002673b       __mbsnbicmp_l              1002773b f   LIBCMT:mbsnbicm.obj
 0001:00026900       __global_unwind2           10027900 f   LIBCMT:exsup.obj
 0001:00026965       __local_unwind2            10027965 f   LIBCMT:exsup.obj
 0001:000269e9       __abnormal_termination     100279e9 f   LIBCMT:exsup.obj
 0001:00026a0c       __NLG_Notify1              10027a0c f   LIBCMT:exsup.obj
 0001:00026a15       __NLG_Notify               10027a15 f   LIBCMT:exsup.obj
 0001:00026a2c       __NLG_Dispatch2            10027a2c     LIBCMT:exsup.obj
 0001:00026a2c       __NLG_Dispatch             10027a2c     LIBCMT:exsup.obj
 0001:00026a34       __NLG_Call                 10027a34 f   LIBCMT:exsup.obj
 0001:00026a36       __NLG_Return2              10027a36     LIBCMT:exsup.obj
 0001:00026a37       __getbuf                   10027a37 f   LIBCMT:_getbuf.obj
 0001:00026a7d       __lseeki64                 10027a7d f   LIBCMT:lseeki64.obj
 0001:00026b79       __lseeki64_nolock          10027b79 f   LIBCMT:lseeki64.obj
 0001:00026bec       __mbtowc_l                 10027bec f   LIBCMT:mbtowc.obj
 0001:00026ce1       _mbtowc                    10027ce1 f   LIBCMT:mbtowc.obj
 0001:00026cf9       __putwch                   10027cf9 f   LIBCMT:putwch.obj
 0001:00026d45       __putwch_nolock            10027d45 f   LIBCMT:putwch.obj
 0001:00026d90       __chkstk                   10027d90 f   LIBCMT:chkstk.obj
 0001:00026d90       __alloca_probe             10027d90 f   LIBCMT:chkstk.obj
 0001:00026dbb       __matherr                  10027dbb f   LIBCMT:matherr.obj
 0001:00026dbe       __vfwprintf_l              10027dbe f   LIBCMT:vfwprint.obj
 0001:00026ddc       __vfwprintf_p              10027ddc f   LIBCMT:vfwprint.obj
 0001:00026df9       __vfwprintf_p_l            10027df9 f   LIBCMT:vfwprint.obj
 0001:00026e17       __vfwprintf_s_l            10027e17 f   LIBCMT:vfwprint.obj
 0001:00026e35       _vfwprintf                 10027e35 f   LIBCMT:vfwprint.obj
 0001:00026e52       _vfwprintf_helper          10027e52 f   LIBCMT:vfwprint.obj
 0001:00026ee5       _vfwprintf_s               10027ee5 f   LIBCMT:vfwprint.obj
 0001:00026f02       __woutput_l                10027f02 f   LIBCMT:woutput.obj
 0001:00027be1       __woutput_s_l              10028be1 f   LIBCMT:woutputs.obj
 0001:000288f8       __validate_param_reuseW    100298f8 f   LIBCMT:woutputp.obj
 0001:00028a70       __woutput_p_l              10029a70 f   LIBCMT:woutputp.obj
 0001:00029e99       __ismbbalnum               1002ae99 f   LIBCMT:ismbbyte.obj
 0001:00029eb2       __ismbbalnum_l             1002aeb2 f   LIBCMT:ismbbyte.obj
 0001:00029ecc       __ismbbalpha               1002aecc f   LIBCMT:ismbbyte.obj
 0001:00029ee5       __ismbbalpha_l             1002aee5 f   LIBCMT:ismbbyte.obj
 0001:00029eff       __ismbbblank               1002aeff f   LIBCMT:ismbbyte.obj
 0001:00029f20       __ismbbblank_l             1002af20 f   LIBCMT:ismbbyte.obj
 0001:00029f42       __ismbbgraph               1002af42 f   LIBCMT:ismbbyte.obj
 0001:00029f5b       __ismbbgraph_l             1002af5b f   LIBCMT:ismbbyte.obj
 0001:00029f75       __ismbbkalnum              1002af75 f   LIBCMT:ismbbyte.obj
 0001:00029f8b       __ismbbkalnum_l            1002af8b f   LIBCMT:ismbbyte.obj
 0001:00029fa2       __ismbbkana                1002afa2 f   LIBCMT:ismbbyte.obj
 0001:00029fb3       __ismbbkana_l              1002afb3 f   LIBCMT:ismbbyte.obj
 0001:00029fff       __ismbbkprint              1002afff f   LIBCMT:ismbbyte.obj
 0001:0002a015       __ismbbkprint_l            1002b015 f   LIBCMT:ismbbyte.obj
 0001:0002a02c       __ismbbkpunct              1002b02c f   LIBCMT:ismbbyte.obj
 0001:0002a042       __ismbbkpunct_l            1002b042 f   LIBCMT:ismbbyte.obj
 0001:0002a059       __ismbblead                1002b059 f   LIBCMT:ismbbyte.obj
 0001:0002a06f       __ismbblead_l              1002b06f f   LIBCMT:ismbbyte.obj
 0001:0002a086       __ismbbprint               1002b086 f   LIBCMT:ismbbyte.obj
 0001:0002a09f       __ismbbprint_l             1002b09f f   LIBCMT:ismbbyte.obj
 0001:0002a0b9       __ismbbpunct               1002b0b9 f   LIBCMT:ismbbyte.obj
 0001:0002a0cf       __ismbbpunct_l             1002b0cf f   LIBCMT:ismbbyte.obj
 0001:0002a0e6       __ismbbtrail               1002b0e6 f   LIBCMT:ismbbyte.obj
 0001:0002a0fc       __ismbbtrail_l             1002b0fc f   LIBCMT:ismbbyte.obj
 0001:0002a339       __strtol_l                 1002b339 f   LIBCMT:strtol.obj
 0001:0002a354       __strtoul_l                1002b354 f   LIBCMT:strtol.obj
 0001:0002a36f       _strtol                    1002b36f f   LIBCMT:strtol.obj
 0001:0002a399       _strtoul                   1002b399 f   LIBCMT:strtol.obj
 0001:0002a3c3       ___free_lconv_mon          1002b3c3 f   LIBCMT:initmon.obj
 0001:0002a4bf       ___init_monetary           1002b4bf f   LIBCMT:initmon.obj
 0001:0002a898       ___free_lconv_num          1002b898 f   LIBCMT:initnum.obj
 0001:0002a8ff       ___init_numeric            1002b8ff f   LIBCMT:initnum.obj
 0001:0002ab3d       ___free_lc_time            1002bb3d f   LIBCMT:inittime.obj
 0001:0002aebd       ___init_time               1002bebd f   LIBCMT:inittime.obj
 0001:0002b72c       _localeconv                1002c72c f   LIBCMT:lconv.obj
 0001:0002b752       __iswctype_l               1002c752 f   LIBCMT:iswctype.obj
 0001:0002b764       _is_wctype                 1002c764 f   LIBCMT:iswctype.obj
 0001:0002b76d       _iswctype                  1002c76d f   LIBCMT:iswctype.obj
 0001:0002b7c3       ____lc_codepage_func       1002c7c3 f   LIBCMT:initctyp.obj
 0001:0002b7e9       ____lc_collate_cp_func     1002c7e9 f   LIBCMT:initctyp.obj
 0001:0002b80f       ____lc_locale_name_func    1002c80f f   LIBCMT:initctyp.obj
 0001:0002b837       ____mb_cur_max_func        1002c837 f   LIBCMT:initctyp.obj
 0001:0002b85d       ____mb_cur_max_l_func      1002c85d f   LIBCMT:initctyp.obj
 0001:0002b874       ___init_ctype              1002c874 f   LIBCMT:initctyp.obj
 0001:0002bc0c       ___pctype_func             1002cc0c f   LIBCMT:ctype.obj
 0001:0002bc35       ___pwctype_func            1002cc35 f   LIBCMT:ctype.obj
 0001:0002bc3b       __87except                 1002cc3b f   LIBCMT:87except.obj
 0001:0002bd44       __isctype                  1002cd44 f   LIBCMT:isctype.obj
 0001:0002bd73       __isctype_l                1002cd73 f   LIBCMT:isctype.obj
 0001:0002be24       ___init_dummy              1002ce24 f   LIBCMT:wsetloca.obj
 0001:0002be27       __locterm                  1002ce27 f   LIBCMT:wsetloca.obj
 0001:0002be79       ____setlc_active_func      1002ce79 f   LIBCMT:wsetloca.obj
 0001:0002be7f       ____unguarded_readlc_active_add_func 1002ce7f f   LIBCMT:wsetloca.obj
 0001:0002be85       ___copy_locale_name        1002ce85 f   LIBCMT:wsetloca.obj
 0001:0002bee9       ___create_locale           1002cee9 f   LIBCMT:wsetloca.obj
 0001:0002bef2       ___free_locale             1002cef2 f   LIBCMT:wsetloca.obj
 0001:0002bef7       ___get_current_locale      1002cef7 f   LIBCMT:wsetloca.obj
 0001:0002befc       ___lc_lctowcs              1002cefc f   LIBCMT:wsetloca.obj
 0001:0002bf6a       ___lc_wcstolc              1002cf6a f   LIBCMT:wsetloca.obj
 0001:0002c096       __configthreadlocale       1002d096 f   LIBCMT:wsetloca.obj
 0001:0002c11c       __create_locale            1002d11c f   LIBCMT:wsetloca.obj
 0001:0002c17e       __expandlocale             1002d17e f   LIBCMT:wsetloca.obj
 0001:0002c475       __free_locale              1002d475 f   LIBCMT:wsetloca.obj
 0001:0002c52c       __get_current_locale       1002d52c f   LIBCMT:wsetloca.obj
 0001:0002c5db       __wcreate_locale           1002d5db f   LIBCMT:wsetloca.obj
 0001:0002c6b2       __wcscats                  1002d6b2 f   LIBCMT:wsetloca.obj
 0001:0002c6f1       __wsetlocale               1002d6f1 f   LIBCMT:wsetloca.obj
 0001:0002d033       __CopyMan                  1002e033 f i LIBCMT:intrncvt.obj
 0001:0002d050       __FillZeroMan              1002e050 f i LIBCMT:intrncvt.obj
 0001:0002d05f       __IncMan                   1002e05f f i LIBCMT:intrncvt.obj
 0001:0002d0c1       __IsZeroMan                1002e0c1 f i LIBCMT:intrncvt.obj
 0001:0002d0de       __RoundMan                 1002e0de f i LIBCMT:intrncvt.obj
 0001:0002d1df       __ShrMan                   1002e1df f i LIBCMT:intrncvt.obj
 0001:0002d26d       __ZeroTail                 1002e26d f i LIBCMT:intrncvt.obj
 0001:0002d2b5       ___addl                    1002e2b5 f i LIBCMT:intrncvt.obj
 0001:0002d2d9       __ld12cvt                  1002e2d9 f i LIBCMT:intrncvt.obj
 0001:0002d844       __ld12tod                  1002e844 f   LIBCMT:intrncvt.obj
 0001:0002ddb6       __ld12tof                  1002edb6 f   LIBCMT:intrncvt.obj
 0001:0002e328       __ld12told                 1002f328 f   LIBCMT:intrncvt.obj
 0001:0002e3f7       ___STRINGTOLD_L            1002f3f7 f   LIBCMT:strgtold.obj
 0001:0002e452       ___ld12mul                 1002f452 f i LIBCMT:strgtold.obj
 0001:0002e71e       ___multtenpow12            1002f71e f i LIBCMT:strgtold.obj
 0001:0002ea71       ___shl_12                  1002fa71 f i LIBCMT:strgtold.obj
 0001:0002eaa2       ___shr_12                  1002faa2 f i LIBCMT:strgtold.obj
 0001:0002ead2       ___strgtold12_l            1002fad2 f   LIBCMT:strgtold.obj
 0001:0002f27a       _$I10_OUTPUT               1003027a f   LIBCMT:x10fout.obj
 0001:0002fc4e       ___add_12                  10030c4e f i LIBCMT:x10fout.obj
 0001:0002fdfa       ___control87_2             10030dfa f   LIBCMT:ieee87.obj
 0001:0003046e       __clearfp                  1003146e f   LIBCMT:ieee87.obj
 0001:0003054e       __control87                1003154e f i LIBCMT:ieee87.obj
 0001:00030850       __controlfp                10031850 f   LIBCMT:ieee87.obj
 0001:00030b5b       __fpreset                  10031b5b f   LIBCMT:ieee87.obj
 0001:00030c28       __set_controlfp            10031c28 f   LIBCMT:ieee87.obj
 0001:00030c9b       __statusfp                 10031c9b f   LIBCMT:ieee87.obj
 0001:00030d35       __statusfp2                10031d35 f   LIBCMT:ieee87.obj
 0001:00030da0       __alloca_probe_16          10031da0 f   LIBCMT:alloca16.obj
 0001:00030db6       __alloca_probe_8           10031db6     LIBCMT:alloca16.obj
 0001:00030dcc       _wcsnlen                   10031dcc f   LIBCMT:wcslen_s.obj
 0001:00030e73       __wopen                    10031e73 f   LIBCMT:wopen.obj
 0001:00030f23       __wsopen                   10031f23 f   LIBCMT:wopen.obj
 0001:00030f56       __wsopen_helper            10031f56 f   LIBCMT:wopen.obj
 0001:0003101f       __wsopen_nolock            1003201f f   LIBCMT:wopen.obj
 0001:00031772       __wsopen_s                 10032772 f   LIBCMT:wopen.obj
 0001:00031790       _strncmp                   10032790 f   LIBCMT:strncmp.obj
 0001:00031808       __strnicmp                 10032808 f   LIBCMT:strnicmp.obj
 0001:00031873       __strnicmp_l               10032873 f   LIBCMT:strnicmp.obj
 0001:00031924       ___termconout              10032924 f   LIBCMT:initcon.obj
 0001:0003193b       ___initconout              1003293b f   LIBCMT:initcon.obj
 0001:0003195a       __fputwc_nolock            1003295a f   LIBCMT:fputwc.obj
 0001:00031ae0       _fputwc                    10032ae0 f   LIBCMT:fputwc.obj
 0001:00031b57       _putwc                     10032b57 f   LIBCMT:fputwc.obj
 0001:00031d41       __wcstol_l                 10032d41 f   LIBCMT:wcstol.obj
 0001:00031d59       __wcstoul_l                10032d59 f   LIBCMT:wcstol.obj
 0001:00031d71       _wcstol                    10032d71 f   LIBCMT:wcstol.obj
 0001:00031d89       _wcstoul                   10032d89 f   LIBCMT:wcstol.obj
 0001:00031da1       ___init_collate            10032da1 f   LIBCMT:initcoll.obj
 0001:00031ec1       _memcmp                    10032ec1 f   LIBCMT:memcmp.obj
 0001:00034dd5       _wcscmp                    10035dd5 f   LIBCMT:wcscmp.obj
 0001:00034e13       _wcscspn                   10035e13 f   LIBCMT:wcscspn.obj
 0001:00034e5e       _wcsncmp                   10035e5e f   LIBCMT:wcsncmp.obj
 0001:00034e94       _wcspbrk                   10035e94 f   LIBCMT:wcspbrk.obj
 0001:00035498       ___get_qualified_locale    10036498 f   LIBCMT:getqloc.obj
 0001:00035d08       ___get_qualified_locale_downlevel 10036d08 f   LIBCMT:getqloc_downlevel.obj
 0001:00035f24       ___mtold12                 10036f24 f   LIBCMT:mantold.obj
 0001:00036104       __chsize                   10037104 f   LIBCMT:chsize.obj
 0001:0003611e       __chsize_nolock            1003711e f   LIBCMT:chsize.obj
 0001:000362d4       __chsize_s                 100372d4 f   LIBCMT:chsize.obj
 0001:000363c2       __get_fmode                100373c2 f   LIBCMT:setmode.obj
 0001:000363ec       __set_fmode                100373ec f   LIBCMT:setmode.obj
 0001:00036427       __setmode                  10037427 f   LIBCMT:setmode.obj
 0001:0003652c       __setmode_nolock           1003752c f   LIBCMT:setmode.obj
 0001:00036600       ___ascii_strnicmp          10037600 f   LIBCMT:_strnicm.obj
 0001:00036661       __flswbuf                  10037661 f   LIBCMT:_flswbuf.obj
 0001:000367c3       __wchartodigit             100377c3 f   LIBCMT:wchtodig.obj
 0001:00036962       __wtoi                     10037962 f   LIBCMT:wtox.obj
 0001:0003696b       __wtoi64                   1003796b f   LIBCMT:wtox.obj
 0001:0003697f       __wtoi64_l                 1003797f f   LIBCMT:wtox.obj
 0001:00036996       __wtoi_l                   10037996 f   LIBCMT:wtox.obj
 0001:0003699f       __wtol                     1003799f f   LIBCMT:wtox.obj
 0001:000369b3       __wtol_l                   100379b3 f   LIBCMT:wtox.obj
 0001:000369ca       __wtoll                    100379ca f   LIBCMT:wtox.obj
 0001:000369de       __wtoll_l                  100379de f   LIBCMT:wtox.obj
 0001:000369f5       _wcschr                    100379f5 f   LIBCMT:wcschr.obj
 0001:00036aa3       __wcsicmp                  10037aa3 f   LIBCMT:wcsicmp.obj
 0001:00036b36       __wcsicmp_l                10037b36 f   LIBCMT:wcsicmp.obj
 0001:00036c11       __wcsnicmp                 10037c11 f   LIBCMT:wcsnicmp.obj
 0001:00036cc7       __wcsnicmp_l               10037cc7 f   LIBCMT:wcsnicmp.obj
 0001:00037090       __wcstof_l                 10038090 f   LIBCMT:wcstoq.obj
 0001:00037143       __wcstoi64                 10038143 f   LIBCMT:wcstoq.obj
 0001:0003716d       __wcstoi64_l               1003816d f   LIBCMT:wcstoq.obj
 0001:00037188       __wcstoimax_l              10038188 f   LIBCMT:wcstoq.obj
 0001:00037191       __wcstold_l                10038191 f   LIBCMT:wcstoq.obj
 0001:0003719a       __wcstoll_l                1003819a f   LIBCMT:wcstoq.obj
 0001:000371a3       __wcstoui64                100381a3 f   LIBCMT:wcstoq.obj
 0001:000371cd       __wcstoui64_l              100381cd f   LIBCMT:wcstoq.obj
 0001:000371e8       __wcstoull_l               100381e8 f   LIBCMT:wcstoq.obj
 0001:000371f1       __wcstoumax_l              100381f1 f   LIBCMT:wcstoq.obj
 0001:000371fa       _wcstof                    100381fa f   LIBCMT:wcstoq.obj
 0001:0003720f       _wcstoimax                 1003820f f   LIBCMT:wcstoq.obj
 0001:00037218       _wcstold                   10038218 f   LIBCMT:wcstoq.obj
 0001:00037221       _wcstoll                   10038221 f   LIBCMT:wcstoq.obj
 0001:0003722a       _wcstoull                  1003822a f   LIBCMT:wcstoq.obj
 0001:00037233       _wcstoumax                 10038233 f   LIBCMT:wcstoq.obj
 0001:0003723c       __towlower_l               1003823c f   LIBCMT:towlower.obj
 0001:000372ed       _towlower                  100382ed f   LIBCMT:towlower.obj
 0001:000372fe       __wcstod_l                 100382fe f   LIBCMT:wcstod.obj
 0001:000373f9       _wcstod                    100383f9 f   LIBCMT:wcstod.obj
 0001:00037410       __allmul                   10038410 f   LIBCMT:llmul.obj
 0001:00037444       ___crtLCMapStringW         10038444 f   LIBCMT:w_map.obj
 0001:00037473       __wfltin2                  10038473 f   LIBCMT:wcfin.obj
 0001:00037520       ___WSTRINGTOLD_L           10038520 f   LIBCMT:wstrgtold.obj
 0001:0003757b       ___wstrgtold12_l           1003857b f   LIBCMT:wstrgtold.obj
 0001:00037dcc       _GetModuleHandleA@4        10038dcc f   kernel32:KERNEL32.dll
 0001:00037dd2       _GetProcAddress@8          10038dd2 f   kernel32:KERNEL32.dll
 0001:00037dd8       _HeapAlloc@12              10038dd8 f   kernel32:KERNEL32.dll
 0001:00037dde       _IsDebuggerPresent@0       10038dde f   kernel32:KERNEL32.dll
 0001:00037de4       _IsProcessorFeaturePresent@4 10038de4 f   kernel32:KERNEL32.dll
 0001:00037dea       _EncodePointer@4           10038dea f   kernel32:KERNEL32.dll
 0001:00037df0       _DecodePointer@4           10038df0 f   kernel32:KERNEL32.dll
 0001:00037df6       _GetLastError@0            10038df6 f   kernel32:KERNEL32.dll
 0001:00037dfc       _ExitProcess@4             10038dfc f   kernel32:KERNEL32.dll
 0001:00037e02       _GetModuleHandleExW@12     10038e02 f   kernel32:KERNEL32.dll
 0001:00037e08       _AreFileApisANSI@0         10038e08 f   kernel32:KERNEL32.dll
 0001:00037e0e       _MultiByteToWideChar@24    10038e0e f   kernel32:KERNEL32.dll
 0001:00037e14       _WideCharToMultiByte@32    10038e14 f   kernel32:KERNEL32.dll
 0001:00037e1a       _HeapFree@12               10038e1a f   kernel32:KERNEL32.dll
 0001:00037e20       _HeapReAlloc@16            10038e20 f   kernel32:KERNEL32.dll
 0001:00037e26       _EnterCriticalSection@4    10038e26 f   kernel32:KERNEL32.dll
 0001:00037e2c       _LeaveCriticalSection@4    10038e2c f   kernel32:KERNEL32.dll
 0001:00037e32       _GetStdHandle@4            10038e32 f   kernel32:KERNEL32.dll
 0001:00037e38       _GetFileType@4             10038e38 f   kernel32:KERNEL32.dll
 0001:00037e3e       _GetModuleFileNameW@12     10038e3e f   kernel32:KERNEL32.dll
 0001:00037e44       _WriteConsoleW@20          10038e44 f   kernel32:KERNEL32.dll
 0001:00037e4a       _GetCommandLineA@0         10038e4a f   kernel32:KERNEL32.dll
 0001:00037e50       _GetCurrentThreadId@0      10038e50 f   kernel32:KERNEL32.dll
 0001:00037e56       _WriteFile@20              10038e56 f   kernel32:KERNEL32.dll
 0001:00037e5c       _GetProcessHeap@0          10038e5c f   kernel32:KERNEL32.dll
 0001:00037e62       _UnhandledExceptionFilter@4 10038e62 f   kernel32:KERNEL32.dll
 0001:00037e68       _SetUnhandledExceptionFilter@4 10038e68 f   kernel32:KERNEL32.dll
 0001:00037e6e       _SetLastError@4            10038e6e f   kernel32:KERNEL32.dll
 0001:00037e74       _InitializeCriticalSectionAndSpinCount@8 10038e74 f   kernel32:KERNEL32.dll
 0001:00037e7a       _CreateEventW@16           10038e7a f   kernel32:KERNEL32.dll
 0001:00037e80       _Sleep@4                   10038e80 f   kernel32:KERNEL32.dll
 0001:00037e86       _GetCurrentProcess@0       10038e86 f   kernel32:KERNEL32.dll
 0001:00037e8c       _TerminateProcess@8        10038e8c f   kernel32:KERNEL32.dll
 0001:00037e92       _TlsAlloc@0                10038e92 f   kernel32:KERNEL32.dll
 0001:00037e98       _TlsGetValue@4             10038e98 f   kernel32:KERNEL32.dll
 0001:00037e9e       _TlsSetValue@8             10038e9e f   kernel32:KERNEL32.dll
 0001:00037ea4       _TlsFree@4                 10038ea4 f   kernel32:KERNEL32.dll
 0001:00037eaa       _GetStartupInfoW@4         10038eaa f   kernel32:KERNEL32.dll
 0001:00037eb0       _GetTickCount@0            10038eb0 f   kernel32:KERNEL32.dll
 0001:00037eb6       _GetModuleHandleW@4        10038eb6 f   kernel32:KERNEL32.dll
 0001:00037ebc       _CreateSemaphoreW@16       10038ebc f   kernel32:KERNEL32.dll
 0001:00037ec2       _DeleteCriticalSection@4   10038ec2 f   kernel32:KERNEL32.dll
 0001:00037ec8       _FatalAppExitA@8           10038ec8 f   kernel32:KERNEL32.dll
 0001:00037ece       _SetConsoleCtrlHandler@8   10038ece f   kernel32:KERNEL32.dll
 0001:00037ed4       _FreeLibrary@4             10038ed4 f   kernel32:KERNEL32.dll
 0001:00037eda       _LoadLibraryExW@12         10038eda f   kernel32:KERNEL32.dll
 0001:00037ee0       _IsValidCodePage@4         10038ee0 f   kernel32:KERNEL32.dll
 0001:00037ee6       _GetACP@0                  10038ee6 f   kernel32:KERNEL32.dll
 0001:00037eec       _GetOEMCP@0                10038eec f   kernel32:KERNEL32.dll
 0001:00037ef2       _GetCPInfo@8               10038ef2 f   kernel32:KERNEL32.dll
 0001:00037ef8       _CloseHandle@4             10038ef8 f   kernel32:KERNEL32.dll
 0001:00037efe       _RtlUnwind@16              10038efe f   kernel32:KERNEL32.dll
 0001:00037f04       _ReadFile@20               10038f04 f   kernel32:KERNEL32.dll
 0001:00037f0a       _GetConsoleMode@8          10038f0a f   kernel32:KERNEL32.dll
 0001:00037f10       _ReadConsoleW@20           10038f10 f   kernel32:KERNEL32.dll
 0001:00037f16       _GetConsoleCP@0            10038f16 f   kernel32:KERNEL32.dll
 0001:00037f1c       _DeleteFileW@4             10038f1c f   kernel32:KERNEL32.dll
 0001:00037f22       _SetFilePointerEx@20       10038f22 f   kernel32:KERNEL32.dll
 0001:00037f28       _RaiseException@16         10038f28 f   kernel32:KERNEL32.dll
 0001:00037f2e       _OutputDebugStringW@4      10038f2e f   kernel32:KERNEL32.dll
 0001:00037f34       _GetCurrentThread@0        10038f34 f   kernel32:KERNEL32.dll
 0001:00037f3a       _GetModuleFileNameA@12     10038f3a f   kernel32:KERNEL32.dll
 0001:00037f40       _QueryPerformanceCounter@4 10038f40 f   kernel32:KERNEL32.dll
 0001:00037f46       _GetCurrentProcessId@0     10038f46 f   kernel32:KERNEL32.dll
 0001:00037f4c       _GetSystemTimeAsFileTime@4 10038f4c f   kernel32:KERNEL32.dll
 0001:00037f52       _GetEnvironmentStringsW@0  10038f52 f   kernel32:KERNEL32.dll
 0001:00037f58       _FreeEnvironmentStringsW@4 10038f58 f   kernel32:KERNEL32.dll
 0001:00037f5e       _HeapSize@12               10038f5e f   kernel32:KERNEL32.dll
 0001:00037f64       _GetDateFormatW@24         10038f64 f   kernel32:KERNEL32.dll
 0001:00037f6a       _GetTimeFormatW@24         10038f6a f   kernel32:KERNEL32.dll
 0001:00037f70       _CompareStringW@24         10038f70 f   kernel32:KERNEL32.dll
 0001:00037f76       _LCMapStringW@24           10038f76 f   kernel32:KERNEL32.dll
 0001:00037f7c       _GetLocaleInfoW@16         10038f7c f   kernel32:KERNEL32.dll
 0001:00037f82       _IsValidLocale@8           10038f82 f   kernel32:KERNEL32.dll
 0001:00037f88       _GetUserDefaultLCID@0      10038f88 f   kernel32:KERNEL32.dll
 0001:00037f8e       _EnumSystemLocalesW@8      10038f8e f   kernel32:KERNEL32.dll
 0001:00037f94       _GetStringTypeW@16         10038f94 f   kernel32:KERNEL32.dll
 0001:00037f9a       _FlushFileBuffers@4        10038f9a f   kernel32:KERNEL32.dll
 0001:00037fa0       _SetStdHandle@8            10038fa0 f   kernel32:KERNEL32.dll
 0001:00037fa6       _CreateFileW@28            10038fa6 f   kernel32:KERNEL32.dll
 0001:00037fac       _SetEndOfFile@4            10038fac f   kernel32:KERNEL32.dll
 0002:00000000       ___xc_a                    10044000     LIBCMT:crt0init.obj
 0002:00000104       ___xc_z                    10044104     LIBCMT:crt0init.obj
 0002:00000208       ___xi_a                    10044208     LIBCMT:crt0init.obj
 0002:00000424       ___xi_z                    10044424     LIBCMT:crt0init.obj
 0002:00000528       ___xp_a                    10044528     LIBCMT:crt0init.obj
 0002:0000083c       ___xp_z                    1004483c     LIBCMT:crt0init.obj
 0002:00000940       ___xt_a                    10044940     LIBCMT:crt0init.obj
 0002:00000a44       ___xt_z                    10044a44     LIBCMT:crt0init.obj
 0002:00000b88       _Pos_PID_M                 10044b88     Pos_PID.obj
 0002:00000b8c       ??_C@_0BI@PEBACBDB@Error?5creating?5scope?53?6?$AA@ 10044b8c     Pos_PID.obj
 0002:00000ba8       ??_C@_0BH@EKMHGNPN@X_Encoder?1count_to_mm1?$AA@ 10044ba8     Pos_PID.obj
 0002:00000bc4       ??_C@_0BI@PHJEPFFP@Error?5creating?5scope?51?6?$AA@ 10044bc4     Pos_PID.obj
 0002:00000be0       ??_C@_09LIAEOFKL@Xdata?4dat?$AA@ 10044be0     Pos_PID.obj
 0002:00000bec       ??_C@_0BI@PCNLODNK@Error?5creating?5scope?56?6?$AA@ 10044bec     Pos_PID.obj
 0002:00000c08       ??_C@_0BH@HFJGCGKD@Y_encoder?5?1count_to_mm?$AA@ 10044c08     Pos_PID.obj
 0002:00000c24       ??_C@_0BI@PBFPDHLE@Error?5creating?5scope?54?6?$AA@ 10044c24     Pos_PID.obj
 0002:00000c40       ??_C@_09FHMGIOJF@Ydata?4dat?$AA@ 10044c40     Pos_PID.obj
 0002:00000c4c       ??_C@_0BI@PFNCELAG@Error?5creating?5scope?52?6?$AA@ 10044c4c     Pos_PID.obj
 0002:00000c68       ??_C@_0CE@HNMECMCN@Force?5Subsystem?1Byte?5Unpacking?51@ 10044c68     Pos_PID.obj
 0002:00000c94       ??_C@_0BA@PANLPIG@Reference?5Force?$AA@ 10044c94     Pos_PID.obj
 0002:00000ca8       ??_C@_0BI@PAJNFNID@Error?5creating?5scope?55?6?$AA@ 10044ca8     Pos_PID.obj
 0002:00000cc4       ??_C@_07FDDKLPMO@var?4dat?$AA@ 10044cc4     Pos_PID.obj
 0002:00000cd0       ??_C@_04GDMNHCBG@ode4?$AA@ 10044cd0     Pos_PID.obj
 0002:00000cd8       ??_C@_04EPKDLPPB@tout?$AA@ 10044cd8     Pos_PID.obj
 0002:00000cde       ??_C@_00CNPNBAHC@?$AA@     10044cde     Pos_PID.obj
 0002:00000ce0       ??_C@_03HBFGMJOD@rt_?$AA@  10044ce0     Pos_PID.obj
 0002:00000ce4       ??_C@_0BA@ILODDMJB@CNT32?98M?$CIPCI?$CJ?52?$AA@ 10044ce4     Pos_PID.obj
 0002:00000cf8       ??_C@_0CC@KLPMAOFI@Pos_PID?1X_Encoder?1CNT32?98M?$CIPCI?$CJ?5@ 10044cf8     Pos_PID.obj
 0002:00000d20       ??_C@_0BA@KAMOGPFC@CNT32?98M?$CIPCI?$CJ?51?$AA@ 10044d20     Pos_PID.obj
 0002:00000d34       ??_C@_0CD@KHPOEAEG@Pos_PID?1Y_encoder?5?1CNT32?98M?$CIPCI?$CJ@ 10044d34     Pos_PID.obj
 0002:00000d60       ??_C@_09JLALMMJD@Receive?51?$AA@ 10044d60     Pos_PID.obj
 0002:00000d6c       ??_C@_0CC@NCKFNJDB@Pos_PID?1Force?5Subsystem?1Receive?5@ 10044d6c     Pos_PID.obj
 0002:00000d94       ??_C@_0O@GDKFENNN@PCI?9DDA08?512?5?$AA@ 10044d94     Pos_PID.obj
 0002:00000da4       ??_C@_0BG@KFNANGEK@Pos_PID?1PCI?9DDA08?512?5?$AA@ 10044da4     Pos_PID.obj
 0002:00000dc0       ??_C@_0BA@OBLCOPFK@PCI?9DDA?508?512?54?$AA@ 10044dc0     Pos_PID.obj
 0002:00000dd4       ??_C@_0CM@MAOPNPGA@Pos_PID?1X?5output?5processing?1PCI?9@ 10044dd4     Pos_PID.obj
 0002:00000e08       ??_C@_0BA@KOPDHJJN@PCI?9DDA?508?512?53?$AA@ 10044e08     Pos_PID.obj
 0002:00000e1c       ??_C@_0CM@BKNOJNDC@Pos_PID?1Y?5output?5processing?1PCI?9@ 10044e1c     Pos_PID.obj
 0002:00000e50       ??_C@_0P@MGKGOBE@PCI?9DDA08?512?53?$AA@ 10044e50     Pos_PID.obj
 0002:00000e64       ??_C@_0CL@KBODMIPB@Pos_PID?1Z?5output?5processing?1PCI?9@ 10044e64     Pos_PID.obj
 0002:00000e98       ??_C@_0BA@JMMFBLBP@PCI?9DDA?508?512?51?$AA@ 10044e98     Pos_PID.obj
 0002:00000eac       ??_C@_0CM@EMAIIEEO@Pos_PID?1Z?5output?5processing?1PCI?9@ 10044eac     Pos_PID.obj
 0002:00000ee0       __real@0000000000000000    10044ee0     Pos_PID.obj
 0002:00000ef0       __real@3f50624dd2f1a9fc    10044ef0     Pos_PID.obj
 0002:00000f00       __real@3fc5555555555555    10044f00     Pos_PID.obj
 0002:00000f10       __real@3fe0000000000000    10044f10     Pos_PID.obj
 0002:00000f20       __real@3ff0000000000000    10044f20     Pos_PID.obj
 0002:00000f30       __real@4000000000000000    10044f30     Pos_PID.obj
 0002:00000f40       __real@4008000000000000    10044f40     Pos_PID.obj
 0002:00000f50       __real@400921fb54442d18    10044f50     Pos_PID.obj
 0002:00000f60       __real@40b3880000000000    10044f60     Pos_PID.obj
 0002:00000f70       __real@40d86a0000000000    10044f70     Pos_PID.obj
 0002:00000f80       __real@410e848000000000    10044f80     Pos_PID.obj
 0002:00000f90       __real@41f0000000000000    10044f90     Pos_PID.obj
 0002:00000fa0       __real@bff0000000000000    10044fa0     Pos_PID.obj
 0002:00000fb0       __xmm@000002430000005c0000007100000002 10044fb0     Pos_PID.obj
 0002:00000fd0       __xmm@3f50624dd2f1a9fc0000000000000000 10044fd0     Pos_PID.obj
 0002:00000ff0       __xmm@41f00000000000000000000000000000 10044ff0     Pos_PID.obj
 0002:00001010       __xmm@7fffffffffffffff7fffffffffffffff 10045010     Pos_PID.obj
 0002:00001030       __xmm@80000000000000008000000000000000 10045030     Pos_PID.obj
 0002:00002f54       ??_C@_0BA@IBIFMAKE@Data?5Store?5Read?$AA@ 10046f54     Pos_PID_capi.obj
 0002:00002f68       ??_C@_0BB@BHGHOFID@Data?5Store?5Read1?$AA@ 10046f68     Pos_PID_capi.obj
 0002:00002f7c       ??_C@_03IFGKDPPO@Sum?$AA@  10046f7c     Pos_PID_capi.obj
 0002:00002f80       ??_C@_04JMNNLCJG@Sum1?$AA@ 10046f80     Pos_PID_capi.obj
 0002:00002f88       ??_C@_04LHPAOBFF@Sum2?$AA@ 10046f88     Pos_PID_capi.obj
 0002:00002f90       ??_C@_04KOOLNABE@Sum3?$AA@ 10046f90     Pos_PID_capi.obj
 0002:00002f98       ??_C@_04DLLHKNK@motY?$AA@  10046f98     Pos_PID_capi.obj
 0002:00002fa0       ??_C@_04OBKKEGND@Sum4?$AA@ 10046fa0     Pos_PID_capi.obj
 0002:00002fa8       ??_C@_04PILBHHJC@Sum5?$AA@ 10046fa8     Pos_PID_capi.obj
 0002:00002fb0       ??_C@_08IALGIDFE@Z?5enable?$AA@ 10046fb0     Pos_PID_capi.obj
 0002:00002fbc       ??_C@_0CB@LCOPODFI@Force?5Subsystem?1Byte?5Unpacking?51@ 10046fbc     Pos_PID_capi.obj
 0002:00002fe4       ??_C@_09GDHNBGIO@orce?5Data?$AA@ 10046fe4     Pos_PID_capi.obj
 0002:00002ff0       ??_C@_0BN@JKENEMCE@Force?5Subsystem?1Receive?51?1p1?$AA@ 10046ff0     Pos_PID_capi.obj
 0002:00003014       ??_C@_0BN@LBGABPOH@Force?5Subsystem?1Receive?51?1p2?$AA@ 10047014     Pos_PID_capi.obj
 0002:00003038       ??_C@_0CI@LEJGADJG@System?5Moving?5Flag?1Data?5Type?5Con@ 10047038     Pos_PID_capi.obj
 0002:00003068       ??_C@_0CJ@NPIFKHMA@System?5Moving?5Flag?1Data?5Type?5Con@ 10047068     Pos_PID_capi.obj
 0002:0000309c       ??_C@_0CJ@PEKIPEAD@System?5Moving?5Flag?1Data?5Type?5Con@ 1004709c     Pos_PID_capi.obj
 0002:000030d0       ??_C@_0CE@NFIDGPCE@System?5Moving?5Flag?1Logical?5Opera@ 100470d0     Pos_PID_capi.obj
 0002:000030fc       ??_C@_0BO@CEPNHLNC@System?5Moving?5Flag?1Unit?5Delay?$AA@ 100470fc     Pos_PID_capi.obj
 0002:00003120       ??_C@_0BN@FICOEKBH@X?5Controller?1Derivative?5Gain?$AA@ 10047120     Pos_PID_capi.obj
 0002:00003144       ??_C@_0CA@CNMPBDG@X?5Controller?1Filter?5Coefficient?$AA@ 10047144     Pos_PID_capi.obj
 0002:0000316c       ??_C@_0BL@CCLFDOJL@X?5Controller?1Integral?5Gain?$AA@ 1004716c     Pos_PID_capi.obj
 0002:0000318c       ??_C@_0BP@LCJLJCFH@X?5Controller?1Proportional?5Gain?$AA@ 1004718c     Pos_PID_capi.obj
 0002:000031b4       ??_C@_0BE@JBLHGKFM@X?5Controller?1Filter?$AA@ 100471b4     Pos_PID_capi.obj
 0002:000031cc       ??_C@_0BI@LHCILEFE@X?5Controller?1Integrator?$AA@ 100471cc     Pos_PID_capi.obj
 0002:000031e8       ??_C@_0BB@GDCLJLFN@X?5Controller?1Sum?$AA@ 100471e8     Pos_PID_capi.obj
 0002:000031fc       ??_C@_0BC@IBKMIMND@X?5Controller?1SumD?$AA@ 100471fc     Pos_PID_capi.obj
 0002:00003214       ??_C@_0CC@CBBEFAKJ@X?5Position?5Input?1Data?5Store?5Read@ 10047214     Pos_PID_capi.obj
 0002:0000323c       ??_C@_0CH@LGODBDAH@X?5Position?5Input?1Data?5Type?5Conve@ 1004723c     Pos_PID_capi.obj
 0002:0000326c       ??_C@_0CB@DEJHGMOB@X?5Position?5Input?1X?5Matrix?5output@ 1004726c     Pos_PID_capi.obj
 0002:00003294       ??_C@_0CF@HFOIHOLF@X?5Position?5Input?1X?5Matrix?5Counte@ 10047294     Pos_PID_capi.obj
 0002:000032c0       ??_C@_0P@FMGIAIK@X?5Matrix?5index?$AA@ 100472c0     Pos_PID_capi.obj
 0002:000032d4       ??_C@_0CF@FOMFCNHG@X?5Position?5Input?1X?5Matrix?5Counte@ 100472d4     Pos_PID_capi.obj
 0002:00003300       ??_C@_0BN@DNFMKDHA@X?5Position?5Input?1Unit?5Delay2?$AA@ 10047300     Pos_PID_capi.obj
 0002:00003324       ??_C@_0CJ@CGAOJKBG@X?5Position?5signal?1Deadband?5pulse@ 10047324     Pos_PID_capi.obj
 0002:00003358       ??_C@_05ELOADNHC@pulse?$AA@ 10047358     Pos_PID_capi.obj
 0002:00003360       ??_C@_0CI@MGCKCNND@X?5Position?5signal?1Data?5Type?5Conv@ 10047360     Pos_PID_capi.obj
 0002:00003390       ??_C@_0BN@JCDDHKMP@X?5Position?5signal?1Counter?1p1?$AA@ 10047390     Pos_PID_capi.obj
 0002:000033b4       ??_C@_0BN@LJBOCJAM@X?5Position?5signal?1Counter?1p2?$AA@ 100473b4     Pos_PID_capi.obj
 0002:000033d8       ??_C@_0BN@PJHCCIMD@X?5Position?5signal?1Unit?5Delay?$AA@ 100473d8     Pos_PID_capi.obj
 0002:000033fc       ??_C@_0BJ@JCBJABNP@X?5output?5processing?1Abs1?$AA@ 100473fc     Pos_PID_capi.obj
 0002:0000341c       ??_C@_08GBPNJCEO@X?5Enable?$AA@ 1004741c     Pos_PID_capi.obj
 0002:00003428       ??_C@_0BN@ONLBEKCH@X?5output?5processing?1Voltage1?$AA@ 10047428     Pos_PID_capi.obj
 0002:0000344c       ??_C@_09DAEBENAE@x?5Voltage?$AA@ 1004744c     Pos_PID_capi.obj
 0002:00003458       ??_C@_0BK@HKNLLJPB@X?5output?5processing?1Sign2?$AA@ 10047458     Pos_PID_capi.obj
 0002:00003478       ??_C@_04BKKAELJL@motX?$AA@ 10047478     Pos_PID_capi.obj
 0002:00003480       ??_C@_06HEPCHGOC@X?5Data?$AA@ 10047480     Pos_PID_capi.obj
 0002:00003488       ??_C@_0BK@JCDACHMF@X_Encoder?1CNT32?98M?$CIPCI?$CJ?52?$AA@ 10047488     Pos_PID_capi.obj
 0002:000034a8       ??_C@_06JMEOMOEA@counts?$AA@ 100474a8     Pos_PID_capi.obj
 0002:000034b0       ??_C@_0P@BDAHEJMM@X_Encoder?1Sum3?$AA@ 100474b0     Pos_PID_capi.obj
 0002:000034c4       ??_C@_0BN@DLCJJDDD@Y?5Controller?1Derivative?5Gain?$AA@ 100474c4     Pos_PID_capi.obj
 0002:000034e8       ??_C@_0CA@PDAGPEJM@Y?5Controller?1Filter?5Coefficient?$AA@ 100474e8     Pos_PID_capi.obj
 0002:00003510       ??_C@_0BL@EMDJCFNK@Y?5Controller?1Integral?5Gain?$AA@ 10047510     Pos_PID_capi.obj
 0002:00003530       ??_C@_0BP@LMHMHKIG@Y?5Controller?1Proportional?5Gain?$AA@ 10047530     Pos_PID_capi.obj
 0002:00003558       ??_C@_0BE@PENAFBBK@Y?5Controller?1Filter?$AA@ 10047558     Pos_PID_capi.obj
 0002:00003570       ??_C@_0BI@DGANNBHD@Y?5Controller?1Integrator?$AA@ 10047570     Pos_PID_capi.obj
 0002:0000358c       ??_C@_0BB@OEINFABO@Y?5Controller?1Sum?$AA@ 1004758c     Pos_PID_capi.obj
 0002:000035a0       ??_C@_0BC@GOPODKDC@Y?5Controller?1SumD?$AA@ 100475a0     Pos_PID_capi.obj
 0002:000035b8       ??_C@_0CC@BMINDANO@Y?5Position?5Input?1Data?5Store?5Read@ 100475b8     Pos_PID_capi.obj
 0002:000035e0       ??_C@_0CH@OBHBCJOP@Y?5Position?5Input?1Data?5Type?5Conve@ 100475e0     Pos_PID_capi.obj
 0002:00003610       ??_C@_0CB@KMANGNID@Y?5Position?5Input?1Y?5Matrix?5output@ 10047610     Pos_PID_capi.obj
 0002:00003638       ??_C@_0CF@JAHPFCOM@Y?5Position?5Input?1Y?5Matrix?5Counte@ 10047638     Pos_PID_capi.obj
 0002:00003664       ??_C@_0P@LMDNFLGC@Y?5Matrix?5index?$AA@ 10047664     Pos_PID_capi.obj
 0002:00003678       ??_C@_0CF@LLFCABCP@Y?5Position?5Input?1Y?5Matrix?5Counte@ 10047678     Pos_PID_capi.obj
 0002:000036a4       ??_C@_0BN@HFHGCJJH@Y?5Position?5Input?1Unit?5Delay1?$AA@ 100476a4     Pos_PID_capi.obj
 0002:000036c8       ??_C@_0CJ@MOBJAKLH@Y?5Position?5signal?1Deadband?5pulse@ 100476c8     Pos_PID_capi.obj
 0002:000036fc       ??_C@_0CI@GJGOLPJE@Y?5Position?5signal?1Data?5Type?5Conv@ 100476fc     Pos_PID_capi.obj
 0002:0000372c       ??_C@_0BN@PBDEKDOL@Y?5Position?5signal?1Counter?1p1?$AA@ 1004772c     Pos_PID_capi.obj
 0002:00003750       ??_C@_0BN@NKBJPACI@Y?5Position?5signal?1Counter?1p2?$AA@ 10047750     Pos_PID_capi.obj
 0002:00003774       ??_C@_0BN@JKHFPBOH@Y?5Position?5signal?1Unit?5Delay?$AA@ 10047774     Pos_PID_capi.obj
 0002:00003798       ??_C@_0BI@BLHECBNB@Y?5output?5processing?1Abs?$AA@ 10047798     Pos_PID_capi.obj
 0002:000037b4       ??_C@_08LJDLLPJB@Y?5enable?$AA@ 100477b4     Pos_PID_capi.obj
 0002:000037c0       ??_C@_0BM@FJKCPKKH@Y?5output?5processing?1Voltage?$AA@ 100477c0     Pos_PID_capi.obj
 0002:000037e4       ??_C@_09KGGNCPDB@VoltageY?5?$AA@ 100477e4     Pos_PID_capi.obj
 0002:000037f0       ??_C@_0BJ@NMLPJIAF@Y?5output?5processing?1Sign?$AA@ 100477f0     Pos_PID_capi.obj
 0002:00003810       ??_C@_06NCIFHNFG@Y?5Data?$AA@ 10047810     Pos_PID_capi.obj
 0002:00003818       ??_C@_0BL@CJHJGDJG@Y_encoder?5?1CNT32?98M?$CIPCI?$CJ?51?$AA@ 10047818     Pos_PID_capi.obj
 0002:00003838       ??_C@_0BA@CLBLCPNH@Y_encoder?5?1Sum2?$AA@ 10047838     Pos_PID_capi.obj
 0002:0000384c       ??_C@_0BN@JOCBPIFP@Z?5Controller?1Derivative?5Gain?$AA@ 1004784c     Pos_PID_capi.obj
 0002:00003870       ??_C@_0CA@DKBJPMCD@Z?5Controller?1Filter?5Coefficient?$AA@ 10047870     Pos_PID_capi.obj
 0002:00003898       ??_C@_0BL@PPKNAIBJ@Z?5Controller?1Integral?5Gain?$AA@ 10047898     Pos_PID_capi.obj
 0002:000038b8       ??_C@_0BP@KPFEEDPF@Z?5Controller?1Proportional?5Gain?$AA@ 100478b8     Pos_PID_capi.obj
 0002:000038e0       ??_C@_0BE@FLHJBMNA@Z?5Controller?1Filter?$AA@ 100478e0     Pos_PID_capi.obj
 0002:000038f8       ??_C@_0BI@GOBDHIFL@Z?5Controller?1Integrator?$AA@ 100478f8     Pos_PID_capi.obj
 0002:00003914       ??_C@_0BB@LHBHALJK@Z?5Controller?1Sum?$AA@ 10047914     Pos_PID_capi.obj
 0002:00003928       ??_C@_0BC@IEHIOHFA@Z?5Controller?1SumD?$AA@ 10047928     Pos_PID_capi.obj
 0002:00003940       ??_C@_0CJ@CNFALNBF@Z?5Position?5signal?1Deadband?5pulse@ 10047940     Pos_PID_capi.obj
 0002:00003974       ??_C@_0CI@EDNCAPBM@Z?5Position?5signal?1Data?5Type?5Conv@ 10047974     Pos_PID_capi.obj
 0002:000039a4       ??_C@_0BN@FEDMMIIH@Z?5Position?5signal?1Counter?1p1?$AA@ 100479a4     Pos_PID_capi.obj
 0002:000039c8       ??_C@_0BN@HPBBJLEE@Z?5Position?5signal?1Counter?1p2?$AA@ 100479c8     Pos_PID_capi.obj
 0002:000039ec       ??_C@_0BN@DPHNJKIL@Z?5Position?5signal?1Unit?5Delay?$AA@ 100479ec     Pos_PID_capi.obj
 0002:00003a10       ??_C@_0BJ@CJFCHEEB@Z?5output?5processing?1Abs2?$AA@ 10047a10     Pos_PID_capi.obj
 0002:00003a30       ??_C@_0CJ@FNGJJAF@Z?5output?5processing?1Data?5Type?5Co@ 10047a30     Pos_PID_capi.obj
 0002:00003a64       ??_C@_0BN@JDKLKM@Z?5output?5processing?1Voltage2?$AA@ 10047a64     Pos_PID_capi.obj
 0002:00003a88       ??_C@_0L@ILKNELCH@Voltage?5Z?5?$AA@ 10047a88     Pos_PID_capi.obj
 0002:00003a98       ??_C@_0CF@PCJIKODN@Z?5output?5processing?1Logical?5Oper@ 10047a98     Pos_PID_capi.obj
 0002:00003ac4       ??_C@_0CD@FEMILHHP@Z?5output?5processing?1PCI?9DDA08?512@ 10047ac4     Pos_PID_capi.obj
 0002:00003af0       ??_C@_0BK@EELMKBFN@Z?5output?5processing?1Sign1?$AA@ 10047af0     Pos_PID_capi.obj
 0002:00003b10       ??_C@_0CE@JJCKGEKJ@System?5Moving?5Flag?1X?5Flipflop?1Lo@ 10047b10     Pos_PID_capi.obj
 0002:00003b3c       ??_C@_0CF@CELNFFHP@System?5Moving?5Flag?1X?5Flipflop?1Me@ 10047b3c     Pos_PID_capi.obj
 0002:00003b68       ??_C@_0CE@BOIMKPOK@System?5Moving?5Flag?1Y?5Flipflop?1Lo@ 10047b68     Pos_PID_capi.obj
 0002:00003b94       ??_C@_0CF@MLOPODJO@System?5Moving?5Flag?1Y?5Flipflop?1Me@ 10047b94     Pos_PID_capi.obj
 0002:00003bc0       ??_C@_0CE@ENBGPEGO@System?5Moving?5Flag?1Z?5Flipflop?1Lo@ 10047bc0     Pos_PID_capi.obj
 0002:00003bec       ??_C@_0CF@CBGJDOPM@System?5Moving?5Flag?1Z?5Flipflop?1Me@ 10047bec     Pos_PID_capi.obj
 0002:00003c18       ??_C@_0BC@HLOAMCHO@Data?5Store?5Memory?$AA@ 10047c18     Pos_PID_capi.obj
 0002:00003c30       ??_C@_0N@DKJJGJMJ@InitialValue?$AA@ 10047c30     Pos_PID_capi.obj
 0002:00003c40       ??_C@_0BD@HBJLLLEL@Data?5Store?5Memory1?$AA@ 10047c40     Pos_PID_capi.obj
 0002:00003c58       ??_C@_0BD@FKLGOIII@Data?5Store?5Memory2?$AA@ 10047c58     Pos_PID_capi.obj
 0002:00003c70       ??_C@_0BD@EDKNNJMJ@Data?5Store?5Memory3?$AA@ 10047c70     Pos_PID_capi.obj
 0002:00003c88       ??_C@_0N@JELMNPBD@X?5Controller?$AA@ 10047c88     Pos_PID_capi.obj
 0002:00003c98       ??_C@_01NANMIPIL@N?$AA@    10047c98     Pos_PID_capi.obj
 0002:00003c9c       ??_C@_0N@EJCKAGJG@Y?5Controller?$AA@ 10047c9c     Pos_PID_capi.obj
 0002:00003cac       ??_C@_0N@PEOAGKFI@Z?5Controller?$AA@ 10047cac     Pos_PID_capi.obj
 0002:00003cbc       ??_C@_02KKFPAPOP@P1?$AA@   10047cbc     Pos_PID_capi.obj
 0002:00003cc0       ??_C@_02IBHCFMCM@P2?$AA@   10047cc0     Pos_PID_capi.obj
 0002:00003cc4       ??_C@_02JIGJGNGN@P3?$AA@   10047cc4     Pos_PID_capi.obj
 0002:00003cc8       ??_C@_02NHCIPLKK@P4?$AA@   10047cc8     Pos_PID_capi.obj
 0002:00003ccc       ??_C@_02MODDMKOL@P5?$AA@   10047ccc     Pos_PID_capi.obj
 0002:00003cd0       ??_C@_02OFBOJJCI@P6?$AA@   10047cd0     Pos_PID_capi.obj
 0002:00003cd4       ??_C@_02PMAFKIGJ@P7?$AA@   10047cd4     Pos_PID_capi.obj
 0002:00003cd8       ??_C@_04HKKJCGFH@SinH?$AA@ 10047cd8     Pos_PID_capi.obj
 0002:00003ce0       ??_C@_04CLNMNOCK@CosH?$AA@ 10047ce0     Pos_PID_capi.obj
 0002:00003ce8       ??_C@_06EAKBABMB@SinPhi?$AA@ 10047ce8     Pos_PID_capi.obj
 0002:00003cf0       ??_C@_06GJFGCNCB@CosPhi?$AA@ 10047cf0     Pos_PID_capi.obj
 0002:00003cf8       ??_C@_0BK@OLGJPAKM@Force?5Subsystem?1Receive?51?$AA@ 10047cf8     Pos_PID_capi.obj
 0002:00003d18       ??_C@_0BO@EPIIPPKI@System?5Moving?5Flag?1X?5Flipflop?$AA@ 10047d18     Pos_PID_capi.obj
 0002:00003d3c       ??_C@_0BC@DEOHEJIB@initial_condition?$AA@ 10047d3c     Pos_PID_capi.obj
 0002:00003d54       ??_C@_0BO@IOAGCAGI@System?5Moving?5Flag?1Y?5Flipflop?$AA@ 10047d54     Pos_PID_capi.obj
 0002:00003d78       ??_C@_0BO@BHOEEGGJ@System?5Moving?5Flag?1Z?5Flipflop?$AA@ 10047d78     Pos_PID_capi.obj
 0002:00003d9c       ??_C@_0BB@CFEOEMDC@InitialCondition?$AA@ 10047d9c     Pos_PID_capi.obj
 0002:00003db0       ??_C@_0BJ@GCDCIOIA@BreakpointsForDimension1?$AA@ 10047db0     Pos_PID_capi.obj
 0002:00003dd0       ??_C@_0CC@BGJDLOAL@X?5Position?5Input?1X?5Matrix?5Counte@ 10047dd0     Pos_PID_capi.obj
 0002:00003df8       ??_C@_0N@LIAJDDBE@InitialCount?$AA@ 10047df8     Pos_PID_capi.obj
 0002:00003e08       ??_C@_08OOPKMNBD@HitValue?$AA@ 10047e08     Pos_PID_capi.obj
 0002:00003e14       ??_C@_0BK@GIDICEDH@X?5Position?5signal?1Counter?$AA@ 10047e14     Pos_PID_capi.obj
 0002:00003e34       ??_C@_04OMOMKKFL@Gain?$AA@ 10047e34     Pos_PID_capi.obj
 0002:00003e3c       ??_C@_0CE@MKBKFKDI@X?5output?5processing?1PCI?9DDA?508?51@ 10047e3c     Pos_PID_capi.obj
 0002:00003e68       ??_C@_02HLJNLEKG@P8?$AA@   10047e68     Pos_PID_capi.obj
 0002:00003e6c       ??_C@_02GCIGIFOH@P9?$AA@   10047e6c     Pos_PID_capi.obj
 0002:00003e70       ??_C@_03OPFJJGBF@P10?$AA@  10047e70     Pos_PID_capi.obj
 0002:00003e74       ??_C@_0BL@CEODHDBK@X_Encoder?1encoder?5offsets2?$AA@ 10047e74     Pos_PID_capi.obj
 0002:00003e94       ??_C@_05LPIJGKJ@Value?$AA@ 10047e94     Pos_PID_capi.obj
 0002:00003e9c       ??_C@_03PGECKHFE@P11?$AA@  10047e9c     Pos_PID_capi.obj
 0002:00003ea0       ??_C@_03NNGPPEJH@P12?$AA@  10047ea0     Pos_PID_capi.obj
 0002:00003ea4       ??_C@_03MEHEMFNG@P13?$AA@  10047ea4     Pos_PID_capi.obj
 0002:00003ea8       ??_C@_03ILDFFDBB@P14?$AA@  10047ea8     Pos_PID_capi.obj
 0002:00003eac       ??_C@_03JCCOGCFA@P15?$AA@  10047eac     Pos_PID_capi.obj
 0002:00003eb0       ??_C@_03LJADDBJD@P16?$AA@  10047eb0     Pos_PID_capi.obj
 0002:00003eb4       ??_C@_03KABIAANC@P17?$AA@  10047eb4     Pos_PID_capi.obj
 0002:00003eb8       ??_C@_03CHIABMBN@P18?$AA@  10047eb8     Pos_PID_capi.obj
 0002:00003ebc       ??_C@_03DOJLCNFM@P19?$AA@  10047ebc     Pos_PID_capi.obj
 0002:00003ec0       ??_C@_03ONBPCIEM@P20?$AA@  10047ec0     Pos_PID_capi.obj
 0002:00003ec4       ??_C@_03PEAEBJAN@P21?$AA@  10047ec4     Pos_PID_capi.obj
 0002:00003ec8       ??_C@_03NPCJEKMO@P22?$AA@  10047ec8     Pos_PID_capi.obj
 0002:00003ecc       ??_C@_03MGDCHLIP@P23?$AA@  10047ecc     Pos_PID_capi.obj
 0002:00003ed0       ??_C@_03IJHDONEI@P24?$AA@  10047ed0     Pos_PID_capi.obj
 0002:00003ed4       ??_C@_03JAGINMAJ@P25?$AA@  10047ed4     Pos_PID_capi.obj
 0002:00003ed8       ??_C@_03LLEFIPMK@P26?$AA@  10047ed8     Pos_PID_capi.obj
 0002:00003edc       ??_C@_03KCFOLOIL@P27?$AA@  10047edc     Pos_PID_capi.obj
 0002:00003ee0       ??_C@_03CFMGKCEE@P28?$AA@  10047ee0     Pos_PID_capi.obj
 0002:00003ee4       ??_C@_03DMNNJDAF@P29?$AA@  10047ee4     Pos_PID_capi.obj
 0002:00003ee8       ??_C@_03OMNNECHL@P30?$AA@  10047ee8     Pos_PID_capi.obj
 0002:00003eec       ??_C@_03PFMGHDDK@P31?$AA@  10047eec     Pos_PID_capi.obj
 0002:00003ef0       ??_C@_03NOOLCAPJ@P32?$AA@  10047ef0     Pos_PID_capi.obj
 0002:00003ef4       ??_C@_03MHPABBLI@P33?$AA@  10047ef4     Pos_PID_capi.obj
 0002:00003ef8       ??_C@_03IILBIHHP@P34?$AA@  10047ef8     Pos_PID_capi.obj
 0002:00003efc       ??_C@_03JBKKLGDO@P35?$AA@  10047efc     Pos_PID_capi.obj
 0002:00003f00       ??_C@_0CC@LFLHCEHO@Y?5Position?5Input?1Y?5Matrix?5Counte@ 10047f00     Pos_PID_capi.obj
 0002:00003f28       ??_C@_0BK@IPCFICKA@Y?5Position?5signal?1Counter?$AA@ 10047f28     Pos_PID_capi.obj
 0002:00003f48       ??_C@_0CE@BACLBIGK@Y?5output?5processing?1PCI?9DDA?508?51@ 10047f48     Pos_PID_capi.obj
 0002:00003f74       ??_C@_0BM@PPFBNHIK@Y_encoder?5?1encoder?5offsets1?$AA@ 10047f74     Pos_PID_capi.obj
 0002:00003f98       ??_C@_0BL@GOFBADGJ@Z?5Position?5signal?1Constant?$AA@ 10047f98     Pos_PID_capi.obj
 0002:00003fb8       ??_C@_0BK@HNHCGPFI@Z?5Position?5signal?1Counter?$AA@ 10047fb8     Pos_PID_capi.obj
 0002:00003fd8       ??_C@_0CE@EGPNABBG@Z?5output?5processing?1PCI?9DDA?508?51@ 10047fd8     Pos_PID_capi.obj
 0002:00004004       ??_C@_0L@HPPBCIFA@TruthTable?$AA@ 10048004     Pos_PID_capi.obj
 0002:00004014       ??_C@_03DCBBJBAA@amp?$AA@  10048014     Pos_PID_capi.obj
 0002:00004018       ??_C@_04NBAGBPGE@bias?$AA@ 10048018     Pos_PID_capi.obj
 0002:00004020       ??_C@_04EEEGHMJE@db_x?$AA@ 10048020     Pos_PID_capi.obj
 0002:00004028       ??_C@_04FNFNENNF@db_y?$AA@ 10048028     Pos_PID_capi.obj
 0002:00004030       ??_C@_04HGHABOBG@db_z?$AA@ 10048030     Pos_PID_capi.obj
 0002:00004038       ??_C@_01INIBCBCB@f?$AA@    10048038     Pos_PID_capi.obj
 0002:0000403c       ??_C@_03JKKEMAOD@kdx?$AA@  1004803c     Pos_PID_capi.obj
 0002:00004040       ??_C@_03IDLPPBKC@kdy?$AA@  10048040     Pos_PID_capi.obj
 0002:00004044       ??_C@_03KIJCKCGB@kdz?$AA@  10048044     Pos_PID_capi.obj
 0002:00004048       ??_C@_03JCHMFDLA@kix?$AA@  10048048     Pos_PID_capi.obj
 0002:0000404c       ??_C@_03ILGHGCPB@kiy?$AA@  1004804c     Pos_PID_capi.obj
 0002:00004050       ??_C@_03KAEKDBDC@kiz?$AA@  10048050     Pos_PID_capi.obj
 0002:00004054       ??_C@_03IBILMLEP@kpx?$AA@  10048054     Pos_PID_capi.obj
 0002:00004058       ??_C@_03JIJAPKAO@kpy?$AA@  10048058     Pos_PID_capi.obj
 0002:0000405c       ??_C@_03LDLNKJMN@kpz?$AA@  1004805c     Pos_PID_capi.obj
 0002:00004060       ??_C@_04NMNJKFFI@xpos?$AA@ 10048060     Pos_PID_capi.obj
 0002:00004068       ??_C@_04OBLJIMOI@ypos?$AA@ 10048068     Pos_PID_capi.obj
 0002:00004070       ??_C@_0L@MEPOOHLP@hitcount_x?$AA@ 10048070     Pos_PID_capi.obj
 0002:00004080       ??_C@_0L@NNOFNGPO@hitcount_y?$AA@ 10048080     Pos_PID_capi.obj
 0002:00004090       ??_C@_0L@PGMIIFDN@hitcount_z?$AA@ 10048090     Pos_PID_capi.obj
 0002:000040a0       ??_C@_06BNJCAIGJ@double?$AA@ 100480a0     Pos_PID_capi.obj
 0002:000040a8       ??_C@_06CNMIJIPB@real_T?$AA@ 100480a8     Pos_PID_capi.obj
 0002:000040b0       ??_C@_0O@PPAIJIHF@unsigned?5char?$AA@ 100480b0     Pos_PID_capi.obj
 0002:000040c0       ??_C@_07NCEHLPOC@uint8_T?$AA@ 100480c0     Pos_PID_capi.obj
 0002:000040cc       ??_C@_09JBMFCIMO@boolean_T?$AA@ 100480cc     Pos_PID_capi.obj
 0002:000040d8       ??_C@_05KNFBNCOH@float?$AA@ 100480d8     Pos_PID_capi.obj
 0002:000040e0       ??_C@_0CJ@GGPBKPNK@Could?5not?5start?5ToAsyncQueue?5app@ 100480e0     Pos_PID_tgtconn.obj
 0002:00004978       ??_C@_0DJ@FHKINPLE@Unexpected?5itemKind?5?$DN?5DATA_ITEM?5@ 10048978     rt_logging.obj
 0002:000049bc       ??_C@_0DA@IEHFPFCJ@Unexpected?5itemKind?$DN?$CFd?5in?5rt_Pro@ 100489bc     rt_logging.obj
 0002:000049f8       ??_C@_0DA@IFLHJPBO@Unexpected?5itemKind?$DN?$CFd?5in?5rt_Pro@ 100489f8     rt_logging.obj
 0002:00004a34       ??_C@_0DA@IAPIIJJL@Unexpected?5itemKind?$DN?$CFd?5in?5rt_Pro@ 10048a34     rt_logging.obj
 0002:00004a70       ??_C@_0BE@LCIGPJIG@MATLAB?55?40?5MAT?9file?$AA@ 10048a70     rt_logging.obj
 0002:00004a88       ??_C@_0FB@PCJEAJIB@?$CK?$CK?$CK?5Log?5variable?5?$CFs?5has?5wrapped?5@ 10048a88     rt_logging.obj
 0002:00004af0       ??_C@_0MG@NKMLMOGF@?$CK?$CK?$CK?5To?5avoid?5wrapping?0?5explicitl@ 10048af0     rt_logging.obj
 0002:00004be0       ??_C@_0N@IPAEOLLP@_rtw_tmw?4tmw?$AA@ 10048be0     rt_logging.obj
 0002:00004bf0       ??_C@_04HDOCAJNK@?$CFs?$CFs?$AA@ 10048bf0     rt_logging.obj
 0002:00004bf8       ??_C@_03ELIABIOC@w?$CLb?$AA@ 10048bf8     rt_logging.obj
 0002:00004bfc       ??_C@_0BF@JPILDDFA@?$CK?$CK?$CK?5Error?5opening?5?$CFs?$AA@ 10048bfc     rt_logging.obj
 0002:00004c18       ??_C@_0BK@EEMDELA@unable?5to?5open?5data?5file?6?$AA@ 10048c18     rt_logging.obj
 0002:00004c38       ??_C@_04CGFJFPFD@none?$AA@ 10048c38     rt_logging.obj
 0002:00004c40       ??_C@_0EE@LCGFPNON@?$CK?$CK?$CK?5Error?5creating?5signals?5struc@ 10048c40     rt_logging.obj
 0002:00004c94       ??_C@_0CE@NHECEDMK@?$CK?$CK?$CK?5Error?5creating?5log?5variable?5@ 10048c94     rt_logging.obj
 0002:00004cc0       ??_C@_0DB@IOCGKAGH@?$CK?$CK?$CK?5Errors?5occurred?5when?5startin@ 10048cc0     rt_logging.obj
 0002:00004cfc       ??_C@_0BO@BBLOGEBK@?$CK?$CK?$CK?5Memory?5allocation?5error?4?6?$AA@ 10048cfc     rt_logging.obj
 0002:00004d20       ??_C@_0N@LGFBAGEL@?5?$CIreal?5part?$CJ?$AA@ 10048d20     rt_logging.obj
 0002:00004d30       ??_C@_0KH@CGNMHNFE@?5?5?5?5varName?5?5?5?5?5?5?5?5?5?5?$DN?5?$CFs?$CFs?6?5?5?5?5@ 10048d30     rt_logging.obj
 0002:00004df8       ??_C@_0LE@OALKKEFM@?5?5?5?5varName?5?5?5?5?5?5?5?5?5?5?$DN?5?$CFs?5?$CIcompl@ 10048df8     rt_logging.obj
 0002:00004ed0       ??_C@_0KF@JDDLEOKO@?5?5?5?5varName?5?5?5?5?5?5?5?5?5?5?$DN?5?$CFs?6?5?5?5?5nR@ 10048ed0     rt_logging.obj
 0002:00004f98       ??_C@_0DP@HPDMIOFM@?$CK?$CK?$CK?5Using?5a?5default?5buffer?5of?5si@ 10048f98     rt_logging.obj
 0002:00004fe8       ??_C@_0KE@JEFOLKNF@?6?$CK?$CK?$CK?5Memory?5required?5to?5log?5vari@ 10048fe8     rt_logging.obj
 0002:000050b0       ??_C@_0JP@DKLMHCBI@?$CK?$CK?$CK?5Details?3?6?5?5?5?5?5?5?5varName?5?5?5?5?5@ 100490b0     rt_logging.obj
 0002:00005170       ??_C@_0CM@CAMILBED@?$CK?$CK?$CK?5Error?5allocating?5memory?5for?5@ 10049170     rt_logging.obj
 0002:000051a4       ??_C@_0DF@BBCNMOPM@?$CK?$CK?$CK?5Error?5allocating?5memory?5for?5@ 100491a4     rt_logging.obj
 0002:000051e8       ??_C@_0JP@DBCLPCCI@?$CK?$CK?$CK?5Details?3?6?5?5?5?5?5?5?5varName?5?5?5?5?5@ 100491e8     rt_logging.obj
 0002:000052a8       ??_C@_0FK@DPGAOBGA@?$CK?$CK?$CK?5Error?5allocating?5memory?5for?5@ 100492a8     rt_logging.obj
 0002:00005314       ??_C@_0BI@GGDNPHLJ@?$CK?$CK?$CK?5Error?5writing?5to?5?$CFs?$AA@ 10049314     rt_logging.obj
 0002:00005330       ??_C@_0CB@IBGJGELG@?$CK?$CK?$CK?5Error?5writing?5?$CFs?5due?5to?3?5?$CFs?6@ 10049330     rt_logging.obj
 0002:00005358       ??_C@_0CN@FLMCHCPB@?$CK?$CK?$CK?5Error?5writing?5log?5variable?5?$CF@ 10049358     rt_logging.obj
 0002:00005390       ??_C@_0DH@GAJCNOJP@?$CK?$CK?$CK?5Error?5writing?5structure?5log?5@ 10049390     rt_logging.obj
 0002:000053d4       ??_C@_0BD@POEALECL@?$CK?$CK?5created?5?$CFs?5?$CK?$CK?6?6?$AA@ 100493d4     rt_logging.obj
 0002:000053f0       __real@4020000000000000    100493f0     rt_logging.obj
 0002:00005400       __real@41dfffffffc00000    10049400     rt_logging.obj
 0002:00005410       __real@41efffffffe00000    10049410     rt_logging.obj
 0002:00005420       __real@4330000000000000    10049420     rt_logging.obj
 0002:00005430       __real@8000000000000000    10049430     rt_logging.obj
 0002:00005440       __real@bfbf9add3afd2773    10049440     rt_logging.obj
 0002:00005450       __real@c000000000000000    10049450     rt_logging.obj
 0002:00005460       __xmm@20202020202020202020202020202020 10049460     rt_logging.obj
 0002:00005490       __real@3cb0000000000000    10049490     rt_matrx.obj
 0002:0000549c       ??_C@_0BI@INNPNFJN@Memory?5Allocation?5Error?$AA@ 1004949c     rtw_modelmap_utils.obj
 0002:000054b8       ??_C@_1HC@OAPLBLFC@?$AAC?$AA?3?$AA?2?$AAP?$AAR?$AAO?$AAG?$AAR?$AAA?$AA?$HO?$AA1?$AA?2?$AAM?$AAA?$AAT?$AAL?$AAA?$AAB?$AA?2?$AAR?$AA2?$AA0?$AA1?$AA6?$AAa?$AA?2?$AAr?$AAt?$AAw?$AA?2?$AAc?$AA?2@ 100494b8     rtw_modelmap_utils.obj
 0002:00005540       ??_C@_1CI@OEAJCJND@?$AAj?$AA?5?$AA?$DN?$AA?$DN?$AA?5?$AAe?$AAn?$AAc?$AAo?$AAd?$AAe?$AAd?$AAP?$AAa?$AAt?$AAh?$AAL?$AAe?$AAn?$AA?$AA@ 10049540     rtw_modelmap_utils.obj
 0002:00005570       ??_C@_1DC@NFAOIFKB@?$AAe?$AAn?$AAc?$AAo?$AAd?$AAe?$AAd?$AAP?$AAa?$AAt?$AAh?$AA?$FL?$AAj?$AA?9?$AA1?$AA?$FN?$AA?5?$AA?$DN?$AA?$DN?$AA?5?$AA?8?$AA?2?$AA0?$AA?8?$AA?$AA@ 10049570     rtw_modelmap_utils.obj
 0002:000055ac       ??_C@_1DI@FLNJGPEE@?$AAs?$AAi?$AAg?$AAC?$AAo?$AAm?$AAp?$AAl?$AAe?$AAx?$AAi?$AAt?$AAy?$AA?$FL?$AA?$CK?$AAs?$AAi?$AAg?$AAI?$AAd?$AAx?$AA?$FN?$AA?5?$AA?$CB?$AA?$DN?$AA?5?$AA1?$AA?$AA@ 100495ac     rtw_modelmap_utils.obj
 0002:000055f0       ??_C@_1KI@OFELMGBG@?$AA?$CI?$AA?$CI?$AA?$CI?$AAd?$AAa?$AAt?$AAa?$AAT?$AAy?$AAp?$AAe?$AAM?$AAa?$AAp?$AA?$CJ?$AA?$FL?$AA?$CI?$AA?$CI?$AA?$CI?$AAs?$AAt?$AAa?$AAt?$AAe?$AAs?$AA?$CJ?$AA?$FL?$AA?$CI?$AAi?$AA?$CJ?$AA?$FN?$AA?4@ 100495f0     rtw_modelmap_utils.obj
 0002:000056bc       ??_C@_1DA@ILCMPHNE@?$AAf?$AAu?$AAl?$AAl?$AAP?$AAa?$AAt?$AAh?$AA?5?$AA?$CB?$AA?$DN?$AA?5?$AA?$CI?$AA?$CI?$AAv?$AAo?$AAi?$AAd?$AA?5?$AA?$CK?$AA?$CJ?$AA0?$AA?$CJ?$AA?$AA@ 100496bc     rtw_modelmap_utils.obj
 0002:000056f8       ??_C@_1CI@OEPPFCCA@?$AAp?$AAa?$AAt?$AAh?$AA?5?$AA?$CB?$AA?$DN?$AA?5?$AA?$CI?$AA?$CI?$AAv?$AAo?$AAi?$AAd?$AA?5?$AA?$CK?$AA?$CJ?$AA0?$AA?$CJ?$AA?$AA@ 100496f8     rtw_modelmap_utils.obj
 0002:00005728       ??_C@_1FK@GLJIMFHB@?$AA?$CI?$AA?$CI?$AAm?$AAm?$AAi?$AA?$CJ?$AA?9?$AA?$DO?$AAI?$AAn?$AAs?$AAt?$AAa?$AAn?$AAc?$AAe?$AAM?$AAa?$AAp?$AA?4?$AAf?$AAu?$AAl?$AAl?$AAP?$AAa?$AAt?$AAh?$AA?$CJ?$AA?5?$AA?$DN?$AA?$DN@ 10049728     rtw_modelmap_utils.obj
 0002:00005794       ??_C@_1DG@HPCJGNCE@?$AAm?$AAm?$AAi?$AAP?$AAa?$AAt?$AAh?$AA?$FL?$AAp?$AAa?$AAt?$AAh?$AAL?$AAe?$AAn?$AA?9?$AA1?$AA?$FN?$AA?5?$AA?$DN?$AA?$DN?$AA?5?$AA?8?$AA?2?$AA0?$AA?8?$AA?$AA@ 10049794     rtw_modelmap_utils.obj
 0002:000057d4       ??_C@_1DM@DBAOGGOO@?$AAm?$AAm?$AAi?$AAP?$AAa?$AAt?$AAh?$AA?$FL?$AAm?$AAm?$AAi?$AAP?$AAa?$AAt?$AAh?$AAL?$AAe?$AAn?$AA?9?$AA1?$AA?$FN?$AA?5?$AA?$DN?$AA?$DN?$AA?5?$AA?8?$AA?2?$AA0?$AA?8?$AA?$AA@ 100497d4     rtw_modelmap_utils.obj
 0002:0000581c       ??_C@_1DC@LHIAKAFE@?$AAb?$AAl?$AAo?$AAc?$AAk?$AAP?$AAa?$AAt?$AAh?$AA?5?$AA?$CB?$AA?$DN?$AA?5?$AA?$CI?$AA?$CI?$AAv?$AAo?$AAi?$AAd?$AA?5?$AA?$CK?$AA?$CJ?$AA0?$AA?$CJ?$AA?$AA@ 1004981c     rtw_modelmap_utils.obj
 0002:00005858       ??_C@_1GI@KIEJKPGC@?$AAf?$AAu?$AAl?$AAl?$AAS?$AAt?$AAa?$AAt?$AAe?$AAB?$AAl?$AAo?$AAc?$AAk?$AAP?$AAa?$AAt?$AAh?$AA?$FL?$AAf?$AAu?$AAl?$AAl?$AAS?$AAt?$AAa?$AAt?$AAe?$AAB?$AAl?$AAo?$AAc@ 10049858     rtw_modelmap_utils.obj
 0002:000058d8       ??_C@_1EE@DNPIBJHC@?$AA?$CI?$AA?$CI?$AAd?$AAi?$AAm?$AAM?$AAa?$AAp?$AA?$CJ?$AA?$FL?$AA?$CI?$AAm?$AAa?$AAp?$AAI?$AAd?$AAx?$AA?$CJ?$AA?$FN?$AA?4?$AAn?$AAu?$AAm?$AAD?$AAi?$AAm?$AAs?$AA?$CJ?$AA?5?$AA?$DN?$AA?$DN?$AA?5@ 100498d8     rtw_modelmap_utils.obj
 0002:0000592c       ??_C@_06JFOKFOED@CSTATE?$AA@ 1004992c     rtw_modelmap_utils.obj
 0002:00005934       ??_C@_06FAENGAMN@DSTATE?$AA@ 10049934     rtw_modelmap_utils.obj
 0002:0000593c       ??_C@_1BI@LEBJNOGG@?$AAc?$AAs?$AAv?$AAI?$AAd?$AAx?$AA?5?$AA?$DO?$AA?$DN?$AA?5?$AA0?$AA?$AA@ 1004993c     rtw_modelmap_utils.obj
 0002:00005958       ??_C@_1BA@KDMGHCHP@?$AAT?$AAI?$AAD?$AA?$DN?$AA?$DN?$AA?9?$AA1?$AA?$AA@ 10049958     rtw_modelmap_utils.obj
 0002:0000596c       ??_C@_1DM@DHGKBPCE@?$AAs?$AAi?$AAg?$AAP?$AAa?$AAt?$AAh?$AA?$FL?$AAs?$AAi?$AAg?$AAP?$AAa?$AAt?$AAh?$AAL?$AAe?$AAn?$AA?9?$AA1?$AA?$FN?$AA?5?$AA?$DN?$AA?$DN?$AA?5?$AA?8?$AA?2?$AA0?$AA?8?$AA?$AA@ 1004996c     rtw_modelmap_utils.obj
 0002:000059b4       _serialfifoground          100499b4     xpc_datatype_ground.obj
 0002:000059c0       _bcmsg1553ground           100499c0     xpc_datatype_ground.obj
 0002:000059d0       _bcstatground              100499d0     xpc_datatype_ground.obj
 0002:000059e8       _bmmsg1553ground           100499e8     xpc_datatype_ground.obj
 0002:00005a08       _ptsetfilename             10049a08     xpctarget.obj
 0002:00005a0c       _xmlfile                   10049a0c     xpctarget.obj
 0002:00005a14       ??_C@_07KFKDPLMF@Pos_PID?$AA@ 10049a14     xpctarget.obj
 0002:00005a20       ??_C@_0L@CHBJKKFC@xpceSetVar?$AA@ 10049a20     xpctarget.obj
 0002:00005a30       ??_C@_03ICACBPID@6?44?$AA@ 10049a30     xpctarget.obj
 0002:00005a38       __real@3fb999999999999a    10049a38     xpctarget.obj
 0002:00005a48       __real@408f400000000000    10049a48     xpctarget.obj
 0002:00005a58       _Pos_PID_BIOMAP            10049a58     appmappingData.obj
 0002:00005eb4       _Pos_PID_dtmap             10049eb4     appmappingData.obj
 0002:00005ed8       _Pos_PID_LBLMAP            10049ed8     appmappingData.obj
 0002:00006338       _Pos_PID_SIDMAP            1004a338     appmappingData.obj
 0002:00006798       _Pos_PID_SBIO              1004a798     appmappingData.obj
 0002:00006910       _Pos_PID_SLBL              1004a910     appmappingData.obj
 0002:00006a88       _Pos_PID_PTIDSMAP          1004aa88     appmappingData.obj
 0002:00007060       _Pos_PID_PTNAMESMAP        1004b060     appmappingData.obj
 0002:00007638       _Pos_PID_SPTMAP            1004b638     appmappingData.obj
 0002:00007928       _appInfo                   1004b928     appmappingData.obj
 0002:00007fac       ??_C@_0BE@CKBAIFD@encconteccnt328mpci?$AA@ 1004bfac     encconteccnt328mpci.obj
 0002:00007fc4       ??_C@_0CG@PDPCNMMO@?$CFs?3?5?$CFd?5input?5args?5expected?0?5?$CFd?5p@ 1004bfc4     encconteccnt328mpci.obj
 0002:00007ff4       ??_C@_07GNCCFEIM@?$CFs?$CI?$CFd?$CJ?6?$AA@ 1004bff4     encconteccnt328mpci.obj
 0002:00008000       ??_C@_0CE@CLLJOMGM@?$CFs?$CI?$CFd?$CJ?5Sample?5Time?5?$CFf?5?$CIChannel?5?$CF@ 1004c000     encconteccnt328mpci.obj
 0002:0000802c       ??_C@_0CK@NDIIACOD@?$CFs?$CI?$CFd?$CJ?5PCI?5Bus?5?$CFd?5?5?5Slot?5?$CFd?5?5?5Ch@ 1004c02c     encconteccnt328mpci.obj
 0002:00008060       ??_C@_0CO@OADOCJBA@?$CFs?3?5CNT32?98M?$CIPCI?$CJ?5not?5found?5at?5b@ 1004c060     encconteccnt328mpci.obj
 0002:00008098       ??_C@_0CB@GGINOLOG@?5?5?5Initial?5Value?3?50x?$CFx?5Load?3?5?$CFd?6@ 1004c098     encconteccnt328mpci.obj
 0002:000080c0       ??_C@_0BL@JCCHIDDO@?5?5?5Start?5Method?3?5?$CFd?5?$CI0x?$CFx?$CJ?$AA@ 1004c0c0     encconteccnt328mpci.obj
 0002:000080e0       ??_C@_0BL@ONAHILHM@?5?5?5Stop?5Method?3?5?$CFd?5?$CI0x?$CFx?$CJ?6?$AA@ 1004c0e0     encconteccnt328mpci.obj
 0002:00008100       ??_C@_0BO@DJDJGILF@?5?5?5Input?5Signal?3?50x?$CFx?5?$CI0x?$CFx?$CJ?6?$AA@ 1004c100     encconteccnt328mpci.obj
 0002:00008128       ??_C@_0GI@GFJKDDOK@?5?5?5Input?5Signal?5Overloaded?5?$CIStar@ 1004c128     encconteccnt328mpci.obj
 0002:000081a4       ??_C@_0DK@GPOKCJIM@?5?5?5Rise?1Fall?1Match?50?1Match?51?5?5?5P@ 1004c1a4     encconteccnt328mpci.obj
 0002:000081ec       ??_C@_0CD@KKOOHPOD@?5?5?5Zero?9Clear?3?5?$CFd?1?$CFd?1?$CFd?1?$CFd?5?$CI0x?$CFx@ 1004c1ec     encconteccnt328mpci.obj
 0002:00008218       ??_C@_0DC@FPLMBIJB@?5?5?5Match?50?5Overloaded?5?$CIPreset?1Ze@ 1004c218     encconteccnt328mpci.obj
 0002:00008254       ??_C@_0DC@LHKLIIDA@?5?5?5Match?51?5Overloaded?5?$CIPreset?1Ze@ 1004c254     encconteccnt328mpci.obj
 0002:00008290       ??_C@_0BO@EIIFPMDO@?5?5?5Digital?5Filter?3?5?$CFd?5?$CI0x?$CFx?$CJ?6?$AA@ 1004c290     encconteccnt328mpci.obj
 0002:000082b4       ??_C@_0BL@OJPKOPMK@?5?5?5Index?5Logic?3?5?$CFd?5?$CI0x?$CFx?$CJ?6?$AA@ 1004c2b4     encconteccnt328mpci.obj
 0002:000082d4       ??_C@_0BL@JKPAGFND@?5?5?5Pulse?5Input?3?5?$CFd?5?$CI0x?$CFx?$CJ?6?$AA@ 1004c2d4     encconteccnt328mpci.obj
 0002:000082f4       ??_C@_0BJ@GNILLNEI@?5?5?5Direction?3?5?$CFd?5?$CI0x?$CFx?$CJ?6?$AA@ 1004c2f4     encconteccnt328mpci.obj
 0002:00008314       ??_C@_0BO@DKFKJOII@?5?5?5Operation?5Mode?3?5?$CFd?5?$CI0x?$CFx?$CJ?6?$AA@ 1004c314     encconteccnt328mpci.obj
 0002:00008338       ??_C@_0BH@DBDDMMGO@?5?5?5COUNTER?5MODE?3?50x?$CFx?6?$AA@ 1004c338     encconteccnt328mpci.obj
 0002:00008354       ??_C@_0BG@PGOHHDMJ@?5?5?5Preset?5Value?3?50x?$CFx?$AA@ 1004c354     encconteccnt328mpci.obj
 0002:00008370       ??_C@_0BH@OBCHHCLB@?5?5?5Match?50?5Value?3?50x?$CFx?$AA@ 1004c370     encconteccnt328mpci.obj
 0002:0000838c       ??_C@_0BI@PPJDJHAK@?5?5?5Match?51?5Value?3?50x?$CFx?6?$AA@ 1004c38c     encconteccnt328mpci.obj
 0002:000083a8       ??_C@_0CB@BHICGGII@?5?5?5One?5Shot?5Duration?3?5?$CFd?5?$CI0x?$CFx?$CJ?6@ 1004c3a8     encconteccnt328mpci.obj
 0002:000083d0       ??_C@_0FK@MHKNLCPD@?5?5?5Output?5Signal?5?$CIMatch?50?11?5Abno@ 1004c3d0     encconteccnt328mpci.obj
 0002:0000843c       ??_C@_0BB@JCAIALPL@?5?5?5OUTPUT?3?50x?$CFx?6?$AA@ 1004c43c     encconteccnt328mpci.obj
 0002:00008450       ??_C@_0BM@KEHJNHBI@?5?5?5Index?5Enable?3?5?$CFd?5?$CI0x?$CFx?$CJ?6?$AA@ 1004c450     encconteccnt328mpci.obj
 0002:00008474       ??_C@_0BC@PJJJOOAA@?5?5?5Z?9PULSE?3?50x?$CFx?6?$AA@ 1004c474     encconteccnt328mpci.obj
 0002:0000848c       ??_C@_0CH@LIFPIGPB@?5?5?5Enable?5Digital?5Input?3?5?$CFd?5Outp@ 1004c48c     encconteccnt328mpci.obj
 0002:000084bc       ??_C@_0DF@HCJHNGFD@?5?5?5Digital?5Output?5Initial?5Value?3@ 1004c4bc     encconteccnt328mpci.obj
 0002:000084fc       ??_C@_0CP@CNANCOON@?5?5?5External?5Output?5Signal?5Overlo@ 1004c4fc     encconteccnt328mpci.obj
 0002:00008538       ??_C@_0ED@LKHIFFLC@Wrong?5number?5of?5input?5arguments?5@ 1004c538     xpcudpbytereceive.obj
 0002:00008588       ??_C@_0CN@MHEKKFIE@Output?5port?5width?5argument?5must?5@ 1004c588     xpcudpbytereceive.obj
 0002:000085c0       ??_C@_0DC@KNMLNALJ@Error?5in?5udpbytereceive?3?5memory?5@ 1004c5c0     xpcudpbytereceive.obj
 0002:000085fc       ??_C@_0CI@CAMPNCMJ@Error?3?5No?5UDP?5channel?5free?5or?5UD@ 1004c5fc     xpcudpbytereceive.obj
 0002:0000862c       ??_C@_0BA@MBPMNBMJ@CB?5PCI?9DDA02?112?$AA@ 1004c62c     dacbpcidda0x12.obj
 0002:00008640       ??_C@_0BA@EOLMCEGJ@CB?5PCI?9DDA04?112?$AA@ 1004c640     dacbpcidda0x12.obj
 0002:00008654       ??_C@_0BA@ILEMMJGI@CB?5PCI?9DDA08?112?$AA@ 1004c654     dacbpcidda0x12.obj
 0002:00008668       ??_C@_0BA@KFJABEMN@CB?5PCI?9DDA02?116?$AA@ 1004c668     dacbpcidda0x12.obj
 0002:0000867c       ??_C@_0BA@CKNAOBGN@CB?5PCI?9DDA04?116?$AA@ 1004c67c     dacbpcidda0x12.obj
 0002:00008690       ??_C@_0BA@OPCAAMGM@CB?5PCI?9DDA08?116?$AA@ 1004c690     dacbpcidda0x12.obj
 0002:000086a4       ??_C@_0BB@IGAELBME@CB?5PCIM?9DDA06?116?$AA@ 1004c6a4     dacbpcidda0x12.obj
 0002:000086b8       ??_C@_0BD@IPMBHKCA@CB?5PCIM?9DAS1602?116?$AA@ 1004c6b8     dacbpcidda0x12.obj
 0002:000086d0       ??_C@_0BG@EPCOHGPO@?$CFs?3?5board?5not?5present?$AA@ 1004c6d0     dacbpcidda0x12.obj
 0002:000086ec       ??_C@_0CI@NFFNBHJA@?$CFs?5?$CIbus?5?$CFd?0?5slot?5?$CFd?$CJ?3?5board?5not?5@ 1004c6ec     dacbpcidda0x12.obj
 0002:00008720       __real@3ee4f8b588e368f1    1004c720     dacbpcidda0x12.obj
 0002:00008730       __real@4004000000000000    1004c730     dacbpcidda0x12.obj
 0002:00008740       __real@4014000000000000    1004c740     dacbpcidda0x12.obj
 0002:00008750       __real@4024000000000000    1004c750     dacbpcidda0x12.obj
 0002:00008760       __real@4034000000000000    1004c760     dacbpcidda0x12.obj
 0002:00008770       __real@40b0000000000000    1004c770     dacbpcidda0x12.obj
 0002:00008780       __real@40f0000000000000    1004c780     dacbpcidda0x12.obj
 0002:0000878c       ??_C@_0BC@MPAJBIJ@CB?5PCI?9DAS1602?116?$AA@ 1004c78c     dopci8255.obj
 0002:000087a4       ??_C@_0P@HKDMEDDF@CB?5PCI?9DAS1200?$AA@ 1004c7a4     dopci8255.obj
 0002:000087b8       ??_C@_0BC@NLEKMPOI@CB?5PCI?9DAS1200?1JR?$AA@ 1004c7b8     dopci8255.obj
 0002:000087d0       ??_C@_0O@OECMNDND@CB?5PCI?9DIO48H?$AA@ 1004c7d0     dopci8255.obj
 0002:000087e0       ??_C@_0O@MIFNHFGL@CB?5PCI?9DIO24H?$AA@ 1004c7e0     dopci8255.obj
 0002:000087f0       ??_C@_0O@BMNICGAE@CB?5PCI?9DIO96H?$AA@ 1004c7f0     dopci8255.obj
 0002:00008800       ??_C@_0N@PCCDCCJA@CB?5PCI?9DIO24?$AA@ 1004c800     dopci8255.obj
 0002:00008810       ??_C@_0BC@GIJMFEIN@CB?5PCI?9DAS1602?112?$AA@ 1004c810     dopci8255.obj
 0002:00008828       ??_C@_0M@DJFFBOOL@NI?5PCI?96503?$AA@ 1004c828     dopci8255.obj
 0002:00008838       ??_C@_0O@CJHADKHB@NI?5PCI?9DIO?996?$AA@ 1004c838     dopci8255.obj
 0002:00008848       ??_C@_0M@PLHAOKFN@NI?5PXI?96508?$AA@ 1004c848     dopci8255.obj
 0002:00008858       ??_C@_0N@NMILOOOH@NI?5PCI?96025E?$AA@ 1004c858     dopci8255.obj
 0002:00008868       ??_C@_0BA@CMHAIHFM@CB?5PCI?9DUAL?9AC5?$AA@ 1004c868     dopci8255.obj
 0002:0000887c       ??_C@_0N@MMEAKPPD@CB?5PCI?9DIO96?$AA@ 1004c87c     dopci8255.obj
 0002:0000888c       ??_C@_0BE@MDOBOAKD@CB?5?$CIMC?$CJ?5PCI?9DAS1001?$AA@ 1004c88c     dopci8255.obj
 0002:000088a4       ??_C@_0BE@OIMMLDGA@CB?5?$CIMC?$CJ?5PCI?9DAS1002?$AA@ 1004c8a4     dopci8255.obj
 0002:000088bc       ??_C@_0BI@IHCNPKCM@No?5?$CFs?5at?5bus?5?$CFd?5slot?5?$CFd?$AA@ 1004c8bc     dopci8255.obj
 0002:000088d8       ??_C@_0CJ@MHHCOHM@Board?5base?5address?5came?5up?50?0?5ca@ 1004c8d8     dopci8255.obj
 0002:0000890c       ??_C@_0BC@JCHLEIED@MC?5PCI?9DAS1602?116?$AA@ 1004c90c     dipci8255.obj
 0002:00008924       ??_C@_0P@KEALKDG@MC?5PCI?9DAS1200?$AA@ 1004c924     dipci8255.obj
 0002:00008938       ??_C@_0BC@EFMBBGCC@MC?5PCI?9DAS1200?1JR?$AA@ 1004c938     dipci8255.obj
 0002:00008950       ??_C@_0O@PCCBFPNG@MC?5PCI?9DIO48H?$AA@ 1004c950     dipci8255.obj
 0002:00008960       ??_C@_0BA@FIIFPMIK@MC?5PCI?9DDA02?112?$AA@ 1004c960     dipci8255.obj
 0002:00008974       ??_C@_0BA@NHMFAJCK@MC?5PCI?9DDA04?112?$AA@ 1004c974     dipci8255.obj
 0002:00008988       ??_C@_0BA@BCDFOECL@MC?5PCI?9DDA08?112?$AA@ 1004c988     dipci8255.obj
 0002:0000899c       ??_C@_0O@NOFAPJGO@MC?5PCI?9DIO24H?$AA@ 1004c99c     dipci8255.obj
 0002:000089ac       ??_C@_0O@KNFKKAB@MC?5PCI?9DIO96H?$AA@ 1004c9ac     dipci8255.obj
 0002:000089bc       ??_C@_0N@JDGAGCEP@MC?5PCI?9DIO24?$AA@ 1004c9bc     dipci8255.obj
 0002:000089cc       ??_C@_0BC@PGBHINEH@MC?5PCI?9DAS1602?112?$AA@ 1004c9cc     dipci8255.obj
 0002:000089e4       ??_C@_0BA@LFAJKKBP@MC?5PCI?9DUAL?9AC5?$AA@ 1004c9e4     dipci8255.obj
 0002:000089f8       ??_C@_0BA@DMOJDJIO@MC?5PCI?9DDA02?116?$AA@ 1004c9f8     dipci8255.obj
 0002:00008a0c       ??_C@_0BA@LDKJMMCO@MC?5PCI?9DDA04?116?$AA@ 1004ca0c     dipci8255.obj
 0002:00008a20       ??_C@_0BA@HGFJCBCP@MC?5PCI?9DDA08?116?$AA@ 1004ca20     dipci8255.obj
 0002:00008a34       ??_C@_0BB@GJEINIMD@MC?5PCIM?9DDA06?116?$AA@ 1004ca34     dipci8255.obj
 0002:00008a48       ??_C@_0BD@PEOONKFH@MC?5PCIM?9DAS1602?116?$AA@ 1004ca48     dipci8255.obj
 0002:00008a60       ??_C@_0N@KNADOPCM@MC?5PCI?9DIO96?$AA@ 1004ca60     dipci8255.obj
 0002:00008a70       ??_C@_0P@LJFCEDPM@MC?5PCI?9DAS1001?$AA@ 1004ca70     dipci8255.obj
 0002:00008a84       ??_C@_0P@JCHPBADP@MC?5PCI?9DAS1002?$AA@ 1004ca84     dipci8255.obj
 0002:00008a98       ??_C@_0CC@DMFKNLL@VendorId?5?$DN?50x?$CFx?0?5DeviceId?5?$DN?50x?$CFx@ 1004ca98     xpcruntime:xpcimports.obj
 0002:00008abc       ??_C@_0DH@OHCBLNMG@Subsystem?5Device?5ID?5?$DN?50x?$CFx?6Subsy@ 1004cabc     xpcruntime:xpcimports.obj
 0002:00008af4       ??_C@_0BD@MMMMEFCM@Class?5Code?5?$DN?50x?$CFx?6?$AA@ 1004caf4     xpcruntime:xpcimports.obj
 0002:00008b08       ??_C@_0BE@OLDDDNHM@InterruptLine?5?$DN?5?$CFd?6?$AA@ 1004cb08     xpcruntime:xpcimports.obj
 0002:00008b1c       ??_C@_0BF@OLKLEKBD@bus?5?$DN?5?$CFd?0?5slot?5?$DN?5?$CFd?6?$AA@ 1004cb1c     xpcruntime:xpcimports.obj
 0002:00008b34       ??_C@_0CE@DGLLGDFH@?5?5?5?5Phys?5?5?5Virtual?5?5?5Length?5IO?1M@ 1004cb34     xpcruntime:xpcimports.obj
 0002:00008b58       ??_C@_0BI@FEOPLEMG@?$CF08x?5?$CF08x?5?$CF08x?5?5?5?5?5?5?$CFc?6?$AA@ 1004cb58     xpcruntime:xpcimports.obj
 0002:00008b70       ??_C@_0BB@BNNCEDPC@rl32eScopeExists?$AA@ 1004cb70     xpcruntime:xpcimports.obj
 0002:00008b84       ??_C@_0BM@FJBFEGFG@rl32eScopeExists?5not?5found?6?$AA@ 1004cb84     xpcruntime:xpcimports.obj
 0002:00008ba0       ??_C@_0O@BNNGKJEA@rl32eDefScope?$AA@ 1004cba0     xpcruntime:xpcimports.obj
 0002:00008bb0       ??_C@_0BJ@CDNOENKA@rl32eDefScope?5not?5found?6?$AA@ 1004cbb0     xpcruntime:xpcimports.obj
 0002:00008bcc       ??_C@_0P@CKNKILDP@rl32eAddSignal?$AA@ 1004cbcc     xpcruntime:xpcimports.obj
 0002:00008bdc       ??_C@_0BK@GMJAJBAI@rl32eAddSignal?5not?5found?6?$AA@ 1004cbdc     xpcruntime:xpcimports.obj
 0002:00008bf8       ??_C@_0BB@LDMIHGCE@rl32eGetSignalNo?$AA@ 1004cbf8     xpcruntime:xpcimports.obj
 0002:00008c0c       ??_C@_0BM@LGAMBAID@rl32eGetSignalNo?5not?5found?6?$AA@ 1004cc0c     xpcruntime:xpcimports.obj
 0002:00008c28       ??_C@_0O@CFDGALBP@rl32eSetScope?$AA@ 1004cc28     xpcruntime:xpcimports.obj
 0002:00008c38       ??_C@_0BJ@JCLHHIN@rl32eSetScope?5not?5found?6?$AA@ 1004cc38     xpcruntime:xpcimports.obj
 0002:00008c54       ??_C@_0P@IKMCBMHH@xpceFSScopeSet?$AA@ 1004cc54     xpcruntime:xpcimports.obj
 0002:00008c64       ??_C@_0BK@JODJPNNH@xpceFSScopeSet?5not?5found?6?$AA@ 1004cc64     xpcruntime:xpcimports.obj
 0002:00008c80       ??_C@_0BE@DLACEEJM@rl32eSetTargetScope?$AA@ 1004cc80     xpcruntime:xpcimports.obj
 0002:00008c94       ??_C@_0BP@JCHFMKPJ@rl32eSetTargetScope?5not?5found?6?$AA@ 1004cc94     xpcruntime:xpcimports.obj
 0002:00008cb4       ??_C@_0BJ@LIDLNDHC@rl32eSetTargetScopeSigFt?$AA@ 1004ccb4     xpcruntime:xpcimports.obj
 0002:00008cd0       ??_C@_0CE@JLGHCFHI@rl32eSetTargetScopeSigFt?5not?5fou@ 1004ccd0     xpcruntime:xpcimports.obj
 0002:00008cf4       ??_C@_0BI@JAPOIDNG@rl32eRestartAcquisition?$AA@ 1004ccf4     xpcruntime:xpcimports.obj
 0002:00008d0c       ??_C@_0CD@LLBEFFBO@rl32eRestartAcquisition?5not?5foun@ 1004cd0c     xpcruntime:xpcimports.obj
 0002:00008d30       ??_C@_0P@IEIIADJB@xpceScopeAcqOK?$AA@ 1004cd30     xpcruntime:xpcimports.obj
 0002:00008d40       ??_C@_0BK@NJCKNFPN@xpceScopeAcqOK?5not?5found?6?$AA@ 1004cd40     xpcruntime:xpcimports.obj
 0002:00008d5c       ??_C@_0BA@IJINKAHF@xpceRegisterISR?$AA@ 1004cd5c     xpcruntime:xpcimports.obj
 0002:00008d6c       ??_C@_0BL@NNDLOEJE@xpceRegisterISR?5not?5found?6?$AA@ 1004cd6c     xpcruntime:xpcimports.obj
 0002:00008d88       ??_C@_0BC@NLBADGKF@xpceDeRegisterISR?$AA@ 1004cd88     xpcruntime:xpcimports.obj
 0002:00008d9c       ??_C@_0BN@DCAIKFFD@xpceDeRegisterISR?5not?5found?6?$AA@ 1004cd9c     xpcruntime:xpcimports.obj
 0002:00008dbc       ??_C@_0P@CPGPNKEB@xpceFTReadTime?$AA@ 1004cdbc     xpcruntime:xpcimports.obj
 0002:00008dcc       ??_C@_0BK@NMABIODN@xpceFTReadTime?5not?5found?6?$AA@ 1004cdcc     xpcruntime:xpcimports.obj
 0002:00008de8       ??_C@_09PHNHCHFH@xpceFTAdd?$AA@ 1004cde8     xpcruntime:xpcimports.obj
 0002:00008df4       ??_C@_0BF@FJLEIILA@xpceFTAdd?5not?5found?6?$AA@ 1004cdf4     xpcruntime:xpcimports.obj
 0002:00008e0c       ??_C@_0P@KEODBLHO@xpceFTSubtract?$AA@ 1004ce0c     xpcruntime:xpcimports.obj
 0002:00008e1c       ??_C@_0BK@HONODOKP@xpceFTSubtract?5not?5found?6?$AA@ 1004ce1c     xpcruntime:xpcimports.obj
 0002:00008e38       ??_C@_07JPMEPILD@xpcInpB?$AA@ 1004ce38     xpcruntime:xpcimports.obj
 0002:00008e40       ??_C@_0BD@PGABEJOL@xpcInpB?5not?5found?6?$AA@ 1004ce40     xpcruntime:xpcimports.obj
 0002:00008e54       ??_C@_07KIHBBOKH@xpcInpW?$AA@ 1004ce54     xpcruntime:xpcimports.obj
 0002:00008e5c       ??_C@_0BD@FPCJFMCC@xpcInpW?5not?5found?6?$AA@ 1004ce5c     xpcruntime:xpcimports.obj
 0002:00008e70       ??_C@_08KDIAJBOP@xpcInpDW?$AA@ 1004ce70     xpcruntime:xpcimports.obj
 0002:00008e7c       ??_C@_0BE@PIELDNIL@xpcInpDW?5not?5found?6?$AA@ 1004ce7c     xpcruntime:xpcimports.obj
 0002:00008e90       ??_C@_08PJFMOIGO@xpcOutpB?$AA@ 1004ce90     xpcruntime:xpcimports.obj
 0002:00008e9c       ??_C@_0BE@HCKNCEKF@xpcOutpB?5not?5found?6?$AA@ 1004ce9c     xpcruntime:xpcimports.obj
 0002:00008eb0       ??_C@_08MOOJAOHK@xpcOutpW?$AA@ 1004ceb0     xpcruntime:xpcimports.obj
 0002:00008ebc       ??_C@_0BE@NLIFDBGM@xpcOutpW?5not?5found?6?$AA@ 1004cebc     xpcruntime:xpcimports.obj
 0002:00008ed0       ??_C@_09FLIEKHJG@xpcOutpDW?$AA@ 1004ced0     xpcruntime:xpcimports.obj
 0002:00008edc       ??_C@_0BF@GJKLPNHB@xpcOutpDW?5not?5found?6?$AA@ 1004cedc     xpcruntime:xpcimports.obj
 0002:00008ef4       ??_C@_0BH@EHOLELHH@xpcReserveMemoryRegion?$AA@ 1004cef4     xpcruntime:xpcimports.obj
 0002:00008f0c       ??_C@_0CC@KAAAGPI@xpcReserveMemoryRegion?5not?5found@ 1004cf0c     xpcruntime:xpcimports.obj
 0002:00008f30       ??_C@_0BA@JGPMHGAF@rl32eShowPCIDev?$AA@ 1004cf30     xpcruntime:xpcimports.obj
 0002:00008f40       ??_C@_0BL@DDFFLNHI@rl32eShowPCIDev?5not?5found?6?$AA@ 1004cf40     xpcruntime:xpcimports.obj
 0002:00008f5c       ??_C@_0BB@KBCOJPFB@rl32eShowPCIInfo?$AA@ 1004cf5c     xpcruntime:xpcimports.obj
 0002:00008f70       ??_C@_0BM@IFDMAGLO@rl32eShowPCIInfo?5not?5found?6?$AA@ 1004cf70     xpcruntime:xpcimports.obj
 0002:00008f8c       ??_C@_0BA@BGPAADB@rl32eGetPCIInfo?$AA@ 1004cf8c     xpcruntime:xpcimports.obj
 0002:00008f9c       ??_C@_0BL@IGOMLDCK@rl32eGetPCIInfo?5not?5found?6?$AA@ 1004cf9c     xpcruntime:xpcimports.obj
 0002:00008fb8       ??_C@_0BG@NJPFKFDP@rl32eGetPCIInfoAtSlot?$AA@ 1004cfb8     xpcruntime:xpcimports.obj
 0002:00008fd0       ??_C@_0CB@BBKIPMLA@rl32eGetPCIInfoAtSlot?5not?5found?6@ 1004cfd0     xpcruntime:xpcimports.obj
 0002:00008ff4       ??_C@_0BH@OKBOPNFG@xpceAssignPCIInterrupt?$AA@ 1004cff4     xpcruntime:xpcimports.obj
 0002:0000900c       ??_C@_0CC@CDNDNJBJ@xpceAssignPCIInterrupt?5not?5found@ 1004d00c     xpcruntime:xpcimports.obj
 0002:00009030       ??_C@_0BB@FCHHFAAH@rl32eInitCOMPort?$AA@ 1004d030     xpcruntime:xpcimports.obj
 0002:00009044       ??_C@_0BM@DDJGKAHB@rl32eInitCOMPort?5not?5found?6?$AA@ 1004d044     xpcruntime:xpcimports.obj
 0002:00009060       ??_C@_0BC@CHEEFCP@rl32eCloseCOMPort?$AA@ 1004d060     xpcruntime:xpcimports.obj
 0002:00009074       ??_C@_0BN@KCOFELEM@rl32eCloseCOMPort?5not?5found?6?$AA@ 1004d074     xpcruntime:xpcimports.obj
 0002:00009094       ??_C@_0O@LLJGKFOG@rl32eSendChar?$AA@ 1004d094     xpcruntime:xpcimports.obj
 0002:000090a4       ??_C@_0BJ@JCJKDACJ@rl32eSendChar?5not?5found?6?$AA@ 1004d0a4     xpcruntime:xpcimports.obj
 0002:000090c0       ??_C@_0BB@OMFKCOEK@rl32eReceiveChar?$AA@ 1004d0c0     xpcruntime:xpcimports.obj
 0002:000090d4       ??_C@_0BM@HGAIOAND@rl32eReceiveChar?5not?5found?6?$AA@ 1004d0d4     xpcruntime:xpcimports.obj
 0002:000090f0       ??_C@_0BI@PKEJFHMJ@rl32eReceiveBufferCount?$AA@ 1004d0f0     xpcruntime:xpcimports.obj
 0002:00009108       ??_C@_0CD@LNMOFLAH@rl32eReceiveBufferCount?5not?5foun@ 1004d108     xpcruntime:xpcimports.obj
 0002:0000912c       ??_C@_0BA@CFIJOJPK@rl32eLineStatus?$AA@ 1004d12c     xpcruntime:xpcimports.obj
 0002:0000913c       ??_C@_0BL@PLIDKKGI@rl32eLineStatus?5not?5found?6?$AA@ 1004d13c     xpcruntime:xpcimports.obj
 0002:00009158       ??_C@_0P@MDMKIJF@rl32eSendBlock?$AA@ 1004d158     xpcruntime:xpcimports.obj
 0002:00009168       ??_C@_0BK@KNBNFIKH@rl32eSendBlock?5not?5found?6?$AA@ 1004d168     xpcruntime:xpcimports.obj
 0002:00009184       ??_C@_0BD@PCKOKHO@xpceGetSignalValue?$AA@ 1004d184     xpcruntime:xpcimports.obj
 0002:00009198       ??_C@_0BO@GCBDJHMB@xpceGetSignalValue?5not?5found?6?$AA@ 1004d198     xpcruntime:xpcimports.obj
 0002:000091b8       ??_C@_0BB@BJONJAGA@xpceSetParameter?$AA@ 1004d1b8     xpcruntime:xpcimports.obj
 0002:000091cc       ??_C@_0BM@BJIKDLHA@xpceSetParameter?5not?5found?6?$AA@ 1004d1cc     xpcruntime:xpcimports.obj
 0002:000091e8       ??_C@_0BB@GNFDFMCM@xpceGetParameter?$AA@ 1004d1e8     xpcruntime:xpcimports.obj
 0002:000091fc       ??_C@_0BM@POHNKBC@xpceGetParameter?5not?5found?6?$AA@ 1004d1fc     xpcruntime:xpcimports.obj
 0002:00009218       ??_C@_0BB@CEIJLFCD@xpceGetParamDims?$AA@ 1004d218     xpcruntime:xpcimports.obj
 0002:0000922c       ??_C@_0BM@OABDBKAO@xpceGetParamDims?5not?5found?6?$AA@ 1004d22c     xpcruntime:xpcimports.obj
 0002:00009248       ??_C@_0L@OCBLLHBM@xpceGetTET?$AA@ 1004d248     xpcruntime:xpcimports.obj
 0002:00009254       ??_C@_0BG@HNOFBOB@xpceGetTET?5not?5found?6?$AA@ 1004d254     xpcruntime:xpcimports.obj
 0002:0000926c       ??_C@_0BA@FHMIOKFL@xpceUDPOpenSend?$AA@ 1004d26c     xpcruntime:xpcimports.obj
 0002:0000927c       ??_C@_0BL@HNLPFEK@xpceUDPOpenSend?5not?5found?6?$AA@ 1004d27c     xpcruntime:xpcimports.obj
 0002:00009298       ??_C@_0BD@BCELJJJL@xpceUDPOpenReceive?$AA@ 1004d298     xpcruntime:xpcimports.obj
 0002:000092ac       ??_C@_0BO@IFKJBHKC@xpceUDPOpenReceive?5not?5found?6?$AA@ 1004d2ac     xpcruntime:xpcimports.obj
 0002:000092cc       ??_C@_0M@OFPFLJGN@xpceUDPSend?$AA@ 1004d2cc     xpcruntime:xpcimports.obj
 0002:000092d8       ??_C@_0BH@NOIKLPAB@xpceUDPSend?5not?5found?6?$AA@ 1004d2d8     xpcruntime:xpcimports.obj
 0002:000092f0       ??_C@_0P@PLFDECIN@xpceUDPReceive?$AA@ 1004d2f0     xpcruntime:xpcimports.obj
 0002:00009300       ??_C@_0BK@OPJMLDLH@xpceUDPReceive?5not?5found?6?$AA@ 1004d300     xpcruntime:xpcimports.obj
 0002:0000931c       ??_C@_0N@IEHPMFME@xpceUDPClose?$AA@ 1004d31c     xpcruntime:xpcimports.obj
 0002:0000932c       ??_C@_0BI@FHPFHECO@xpceUDPClose?5not?5found?6?$AA@ 1004d32c     xpcruntime:xpcimports.obj
 0002:00009344       ??_C@_0P@OKGNGAGH@xpcIsModelInit?$AA@ 1004d344     xpcruntime:xpcimports.obj
 0002:00009354       ??_C@_0BK@DHEMLBIM@xpcIsModelInit?5not?5found?6?$AA@ 1004d354     xpcruntime:xpcimports.obj
 0002:00009370       ??_C@_0BH@KJJLCAOJ@xpcAllocPhysicalMemory?$AA@ 1004d370     xpcruntime:xpcimports.obj
 0002:00009388       ??_C@_0CC@MOJPNHKL@xpcAllocPhysicalMemory?5not?5found@ 1004d388     xpcruntime:xpcimports.obj
 0002:000093ac       ??_C@_0BG@CBNPGAEL@xpcFreePhysicalMemory?$AA@ 1004d3ac     xpcruntime:xpcimports.obj
 0002:000093c4       ??_C@_0CB@PKJEBPOG@xpcFreePhysicalMemory?5not?5found?6@ 1004d3c4     xpcruntime:xpcimports.obj
 0002:000093e8       ??_C@_0BC@JGKNLICL@xpcGetElapsedTime?$AA@ 1004d3e8     xpcruntime:xpcimports.obj
 0002:000093fc       ??_C@_0BN@OEOAHCIO@xpcGetElapsedTime?5not?5found?6?$AA@ 1004d3fc     xpcruntime:xpcimports.obj
 0002:0000941c       ??_C@_0M@ICBLMODA@xpcBusyWait?$AA@ 1004d41c     xpcruntime:xpcimports.obj
 0002:00009428       ??_C@_0BH@FBOPECBI@xpcBusyWait?5not?5found?6?$AA@ 1004d428     xpcruntime:xpcimports.obj
 0002:00009440       ??_C@_0N@LKKJEKKA@TBCreateSpin?$AA@ 1004d440     xpcruntime:xpcimports.obj
 0002:00009450       ??_C@_0BI@FHKMLKOE@TBCreateSpin?5not?5found?6?$AA@ 1004d450     xpcruntime:xpcimports.obj
 0002:00009468       ??_C@_0N@HOAJHNBD@TBDeleteSpin?$AA@ 1004d468     xpcruntime:xpcimports.obj
 0002:00009478       ??_C@_0BI@BKCPAAG@TBDeleteSpin?5not?5found?6?$AA@ 1004d478     xpcruntime:xpcimports.obj
 0002:00009490       ??_C@_0P@DAHDDBJG@TBTakeSpinFast?$AA@ 1004d490     xpcruntime:xpcimports.obj
 0002:000094a0       ??_C@_0BK@NKAIBHGB@TBTakeSpinFast?5not?5found?6?$AA@ 1004d4a0     xpcruntime:xpcimports.obj
 0002:000094bc       ??_C@_0P@FKNAAELA@TBGiveSpinFast?$AA@ 1004d4bc     xpcruntime:xpcimports.obj
 0002:000094cc       ??_C@_0BK@KGPJBJND@TBGiveSpinFast?5not?5found?6?$AA@ 1004d4cc     xpcruntime:xpcimports.obj
 0002:000094e8       ??_C@_0BE@IIGBFDHK@xpceCreateSemaphore?$AA@ 1004d4e8     xpcruntime:xpcimports.obj
 0002:000094fc       ??_C@_0BP@KFBAFFKJ@xpceCreateSemaphore?5not?5found?6?$AA@ 1004d4fc     xpcruntime:xpcimports.obj
 0002:0000951c       ??_C@_0BC@IFNIONKJ@xpceWaitSemaphore?$AA@ 1004d51c     xpcruntime:xpcimports.obj
 0002:00009530       ??_C@_0BN@NMFAADIO@xpceWaitSemaphore?5not?5found?6?$AA@ 1004d530     xpcruntime:xpcimports.obj
 0002:00009550       ??_C@_0BE@NNDIOBKE@xpceSignalSemaphore?$AA@ 1004d550     xpcruntime:xpcimports.obj
 0002:00009564       ??_C@_0BP@LBANMHJP@xpceSignalSemaphore?5not?5found?6?$AA@ 1004d564     xpcruntime:xpcimports.obj
 0002:00009584       ??_C@_0BE@MEBEKOIM@xpceDeleteSemaphore?$AA@ 1004d584     xpcruntime:xpcimports.obj
 0002:00009598       ??_C@_0BP@OFNCKOJH@xpceDeleteSemaphore?5not?5found?6?$AA@ 1004d598     xpcruntime:xpcimports.obj
 0002:000095b8       ??_C@_0BD@MFNDMBOF@FindUsbVideoDevice?$AA@ 1004d5b8     xpcruntime:xpcimports.obj
 0002:000095cc       ??_C@_0BO@POKLDHMI@FindUsbVideoDevice?5not?5found?6?$AA@ 1004d5cc     xpcruntime:xpcimports.obj
 0002:000095ec       ??_C@_0BA@PLPAPNAB@GetVideoConfigs?$AA@ 1004d5ec     xpcruntime:xpcimports.obj
 0002:000095fc       ??_C@_0BL@DALDHKHC@GetVideoConfigs?5not?5found?6?$AA@ 1004d5fc     xpcruntime:xpcimports.obj
 0002:00009618       ??_C@_0L@GBAEMHMH@StartVideo?$AA@ 1004d618     xpcruntime:xpcimports.obj
 0002:00009624       ??_C@_0BG@HDCELEBP@StartVideo?5not?5found?6?$AA@ 1004d624     xpcruntime:xpcimports.obj
 0002:0000963c       ??_C@_0BA@FDNPOCLN@ReadFrameBuffer?$AA@ 1004d63c     xpcruntime:xpcimports.obj
 0002:0000964c       ??_C@_0BL@JHGHPNBI@ReadFrameBuffer?5not?5found?6?$AA@ 1004d64c     xpcruntime:xpcimports.obj
 0002:00009668       ??_C@_09FAHCLKAG@StopVideo?$AA@ 1004d668     xpcruntime:xpcimports.obj
 0002:00009674       ??_C@_0BF@NKGKKADL@StopVideo?5not?5found?6?$AA@ 1004d674     xpcruntime:xpcimports.obj
 0002:0000968c       ??_C@_0O@MCPKDLLL@ConvertUImage?$AA@ 1004d68c     xpcruntime:xpcimports.obj
 0002:0000969c       ??_C@_0BJ@PHJKOAFL@ConvertUImage?5not?5found?6?$AA@ 1004d69c     xpcruntime:xpcimports.obj
 0002:000096b8       ??_C@_0BD@NKCBPBJJ@CreateVideoDisplay?$AA@ 1004d6b8     xpcruntime:xpcimports.obj
 0002:000096cc       ??_C@_0BO@HPPLLNFP@CreateVideoDisplay?5not?5found?6?$AA@ 1004d6cc     xpcruntime:xpcimports.obj
 0002:000096ec       ??_C@_0BE@KJCKGPHA@DestroyVideoDisplay?$AA@ 1004d6ec     xpcruntime:xpcimports.obj
 0002:00009700       ??_C@_0BP@FMGLJAIJ@DestroyVideoDisplay?5not?5found?6?$AA@ 1004d700     xpcruntime:xpcimports.obj
 0002:00009720       ??_C@_0BC@HCMIMIDN@StartVideoDisplay?$AA@ 1004d720     xpcruntime:xpcimports.obj
 0002:00009734       ??_C@_0BN@EFIEBGOO@StartVideoDisplay?5not?5found?6?$AA@ 1004d734     xpcruntime:xpcimports.obj
 0002:00009754       ??_C@_0BB@JBBLMILG@StopVideoDisplay?$AA@ 1004d754     xpcruntime:xpcimports.obj
 0002:00009768       ??_C@_0BM@DBJBPLEL@StopVideoDisplay?5not?5found?6?$AA@ 1004d768     xpcruntime:xpcimports.obj
 0002:00009784       ??_C@_0M@MFJEGMHC@StreamVideo?$AA@ 1004d784     xpcruntime:xpcimports.obj
 0002:00009790       ??_C@_0BH@OINCDMLA@StreamVideo?5not?5found?6?$AA@ 1004d790     xpcruntime:xpcimports.obj
 0002:000097a8       ??_C@_0N@IGGLCIGE@xpceaddEvent?$AA@ 1004d7a8     xpcruntime:xpcimports.obj
 0002:000097b8       ??_C@_0BI@NHJNFMKH@xpceaddEvent?5not?5found?6?$AA@ 1004d7b8     xpcruntime:xpcimports.obj
 0002:000097d0       ??_C@_0BB@LCMHHHFN@getMemoryService?$AA@ 1004d7d0     xpcruntime:xpcimports.obj
 0002:000097e4       ??_C@_0BM@MPLCNIIE@getMemoryService?5not?5found?6?$AA@ 1004d7e4     xpcruntime:xpcimports.obj
 0002:00009800       ??_C@_0P@KIKONDKK@getCommService?$AA@ 1004d800     xpcruntime:xpcimports.obj
 0002:00009810       ??_C@_0BK@NCECBKNM@getCommService?5not?5found?6?$AA@ 1004d810     xpcruntime:xpcimports.obj
 0002:0000982c       ??_C@_0P@GDLHFECE@getStatusFlags?$AA@ 1004d82c     xpcruntime:xpcimports.obj
 0002:0000983c       ??_C@_0BK@NEKDLJHG@getStatusFlags?5not?5found?6?$AA@ 1004d83c     xpcruntime:xpcimports.obj
 0002:00009858       ??_C@_0BL@CDFCLKOL@startToAsyncQueueTgtAppSvc?$AA@ 1004d858     xpcruntime:xpcimports.obj
 0002:00009874       ??_C@_0CG@JGOFFKEL@startToAsyncQueueTgtAppSvc?5not?5f@ 1004d874     xpcruntime:xpcimports.obj
 0002:0000989c       ??_C@_0BP@IJNGPPPE@terminateToAsyncQueueTgtAppSvc?$AA@ 1004d89c     xpcruntime:xpcimports.obj
 0002:000098bc       ??_C@_0CK@NDEMAMKF@terminateToAsyncQueueTgtAppSvc?5n@ 1004d8bc     xpcruntime:xpcimports.obj
 0002:000098e8       ??_C@_0BK@IDACEHAO@sendToAsyncQueueTgtAppSvc?$AA@ 1004d8e8     xpcruntime:xpcimports.obj
 0002:00009904       ??_C@_0CF@PNCKPEHN@sendToAsyncQueueTgtAppSvc?5not?5fo@ 1004d904     xpcruntime:xpcimports.obj
 0002:0000992c       ??_C@_0BN@HJOHIFOM@xpceGetIntTimerGranularityNS?$AA@ 1004d92c     xpcruntime:xpcimports.obj
 0002:0000994c       ??_C@_0CI@OADDPMKB@xpceGetIntTimerGranularityNS?5not@ 1004d94c     xpcruntime:xpcimports.obj
 0002:00009974       ??_C@_0BG@CCHICKPN@slrteSetStepSizeDelta?$AA@ 1004d974     xpcruntime:xpcimports.obj
 0002:0000998c       ??_C@_0CB@MKHINEIJ@slrteSetStepSizeDelta?5not?5found?6@ 1004d98c     xpcruntime:xpcimports.obj
 0002:000099b0       ??_C@_0BI@CLNBLDKJ@slrteGetCurrentStepSize?$AA@ 1004d9b0     xpcruntime:xpcimports.obj
 0002:000099c8       ??_C@_0CD@GIOJPGJA@slrteGetCurrentStepSize?5not?5foun@ 1004d9c8     xpcruntime:xpcimports.obj
 0002:000099ec       ??_C@_0BE@FCLCBOC@registerPTPTimeRead?$AA@ 1004d9ec     xpcruntime:xpcimports.obj
 0002:00009a00       ??_C@_0BP@LHPKAJIP@registerPTPTimeRead?5not?5found?6?$AA@ 1004da00     xpcruntime:xpcimports.obj
 0002:00009a20       ??_C@_0BG@KIGCDDJI@unRegisterPTPTimeRead?$AA@ 1004da20     xpcruntime:xpcimports.obj
 0002:00009a38       ??_C@_0CB@MLFFBFCM@unRegisterPTPTimeRead?5not?5found?6@ 1004da38     xpcruntime:xpcimports.obj
 0002:00009a5c       ??_C@_0BB@IPMDDBHK@slTestInitialize?$AA@ 1004da5c     xpcruntime:xpcimports.obj
 0002:00009a70       ??_C@_0BM@LAJFCCJH@slTestInitialize?5not?5found?6?$AA@ 1004da70     xpcruntime:xpcimports.obj
 0002:00009a8c       ??_C@_0BF@OOMPMEBC@slTestLogAssessments?$AA@ 1004da8c     xpcruntime:xpcimports.obj
 0002:00009aa4       ??_C@_0CA@FGJCEBAG@slTestLogAssessments?5not?5found?6?$AA@ 1004daa4     xpcruntime:xpcimports.obj
 0002:00009ac4       ??_C@_0BB@HJHKONHO@slTestEvalOnFail?$AA@ 1004dac4     xpcruntime:xpcimports.obj
 0002:00009ad8       ??_C@_0BM@JIKCFFNJ@slTestEvalOnFail?5not?5found?6?$AA@ 1004dad8     xpcruntime:xpcimports.obj
 0002:00009af4       ??_C@_0BA@LBHLABFP@slTestTerminate?$AA@ 1004daf4     xpcruntime:xpcimports.obj
 0002:00009b04       ??_C@_0BL@EMFGKAPA@slTestTerminate?5not?5found?6?$AA@ 1004db04     xpcruntime:xpcimports.obj
 0002:00009b20       ??_C@_0BE@JPNPBBEO@slTestRegAssessment?$AA@ 1004db20     xpcruntime:xpcimports.obj
 0002:00009b34       ??_C@_0BP@FBDEJJJH@slTestRegAssessment?5not?5found?6?$AA@ 1004db34     xpcruntime:xpcimports.obj
 0002:0000ac80       __FPinit                   1004ec80     LIBCMT:fpinit.obj
 0002:0000ac8c       ??_C@_1BI@BGOHAHKC@?$AAm?$AAs?$AAc?$AAo?$AAr?$AAe?$AAe?$AA?4?$AAd?$AAl?$AAl?$AA?$AA@ 1004ec8c     LIBCMT:crt0dat.obj
 0002:0000aca4       ??_C@_0P@MIGLKIOC@CorExitProcess?$AA@ 1004eca4     LIBCMT:crt0dat.obj
 0002:0000ad44       ??_C@_17LGKOMLJ@?$AA?4?$AA?4?$AA?4?$AA?$AA@ 1004ed44     LIBCMT:wassert.obj
 0002:0000ad4c       ??_C@_13LBAGMAIH@?$AA?6?$AA?$AA@ 1004ed4c     LIBCMT:wassert.obj
 0002:0000ad50       ??_C@_15IABLJNFO@?$AA?6?$AA?6?$AA?$AA@ 1004ed50     LIBCMT:wassert.obj
 0002:0000ad58       ??_C@_1CE@OJBNHDMO@?$AAA?$AAs?$AAs?$AAe?$AAr?$AAt?$AAi?$AAo?$AAn?$AA?5?$AAf?$AAa?$AAi?$AAl?$AAe?$AAd?$AA?$CB?$AA?$AA@ 1004ed58     LIBCMT:wassert.obj
 0002:0000ad7c       ??_C@_1BE@PHKBBGE@?$AAP?$AAr?$AAo?$AAg?$AAr?$AAa?$AAm?$AA?3?$AA?5?$AA?$AA@ 1004ed7c     LIBCMT:wassert.obj
 0002:0000ad90       ??_C@_1CO@EAEJAADC@?$AA?$DM?$AAp?$AAr?$AAo?$AAg?$AAr?$AAa?$AAm?$AA?5?$AAn?$AAa?$AAm?$AAe?$AA?5?$AAu?$AAn?$AAk?$AAn?$AAo?$AAw?$AAn?$AA?$DO?$AA?$AA@ 1004ed90     LIBCMT:wassert.obj
 0002:0000adc0       ??_C@_1O@HEMHKNDC@?$AAF?$AAi?$AAl?$AAe?$AA?3?$AA?5?$AA?$AA@ 1004edc0     LIBCMT:wassert.obj
 0002:0000add0       ??_C@_1O@KCAFKHJE@?$AAL?$AAi?$AAn?$AAe?$AA?3?$AA?5?$AA?$AA@ 1004edd0     LIBCMT:wassert.obj
 0002:0000ade0       ??_C@_1BK@PEDCIPMA@?$AAE?$AAx?$AAp?$AAr?$AAe?$AAs?$AAs?$AAi?$AAo?$AAn?$AA?3?$AA?5?$AA?$AA@ 1004ede0     LIBCMT:wassert.obj
 0002:0000ae00       ??_C@_1OA@EGMLFBHJ@?$AAF?$AAo?$AAr?$AA?5?$AAi?$AAn?$AAf?$AAo?$AAr?$AAm?$AAa?$AAt?$AAi?$AAo?$AAn?$AA?5?$AAo?$AAn?$AA?5?$AAh?$AAo?$AAw?$AA?5?$AAy?$AAo?$AAu?$AAr?$AA?5?$AAp?$AAr?$AAo?$AAg@ 1004ee00     LIBCMT:wassert.obj
 0002:0000aee0       ??_C@_1HK@POCJMFGK@?$AA?$CI?$AAP?$AAr?$AAe?$AAs?$AAs?$AA?5?$AAR?$AAe?$AAt?$AAr?$AAy?$AA?5?$AAt?$AAo?$AA?5?$AAd?$AAe?$AAb?$AAu?$AAg?$AA?5?$AAt?$AAh?$AAe?$AA?5?$AAa?$AAp?$AAp?$AAl?$AAi?$AAc@ 1004eee0     LIBCMT:wassert.obj
 0002:0000af60       ??_C@_1EK@MBDPDCGA@?$AAM?$AAi?$AAc?$AAr?$AAo?$AAs?$AAo?$AAf?$AAt?$AA?5?$AAV?$AAi?$AAs?$AAu?$AAa?$AAl?$AA?5?$AAC?$AA?$CL?$AA?$CL?$AA?5?$AAR?$AAu?$AAn?$AAt?$AAi?$AAm?$AAe?$AA?5?$AAL?$AAi?$AAb@ 1004ef60     LIBCMT:wassert.obj
 0002:0000afac       __pRawDllMain              1004efac     LIBCMT:dllcrt0.obj
 0002:0000afac       __pDefaultRawDllMain       1004efac     LIBCMT:dllcrt0.obj
 0002:0000afb0       ?ProcessDetach@NativeDll@<CrtImplementationDetails>@@0IB 1004efb0     LIBCMT:handler.obj
 0002:0000afb4       ?ProcessAttach@NativeDll@<CrtImplementationDetails>@@0IB 1004efb4     LIBCMT:handler.obj
 0002:0000afb8       ?ThreadAttach@NativeDll@<CrtImplementationDetails>@@0IB 1004efb8     LIBCMT:handler.obj
 0002:0000afbc       ?ThreadDetach@NativeDll@<CrtImplementationDetails>@@0IB 1004efbc     LIBCMT:handler.obj
 0002:0000afc0       ?ProcessVerifier@NativeDll@<CrtImplementationDetails>@@0IB 1004efc0     LIBCMT:handler.obj
 0002:0000b080       ??_C@_1FK@PGACCAFB@?$AAR?$AA6?$AA0?$AA0?$AA2?$AA?$AN?$AA?6?$AA?9?$AA?5?$AAf?$AAl?$AAo?$AAa?$AAt?$AAi?$AAn?$AAg?$AA?5?$AAp?$AAo?$AAi?$AAn?$AAt?$AA?5?$AAs?$AAu?$AAp?$AAp?$AAo?$AAr?$AAt?$AA?5@ 1004f080     LIBCMT:crt0msg.obj
 0002:0000b0e0       ??_C@_1FE@LLNEDJMD@?$AAR?$AA6?$AA0?$AA0?$AA8?$AA?$AN?$AA?6?$AA?9?$AA?5?$AAn?$AAo?$AAt?$AA?5?$AAe?$AAn?$AAo?$AAu?$AAg?$AAh?$AA?5?$AAs?$AAp?$AAa?$AAc?$AAe?$AA?5?$AAf?$AAo?$AAr?$AA?5?$AAa?$AAr@ 1004f0e0     LIBCMT:crt0msg.obj
 0002:0000b138       ??_C@_1FI@HONFMGBI@?$AAR?$AA6?$AA0?$AA0?$AA9?$AA?$AN?$AA?6?$AA?9?$AA?5?$AAn?$AAo?$AAt?$AA?5?$AAe?$AAn?$AAo?$AAu?$AAg?$AAh?$AA?5?$AAs?$AAp?$AAa?$AAc?$AAe?$AA?5?$AAf?$AAo?$AAr?$AA?5?$AAe?$AAn@ 1004f138     LIBCMT:crt0msg.obj
 0002:0000b190       ??_C@_1EG@BEHAGFJD@?$AAR?$AA6?$AA0?$AA1?$AA0?$AA?$AN?$AA?6?$AA?9?$AA?5?$AAa?$AAb?$AAo?$AAr?$AAt?$AA?$CI?$AA?$CJ?$AA?5?$AAh?$AAa?$AAs?$AA?5?$AAb?$AAe?$AAe?$AAn?$AA?5?$AAc?$AAa?$AAl?$AAl?$AAe?$AAd@ 1004f190     LIBCMT:crt0msg.obj
 0002:0000b1d8       ??_C@_1FI@LOGNIKDM@?$AAR?$AA6?$AA0?$AA1?$AA6?$AA?$AN?$AA?6?$AA?9?$AA?5?$AAn?$AAo?$AAt?$AA?5?$AAe?$AAn?$AAo?$AAu?$AAg?$AAh?$AA?5?$AAs?$AAp?$AAa?$AAc?$AAe?$AA?5?$AAf?$AAo?$AAr?$AA?5?$AAt?$AAh@ 1004f1d8     LIBCMT:crt0msg.obj
 0002:0000b230       ??_C@_1FK@BEOGODMC@?$AAR?$AA6?$AA0?$AA1?$AA7?$AA?$AN?$AA?6?$AA?9?$AA?5?$AAu?$AAn?$AAe?$AAx?$AAp?$AAe?$AAc?$AAt?$AAe?$AAd?$AA?5?$AAm?$AAu?$AAl?$AAt?$AAi?$AAt?$AAh?$AAr?$AAe?$AAa?$AAd?$AA?5@ 1004f230     LIBCMT:crt0msg.obj
 0002:0000b290       ??_C@_1EC@JIBHAOPH@?$AAR?$AA6?$AA0?$AA1?$AA8?$AA?$AN?$AA?6?$AA?9?$AA?5?$AAu?$AAn?$AAe?$AAx?$AAp?$AAe?$AAc?$AAt?$AAe?$AAd?$AA?5?$AAh?$AAe?$AAa?$AAp?$AA?5?$AAe?$AAr?$AAr?$AAo?$AAr?$AA?$AN?$AA?6@ 1004f290     LIBCMT:crt0msg.obj
 0002:0000b2d8       ??_C@_1FC@ECHBIFBC@?$AAR?$AA6?$AA0?$AA1?$AA9?$AA?$AN?$AA?6?$AA?9?$AA?5?$AAu?$AAn?$AAa?$AAb?$AAl?$AAe?$AA?5?$AAt?$AAo?$AA?5?$AAo?$AAp?$AAe?$AAn?$AA?5?$AAc?$AAo?$AAn?$AAs?$AAo?$AAl?$AAe?$AA?5@ 1004f2d8     LIBCMT:crt0msg.obj
 0002:0000b330       ??_C@_1GK@FHCKBEFA@?$AAR?$AA6?$AA0?$AA2?$AA4?$AA?$AN?$AA?6?$AA?9?$AA?5?$AAn?$AAo?$AAt?$AA?5?$AAe?$AAn?$AAo?$AAu?$AAg?$AAh?$AA?5?$AAs?$AAp?$AAa?$AAc?$AAe?$AA?5?$AAf?$AAo?$AAr?$AA?5?$AA_?$AAo@ 1004f330     LIBCMT:crt0msg.obj
 0002:0000b3a0       ??_C@_1EM@MAADIHMB@?$AAR?$AA6?$AA0?$AA2?$AA5?$AA?$AN?$AA?6?$AA?9?$AA?5?$AAp?$AAu?$AAr?$AAe?$AA?5?$AAv?$AAi?$AAr?$AAt?$AAu?$AAa?$AAl?$AA?5?$AAf?$AAu?$AAn?$AAc?$AAt?$AAi?$AAo?$AAn?$AA?5?$AAc@ 1004f3a0     LIBCMT:crt0msg.obj
 0002:0000b3f0       ??_C@_1GK@MCAAGJMO@?$AAR?$AA6?$AA0?$AA2?$AA6?$AA?$AN?$AA?6?$AA?9?$AA?5?$AAn?$AAo?$AAt?$AA?5?$AAe?$AAn?$AAo?$AAu?$AAg?$AAh?$AA?5?$AAs?$AAp?$AAa?$AAc?$AAe?$AA?5?$AAf?$AAo?$AAr?$AA?5?$AAs?$AAt@ 1004f3f0     LIBCMT:crt0msg.obj
 0002:0000b460       ??_C@_1GK@MFGOKLAG@?$AAR?$AA6?$AA0?$AA2?$AA7?$AA?$AN?$AA?6?$AA?9?$AA?5?$AAn?$AAo?$AAt?$AA?5?$AAe?$AAn?$AAo?$AAu?$AAg?$AAh?$AA?5?$AAs?$AAp?$AAa?$AAc?$AAe?$AA?5?$AAf?$AAo?$AAr?$AA?5?$AAl?$AAo@ 1004f460     LIBCMT:crt0msg.obj
 0002:0000b4d0       ??_C@_1EK@HHFLMAOL@?$AAR?$AA6?$AA0?$AA2?$AA8?$AA?$AN?$AA?6?$AA?9?$AA?5?$AAu?$AAn?$AAa?$AAb?$AAl?$AAe?$AA?5?$AAt?$AAo?$AA?5?$AAi?$AAn?$AAi?$AAt?$AAi?$AAa?$AAl?$AAi?$AAz?$AAe?$AA?5?$AAh?$AAe@ 1004f4d0     LIBCMT:crt0msg.obj
 0002:0000b51c       ??_C@_1DO@BMFCDCD@?$AAR?$AA6?$AA0?$AA3?$AA0?$AA?$AN?$AA?6?$AA?9?$AA?5?$AAC?$AAR?$AAT?$AA?5?$AAn?$AAo?$AAt?$AA?5?$AAi?$AAn?$AAi?$AAt?$AAi?$AAa?$AAl?$AAi?$AAz?$AAe?$AAd?$AA?$AN?$AA?6?$AA?$AA@ 1004f51c     LIBCMT:crt0msg.obj
 0002:0000b560       ??_C@_1MG@ENCOOIDF@?$AAR?$AA6?$AA0?$AA3?$AA1?$AA?$AN?$AA?6?$AA?9?$AA?5?$AAA?$AAt?$AAt?$AAe?$AAm?$AAp?$AAt?$AA?5?$AAt?$AAo?$AA?5?$AAi?$AAn?$AAi?$AAt?$AAi?$AAa?$AAl?$AAi?$AAz?$AAe?$AA?5?$AAt@ 1004f560     LIBCMT:crt0msg.obj
 0002:0000b628       ??_C@_1GG@GOPILAJP@?$AAR?$AA6?$AA0?$AA3?$AA2?$AA?$AN?$AA?6?$AA?9?$AA?5?$AAn?$AAo?$AAt?$AA?5?$AAe?$AAn?$AAo?$AAu?$AAg?$AAh?$AA?5?$AAs?$AAp?$AAa?$AAc?$AAe?$AA?5?$AAf?$AAo?$AAr?$AA?5?$AAl?$AAo@ 1004f628     LIBCMT:crt0msg.obj
 0002:0000b690       ??_C@_1BOO@KGEDBGAJ@?$AAR?$AA6?$AA0?$AA3?$AA3?$AA?$AN?$AA?6?$AA?9?$AA?5?$AAA?$AAt?$AAt?$AAe?$AAm?$AAp?$AAt?$AA?5?$AAt?$AAo?$AA?5?$AAu?$AAs?$AAe?$AA?5?$AAM?$AAS?$AAI?$AAL?$AA?5?$AAc?$AAo?$AAd@ 1004f690     LIBCMT:crt0msg.obj
 0002:0000b880       ??_C@_1GG@MKFPEKFO@?$AAR?$AA6?$AA0?$AA3?$AA4?$AA?$AN?$AA?6?$AA?9?$AA?5?$AAi?$AAn?$AAc?$AAo?$AAn?$AAs?$AAi?$AAs?$AAt?$AAe?$AAn?$AAt?$AA?5?$AAo?$AAn?$AAe?$AAx?$AAi?$AAt?$AA?5?$AAb?$AAe?$AAg@ 1004f880     LIBCMT:crt0msg.obj
 0002:0000b8e8       ??_C@_1BO@BFCDCGC@?$AAD?$AAO?$AAM?$AAA?$AAI?$AAN?$AA?5?$AAe?$AAr?$AAr?$AAo?$AAr?$AA?$AN?$AA?6?$AA?$AA@ 1004f8e8     LIBCMT:crt0msg.obj
 0002:0000b908       ??_C@_1BK@KMOMNAAI@?$AAS?$AAI?$AAN?$AAG?$AA?5?$AAe?$AAr?$AAr?$AAo?$AAr?$AA?$AN?$AA?6?$AA?$AA@ 1004f908     LIBCMT:crt0msg.obj
 0002:0000b924       ??_C@_1BM@JBBEPPHI@?$AAT?$AAL?$AAO?$AAS?$AAS?$AA?5?$AAe?$AAr?$AAr?$AAo?$AAr?$AA?$AN?$AA?6?$AA?$AA@ 1004f924     LIBCMT:crt0msg.obj
 0002:0000b940       ??_C@_15JNBOKNOG@?$AA?$AN?$AA?6?$AA?$AA@ 1004f940     LIBCMT:crt0msg.obj
 0002:0000b948       ??_C@_1BO@BKOMIGKJ@?$AAr?$AAu?$AAn?$AAt?$AAi?$AAm?$AAe?$AA?5?$AAe?$AAr?$AAr?$AAo?$AAr?$AA?5?$AA?$AA@ 1004f948     LIBCMT:crt0msg.obj
 0002:0000b968       ??_C@_1DE@JNGNBFGO@?$AAR?$AAu?$AAn?$AAt?$AAi?$AAm?$AAe?$AA?5?$AAE?$AAr?$AAr?$AAo?$AAr?$AA?$CB?$AA?6?$AA?6?$AAP?$AAr?$AAo?$AAg?$AAr?$AAa?$AAm?$AA?3?$AA?5?$AA?$AA@ 1004f968     LIBCMT:crt0msg.obj
 0002:0000b99c       ??_C@_06OJHGLDPL@?$CInull?$CJ?$AA@ 1004f99c     LIBCMT:output.obj
 0002:0000b9a4       ??_C@_1O@CEDCILHN@?$AA?$CI?$AAn?$AAu?$AAl?$AAl?$AA?$CJ?$AA?$AA@ 1004f9a4     LIBCMT:output.obj
 0002:0000b9b8       ___lookuptable             1004f9b8     LIBCMT:output.obj
 0002:0000ba14       ??_C@_05KLBDPFGC@e?$CL000?$AA@ 1004fa14     LIBCMT:cvt.obj
 0002:0000ba1c       ??_C@_1BK@MGMFAEKH@?$AAk?$AAe?$AAr?$AAn?$AAe?$AAl?$AA3?$AA2?$AA?4?$AAd?$AAl?$AAl?$AA?$AA@ 1004fa1c     LIBCMT:winapisupp.obj
 0002:0000ba38       ??_C@_08KNHFBNJ@FlsAlloc?$AA@ 1004fa38     LIBCMT:winapisupp.obj
 0002:0000ba44       ??_C@_07PEJMOBNF@FlsFree?$AA@ 1004fa44     LIBCMT:winapisupp.obj
 0002:0000ba4c       ??_C@_0M@GDNOONDI@FlsGetValue?$AA@ 1004fa4c     LIBCMT:winapisupp.obj
 0002:0000ba58       ??_C@_0M@JCPCPOEF@FlsSetValue?$AA@ 1004fa58     LIBCMT:winapisupp.obj
 0002:0000ba64       ??_C@_0BM@HCFOFFN@InitializeCriticalSectionEx?$AA@ 1004fa64     LIBCMT:winapisupp.obj
 0002:0000ba80       ??_C@_0P@DLHPPCNH@CreateEventExW?$AA@ 1004fa80     LIBCMT:winapisupp.obj
 0002:0000ba90       ??_C@_0BD@KIEEOEEH@CreateSemaphoreExW?$AA@ 1004fa90     LIBCMT:winapisupp.obj
 0002:0000baa4       ??_C@_0BI@BKLFFAPO@SetThreadStackGuarantee?$AA@ 1004faa4     LIBCMT:winapisupp.obj
 0002:0000babc       ??_C@_0BG@OGFAJCKC@CreateThreadpoolTimer?$AA@ 1004fabc     LIBCMT:winapisupp.obj
 0002:0000bad4       ??_C@_0BD@LPLEMMDI@SetThreadpoolTimer?$AA@ 1004fad4     LIBCMT:winapisupp.obj
 0002:0000bae8       ??_C@_0CA@FMNJENH@WaitForThreadpoolTimerCallbacks?$AA@ 1004fae8     LIBCMT:winapisupp.obj
 0002:0000bb08       ??_C@_0BF@DCFCCNOC@CloseThreadpoolTimer?$AA@ 1004fb08     LIBCMT:winapisupp.obj
 0002:0000bb20       ??_C@_0BF@FLABGKKM@CreateThreadpoolWait?$AA@ 1004fb20     LIBCMT:winapisupp.obj
 0002:0000bb38       ??_C@_0BC@MGCOHNA@SetThreadpoolWait?$AA@ 1004fb38     LIBCMT:winapisupp.obj
 0002:0000bb4c       ??_C@_0BE@OCIOMIMP@CloseThreadpoolWait?$AA@ 1004fb4c     LIBCMT:winapisupp.obj
 0002:0000bb60       ??_C@_0BJ@LKGHFHBO@FlushProcessWriteBuffers?$AA@ 1004fb60     LIBCMT:winapisupp.obj
 0002:0000bb7c       ??_C@_0BP@KALKKPMO@FreeLibraryWhenCallbackReturns?$AA@ 1004fb7c     LIBCMT:winapisupp.obj
 0002:0000bb9c       ??_C@_0BK@DFNBACLA@GetCurrentProcessorNumber?$AA@ 1004fb9c     LIBCMT:winapisupp.obj
 0002:0000bbb8       ??_C@_0BP@KHGALBC@GetLogicalProcessorInformation?$AA@ 1004fbb8     LIBCMT:winapisupp.obj
 0002:0000bbd8       ??_C@_0BE@FKKLLFLM@CreateSymbolicLinkW?$AA@ 1004fbd8     LIBCMT:winapisupp.obj
 0002:0000bbec       ??_C@_0BJ@OHNKDLIJ@SetDefaultDllDirectories?$AA@ 1004fbec     LIBCMT:winapisupp.obj
 0002:0000bc08       ??_C@_0BE@LJANKFHF@EnumSystemLocalesEx?$AA@ 1004fc08     LIBCMT:winapisupp.obj
 0002:0000bc1c       ??_C@_0BA@IHGNDAEB@CompareStringEx?$AA@ 1004fc1c     LIBCMT:winapisupp.obj
 0002:0000bc2c       ??_C@_0BA@EPCJIIPD@GetDateFormatEx?$AA@ 1004fc2c     LIBCMT:winapisupp.obj
 0002:0000bc3c       ??_C@_0BA@ONOKGCMP@GetLocaleInfoEx?$AA@ 1004fc3c     LIBCMT:winapisupp.obj
 0002:0000bc4c       ??_C@_0BA@CIJJKCJJ@GetTimeFormatEx?$AA@ 1004fc4c     LIBCMT:winapisupp.obj
 0002:0000bc5c       ??_C@_0BJ@PBCCBIPI@GetUserDefaultLocaleName?$AA@ 1004fc5c     LIBCMT:winapisupp.obj
 0002:0000bc78       ??_C@_0BC@CELBKLLA@IsValidLocaleName?$AA@ 1004fc78     LIBCMT:winapisupp.obj
 0002:0000bc8c       ??_C@_0O@KKBNKAPF@LCMapStringEx?$AA@ 1004fc8c     LIBCMT:winapisupp.obj
 0002:0000bc9c       ??_C@_0BE@JOGNEJCI@GetCurrentPackageId?$AA@ 1004fc9c     LIBCMT:winapisupp.obj
 0002:0000bcb0       ??_C@_0P@CDHHOHKP@GetTickCount64?$AA@ 1004fcb0     LIBCMT:winapisupp.obj
 0002:0000bcc0       ??_C@_0BO@KPCLFDJJ@GetFileInformationByHandleExW?$AA@ 1004fcc0     LIBCMT:winapisupp.obj
 0002:0000bce0       ??_C@_0BM@MHIDLABK@SetFileInformationByHandleW?$AA@ 1004fce0     LIBCMT:winapisupp.obj
 0002:0000bcfc       ??_C@_1BK@GAEMIDIL@?$AAA?$AAD?$AAV?$AAA?$AAP?$AAI?$AA3?$AA2?$AA?4?$AAD?$AAL?$AAL?$AA?$AA@ 1004fcfc     LIBCMT:rand_s.obj
 0002:0000bd18       ??_C@_0BC@JEAENNKH@SystemFunction036?$AA@ 1004fd18     LIBCMT:rand_s.obj
 0002:0000bd3c       ??_C@_1M@HPNHIDJI@?$AAj?$AAa?$AA?9?$AAJ?$AAP?$AA?$AA@ 1004fd3c     LIBCMT:mbctype.obj
 0002:0000bd48       ??_C@_1M@BIBDDEMK@?$AAz?$AAh?$AA?9?$AAC?$AAN?$AA?$AA@ 1004fd48     LIBCMT:mbctype.obj
 0002:0000bd54       ??_C@_1M@JLOOOEGK@?$AAk?$AAo?$AA?9?$AAK?$AAR?$AA?$AA@ 1004fd54     LIBCMT:mbctype.obj
 0002:0000bd60       ??_C@_1M@CLNBBOPM@?$AAz?$AAh?$AA?9?$AAT?$AAW?$AA?$AA@ 1004fd60     LIBCMT:mbctype.obj
 0002:0000bd8c       ??_C@_04FJHINJAO@tanh?$AA@ 1004fd8c     LIBCMT:fpexcept.obj
 0002:0000bd94       ??_C@_04FIHNOPOL@asin?$AA@ 1004fd94     LIBCMT:fpexcept.obj
 0002:0000bd9c       ??_C@_04PDIFKINK@acos?$AA@ 1004fd9c     LIBCMT:fpexcept.obj
 0002:0000bda4       ??_C@_04MLLJIGOK@atan?$AA@ 1004fda4     LIBCMT:fpexcept.obj
 0002:0000bdac       ??_C@_05KNGEOGJB@atan2?$AA@ 1004fdac     LIBCMT:fpexcept.obj
 0002:0000bdb4       ??_C@_04EIAKFFMI@sqrt?$AA@ 1004fdb4     LIBCMT:fpexcept.obj
 0002:0000bdbc       ??_C@_03BLEJJJBH@sin?$AA@  1004fdbc     LIBCMT:fpexcept.obj
 0002:0000bdc0       ??_C@_03LALBNOCG@cos?$AA@  1004fdc0     LIBCMT:fpexcept.obj
 0002:0000bdc4       ??_C@_03IIINPABG@tan?$AA@  1004fdc4     LIBCMT:fpexcept.obj
 0002:0000bdc8       ??_C@_04GFPJNGEK@ceil?$AA@ 1004fdc8     LIBCMT:fpexcept.obj
 0002:0000bdd0       ??_C@_05PBJFFIGL@floor?$AA@ 1004fdd0     LIBCMT:fpexcept.obj
 0002:0000bdd8       ??_C@_04ODHECPBC@fabs?$AA@ 1004fdd8     LIBCMT:fpexcept.obj
 0002:0000bde0       ??_C@_04EHEDPDJG@modf?$AA@ 1004fde0     LIBCMT:fpexcept.obj
 0002:0000bde8       ??_C@_05CEJMAHNP@ldexp?$AA@ 1004fde8     LIBCMT:fpexcept.obj
 0002:0000bdf0       ??_C@_05KBKMEMPO@_cabs?$AA@ 1004fdf0     LIBCMT:fpexcept.obj
 0002:0000bdf8       ??_C@_06MEIMCGCF@_hypot?$AA@ 1004fdf8     LIBCMT:fpexcept.obj
 0002:0000be00       ??_C@_04KEPJIHGP@fmod?$AA@ 1004fe00     LIBCMT:fpexcept.obj
 0002:0000be08       ??_C@_05GKKHEGJL@frexp?$AA@ 1004fe08     LIBCMT:fpexcept.obj
 0002:0000be10       ??_C@_03MJLDFKDL@_y0?$AA@  1004fe10     LIBCMT:fpexcept.obj
 0002:0000be14       ??_C@_03NAKIGLHK@_y1?$AA@  1004fe14     LIBCMT:fpexcept.obj
 0002:0000be18       ??_C@_03ONILCKOB@_yn?$AA@  1004fe18     LIBCMT:fpexcept.obj
 0002:0000be1c       ??_C@_05JGDBENOH@_logb?$AA@ 1004fe1c     LIBCMT:fpexcept.obj
 0002:0000be24       ??_C@_0L@KDOEJCKC@_nextafter?$AA@ 1004fe24     LIBCMT:fpexcept.obj
 0002:0000be30       ??_C@_03KHJOGHMM@exp?$AA@  1004fe30     LIBCMT:fpexcept.obj
 0002:0000be34       ??_C@_03JGHBODFD@pow?$AA@  1004fe34     LIBCMT:fpexcept.obj
 0002:0000be38       ??_C@_03MGHMBJCF@log?$AA@  1004fe38     LIBCMT:fpexcept.obj
 0002:0000be3c       ??_C@_05HGHHAHAP@log10?$AA@ 1004fe3c     LIBCMT:fpexcept.obj
 0002:0000be44       ??_C@_04COOMCNPB@sinh?$AA@ 1004fe44     LIBCMT:fpexcept.obj
 0002:0000be4c       ??_C@_04HPJJNFIM@cosh?$AA@ 1004fe4c     LIBCMT:fpexcept.obj
 0002:0000be54       ??_C@_1BG@GOEBHBDC@?$AAU?$AAS?$AAE?$AAR?$AA3?$AA2?$AA?4?$AAD?$AAL?$AAL?$AA?$AA@ 1004fe54     LIBCMT:crtmboxw.obj
 0002:0000be6c       ??_C@_0M@DLDCCGNP@MessageBoxW?$AA@ 1004fe6c     LIBCMT:crtmboxw.obj
 0002:0000be78       ??_C@_0BA@HNOPNCHB@GetActiveWindow?$AA@ 1004fe78     LIBCMT:crtmboxw.obj
 0002:0000be88       ??_C@_0BD@HHGDFDBJ@GetLastActivePopup?$AA@ 1004fe88     LIBCMT:crtmboxw.obj
 0002:0000be9c       ??_C@_0BK@DEKFELLI@GetUserObjectInformationW?$AA@ 1004fe9c     LIBCMT:crtmboxw.obj
 0002:0000beb8       ??_C@_0BI@DFKBFLJE@GetProcessWindowStation?$AA@ 1004feb8     LIBCMT:crtmboxw.obj
 0002:0000bed0       __XcptActTab               1004fed0     LIBCMT:winxfltr.obj
 0002:0000bf60       __XcptActTabCount          1004ff60     LIBCMT:winxfltr.obj
 0002:0000bf64       __XcptActTabSize           1004ff64     LIBCMT:winxfltr.obj
 0002:0000bf68       __First_FPE_Indx           1004ff68     LIBCMT:winxfltr.obj
 0002:0000bf6c       __Num_FPE                  1004ff6c     LIBCMT:winxfltr.obj
 0002:0000bf70       ___lookuptable_s           1004ff70     LIBCMT:outputs.obj
 0002:0000bfcc       ??_C@_03KOEHGMDN@Sun?$AA@  1004ffcc     LIBCMT:nlsdata.obj
 0002:0000bfd0       ??_C@_03PDAGKDH@Mon?$AA@   1004ffd0     LIBCMT:nlsdata.obj
 0002:0000bfd4       ??_C@_03NAGEINEP@Tue?$AA@  1004ffd4     LIBCMT:nlsdata.obj
 0002:0000bfd8       ??_C@_03MHOMLAJA@Wed?$AA@  1004ffd8     LIBCMT:nlsdata.obj
 0002:0000bfdc       ??_C@_03IOFIKPDN@Thu?$AA@  1004ffdc     LIBCMT:nlsdata.obj
 0002:0000bfe0       ??_C@_03IDIOELNC@Fri?$AA@  1004ffe0     LIBCMT:nlsdata.obj
 0002:0000bfe4       ??_C@_03FEFJNEK@Sat?$AA@   1004ffe4     LIBCMT:nlsdata.obj
 0002:0000bfe8       ??_C@_06OOPIFAJ@Sunday?$AA@ 1004ffe8     LIBCMT:nlsdata.obj
 0002:0000bff0       ??_C@_06JLEDEDGH@Monday?$AA@ 1004fff0     LIBCMT:nlsdata.obj
 0002:0000bff8       ??_C@_07BAAGCFCM@Tuesday?$AA@ 1004fff8     LIBCMT:nlsdata.obj
 0002:0000c000       ??_C@_09DLIGFAKA@Wednesday?$AA@ 10050000     LIBCMT:nlsdata.obj
 0002:0000c00c       ??_C@_08HACCIKIA@Thursday?$AA@ 1005000c     LIBCMT:nlsdata.obj
 0002:0000c018       ??_C@_06JECMNKMI@Friday?$AA@ 10050018     LIBCMT:nlsdata.obj
 0002:0000c020       ??_C@_08INBOOONO@Saturday?$AA@ 10050020     LIBCMT:nlsdata.obj
 0002:0000c02c       ??_C@_03JIHJHPIE@Jan?$AA@  1005002c     LIBCMT:nlsdata.obj
 0002:0000c030       ??_C@_03HJBDCHOM@Feb?$AA@  10050030     LIBCMT:nlsdata.obj
 0002:0000c034       ??_C@_03ODNJBKGA@Mar?$AA@  10050034     LIBCMT:nlsdata.obj
 0002:0000c038       ??_C@_03LEOLGMJP@Apr?$AA@  10050038     LIBCMT:nlsdata.obj
 0002:0000c03c       ??_C@_03CNMDKL@May?$AA@    1005003c     LIBCMT:nlsdata.obj
 0002:0000c040       ??_C@_03IDFGHECI@Jun?$AA@  10050040     LIBCMT:nlsdata.obj
 0002:0000c044       ??_C@_03LBGABGKK@Jul?$AA@  10050044     LIBCMT:nlsdata.obj
 0002:0000c048       ??_C@_03IFJFEIGA@Aug?$AA@  10050048     LIBCMT:nlsdata.obj
 0002:0000c04c       ??_C@_03GGCAPAJC@Sep?$AA@  1005004c     LIBCMT:nlsdata.obj
 0002:0000c050       ??_C@_03BMAOKBAD@Oct?$AA@  10050050     LIBCMT:nlsdata.obj
 0002:0000c054       ??_C@_03JPJOFNIA@Nov?$AA@  10050054     LIBCMT:nlsdata.obj
 0002:0000c058       ??_C@_03MKABNOCG@Dec?$AA@  10050058     LIBCMT:nlsdata.obj
 0002:0000c05c       ??_C@_07CGJPFGJA@January?$AA@ 1005005c     LIBCMT:nlsdata.obj
 0002:0000c064       ??_C@_08GNJGEPFN@February?$AA@ 10050064     LIBCMT:nlsdata.obj
 0002:0000c070       ??_C@_05HPCKOFNC@March?$AA@ 10050070     LIBCMT:nlsdata.obj
 0002:0000c078       ??_C@_05DMJDNLEJ@April?$AA@ 10050078     LIBCMT:nlsdata.obj
 0002:0000c080       ??_C@_04CNLMGBGM@June?$AA@ 10050080     LIBCMT:nlsdata.obj
 0002:0000c088       ??_C@_04MIEPOIFP@July?$AA@ 10050088     LIBCMT:nlsdata.obj
 0002:0000c090       ??_C@_06LBBHFDDG@August?$AA@ 10050090     LIBCMT:nlsdata.obj
 0002:0000c098       ??_C@_09BHHEALKD@September?$AA@ 10050098     LIBCMT:nlsdata.obj
 0002:0000c0a4       ??_C@_07JJNFCEND@October?$AA@ 100500a4     LIBCMT:nlsdata.obj
 0002:0000c0ac       ??_C@_08HCHEGEOA@November?$AA@ 100500ac     LIBCMT:nlsdata.obj
 0002:0000c0b8       ??_C@_08EDHMEBNP@December?$AA@ 100500b8     LIBCMT:nlsdata.obj
 0002:0000c0c4       ??_C@_02DEDBPAFC@AM?$AA@   100500c4     LIBCMT:nlsdata.obj
 0002:0000c0c8       ??_C@_02CJNFDJBF@PM?$AA@   100500c8     LIBCMT:nlsdata.obj
 0002:0000c0cc       ??_C@_08BPBNCDIB@MM?1dd?1yy?$AA@ 100500cc     LIBCMT:nlsdata.obj
 0002:0000c0d8       ??_C@_0BE@CKGJFCPC@dddd?0?5MMMM?5dd?0?5yyyy?$AA@ 100500d8     LIBCMT:nlsdata.obj
 0002:0000c0ec       ??_C@_08JCCMCCIL@HH?3mm?3ss?$AA@ 100500ec     LIBCMT:nlsdata.obj
 0002:0000c0f8       ??_C@_17MBGCMIPB@?$AAS?$AAu?$AAn?$AA?$AA@ 100500f8     LIBCMT:nlsdata.obj
 0002:0000c100       ??_C@_17KBOMKBF@?$AAM?$AAo?$AAn?$AA?$AA@ 10050100     LIBCMT:nlsdata.obj
 0002:0000c108       ??_C@_17BMKGEGOJ@?$AAT?$AAu?$AAe?$AA?$AA@ 10050108     LIBCMT:nlsdata.obj
 0002:0000c110       ??_C@_17CJEDCEPE@?$AAW?$AAe?$AAd?$AA?$AA@ 10050110     LIBCMT:nlsdata.obj
 0002:0000c118       ??_C@_17PDPHAADD@?$AAT?$AAh?$AAu?$AA?$AA@ 10050118     LIBCMT:nlsdata.obj
 0002:0000c120       ??_C@_17HFOLPPLP@?$AAF?$AAr?$AAi?$AA?$AA@ 10050120     LIBCMT:nlsdata.obj
 0002:0000c128       ??_C@_17GGIBDPIH@?$AAS?$AAa?$AAt?$AA?$AA@ 10050128     LIBCMT:nlsdata.obj
 0002:0000c130       ??_C@_1O@IHNHDHPB@?$AAS?$AAu?$AAn?$AAd?$AAa?$AAy?$AA?$AA@ 10050130     LIBCMT:nlsdata.obj
 0002:0000c140       ??_C@_1O@MMNBFLIA@?$AAM?$AAo?$AAn?$AAd?$AAa?$AAy?$AA?$AA@ 10050140     LIBCMT:nlsdata.obj
 0002:0000c150       ??_C@_1BA@ENFBFFEK@?$AAT?$AAu?$AAe?$AAs?$AAd?$AAa?$AAy?$AA?$AA@ 10050150     LIBCMT:nlsdata.obj
 0002:0000c160       ??_C@_1BE@EBOGMDOH@?$AAW?$AAe?$AAd?$AAn?$AAe?$AAs?$AAd?$AAa?$AAy?$AA?$AA@ 10050160     LIBCMT:nlsdata.obj
 0002:0000c174       ??_C@_1BC@HHMNLIHE@?$AAT?$AAh?$AAu?$AAr?$AAs?$AAd?$AAa?$AAy?$AA?$AA@ 10050174     LIBCMT:nlsdata.obj
 0002:0000c188       ??_C@_1O@PDICJHAG@?$AAF?$AAr?$AAi?$AAd?$AAa?$AAy?$AA?$AA@ 10050188     LIBCMT:nlsdata.obj
 0002:0000c198       ??_C@_1BC@ENMNNPAJ@?$AAS?$AAa?$AAt?$AAu?$AAr?$AAd?$AAa?$AAy?$AA?$AA@ 10050198     LIBCMT:nlsdata.obj
 0002:0000c1ac       ??_C@_17DKNBKCHM@?$AAJ?$AAa?$AAn?$AA?$AA@ 100501ac     LIBCMT:nlsdata.obj
 0002:0000c1b4       ??_C@_17LMDJEKJN@?$AAF?$AAe?$AAb?$AA?$AA@ 100501b4     LIBCMT:nlsdata.obj
 0002:0000c1bc       ??_C@_17CKNLEDEC@?$AAM?$AAa?$AAr?$AA?$AA@ 100501bc     LIBCMT:nlsdata.obj
 0002:0000c1c4       ??_C@_17LFPOIHDD@?$AAA?$AAp?$AAr?$AA?$AA@ 100501c4     LIBCMT:nlsdata.obj
 0002:0000c1cc       ??_C@_17PNNKMEED@?$AAM?$AAa?$AAy?$AA?$AA@ 100501cc     LIBCMT:nlsdata.obj
 0002:0000c1d4       ??_C@_17KCJGOCPB@?$AAJ?$AAu?$AAn?$AA?$AA@ 100501d4     LIBCMT:nlsdata.obj
 0002:0000c1dc       ??_C@_17IJPCKHK@?$AAJ?$AAu?$AAl?$AA?$AA@ 100501dc     LIBCMT:nlsdata.obj
 0002:0000c1e4       ??_C@_17ICPELBCN@?$AAA?$AAu?$AAg?$AA?$AA@ 100501e4     LIBCMT:nlsdata.obj
 0002:0000c1ec       ??_C@_17HCHCOKMG@?$AAS?$AAe?$AAp?$AA?$AA@ 100501ec     LIBCMT:nlsdata.obj
 0002:0000c1f4       ??_C@_17FNLKOI@?$AAO?$AAc?$AAt?$AA?$AA@ 100501f4     LIBCMT:nlsdata.obj
 0002:0000c1fc       ??_C@_17BBDMLCIG@?$AAN?$AAo?$AAv?$AA?$AA@ 100501fc     LIBCMT:nlsdata.obj
 0002:0000c204       ??_C@_17EGKACKIF@?$AAD?$AAe?$AAc?$AA?$AA@ 10050204     LIBCMT:nlsdata.obj
 0002:0000c20c       ??_C@_1BA@EFMEIEBA@?$AAJ?$AAa?$AAn?$AAu?$AAa?$AAr?$AAy?$AA?$AA@ 1005020c     LIBCMT:nlsdata.obj
 0002:0000c21c       ??_C@_1BC@JGDDFFAM@?$AAF?$AAe?$AAb?$AAr?$AAu?$AAa?$AAr?$AAy?$AA?$AA@ 1005021c     LIBCMT:nlsdata.obj
 0002:0000c230       ??_C@_1M@IKEENEDF@?$AAM?$AAa?$AAr?$AAc?$AAh?$AA?$AA@ 10050230     LIBCMT:nlsdata.obj
 0002:0000c23c       ??_C@_1M@GJNLMHFD@?$AAA?$AAp?$AAr?$AAi?$AAl?$AA?$AA@ 1005023c     LIBCMT:nlsdata.obj
 0002:0000c248       ??_C@_19EPFLPGAP@?$AAJ?$AAu?$AAn?$AAe?$AA?$AA@ 10050248     LIBCMT:nlsdata.obj
 0002:0000c254       ??_C@_19BIFMLPCD@?$AAJ?$AAu?$AAl?$AAy?$AA?$AA@ 10050254     LIBCMT:nlsdata.obj
 0002:0000c260       ??_C@_1O@PAHLKOAC@?$AAA?$AAu?$AAg?$AAu?$AAs?$AAt?$AA?$AA@ 10050260     LIBCMT:nlsdata.obj
 0002:0000c270       ??_C@_1BE@DKAAMBJL@?$AAS?$AAe?$AAp?$AAt?$AAe?$AAm?$AAb?$AAe?$AAr?$AA?$AA@ 10050270     LIBCMT:nlsdata.obj
 0002:0000c284       ??_C@_1BA@EPANDLNG@?$AAO?$AAc?$AAt?$AAo?$AAb?$AAe?$AAr?$AA?$AA@ 10050284     LIBCMT:nlsdata.obj
 0002:0000c294       ??_C@_1BC@BGLIFPF@?$AAN?$AAo?$AAv?$AAe?$AAm?$AAb?$AAe?$AAr?$AA?$AA@ 10050294     LIBCMT:nlsdata.obj
 0002:0000c2a8       ??_C@_1BC@FEMKIFH@?$AAD?$AAe?$AAc?$AAe?$AAm?$AAb?$AAe?$AAr?$AA?$AA@ 100502a8     LIBCMT:nlsdata.obj
 0002:0000c2bc       ??_C@_15ODEHAHHF@?$AAA?$AAM?$AA?$AA@ 100502bc     LIBCMT:nlsdata.obj
 0002:0000c2c4       ??_C@_15CLMNNGEL@?$AAP?$AAM?$AA?$AA@ 100502c4     LIBCMT:nlsdata.obj
 0002:0000c2cc       ??_C@_1BC@IEBCMHCM@?$AAM?$AAM?$AA?1?$AAd?$AAd?$AA?1?$AAy?$AAy?$AA?$AA@ 100502cc     LIBCMT:nlsdata.obj
 0002:0000c2e0       ??_C@_1CI@KNAKOEBC@?$AAd?$AAd?$AAd?$AAd?$AA?0?$AA?5?$AAM?$AAM?$AAM?$AAM?$AA?5?$AAd?$AAd?$AA?0?$AA?5?$AAy?$AAy?$AAy?$AAy?$AA?$AA@ 100502e0     LIBCMT:nlsdata.obj
 0002:0000c308       ??_C@_1BC@GDGBMEMK@?$AAH?$AAH?$AA?3?$AAm?$AAm?$AA?3?$AAs?$AAs?$AA?$AA@ 10050308     LIBCMT:nlsdata.obj
 0002:0000c31c       ??_C@_1M@BMHNFIME@?$AAe?$AAn?$AA?9?$AAU?$AAS?$AA?$AA@ 1005031c     LIBCMT:nlsdata.obj
 0002:0000cbe0       __indefinite               10050be0     LIBCMT:87disp.obj
 0002:0000cbea       __piby2                    10050bea     LIBCMT:87disp.obj
 0002:0000cc18       __DEFAULT_CW_in_mem        10050c18     LIBCMT:common.obj
 0002:0000cc1a       __pi_by_2_to_61            10050c1a     LIBCMT:common.obj
 0002:0000d500       _LcidToLocaleNameTable     10051500     LIBCMT:winapinls.obj
 0002:0000dc20       _LocaleNameToIndexTable    10051c20     LIBCMT:winapinls.obj
 0002:0000e340       ??_C@_15EMKDOKLE@?$AAa?$AAr?$AA?$AA@ 10052340     LIBCMT:winapinls.obj
 0002:0000e348       ??_C@_15KNPADPLH@?$AAb?$AAg?$AA?$AA@ 10052348     LIBCMT:winapinls.obj
 0002:0000e350       ??_C@_15EDMHLDMO@?$AAc?$AAa?$AA?$AA@ 10052350     LIBCMT:winapinls.obj
 0002:0000e358       ??_C@_1O@BPEAJADD@?$AAz?$AAh?$AA?9?$AAC?$AAH?$AAS?$AA?$AA@ 10052358     LIBCMT:winapinls.obj
 0002:0000e368       ??_C@_15LJNHCMNK@?$AAc?$AAs?$AA?$AA@ 10052368     LIBCMT:winapinls.obj
 0002:0000e370       ??_C@_15FOMCIDHG@?$AAd?$AAa?$AA?$AA@ 10052370     LIBCMT:winapinls.obj
 0002:0000e378       ??_C@_15NBKABECB@?$AAd?$AAe?$AA?$AA@ 10052378     LIBCMT:winapinls.obj
 0002:0000e380       ??_C@_15GHPEIIAO@?$AAe?$AAl?$AA?$AA@ 10052380     LIBCMT:winapinls.obj
 0002:0000e388       ??_C@_15MNPNEAIF@?$AAe?$AAn?$AA?$AA@ 10052388     LIBCMT:winapinls.obj
 0002:0000e390       ??_C@_15GPIOMPMH@?$AAe?$AAs?$AA?$AA@ 10052390     LIBCMT:winapinls.obj
 0002:0000e398       ??_C@_15NGLOAKJC@?$AAf?$AAi?$AA?$AA@ 10052398     LIBCMT:winapinls.obj
 0002:0000e3a0       ??_C@_15FBKGNKAM@?$AAf?$AAr?$AA?$AA@ 100523a0     LIBCMT:winapinls.obj
 0002:0000e3a8       ??_C@_15KGGCNEFK@?$AAh?$AAe?$AA?$AA@ 100523a8     LIBCMT:winapinls.obj
 0002:0000e3b0       ??_C@_15PGHLIDMF@?$AAh?$AAu?$AA?$AA@ 100523b0     LIBCMT:winapinls.obj
 0002:0000e3b8       ??_C@_15BIEMAPLM@?$AAi?$AAs?$AA?$AA@ 100523b8     LIBCMT:winapinls.obj
 0002:0000e3c0       ??_C@_15IFJLDHAF@?$AAi?$AAt?$AA?$AA@ 100523c0     LIBCMT:winapinls.obj
 0002:0000e3c8       ??_C@_15GEMIOCAG@?$AAj?$AAa?$AA?$AA@ 100523c8     LIBCMT:winapinls.obj
 0002:0000e3d0       ??_C@_15EPELEGJA@?$AAk?$AAo?$AA?$AA@ 100523d0     LIBCMT:winapinls.obj
 0002:0000e3d8       ??_C@_15NDDHIMN@?$AAn?$AAl?$AA?$AA@ 100523d8     LIBCMT:winapinls.obj
 0002:0000e3e0       ??_C@_15BPIGNHCD@?$AAn?$AAo?$AA?$AA@ 100523e0     LIBCMT:winapinls.obj
 0002:0000e3e8       ??_C@_15DEOPBLCG@?$AAp?$AAl?$AA?$AA@ 100523e8     LIBCMT:winapinls.obj
 0002:0000e3f0       ??_C@_15KBECGEFG@?$AAp?$AAt?$AA?$AA@ 100523f0     LIBCMT:winapinls.obj
 0002:0000e3f8       ??_C@_15GLJCBFMD@?$AAr?$AAo?$AA?$AA@ 100523f8     LIBCMT:winapinls.obj
 0002:0000e400       ??_C@_15FEDGKCDI@?$AAr?$AAu?$AA?$AA@ 10052400     LIBCMT:winapinls.obj
 0002:0000e408       ??_C@_15GLKMLLHM@?$AAh?$AAr?$AA?$AA@ 10052408     LIBCMT:winapinls.obj
 0002:0000e410       ??_C@_15CPKMFBDB@?$AAs?$AAk?$AA?$AA@ 10052410     LIBCMT:winapinls.obj
 0002:0000e418       ??_C@_15BAAIOGMK@?$AAs?$AAq?$AA?$AA@ 10052418     LIBCMT:winapinls.obj
 0002:0000e420       ??_C@_15INNPNOHD@?$AAs?$AAv?$AA?$AA@ 10052420     LIBCMT:winapinls.obj
 0002:0000e428       ??_C@_15CABMMOGH@?$AAt?$AAh?$AA?$AA@ 10052428     LIBCMT:winapinls.obj
 0002:0000e430       ??_C@_15BPLIHJJM@?$AAt?$AAr?$AA?$AA@ 10052430     LIBCMT:winapinls.obj
 0002:0000e438       ??_C@_15NEOEKKDJ@?$AAu?$AAr?$AA?$AA@ 10052438     LIBCMT:winapinls.obj
 0002:0000e440       ??_C@_15NFICGAJK@?$AAi?$AAd?$AA?$AA@ 10052440     LIBCMT:winapinls.obj
 0002:0000e448       ??_C@_15PJPFLCCM@?$AAu?$AAk?$AA?$AA@ 10052448     LIBCMT:winapinls.obj
 0002:0000e450       ??_C@_15HPJPHDM@?$AAb?$AAe?$AA?$AA@ 10052450     LIBCMT:winapinls.obj
 0002:0000e458       ??_C@_15LCHLGJII@?$AAs?$AAl?$AA?$AA@ 10052458     LIBCMT:winapinls.obj
 0002:0000e460       ??_C@_15PCFJPHHO@?$AAe?$AAt?$AA?$AA@ 10052460     LIBCMT:winapinls.obj
 0002:0000e468       ??_C@_15HPFPGODN@?$AAl?$AAv?$AA?$AA@ 10052468     LIBCMT:winapinls.obj
 0002:0000e470       ??_C@_15NFFGKGLG@?$AAl?$AAt?$AA?$AA@ 10052470     LIBCMT:winapinls.obj
 0002:0000e478       ??_C@_15BDAKCCHN@?$AAf?$AAa?$AA?$AA@ 10052478     LIBCMT:winapinls.obj
 0002:0000e480       ??_C@_15NFGIAIAJ@?$AAv?$AAi?$AA?$AA@ 10052480     LIBCMT:winapinls.obj
 0002:0000e488       ??_C@_15LMKNDMHN@?$AAh?$AAy?$AA?$AA@ 10052488     LIBCMT:winapinls.obj
 0002:0000e490       ??_C@_15IJBHMCFL@?$AAa?$AAz?$AA?$AA@ 10052490     LIBCMT:winapinls.obj
 0002:0000e498       ??_C@_15EKOFJABL@?$AAe?$AAu?$AA?$AA@ 10052498     LIBCMT:winapinls.obj
 0002:0000e4a0       ??_C@_15BGHADCNK@?$AAm?$AAk?$AA?$AA@ 100524a0     LIBCMT:winapinls.obj
 0002:0000e4a8       ??_C@_15JDNICKHM@?$AAa?$AAf?$AA?$AA@ 100524a8     LIBCMT:winapinls.obj
 0002:0000e4b0       ??_C@_15KPJEDBKD@?$AAk?$AAa?$AA?$AA@ 100524b0     LIBCMT:winapinls.obj
 0002:0000e4b8       ??_C@_15PDNFFFEO@?$AAf?$AAo?$AA?$AA@ 100524b8     LIBCMT:winapinls.obj
 0002:0000e4c0       ??_C@_15OMLEGLOC@?$AAh?$AAi?$AA?$AA@ 100524c0     LIBCMT:winapinls.obj
 0002:0000e4c8       ??_C@_15IDNNENKK@?$AAm?$AAs?$AA?$AA@ 100524c8     LIBCMT:winapinls.obj
 0002:0000e4d0       ??_C@_15MACJNBMH@?$AAk?$AAk?$AA?$AA@ 100524d0     LIBCMT:winapinls.obj
 0002:0000e4d8       ??_C@_15DKDJEOND@?$AAk?$AAy?$AA?$AA@ 100524d8     LIBCMT:winapinls.obj
 0002:0000e4e0       ??_C@_15DFGDLJBG@?$AAs?$AAw?$AA?$AA@ 100524e0     LIBCMT:winapinls.obj
 0002:0000e4e8       ??_C@_15BBFAICNG@?$AAu?$AAz?$AA?$AA@ 100524e8     LIBCMT:winapinls.obj
 0002:0000e4f0       ??_C@_15DKNDCGEA@?$AAt?$AAt?$AA?$AA@ 100524f0     LIBCMT:winapinls.obj
 0002:0000e4f8       ??_C@_15MGIFMDPL@?$AAp?$AAa?$AA?$AA@ 100524f8     LIBCMT:winapinls.obj
 0002:0000e500       ??_C@_15HCNDBBA@?$AAg?$AAu?$AA?$AA@ 10052500     LIBCMT:winapinls.obj
 0002:0000e508       ??_C@_15FNBEIBON@?$AAt?$AAa?$AA?$AA@ 10052508     LIBCMT:winapinls.obj
 0002:0000e510       ??_C@_15NCHGBGLK@?$AAt?$AAe?$AA?$AA@ 10052510     LIBCMT:winapinls.obj
 0002:0000e518       ??_C@_15PHPHCBPF@?$AAk?$AAn?$AA?$AA@ 10052518     LIBCMT:winapinls.obj
 0002:0000e520       ??_C@_15DLGBCKMP@?$AAm?$AAr?$AA?$AA@ 10052520     LIBCMT:winapinls.obj
 0002:0000e528       ??_C@_15EABBLBFF@?$AAs?$AAa?$AA?$AA@ 10052528     LIBCMT:winapinls.obj
 0002:0000e530       ??_C@_15CBKOMCOI@?$AAm?$AAn?$AA?$AA@ 10052530     LIBCMT:winapinls.obj
 0002:0000e538       ??_C@_15CKDMCJAF@?$AAg?$AAl?$AA?$AA@ 10052538     LIBCMT:winapinls.obj
 0002:0000e540       ??_C@_17CNJFBPG@?$AAk?$AAo?$AAk?$AA?$AA@ 10052540     LIBCMT:winapinls.obj
 0002:0000e548       ??_C@_17FFBJICPL@?$AAs?$AAy?$AAr?$AA?$AA@ 10052548     LIBCMT:winapinls.obj
 0002:0000e550       ??_C@_17KPNDCPAF@?$AAd?$AAi?$AAv?$AA?$AA@ 10052550     LIBCMT:winapinls.obj
 0002:0000e558       ??_C@_11LOCGONAA@?$AA?$AA@ 10052558     LIBCMT:winapinls.obj
 0002:0000e55c       ??_C@_1M@OKAHONE@?$AAa?$AAr?$AA?9?$AAS?$AAA?$AA?$AA@ 1005255c     LIBCMT:winapinls.obj
 0002:0000e568       ??_C@_1M@FFFIGIGK@?$AAb?$AAg?$AA?9?$AAB?$AAG?$AA?$AA@ 10052568     LIBCMT:winapinls.obj
 0002:0000e574       ??_C@_1M@BJNKEDC@?$AAc?$AAa?$AA?9?$AAE?$AAS?$AA?$AA@ 10052574     LIBCMT:winapinls.obj
 0002:0000e580       ??_C@_1M@IJJHFJHA@?$AAc?$AAs?$AA?9?$AAC?$AAZ?$AA?$AA@ 10052580     LIBCMT:winapinls.obj
 0002:0000e58c       ??_C@_1M@CLPEOBGI@?$AAd?$AAa?$AA?9?$AAD?$AAK?$AA?$AA@ 1005258c     LIBCMT:winapinls.obj
 0002:0000e598       ??_C@_1M@MCMADGCB@?$AAd?$AAe?$AA?9?$AAD?$AAE?$AA?$AA@ 10052598     LIBCMT:winapinls.obj
 0002:0000e5a4       ??_C@_1M@OOCKEMAM@?$AAe?$AAl?$AA?9?$AAG?$AAR?$AA?$AA@ 100525a4     LIBCMT:winapinls.obj
 0002:0000e5b0       ??_C@_1M@DDNJFGID@?$AAf?$AAi?$AA?9?$AAF?$AAI?$AA?$AA@ 100525b0     LIBCMT:winapinls.obj
 0002:0000e5bc       ??_C@_1M@GLIPPMAC@?$AAf?$AAr?$AA?9?$AAF?$AAR?$AA?$AA@ 100525bc     LIBCMT:winapinls.obj
 0002:0000e5c8       ??_C@_1M@GFMCHPE@?$AAh?$AAe?$AA?9?$AAI?$AAL?$AA?$AA@ 100525c8     LIBCMT:winapinls.obj
 0002:0000e5d4       ??_C@_1M@MHLPGNKM@?$AAh?$AAu?$AA?9?$AAH?$AAU?$AA?$AA@ 100525d4     LIBCMT:winapinls.obj
 0002:0000e5e0       ??_C@_1M@LPDDNNPN@?$AAi?$AAs?$AA?9?$AAI?$AAS?$AA?$AA@ 100525e0     LIBCMT:winapinls.obj
 0002:0000e5ec       ??_C@_1M@MADIPODN@?$AAi?$AAt?$AA?9?$AAI?$AAT?$AA?$AA@ 100525ec     LIBCMT:winapinls.obj
 0002:0000e5f8       ??_C@_1M@IHBJJGG@?$AAn?$AAl?$AA?9?$AAN?$AAL?$AA?$AA@ 100525f8     LIBCMT:winapinls.obj
 0002:0000e604       ??_C@_1M@EANAGDL@?$AAn?$AAb?$AA?9?$AAN?$AAO?$AA?$AA@ 10052604     LIBCMT:winapinls.obj
 0002:0000e610       ??_C@_1M@NEIEMEGP@?$AAp?$AAl?$AA?9?$AAP?$AAL?$AA?$AA@ 10052610     LIBCMT:winapinls.obj
 0002:0000e61c       ??_C@_1M@BOCFIGEP@?$AAp?$AAt?$AA?9?$AAB?$AAR?$AA?$AA@ 1005261c     LIBCMT:winapinls.obj
 0002:0000e628       ??_C@_1M@IMPFOPBG@?$AAr?$AAo?$AA?9?$AAR?$AAO?$AA?$AA@ 10052628     LIBCMT:winapinls.obj
 0002:0000e634       ??_C@_1M@IDNNEJMM@?$AAr?$AAu?$AA?9?$AAR?$AAU?$AA?$AA@ 10052634     LIBCMT:winapinls.obj
 0002:0000e640       ??_C@_1M@LILEEOGM@?$AAh?$AAr?$AA?9?$AAH?$AAR?$AA?$AA@ 10052640     LIBCMT:winapinls.obj
 0002:0000e64c       ??_C@_1M@FKIFEHPB@?$AAs?$AAk?$AA?9?$AAS?$AAK?$AA?$AA@ 1005264c     LIBCMT:winapinls.obj
 0002:0000e658       ??_C@_1M@LJMAMNPJ@?$AAs?$AAq?$AA?9?$AAA?$AAL?$AA?$AA@ 10052658     LIBCMT:winapinls.obj
 0002:0000e664       ??_C@_1M@GIAKDKJK@?$AAs?$AAv?$AA?9?$AAS?$AAE?$AA?$AA@ 10052664     LIBCMT:winapinls.obj
 0002:0000e670       ??_C@_1M@MKJKIKCL@?$AAt?$AAh?$AA?9?$AAT?$AAH?$AA?$AA@ 10052670     LIBCMT:winapinls.obj
 0002:0000e67c       ??_C@_1M@MFLCCMPB@?$AAt?$AAr?$AA?9?$AAT?$AAR?$AA?$AA@ 1005267c     LIBCMT:winapinls.obj
 0002:0000e688       ??_C@_1M@OIJHDKJN@?$AAu?$AAr?$AA?9?$AAP?$AAK?$AA?$AA@ 10052688     LIBCMT:winapinls.obj
 0002:0000e694       ??_C@_1M@LHIPCIEK@?$AAi?$AAd?$AA?9?$AAI?$AAD?$AA?$AA@ 10052694     LIBCMT:winapinls.obj
 0002:0000e6a0       ??_C@_1M@MFMOBGI@?$AAu?$AAk?$AA?9?$AAU?$AAA?$AA?$AA@ 100526a0     LIBCMT:winapinls.obj
 0002:0000e6ac       ??_C@_1M@OBGLJIPL@?$AAb?$AAe?$AA?9?$AAB?$AAY?$AA?$AA@ 100526ac     LIBCMT:winapinls.obj
 0002:0000e6b8       ??_C@_1M@BCFAJEAD@?$AAs?$AAl?$AA?9?$AAS?$AAI?$AA?$AA@ 100526b8     LIBCMT:winapinls.obj
 0002:0000e6c4       ??_C@_1M@FKFFEDDN@?$AAe?$AAt?$AA?9?$AAE?$AAE?$AA?$AA@ 100526c4     LIBCMT:winapinls.obj
 0002:0000e6d0       ??_C@_1M@KGKKAACI@?$AAl?$AAv?$AA?9?$AAL?$AAV?$AA?$AA@ 100526d0     LIBCMT:winapinls.obj
 0002:0000e6dc       ??_C@_1M@IFGBIJO@?$AAl?$AAt?$AA?9?$AAL?$AAT?$AA?$AA@ 100526dc     LIBCMT:winapinls.obj
 0002:0000e6e8       ??_C@_1M@FGEAHEDM@?$AAf?$AAa?$AA?9?$AAI?$AAR?$AA?$AA@ 100526e8     LIBCMT:winapinls.obj
 0002:0000e6f4       ??_C@_1M@KBMAIBFN@?$AAv?$AAi?$AA?9?$AAV?$AAN?$AA?$AA@ 100526f4     LIBCMT:winapinls.obj
 0002:0000e700       ??_C@_1M@GPCBKDJK@?$AAh?$AAy?$AA?9?$AAA?$AAM?$AA?$AA@ 10052700     LIBCMT:winapinls.obj
 0002:0000e70c       ??_C@_1BG@BECMDDJB@?$AAa?$AAz?$AA?9?$AAA?$AAZ?$AA?9?$AAL?$AAa?$AAt?$AAn?$AA?$AA@ 1005270c     LIBCMT:winapinls.obj
 0002:0000e724       ??_C@_1M@MAOFCAEA@?$AAe?$AAu?$AA?9?$AAE?$AAS?$AA?$AA@ 10052724     LIBCMT:winapinls.obj
 0002:0000e730       ??_C@_1M@IGHABKPI@?$AAm?$AAk?$AA?9?$AAM?$AAK?$AA?$AA@ 10052730     LIBCMT:winapinls.obj
 0002:0000e73c       ??_C@_1M@IAIGNEJG@?$AAt?$AAn?$AA?9?$AAZ?$AAA?$AA?$AA@ 1005273c     LIBCMT:winapinls.obj
 0002:0000e748       ??_C@_1M@IIJCOJFA@?$AAx?$AAh?$AA?9?$AAZ?$AAA?$AA?$AA@ 10052748     LIBCMT:winapinls.obj
 0002:0000e754       ??_C@_1M@LGPJHNJH@?$AAz?$AAu?$AA?9?$AAZ?$AAA?$AA?$AA@ 10052754     LIBCMT:winapinls.obj
 0002:0000e760       ??_C@_1M@HOKAOIO@?$AAa?$AAf?$AA?9?$AAZ?$AAA?$AA?$AA@ 10052760     LIBCMT:winapinls.obj
 0002:0000e76c       ??_C@_1M@DPCLHLIE@?$AAk?$AAa?$AA?9?$AAG?$AAE?$AA?$AA@ 1005276c     LIBCMT:winapinls.obj
 0002:0000e778       ??_C@_1M@BLKMHJBI@?$AAf?$AAo?$AA?9?$AAF?$AAO?$AA?$AA@ 10052778     LIBCMT:winapinls.obj
 0002:0000e784       ??_C@_1M@LGGJAPPB@?$AAh?$AAi?$AA?9?$AAI?$AAN?$AA?$AA@ 10052784     LIBCMT:winapinls.obj
 0002:0000e790       ??_C@_1M@FIKPIHFE@?$AAm?$AAt?$AA?9?$AAM?$AAT?$AA?$AA@ 10052790     LIBCMT:winapinls.obj
 0002:0000e79c       ??_C@_1M@HEGGPBFA@?$AAs?$AAe?$AA?9?$AAN?$AAO?$AA?$AA@ 1005279c     LIBCMT:winapinls.obj
 0002:0000e7a8       ??_C@_1M@EIBJEEPA@?$AAm?$AAs?$AA?9?$AAM?$AAY?$AA?$AA@ 100527a8     LIBCMT:winapinls.obj
 0002:0000e7b4       ??_C@_1M@FHLBGMPP@?$AAk?$AAk?$AA?9?$AAK?$AAZ?$AA?$AA@ 100527b4     LIBCMT:winapinls.obj
 0002:0000e7c0       ??_C@_1M@NGJJLCGI@?$AAk?$AAy?$AA?9?$AAK?$AAG?$AA?$AA@ 100527c0     LIBCMT:winapinls.obj
 0002:0000e7cc       ??_C@_1M@GIENNBFC@?$AAs?$AAw?$AA?9?$AAK?$AAE?$AA?$AA@ 100527cc     LIBCMT:winapinls.obj
 0002:0000e7d8       ??_C@_1BG@NDGMJIMJ@?$AAu?$AAz?$AA?9?$AAU?$AAZ?$AA?9?$AAL?$AAa?$AAt?$AAn?$AA?$AA@ 100527d8     LIBCMT:winapinls.obj
 0002:0000e7f0       ??_C@_1M@IDCCIHBC@?$AAt?$AAt?$AA?9?$AAR?$AAU?$AA?$AA@ 100527f0     LIBCMT:winapinls.obj
 0002:0000e7fc       ??_C@_1M@LOICPMOJ@?$AAb?$AAn?$AA?9?$AAI?$AAN?$AA?$AA@ 100527fc     LIBCMT:winapinls.obj
 0002:0000e808       ??_C@_1M@KPKKNEAH@?$AAp?$AAa?$AA?9?$AAI?$AAN?$AA?$AA@ 10052808     LIBCMT:winapinls.obj
 0002:0000e814       ??_C@_1M@PJGPPBOG@?$AAg?$AAu?$AA?9?$AAI?$AAN?$AA?$AA@ 10052814     LIBCMT:winapinls.obj
 0002:0000e820       ??_C@_1M@KMKMOPHI@?$AAt?$AAa?$AA?9?$AAI?$AAN?$AA?$AA@ 10052820     LIBCMT:winapinls.obj
 0002:0000e82c       ??_C@_1M@KFEHEPAC@?$AAt?$AAe?$AA?9?$AAI?$AAN?$AA?$AA@ 1005282c     LIBCMT:winapinls.obj
 0002:0000e838       ??_C@_1M@CDCLMGHI@?$AAk?$AAn?$AA?9?$AAI?$AAN?$AA?$AA@ 10052838     LIBCMT:winapinls.obj
 0002:0000e844       ??_C@_1M@MIODLDKF@?$AAm?$AAl?$AA?9?$AAI?$AAN?$AA?$AA@ 10052844     LIBCMT:winapinls.obj
 0002:0000e850       ??_C@_1M@PBIEACPO@?$AAm?$AAr?$AA?9?$AAI?$AAN?$AA?$AA@ 10052850     LIBCMT:winapinls.obj
 0002:0000e85c       ??_C@_1M@NIDEAGPH@?$AAs?$AAa?$AA?9?$AAI?$AAN?$AA?$AA@ 1005285c     LIBCMT:winapinls.obj
 0002:0000e868       ??_C@_1M@FHIHCBIO@?$AAm?$AAn?$AA?9?$AAM?$AAN?$AA?$AA@ 10052868     LIBCMT:winapinls.obj
 0002:0000e874       ??_C@_1M@JAIJPENP@?$AAc?$AAy?$AA?9?$AAG?$AAB?$AA?$AA@ 10052874     LIBCMT:winapinls.obj
 0002:0000e880       ??_C@_1M@PHGFBEPN@?$AAg?$AAl?$AA?9?$AAE?$AAS?$AA?$AA@ 10052880     LIBCMT:winapinls.obj
 0002:0000e88c       ??_C@_1O@KPIPDNCP@?$AAk?$AAo?$AAk?$AA?9?$AAI?$AAN?$AA?$AA@ 1005288c     LIBCMT:winapinls.obj
 0002:0000e89c       ??_C@_1O@KNHJLDJA@?$AAs?$AAy?$AAr?$AA?9?$AAS?$AAY?$AA?$AA@ 1005289c     LIBCMT:winapinls.obj
 0002:0000e8ac       ??_C@_1O@MKEKBLAH@?$AAd?$AAi?$AAv?$AA?9?$AAM?$AAV?$AA?$AA@ 100528ac     LIBCMT:winapinls.obj
 0002:0000e8bc       ??_C@_1O@OHDCKDDF@?$AAq?$AAu?$AAz?$AA?9?$AAB?$AAO?$AA?$AA@ 100528bc     LIBCMT:winapinls.obj
 0002:0000e8cc       ??_C@_1M@LEPJNLFD@?$AAn?$AAs?$AA?9?$AAZ?$AAA?$AA?$AA@ 100528cc     LIBCMT:winapinls.obj
 0002:0000e8d8       ??_C@_1M@OMLEIIJB@?$AAm?$AAi?$AA?9?$AAN?$AAZ?$AA?$AA@ 100528d8     LIBCMT:winapinls.obj
 0002:0000e8e4       ??_C@_1M@PMPEAILG@?$AAa?$AAr?$AA?9?$AAI?$AAQ?$AA?$AA@ 100528e4     LIBCMT:winapinls.obj
 0002:0000e8f0       ??_C@_1M@CNKPNOEE@?$AAd?$AAe?$AA?9?$AAC?$AAH?$AA?$AA@ 100528f0     LIBCMT:winapinls.obj
 0002:0000e8fc       ??_C@_1M@LKMGMLKO@?$AAe?$AAn?$AA?9?$AAG?$AAB?$AA?$AA@ 100528fc     LIBCMT:winapinls.obj
 0002:0000e908       ??_C@_1M@PGKJFFGL@?$AAe?$AAs?$AA?9?$AAM?$AAX?$AA?$AA@ 10052908     LIBCMT:winapinls.obj
 0002:0000e914       ??_C@_1M@DNNANBDC@?$AAf?$AAr?$AA?9?$AAB?$AAE?$AA?$AA@ 10052914     LIBCMT:winapinls.obj
 0002:0000e920       ??_C@_1M@HLGMDFHM@?$AAi?$AAt?$AA?9?$AAC?$AAH?$AA?$AA@ 10052920     LIBCMT:winapinls.obj
 0002:0000e92c       ??_C@_1M@CLLBGJH@?$AAn?$AAl?$AA?9?$AAB?$AAE?$AA?$AA@ 1005292c     LIBCMT:winapinls.obj
 0002:0000e938       ??_C@_1M@BODBOGLF@?$AAn?$AAn?$AA?9?$AAN?$AAO?$AA?$AA@ 10052938     LIBCMT:winapinls.obj
 0002:0000e944       ??_C@_1M@HFFAHKAD@?$AAp?$AAt?$AA?9?$AAP?$AAT?$AA?$AA@ 10052944     LIBCMT:winapinls.obj
 0002:0000e950       ??_C@_1BG@LNOAKHIE@?$AAs?$AAr?$AA?9?$AAS?$AAP?$AA?9?$AAL?$AAa?$AAt?$AAn?$AA?$AA@ 10052950     LIBCMT:winapinls.obj
 0002:0000e968       ??_C@_1M@HBMHBGAK@?$AAs?$AAv?$AA?9?$AAF?$AAI?$AA?$AA@ 10052968     LIBCMT:winapinls.obj
 0002:0000e974       ??_C@_1BG@DGCJGJBE@?$AAa?$AAz?$AA?9?$AAA?$AAZ?$AA?9?$AAC?$AAy?$AAr?$AAl?$AA?$AA@ 10052974     LIBCMT:winapinls.obj
 0002:0000e98c       ??_C@_1M@KEJDAAHB@?$AAs?$AAe?$AA?9?$AAS?$AAE?$AA?$AA@ 1005298c     LIBCMT:winapinls.obj
 0002:0000e998       ??_C@_1M@HEIBJJAD@?$AAm?$AAs?$AA?9?$AAB?$AAN?$AA?$AA@ 10052998     LIBCMT:winapinls.obj
 0002:0000e9a4       ??_C@_1BG@PBGJMCEM@?$AAu?$AAz?$AA?9?$AAU?$AAZ?$AA?9?$AAC?$AAy?$AAr?$AAl?$AA?$AA@ 100529a4     LIBCMT:winapinls.obj
 0002:0000e9bc       ??_C@_1O@LAOBCMDF@?$AAq?$AAu?$AAz?$AA?9?$AAE?$AAC?$AA?$AA@ 100529bc     LIBCMT:winapinls.obj
 0002:0000e9cc       ??_C@_1M@POEEMAIO@?$AAa?$AAr?$AA?9?$AAE?$AAG?$AA?$AA@ 100529cc     LIBCMT:winapinls.obj
 0002:0000e9d8       ??_C@_1M@EFAKDEDL@?$AAz?$AAh?$AA?9?$AAH?$AAK?$AA?$AA@ 100529d8     LIBCMT:winapinls.obj
 0002:0000e9e4       ??_C@_1M@HKKIJHGI@?$AAd?$AAe?$AA?9?$AAA?$AAT?$AA?$AA@ 100529e4     LIBCMT:winapinls.obj
 0002:0000e9f0       ??_C@_1M@KBFBEHJF@?$AAe?$AAn?$AA?9?$AAA?$AAU?$AA?$AA@ 100529f0     LIBCMT:winapinls.obj
 0002:0000e9fc       ??_C@_1M@MNPLFAAH@?$AAe?$AAs?$AA?9?$AAE?$AAS?$AA?$AA@ 100529fc     LIBCMT:winapinls.obj
 0002:0000ea08       ??_C@_1M@HJOOJFMA@?$AAf?$AAr?$AA?9?$AAC?$AAA?$AA?$AA@ 10052a08     LIBCMT:winapinls.obj
 0002:0000ea14       ??_C@_1BG@JPOFPNAB@?$AAs?$AAr?$AA?9?$AAS?$AAP?$AA?9?$AAC?$AAy?$AAr?$AAl?$AA?$AA@ 10052a14     LIBCMT:winapinls.obj
 0002:0000ea2c       ??_C@_1M@LNFOCMOB@?$AAs?$AAe?$AA?9?$AAF?$AAI?$AA?$AA@ 10052a2c     LIBCMT:winapinls.obj
 0002:0000ea38       ??_C@_1O@MGJBOAMB@?$AAq?$AAu?$AAz?$AA?9?$AAP?$AAE?$AA?$AA@ 10052a38     LIBCMT:winapinls.obj
 0002:0000ea48       ??_C@_1M@GJINLBOK@?$AAa?$AAr?$AA?9?$AAL?$AAY?$AA?$AA@ 10052a48     LIBCMT:winapinls.obj
 0002:0000ea54       ??_C@_1M@GGMNHJNL@?$AAz?$AAh?$AA?9?$AAS?$AAG?$AA?$AA@ 10052a54     LIBCMT:winapinls.obj
 0002:0000ea60       ??_C@_1M@HOIKODND@?$AAd?$AAe?$AA?9?$AAL?$AAU?$AA?$AA@ 10052a60     LIBCMT:winapinls.obj
 0002:0000ea6c       ??_C@_1M@DDOCCGFG@?$AAe?$AAn?$AA?9?$AAC?$AAA?$AA?$AA@ 10052a6c     LIBCMT:winapinls.obj
 0002:0000ea78       ??_C@_1M@BNOEMJLF@?$AAe?$AAs?$AA?9?$AAG?$AAT?$AA?$AA@ 10052a78     LIBCMT:winapinls.obj
 0002:0000ea84       ??_C@_1M@EOGNKEK@?$AAf?$AAr?$AA?9?$AAC?$AAH?$AA?$AA@ 10052a84     LIBCMT:winapinls.obj
 0002:0000ea90       ??_C@_1M@FLIDJFHL@?$AAh?$AAr?$AA?9?$AAB?$AAA?$AA?$AA@ 10052a90     LIBCMT:winapinls.obj
 0002:0000ea9c       ??_C@_1O@FMCELNAJ@?$AAs?$AAm?$AAj?$AA?9?$AAN?$AAO?$AA?$AA@ 10052a9c     LIBCMT:winapinls.obj
 0002:0000eaac       ??_C@_1M@JHGLJMGJ@?$AAa?$AAr?$AA?9?$AAD?$AAZ?$AA?$AA@ 10052aac     LIBCMT:winapinls.obj
 0002:0000eab8       ??_C@_1M@JKKFDCNP@?$AAz?$AAh?$AA?9?$AAM?$AAO?$AA?$AA@ 10052ab8     LIBCMT:winapinls.obj
 0002:0000eac4       ??_C@_1M@GEEFALPE@?$AAd?$AAe?$AA?9?$AAL?$AAI?$AA?$AA@ 10052ac4     LIBCMT:winapinls.obj
 0002:0000ead0       ??_C@_1M@IGEOFBG@?$AAe?$AAn?$AA?9?$AAN?$AAZ?$AA?$AA@ 10052ad0     LIBCMT:winapinls.obj
 0002:0000eadc       ??_C@_1M@KDBONEHP@?$AAe?$AAs?$AA?9?$AAC?$AAR?$AA?$AA@ 10052adc     LIBCMT:winapinls.obj
 0002:0000eae8       ??_C@_1M@FHMDOHNN@?$AAf?$AAr?$AA?9?$AAL?$AAU?$AA?$AA@ 10052ae8     LIBCMT:winapinls.obj
 0002:0000eaf4       ??_C@_1BG@NFKKMAFG@?$AAb?$AAs?$AA?9?$AAB?$AAA?$AA?9?$AAL?$AAa?$AAt?$AAn?$AA?$AA@ 10052af4     LIBCMT:winapinls.obj
 0002:0000eb0c       ??_C@_1O@IMNBEMCI@?$AAs?$AAm?$AAj?$AA?9?$AAS?$AAE?$AA?$AA@ 10052b0c     LIBCMT:winapinls.obj
 0002:0000eb1c       ??_C@_1M@DHHMBNDP@?$AAa?$AAr?$AA?9?$AAM?$AAA?$AA?$AA@ 10052b1c     LIBCMT:winapinls.obj
 0002:0000eb28       ??_C@_1M@BNBLJCGH@?$AAe?$AAn?$AA?9?$AAI?$AAE?$AA?$AA@ 10052b28     LIBCMT:winapinls.obj
 0002:0000eb34       ??_C@_1M@GEPAFMDL@?$AAe?$AAs?$AA?9?$AAP?$AAA?$AA?$AA@ 10052b34     LIBCMT:winapinls.obj
 0002:0000eb40       ??_C@_1M@OJONDMDL@?$AAf?$AAr?$AA?9?$AAM?$AAC?$AA?$AA@ 10052b40     LIBCMT:winapinls.obj
 0002:0000eb4c       ??_C@_1BG@OBCNFJB@?$AAs?$AAr?$AA?9?$AAB?$AAA?$AA?9?$AAL?$AAa?$AAt?$AAn?$AA?$AA@ 10052b4c     LIBCMT:winapinls.obj
 0002:0000eb64       ??_C@_1O@KEMEEGPO@?$AAs?$AAm?$AAa?$AA?9?$AAN?$AAO?$AA?$AA@ 10052b64     LIBCMT:winapinls.obj
 0002:0000eb74       ??_C@_1M@ELMGFODK@?$AAa?$AAr?$AA?9?$AAT?$AAN?$AA?$AA@ 10052b74     LIBCMT:winapinls.obj
 0002:0000eb80       ??_C@_1M@BHDLHFAF@?$AAe?$AAn?$AA?9?$AAZ?$AAA?$AA?$AA@ 10052b80     LIBCMT:winapinls.obj
 0002:0000eb8c       ??_C@_1M@BMGIGLIF@?$AAe?$AAs?$AA?9?$AAD?$AAO?$AA?$AA@ 10052b8c     LIBCMT:winapinls.obj
 0002:0000eb98       ??_C@_1BG@CMBHIPBE@?$AAs?$AAr?$AA?9?$AAB?$AAA?$AA?9?$AAC?$AAy?$AAr?$AAl?$AA?$AA@ 10052b98     LIBCMT:winapinls.obj
 0002:0000ebb0       ??_C@_1O@HEDBLHNP@?$AAs?$AAm?$AAa?$AA?9?$AAS?$AAE?$AA?$AA@ 10052bb0     LIBCMT:winapinls.obj
 0002:0000ebc0       ??_C@_1M@DAGCADIM@?$AAa?$AAr?$AA?9?$AAO?$AAM?$AA?$AA@ 10052bc0     LIBCMT:winapinls.obj
 0002:0000ebcc       ??_C@_1M@FODLMICG@?$AAe?$AAn?$AA?9?$AAJ?$AAM?$AA?$AA@ 10052bcc     LIBCMT:winapinls.obj
 0002:0000ebd8       ??_C@_1M@DNMLCIHB@?$AAe?$AAs?$AA?9?$AAV?$AAE?$AA?$AA@ 10052bd8     LIBCMT:winapinls.obj
 0002:0000ebe4       ??_C@_1O@EOKHMKJK@?$AAs?$AAm?$AAs?$AA?9?$AAF?$AAI?$AA?$AA@ 10052be4     LIBCMT:winapinls.obj
 0002:0000ebf4       ??_C@_1M@CAFJMKOF@?$AAa?$AAr?$AA?9?$AAY?$AAE?$AA?$AA@ 10052bf4     LIBCMT:winapinls.obj
 0002:0000ec00       ??_C@_1M@CBFHIJLI@?$AAe?$AAn?$AA?9?$AAC?$AAB?$AA?$AA@ 10052c00     LIBCMT:winapinls.obj
 0002:0000ec0c       ??_C@_1M@BGNFLDN@?$AAe?$AAs?$AA?9?$AAC?$AAO?$AA?$AA@ 10052c0c     LIBCMT:winapinls.obj
 0002:0000ec18       ??_C@_1O@JMPHMAMC@?$AAs?$AAm?$AAn?$AA?9?$AAF?$AAI?$AA?$AA@ 10052c18     LIBCMT:winapinls.obj
 0002:0000ec28       ??_C@_1M@JLANABKE@?$AAa?$AAr?$AA?9?$AAS?$AAY?$AA?$AA@ 10052c28     LIBCMT:winapinls.obj
 0002:0000ec34       ??_C@_1M@HPKGCFGN@?$AAe?$AAn?$AA?9?$AAB?$AAZ?$AA?$AA@ 10052c34     LIBCMT:winapinls.obj
 0002:0000ec40       ??_C@_1M@OLJCMLGM@?$AAe?$AAs?$AA?9?$AAP?$AAE?$AA?$AA@ 10052c40     LIBCMT:winapinls.obj
 0002:0000ec4c       ??_C@_1M@MKKGFKLE@?$AAa?$AAr?$AA?9?$AAJ?$AAO?$AA?$AA@ 10052c4c     LIBCMT:winapinls.obj
 0002:0000ec58       ??_C@_1M@EKPGLDNI@?$AAe?$AAn?$AA?9?$AAT?$AAT?$AA?$AA@ 10052c58     LIBCMT:winapinls.obj
 0002:0000ec64       ??_C@_1M@OONGHFHE@?$AAe?$AAs?$AA?9?$AAA?$AAR?$AA?$AA@ 10052c64     LIBCMT:winapinls.obj
 0002:0000ec70       ??_C@_1M@OOJFGBHE@?$AAa?$AAr?$AA?9?$AAL?$AAB?$AA?$AA@ 10052c70     LIBCMT:winapinls.obj
 0002:0000ec7c       ??_C@_1M@GCEJHNEG@?$AAe?$AAn?$AA?9?$AAZ?$AAW?$AA?$AA@ 10052c7c     LIBCMT:winapinls.obj
 0002:0000ec88       ??_C@_1M@JNOCAHJI@?$AAe?$AAs?$AA?9?$AAE?$AAC?$AA?$AA@ 10052c88     LIBCMT:winapinls.obj
 0002:0000ec94       ??_C@_1M@JEFHPGGB@?$AAa?$AAr?$AA?9?$AAK?$AAW?$AA?$AA@ 10052c94     LIBCMT:winapinls.obj
 0002:0000eca0       ??_C@_1M@MLKIBJOJ@?$AAe?$AAn?$AA?9?$AAP?$AAH?$AA?$AA@ 10052ca0     LIBCMT:winapinls.obj
 0002:0000ecac       ??_C@_1M@BDNIPEND@?$AAe?$AAs?$AA?9?$AAC?$AAL?$AA?$AA@ 10052cac     LIBCMT:winapinls.obj
 0002:0000ecb8       ??_C@_1M@MPNMEKBD@?$AAa?$AAr?$AA?9?$AAA?$AAE?$AA?$AA@ 10052cb8     LIBCMT:winapinls.obj
 0002:0000ecc4       ??_C@_1M@KBJALCPI@?$AAe?$AAs?$AA?9?$AAU?$AAY?$AA?$AA@ 10052cc4     LIBCMT:winapinls.obj
 0002:0000ecd0       ??_C@_1M@LLCCOAGA@?$AAa?$AAr?$AA?9?$AAB?$AAH?$AA?$AA@ 10052cd0     LIBCMT:winapinls.obj
 0002:0000ecdc       ??_C@_1M@PBFNCDEL@?$AAe?$AAs?$AA?9?$AAP?$AAY?$AA?$AA@ 10052cdc     LIBCMT:winapinls.obj
 0002:0000ece8       ??_C@_1M@EDGINPNP@?$AAa?$AAr?$AA?9?$AAQ?$AAA?$AA?$AA@ 10052ce8     LIBCMT:winapinls.obj
 0002:0000ecf4       ??_C@_1M@MKDBIIJI@?$AAe?$AAs?$AA?9?$AAB?$AAO?$AA?$AA@ 10052cf4     LIBCMT:winapinls.obj
 0002:0000ed00       ??_C@_1M@CPKKEBLD@?$AAe?$AAs?$AA?9?$AAS?$AAV?$AA?$AA@ 10052d00     LIBCMT:winapinls.obj
 0002:0000ed0c       ??_C@_1M@NDBGMMJL@?$AAe?$AAs?$AA?9?$AAH?$AAN?$AA?$AA@ 10052d0c     LIBCMT:winapinls.obj
 0002:0000ed18       ??_C@_1M@JIJIBHDP@?$AAe?$AAs?$AA?9?$AAN?$AAI?$AA?$AA@ 10052d18     LIBCMT:winapinls.obj
 0002:0000ed24       ??_C@_1M@CGFMKEEK@?$AAe?$AAs?$AA?9?$AAP?$AAR?$AA?$AA@ 10052d24     LIBCMT:winapinls.obj
 0002:0000ed30       ??_C@_1O@ICJHKIIK@?$AAz?$AAh?$AA?9?$AAC?$AAH?$AAT?$AA?$AA@ 10052d30     LIBCMT:winapinls.obj
 0002:0000ed40       ??_C@_15CLNEJCE@?$AAs?$AAr?$AA?$AA@ 10052d40     LIBCMT:winapinls.obj
 0002:0000ed48       ??_C@_1M@KAHEKEIG@?$AAa?$AAf?$AA?9?$AAz?$AAa?$AA?$AA@ 10052d48     LIBCMT:winapinls.obj
 0002:0000ed54       ??_C@_1M@GIECOABL@?$AAa?$AAr?$AA?9?$AAa?$AAe?$AA?$AA@ 10052d54     LIBCMT:winapinls.obj
 0002:0000ed60       ??_C@_1M@BMLMEKGI@?$AAa?$AAr?$AA?9?$AAb?$AAh?$AA?$AA@ 10052d60     LIBCMT:winapinls.obj
 0002:0000ed6c       ??_C@_1M@DAPFDGGB@?$AAa?$AAr?$AA?9?$AAd?$AAz?$AA?$AA@ 10052d6c     LIBCMT:winapinls.obj
 0002:0000ed78       ??_C@_1M@FJNKGKIG@?$AAa?$AAr?$AA?9?$AAe?$AAg?$AA?$AA@ 10052d78     LIBCMT:winapinls.obj
 0002:0000ed84       ??_C@_1M@FLGKKCLO@?$AAa?$AAr?$AA?9?$AAi?$AAq?$AA?$AA@ 10052d84     LIBCMT:winapinls.obj
 0002:0000ed90       ??_C@_1M@GNDIPALM@?$AAa?$AAr?$AA?9?$AAj?$AAo?$AA?$AA@ 10052d90     LIBCMT:winapinls.obj
 0002:0000ed9c       ??_C@_1M@DDMJFMGJ@?$AAa?$AAr?$AA?9?$AAk?$AAw?$AA?$AA@ 10052d9c     LIBCMT:winapinls.obj
 0002:0000eda8       ??_C@_1M@EJALMLHM@?$AAa?$AAr?$AA?9?$AAl?$AAb?$AA?$AA@ 10052da8     LIBCMT:winapinls.obj
 0002:0000edb4       ??_C@_1M@MOBDBLOC@?$AAa?$AAr?$AA?9?$AAl?$AAy?$AA?$AA@ 10052db4     LIBCMT:winapinls.obj
 0002:0000edc0       ??_C@_1M@JAOCLHDH@?$AAa?$AAr?$AA?9?$AAm?$AAa?$AA?$AA@ 10052dc0     LIBCMT:winapinls.obj
 0002:0000edcc       ??_C@_1M@JHPMKJIE@?$AAa?$AAr?$AA?9?$AAo?$AAm?$AA?$AA@ 10052dcc     LIBCMT:winapinls.obj
 0002:0000edd8       ??_C@_1M@OEPGHFNH@?$AAa?$AAr?$AA?9?$AAq?$AAa?$AA?$AA@ 10052dd8     LIBCMT:winapinls.obj
 0002:0000ede4       ??_C@_1M@KJDONENM@?$AAa?$AAr?$AA?9?$AAs?$AAa?$AA?$AA@ 10052de4     LIBCMT:winapinls.obj
 0002:0000edf0       ??_C@_1M@DMJDKLKM@?$AAa?$AAr?$AA?9?$AAs?$AAy?$AA?$AA@ 10052df0     LIBCMT:winapinls.obj
 0002:0000edfc       ??_C@_1M@OMFIPEDC@?$AAa?$AAr?$AA?9?$AAt?$AAn?$AA?$AA@ 10052dfc     LIBCMT:winapinls.obj
 0002:0000ee08       ??_C@_1M@IHMHGAON@?$AAa?$AAr?$AA?9?$AAy?$AAe?$AA?$AA@ 10052e08     LIBCMT:winapinls.obj
 0002:0000ee14       ??_C@_1BG@KDCPGJGB@?$AAa?$AAz?$AA?9?$AAa?$AAz?$AA?9?$AAc?$AAy?$AAr?$AAl?$AA?$AA@ 10052e14     LIBCMT:winapinls.obj
 0002:0000ee2c       ??_C@_1BG@IBCKDDOE@?$AAa?$AAz?$AA?9?$AAa?$AAz?$AA?9?$AAl?$AAa?$AAt?$AAn?$AA?$AA@ 10052e2c     LIBCMT:winapinls.obj
 0002:0000ee44       ??_C@_1M@EGPFDCPD@?$AAb?$AAe?$AA?9?$AAb?$AAy?$AA?$AA@ 10052e44     LIBCMT:winapinls.obj
 0002:0000ee50       ??_C@_1M@PCMGMCGC@?$AAb?$AAg?$AA?9?$AAb?$AAg?$AA?$AA@ 10052e50     LIBCMT:winapinls.obj
 0002:0000ee5c       ??_C@_1M@BJBMFGOB@?$AAb?$AAn?$AA?9?$AAi?$AAn?$AA?$AA@ 10052e5c     LIBCMT:winapinls.obj
 0002:0000ee68       ??_C@_1BG@EAKMMACD@?$AAb?$AAs?$AA?9?$AAb?$AAa?$AA?9?$AAl?$AAa?$AAt?$AAn?$AA?$AA@ 10052e68     LIBCMT:winapinls.obj
 0002:0000ee80       ??_C@_1M@KGADAODK@?$AAc?$AAa?$AA?9?$AAe?$AAs?$AA?$AA@ 10052e80     LIBCMT:winapinls.obj
 0002:0000ee8c       ??_C@_1M@COAJPDHI@?$AAc?$AAs?$AA?9?$AAc?$AAz?$AA?$AA@ 10052e8c     LIBCMT:winapinls.obj
 0002:0000ee98       ??_C@_1M@DHBHFONH@?$AAc?$AAy?$AA?9?$AAg?$AAb?$AA?$AA@ 10052e98     LIBCMT:winapinls.obj
 0002:0000eea4       ??_C@_1M@IMGKELGA@?$AAd?$AAa?$AA?9?$AAd?$AAk?$AA?$AA@ 10052ea4     LIBCMT:winapinls.obj
 0002:0000eeb0       ??_C@_1M@NNDGDNGA@?$AAd?$AAe?$AA?9?$AAa?$AAt?$AA?$AA@ 10052eb0     LIBCMT:winapinls.obj
 0002:0000eebc       ??_C@_1M@IKDBHEEM@?$AAd?$AAe?$AA?9?$AAc?$AAh?$AA?$AA@ 10052ebc     LIBCMT:winapinls.obj
 0002:0000eec8       ??_C@_1M@GFFOJMCJ@?$AAd?$AAe?$AA?9?$AAd?$AAe?$AA?$AA@ 10052ec8     LIBCMT:winapinls.obj
 0002:0000eed4       ??_C@_1M@MDNLKBPM@?$AAd?$AAe?$AA?9?$AAl?$AAi?$AA?$AA@ 10052ed4     LIBCMT:winapinls.obj
 0002:0000eee0       ??_C@_1M@NJBEEJNL@?$AAd?$AAe?$AA?9?$AAl?$AAu?$AA?$AA@ 10052ee0     LIBCMT:winapinls.obj
 0002:0000eeec       ??_C@_1O@GNNELBAP@?$AAd?$AAi?$AAv?$AA?9?$AAm?$AAv?$AA?$AA@ 10052eec     LIBCMT:winapinls.obj
 0002:0000eefc       ??_C@_1M@EJLEOGAE@?$AAe?$AAl?$AA?9?$AAg?$AAr?$AA?$AA@ 10052efc     LIBCMT:winapinls.obj
 0002:0000ef08       ??_C@_1M@GMPONJN@?$AAe?$AAn?$AA?9?$AAa?$AAu?$AA?$AA@ 10052f08     LIBCMT:winapinls.obj
 0002:0000ef14       ??_C@_1M@NIDIIPGF@?$AAe?$AAn?$AA?9?$AAb?$AAz?$AA?$AA@ 10052f14     LIBCMT:winapinls.obj
 0002:0000ef20       ??_C@_1M@JEHMIMFO@?$AAe?$AAn?$AA?9?$AAc?$AAa?$AA?$AA@ 10052f20     LIBCMT:winapinls.obj
 0002:0000ef2c       ??_C@_1M@IGMJCDLA@?$AAe?$AAn?$AA?9?$AAc?$AAb?$AA?$AA@ 10052f2c     LIBCMT:winapinls.obj
 0002:0000ef38       ??_C@_1M@BNFIGBKG@?$AAe?$AAn?$AA?9?$AAg?$AAb?$AA?$AA@ 10052f38     LIBCMT:winapinls.obj
 0002:0000ef44       ??_C@_1M@LKIFDIGP@?$AAe?$AAn?$AA?9?$AAi?$AAe?$AA?$AA@ 10052f44     LIBCMT:winapinls.obj
 0002:0000ef50       ??_C@_1M@PJKFGCCO@?$AAe?$AAn?$AA?9?$AAj?$AAm?$AA?$AA@ 10052f50     LIBCMT:winapinls.obj
 0002:0000ef5c       ??_C@_1M@KPPKEPBO@?$AAe?$AAn?$AA?9?$AAn?$AAz?$AA?$AA@ 10052f5c     LIBCMT:winapinls.obj
 0002:0000ef68       ??_C@_1M@GMDGLDOB@?$AAe?$AAn?$AA?9?$AAp?$AAh?$AA?$AA@ 10052f68     LIBCMT:winapinls.obj
 0002:0000ef74       ??_C@_1M@ONGIBJNA@?$AAe?$AAn?$AA?9?$AAt?$AAt?$AA?$AA@ 10052f74     LIBCMT:winapinls.obj
 0002:0000ef80       ??_C@_1M@LLODPCMM@?$AAe?$AAn?$AA?9?$AAu?$AAs?$AA?$AA@ 10052f80     LIBCMT:winapinls.obj
 0002:0000ef8c       ??_C@_1M@LAKFNPAN@?$AAe?$AAn?$AA?9?$AAz?$AAa?$AA?$AA@ 10052f8c     LIBCMT:winapinls.obj
 0002:0000ef98       ??_C@_1M@MFNHNHEO@?$AAe?$AAn?$AA?9?$AAz?$AAw?$AA?$AA@ 10052f98     LIBCMT:winapinls.obj
 0002:0000efa4       ??_C@_1M@EJEINPHM@?$AAe?$AAs?$AA?9?$AAa?$AAr?$AA?$AA@ 10052fa4     LIBCMT:winapinls.obj
 0002:0000efb0       ??_C@_1M@GNKPCCJA@?$AAe?$AAs?$AA?9?$AAb?$AAo?$AA?$AA@ 10052fb0     LIBCMT:winapinls.obj
 0002:0000efbc       ??_C@_1M@LEEGFONL@?$AAe?$AAs?$AA?9?$AAc?$AAl?$AA?$AA@ 10052fbc     LIBCMT:winapinls.obj
 0002:0000efc8       ??_C@_1M@KGPDPBDF@?$AAe?$AAs?$AA?9?$AAc?$AAo?$AA?$AA@ 10052fc8     LIBCMT:winapinls.obj
 0002:0000efd4       ??_C@_1M@EIAHOHH@?$AAe?$AAs?$AA?9?$AAc?$AAr?$AA?$AA@ 10052fd4     LIBCMT:winapinls.obj
 0002:0000efe0       ??_C@_1M@LLPGMBIN@?$AAe?$AAs?$AA?9?$AAd?$AAo?$AA?$AA@ 10052fe0     LIBCMT:winapinls.obj
 0002:0000efec       ??_C@_1M@DKHMKNJA@?$AAe?$AAs?$AA?9?$AAe?$AAc?$AA?$AA@ 10052fec     LIBCMT:winapinls.obj
 0002:0000eff8       ??_C@_1M@GKGFPKAP@?$AAe?$AAs?$AA?9?$AAe?$AAs?$AA?$AA@ 10052ff8     LIBCMT:winapinls.obj
 0002:0000f004       ??_C@_1M@LKHKGDLN@?$AAe?$AAs?$AA?9?$AAg?$AAt?$AA?$AA@ 10053004     LIBCMT:winapinls.obj
 0002:0000f010       ??_C@_1M@HEIIGGJD@?$AAe?$AAs?$AA?9?$AAh?$AAn?$AA?$AA@ 10053010     LIBCMT:winapinls.obj
 0002:0000f01c       ??_C@_1M@FBDHPPGD@?$AAe?$AAs?$AA?9?$AAm?$AAx?$AA?$AA@ 1005301c     LIBCMT:winapinls.obj
 0002:0000f028       ??_C@_1M@DPAGLNDH@?$AAe?$AAs?$AA?9?$AAn?$AAi?$AA?$AA@ 10053028     LIBCMT:winapinls.obj
 0002:0000f034       ??_C@_1M@MDGOPGDD@?$AAe?$AAs?$AA?9?$AAp?$AAa?$AA?$AA@ 10053034     LIBCMT:winapinls.obj
 0002:0000f040       ??_C@_1M@EMAMGBGE@?$AAe?$AAs?$AA?9?$AAp?$AAe?$AA?$AA@ 10053040     LIBCMT:winapinls.obj
 0002:0000f04c       ??_C@_1M@IBMCAOEC@?$AAe?$AAs?$AA?9?$AAp?$AAr?$AA?$AA@ 1005304c     LIBCMT:winapinls.obj
 0002:0000f058       ??_C@_1M@FGMDIJED@?$AAe?$AAs?$AA?9?$AAp?$AAy?$AA?$AA@ 10053058     LIBCMT:winapinls.obj
 0002:0000f064       ??_C@_1M@IIDEOLLL@?$AAe?$AAs?$AA?9?$AAs?$AAv?$AA?$AA@ 10053064     LIBCMT:winapinls.obj
 0002:0000f070       ??_C@_1M@GAOBIPA@?$AAe?$AAs?$AA?9?$AAu?$AAy?$AA?$AA@ 10053070     LIBCMT:winapinls.obj
 0002:0000f07c       ??_C@_1M@JKFFICHJ@?$AAe?$AAs?$AA?9?$AAv?$AAe?$AA?$AA@ 1005307c     LIBCMT:winapinls.obj
 0002:0000f088       ??_C@_1M@PNMLOJDF@?$AAe?$AAt?$AA?9?$AAe?$AAe?$AA?$AA@ 10053088     LIBCMT:winapinls.obj
 0002:0000f094       ??_C@_1M@GHHLIKEI@?$AAe?$AAu?$AA?9?$AAe?$AAs?$AA?$AA@ 10053094     LIBCMT:winapinls.obj
 0002:0000f0a0       ??_C@_1M@PBNONODE@?$AAf?$AAa?$AA?9?$AAi?$AAr?$AA?$AA@ 100530a0     LIBCMT:winapinls.obj
 0002:0000f0ac       ??_C@_1M@JEEHPMIL@?$AAf?$AAi?$AA?9?$AAf?$AAi?$AA?$AA@ 100530ac     LIBCMT:winapinls.obj
 0002:0000f0b8       ??_C@_1M@LMDCNDBA@?$AAf?$AAo?$AA?9?$AAf?$AAo?$AA?$AA@ 100530b8     LIBCMT:winapinls.obj
 0002:0000f0c4       ??_C@_1M@JKEOHLDK@?$AAf?$AAr?$AA?9?$AAb?$AAe?$AA?$AA@ 100530c4     LIBCMT:winapinls.obj
 0002:0000f0d0       ??_C@_1M@NOHADPMI@?$AAf?$AAr?$AA?9?$AAc?$AAa?$AA?$AA@ 100530d0     LIBCMT:winapinls.obj
 0002:0000f0dc       ??_C@_1M@KDHIHAEC@?$AAf?$AAr?$AA?9?$AAc?$AAh?$AA?$AA@ 100530dc     LIBCMT:winapinls.obj
 0002:0000f0e8       ??_C@_1M@MMBBFGAK@?$AAf?$AAr?$AA?9?$AAf?$AAr?$AA?$AA@ 100530e8     LIBCMT:winapinls.obj
 0002:0000f0f4       ??_C@_1M@PAFNENNF@?$AAf?$AAr?$AA?9?$AAl?$AAu?$AA?$AA@ 100530f4     LIBCMT:winapinls.obj
 0002:0000f100       ??_C@_1M@EOHDJGDD@?$AAf?$AAr?$AA?9?$AAm?$AAc?$AA?$AA@ 10053100     LIBCMT:winapinls.obj
 0002:0000f10c       ??_C@_1M@FAPLLOPF@?$AAg?$AAl?$AA?9?$AAe?$AAs?$AA?$AA@ 1005310c     LIBCMT:winapinls.obj
 0002:0000f118       ??_C@_1M@FOPBFLOO@?$AAg?$AAu?$AA?9?$AAi?$AAn?$AA?$AA@ 10053118     LIBCMT:winapinls.obj
 0002:0000f124       ??_C@_1M@KBMCINPM@?$AAh?$AAe?$AA?9?$AAi?$AAl?$AA?$AA@ 10053124     LIBCMT:winapinls.obj
 0002:0000f130       ??_C@_1M@BBPHKFPJ@?$AAh?$AAi?$AA?9?$AAi?$AAn?$AA?$AA@ 10053130     LIBCMT:winapinls.obj
 0002:0000f13c       ??_C@_1M@PMBNDPHD@?$AAh?$AAr?$AA?9?$AAb?$AAa?$AA?$AA@ 1005313c     LIBCMT:winapinls.obj
 0002:0000f148       ??_C@_1M@BPCKOEGE@?$AAh?$AAr?$AA?9?$AAh?$AAr?$AA?$AA@ 10053148     LIBCMT:winapinls.obj
 0002:0000f154       ??_C@_1M@GACBMHKE@?$AAh?$AAu?$AA?9?$AAh?$AAu?$AA?$AA@ 10053154     LIBCMT:winapinls.obj
 0002:0000f160       ??_C@_1M@MILPAJJC@?$AAh?$AAy?$AA?9?$AAa?$AAm?$AA?$AA@ 10053160     LIBCMT:winapinls.obj
 0002:0000f16c       ??_C@_1M@BABBICEC@?$AAi?$AAd?$AA?9?$AAi?$AAd?$AA?$AA@ 1005316c     LIBCMT:winapinls.obj
 0002:0000f178       ??_C@_1M@BIKNHHPF@?$AAi?$AAs?$AA?9?$AAi?$AAs?$AA?$AA@ 10053178     LIBCMT:winapinls.obj
 0002:0000f184       ??_C@_1M@NMPCJPHE@?$AAi?$AAt?$AA?9?$AAc?$AAh?$AA?$AA@ 10053184     LIBCMT:winapinls.obj
 0002:0000f190       ??_C@_1M@GHKGFEDF@?$AAi?$AAt?$AA?9?$AAi?$AAt?$AA?$AA@ 10053190     LIBCMT:winapinls.obj
 0002:0000f19c       ??_C@_1M@NIEJCJJA@?$AAj?$AAa?$AA?9?$AAj?$AAp?$AA?$AA@ 1005319c     LIBCMT:winapinls.obj
 0002:0000f1a8       ??_C@_1M@JILFNBIM@?$AAk?$AAa?$AA?9?$AAg?$AAe?$AA?$AA@ 100531a8     LIBCMT:winapinls.obj
 0002:0000f1b4       ??_C@_1M@PACPMGPH@?$AAk?$AAk?$AA?9?$AAk?$AAz?$AA?$AA@ 100531b4     LIBCMT:winapinls.obj
 0002:0000f1c0       ??_C@_1M@IELFGMHA@?$AAk?$AAn?$AA?9?$AAi?$AAn?$AA?$AA@ 100531c0     LIBCMT:winapinls.obj
 0002:0000f1cc       ??_C@_1O@IBBJHCH@?$AAk?$AAo?$AAk?$AA?9?$AAi?$AAn?$AA?$AA@ 100531cc     LIBCMT:winapinls.obj
 0002:0000f1dc       ??_C@_1M@DMHAEOGC@?$AAk?$AAo?$AA?9?$AAk?$AAr?$AA?$AA@ 100531dc     LIBCMT:winapinls.obj
 0002:0000f1e8       ??_C@_1M@HBAHBIGA@?$AAk?$AAy?$AA?9?$AAk?$AAg?$AA?$AA@ 100531e8     LIBCMT:winapinls.obj
 0002:0000f1f4       ??_C@_1M@KPMILCJG@?$AAl?$AAt?$AA?9?$AAl?$AAt?$AA?$AA@ 100531f4     LIBCMT:winapinls.obj
 0002:0000f200       ??_C@_1M@BDEKKCA@?$AAl?$AAv?$AA?9?$AAl?$AAv?$AA?$AA@ 10053200     LIBCMT:winapinls.obj
 0002:0000f20c       ??_C@_1M@ELCKCCJJ@?$AAm?$AAi?$AA?9?$AAn?$AAz?$AA?$AA@ 1005320c     LIBCMT:winapinls.obj
 0002:0000f218       ??_C@_1M@CBOOLAPA@?$AAm?$AAk?$AA?9?$AAm?$AAk?$AA?$AA@ 10053218     LIBCMT:winapinls.obj
 0002:0000f224       ??_C@_1M@GPHNBJKN@?$AAm?$AAl?$AA?9?$AAi?$AAn?$AA?$AA@ 10053224     LIBCMT:winapinls.obj
 0002:0000f230       ??_C@_1M@PABJILIG@?$AAm?$AAn?$AA?9?$AAm?$AAn?$AA?$AA@ 10053230     LIBCMT:winapinls.obj
 0002:0000f23c       ??_C@_1M@FGBKKIPG@?$AAm?$AAr?$AA?9?$AAi?$AAn?$AA?$AA@ 1005323c     LIBCMT:winapinls.obj
 0002:0000f248       ??_C@_1M@NDBPDDAL@?$AAm?$AAs?$AA?9?$AAb?$AAn?$AA?$AA@ 10053248     LIBCMT:winapinls.obj
 0002:0000f254       ??_C@_1M@OPIHOOPI@?$AAm?$AAs?$AA?9?$AAm?$AAy?$AA?$AA@ 10053254     LIBCMT:winapinls.obj
 0002:0000f260       ??_C@_1M@PPDBCNFM@?$AAm?$AAt?$AA?9?$AAm?$AAt?$AA?$AA@ 10053260     LIBCMT:winapinls.obj
 0002:0000f26c       ??_C@_1M@KDJDKMDD@?$AAn?$AAb?$AA?9?$AAn?$AAo?$AA?$AA@ 1005326c     LIBCMT:winapinls.obj
 0002:0000f278       ??_C@_1M@KFCFLMJP@?$AAn?$AAl?$AA?9?$AAb?$AAe?$AA?$AA@ 10053278     LIBCMT:winapinls.obj
 0002:0000f284       ??_C@_1M@KPOPDDGO@?$AAn?$AAl?$AA?9?$AAn?$AAl?$AA?$AA@ 10053284     LIBCMT:winapinls.obj
 0002:0000f290       ??_C@_1M@LJKPEMLN@?$AAn?$AAn?$AA?9?$AAn?$AAo?$AA?$AA@ 10053290     LIBCMT:winapinls.obj
 0002:0000f29c       ??_C@_1M@BDGHHBFL@?$AAn?$AAs?$AA?9?$AAz?$AAa?$AA?$AA@ 1005329c     LIBCMT:winapinls.obj
 0002:0000f2a8       ??_C@_1M@IDEHOAP@?$AAp?$AAa?$AA?9?$AAi?$AAn?$AA?$AA@ 100532a8     LIBCMT:winapinls.obj
 0002:0000f2b4       ??_C@_1M@HDBKGOGH@?$AAp?$AAl?$AA?9?$AAp?$AAl?$AA?$AA@ 100532b4     LIBCMT:winapinls.obj
 0002:0000f2c0       ??_C@_1M@LJLLCMEH@?$AAp?$AAt?$AA?9?$AAb?$AAr?$AA?$AA@ 100532c0     LIBCMT:winapinls.obj
 0002:0000f2cc       ??_C@_1M@NCMONAAL@?$AAp?$AAt?$AA?9?$AAp?$AAt?$AA?$AA@ 100532cc     LIBCMT:winapinls.obj
 0002:0000f2d8       ??_C@_1O@EAKMAJDN@?$AAq?$AAu?$AAz?$AA?9?$AAb?$AAo?$AA?$AA@ 100532d8     LIBCMT:winapinls.obj
 0002:0000f2e8       ??_C@_1O@BHHPIGDN@?$AAq?$AAu?$AAz?$AA?9?$AAe?$AAc?$AA?$AA@ 100532e8     LIBCMT:winapinls.obj
 0002:0000f2f8       ??_C@_1O@GBAPEKMJ@?$AAq?$AAu?$AAz?$AA?9?$AAp?$AAe?$AA?$AA@ 100532f8     LIBCMT:winapinls.obj
 0002:0000f308       ??_C@_1M@CLGLEFBO@?$AAr?$AAo?$AA?9?$AAr?$AAo?$AA?$AA@ 10053308     LIBCMT:winapinls.obj
 0002:0000f314       ??_C@_1M@CEEDODME@?$AAr?$AAu?$AA?9?$AAr?$AAu?$AA?$AA@ 10053314     LIBCMT:winapinls.obj
 0002:0000f320       ??_C@_1M@HPKKKMPP@?$AAs?$AAa?$AA?9?$AAi?$AAn?$AA?$AA@ 10053320     LIBCMT:winapinls.obj
 0002:0000f32c       ??_C@_1M@BKMAIGOJ@?$AAs?$AAe?$AA?9?$AAf?$AAi?$AA?$AA@ 1005332c     LIBCMT:winapinls.obj
 0002:0000f338       ??_C@_1M@NDPIFLFI@?$AAs?$AAe?$AA?9?$AAn?$AAo?$AA?$AA@ 10053338     LIBCMT:winapinls.obj
 0002:0000f344       ??_C@_1M@DANKKHJ@?$AAs?$AAe?$AA?9?$AAs?$AAe?$AA?$AA@ 10053344     LIBCMT:winapinls.obj
 0002:0000f350       ??_C@_1M@PNBLONPJ@?$AAs?$AAk?$AA?9?$AAs?$AAk?$AA?$AA@ 10053350     LIBCMT:winapinls.obj
 0002:0000f35c       ??_C@_1M@LFMODOAL@?$AAs?$AAl?$AA?9?$AAs?$AAi?$AA?$AA@ 1005335c     LIBCMT:winapinls.obj
 0002:0000f368       ??_C@_1O@DFKOMPG@?$AAs?$AAm?$AAa?$AA?9?$AAn?$AAo?$AA?$AA@ 10053368     LIBCMT:winapinls.obj
 0002:0000f378       ??_C@_1O@NDKPBNNH@?$AAs?$AAm?$AAa?$AA?9?$AAs?$AAe?$AA?$AA@ 10053378     LIBCMT:winapinls.obj
 0002:0000f388       ??_C@_1O@PLLKBHAB@?$AAs?$AAm?$AAj?$AA?9?$AAn?$AAo?$AA?$AA@ 10053388     LIBCMT:winapinls.obj
 0002:0000f398       ??_C@_1O@CLEPOGCA@?$AAs?$AAm?$AAj?$AA?9?$AAs?$AAe?$AA?$AA@ 10053398     LIBCMT:winapinls.obj
 0002:0000f3a8       ??_C@_1O@DLGJGKMK@?$AAs?$AAm?$AAn?$AA?9?$AAf?$AAi?$AA?$AA@ 100533a8     LIBCMT:winapinls.obj
 0002:0000f3b8       ??_C@_1O@OJDJGAJC@?$AAs?$AAm?$AAs?$AA?9?$AAf?$AAi?$AA?$AA@ 100533b8     LIBCMT:winapinls.obj
 0002:0000f3c8       ??_C@_1M@BOFOGHPB@?$AAs?$AAq?$AA?9?$AAa?$AAl?$AA?$AA@ 100533c8     LIBCMT:winapinls.obj
 0002:0000f3d4       ??_C@_1BG@LJBBIPGB@?$AAs?$AAr?$AA?9?$AAb?$AAa?$AA?9?$AAc?$AAy?$AAr?$AAl?$AA?$AA@ 100533d4     LIBCMT:winapinls.obj
 0002:0000f3ec       ??_C@_1BG@JLBENFOE@?$AAs?$AAr?$AA?9?$AAb?$AAa?$AA?9?$AAl?$AAa?$AAt?$AAn?$AA?$AA@ 100533ec     LIBCMT:winapinls.obj
 0002:0000f404       ??_C@_1BG@KODPNHE@?$AAs?$AAr?$AA?9?$AAs?$AAp?$AA?9?$AAc?$AAy?$AAr?$AAl?$AA?$AA@ 10053404     LIBCMT:winapinls.obj
 0002:0000f41c       ??_C@_1BG@CIOGKHPB@?$AAs?$AAr?$AA?9?$AAs?$AAp?$AA?9?$AAl?$AAa?$AAt?$AAn?$AA?$AA@ 1005341c     LIBCMT:winapinls.obj
 0002:0000f434       ??_C@_1M@NGFJLMAC@?$AAs?$AAv?$AA?9?$AAf?$AAi?$AA?$AA@ 10053434     LIBCMT:winapinls.obj
 0002:0000f440       ??_C@_1M@MPJEJAJC@?$AAs?$AAv?$AA?9?$AAs?$AAe?$AA?$AA@ 10053440     LIBCMT:winapinls.obj
 0002:0000f44c       ??_C@_1M@MPNDHLFK@?$AAs?$AAw?$AA?9?$AAk?$AAe?$AA?$AA@ 1005344c     LIBCMT:winapinls.obj
 0002:0000f458       ??_C@_1O@KOHBJJI@?$AAs?$AAy?$AAr?$AA?9?$AAs?$AAy?$AA?$AA@ 10053458     LIBCMT:winapinls.obj
 0002:0000f468       ??_C@_1M@LDCEFHA@?$AAt?$AAa?$AA?9?$AAi?$AAn?$AA?$AA@ 10053468     LIBCMT:winapinls.obj
 0002:0000f474       ??_C@_1M@CNJOFAK@?$AAt?$AAe?$AA?9?$AAi?$AAn?$AA?$AA@ 10053474     LIBCMT:winapinls.obj
 0002:0000f480       ??_C@_1M@GNAECACD@?$AAt?$AAh?$AA?9?$AAt?$AAh?$AA?$AA@ 10053480     LIBCMT:winapinls.obj
 0002:0000f48c       ??_C@_1M@CHBIHOJO@?$AAt?$AAn?$AA?9?$AAz?$AAa?$AA?$AA@ 1005348c     LIBCMT:winapinls.obj
 0002:0000f498       ??_C@_1M@GCCMIGPJ@?$AAt?$AAr?$AA?9?$AAt?$AAr?$AA?$AA@ 10053498     LIBCMT:winapinls.obj
 0002:0000f4a4       ??_C@_1M@CELMCNBK@?$AAt?$AAt?$AA?9?$AAr?$AAu?$AA?$AA@ 100534a4     LIBCMT:winapinls.obj
 0002:0000f4b0       ??_C@_1M@KLMCELGA@?$AAu?$AAk?$AA?9?$AAu?$AAa?$AA?$AA@ 100534b0     LIBCMT:winapinls.obj
 0002:0000f4bc       ??_C@_1M@EPAJJAJF@?$AAu?$AAr?$AA?9?$AAp?$AAk?$AA?$AA@ 100534bc     LIBCMT:winapinls.obj
 0002:0000f4c8       ??_C@_1BG@GEGPMCDJ@?$AAu?$AAz?$AA?9?$AAu?$AAz?$AA?9?$AAc?$AAy?$AAr?$AAl?$AA?$AA@ 100534c8     LIBCMT:winapinls.obj
 0002:0000f4e0       ??_C@_1BG@EGGKJILM@?$AAu?$AAz?$AA?9?$AAu?$AAz?$AA?9?$AAl?$AAa?$AAt?$AAn?$AA?$AA@ 100534e0     LIBCMT:winapinls.obj
 0002:0000f4f8       ??_C@_1M@GFOCLFF@?$AAv?$AAi?$AA?9?$AAv?$AAn?$AA?$AA@ 100534f8     LIBCMT:winapinls.obj
 0002:0000f504       ??_C@_1M@CPAMEDFI@?$AAx?$AAh?$AA?9?$AAz?$AAa?$AA?$AA@ 10053504     LIBCMT:winapinls.obj
 0002:0000f510       ??_C@_1O@EBKIFIGN@?$AAz?$AAh?$AA?9?$AAc?$AAh?$AAs?$AA?$AA@ 10053510     LIBCMT:winapinls.obj
 0002:0000f520       ??_C@_1O@NMHPGANE@?$AAz?$AAh?$AA?9?$AAc?$AAh?$AAt?$AA?$AA@ 10053520     LIBCMT:winapinls.obj
 0002:0000f530       ??_C@_1M@LPINJOMC@?$AAz?$AAh?$AA?9?$AAc?$AAn?$AA?$AA@ 10053530     LIBCMT:winapinls.obj
 0002:0000f53c       ??_C@_1M@OCJEJODD@?$AAz?$AAh?$AA?9?$AAh?$AAk?$AA?$AA@ 1005353c     LIBCMT:winapinls.obj
 0002:0000f548       ??_C@_1M@DNDLJINH@?$AAz?$AAh?$AA?9?$AAm?$AAo?$AA?$AA@ 10053548     LIBCMT:winapinls.obj
 0002:0000f554       ??_C@_1M@MBFDNDND@?$AAz?$AAh?$AA?9?$AAs?$AAg?$AA?$AA@ 10053554     LIBCMT:winapinls.obj
 0002:0000f560       ??_C@_1M@IMEPLEPE@?$AAz?$AAh?$AA?9?$AAt?$AAw?$AA?$AA@ 10053560     LIBCMT:winapinls.obj
 0002:0000f56c       ??_C@_1M@BBGHNHJP@?$AAz?$AAu?$AA?9?$AAz?$AAa?$AA?$AA@ 1005356c     LIBCMT:winapinls.obj
 0002:0000f578       ___newctype                10053578     LIBCMT:ctype.obj
 0002:0000f878       __wctype                   10053878     LIBCMT:ctype.obj
 0002:0000fa80       ___newclmap                10053a80     LIBCMT:ctype.obj
 0002:0000fc00       ___newcumap                10053c00     LIBCMT:ctype.obj
 0002:0000fd80       ___lc_category             10053d80     LIBCMT:wsetloca.obj
 0002:0000fdc8       ??_C@_1O@GIFLHMA@?$AAL?$AAC?$AA_?$AAA?$AAL?$AAL?$AA?$AA@ 10053dc8     LIBCMT:wsetloca.obj
 0002:0000fdd8       ??_C@_1BG@PPOMIBNJ@?$AAL?$AAC?$AA_?$AAC?$AAO?$AAL?$AAL?$AAA?$AAT?$AAE?$AA?$AA@ 10053dd8     LIBCMT:wsetloca.obj
 0002:0000fdf0       ??_C@_1BC@FFJGAPJM@?$AAL?$AAC?$AA_?$AAC?$AAT?$AAY?$AAP?$AAE?$AA?$AA@ 10053df0     LIBCMT:wsetloca.obj
 0002:0000fe04       ??_C@_1BI@PCKFNJFB@?$AAL?$AAC?$AA_?$AAM?$AAO?$AAN?$AAE?$AAT?$AAA?$AAR?$AAY?$AA?$AA@ 10053e04     LIBCMT:wsetloca.obj
 0002:0000fe1c       ??_C@_1BG@ENIEDKID@?$AAL?$AAC?$AA_?$AAN?$AAU?$AAM?$AAE?$AAR?$AAI?$AAC?$AA?$AA@ 10053e1c     LIBCMT:wsetloca.obj
 0002:0000fe34       ??_C@_1BA@HAAOMIIG@?$AAL?$AAC?$AA_?$AAT?$AAI?$AAM?$AAE?$AA?$AA@ 10053e34     LIBCMT:wsetloca.obj
 0002:0000fec8       ??_C@_15NBPDDFIP@?$AA?$DN?$AA?$DL?$AA?$AA@ 10053ec8     LIBCMT:wsetloca.obj
 0002:0000fed0       ??_C@_13PJJBFPED@?$AA?$DL?$AA?$AA@ 10053ed0     LIBCMT:wsetloca.obj
 0002:0000fed4       ??_C@_13NMPKAAJP@?$AA?$DN?$AA?$AA@ 10053ed4     LIBCMT:wsetloca.obj
 0002:0000fed8       ??_C@_13FHBKNHDA@?$AAC?$AA?$AA@ 10053ed8     LIBCMT:wsetloca.obj
 0002:0000fedc       ??_C@_17MBJJLFDM@?$AA_?$AA?4?$AA?0?$AA?$AA@ 10053edc     LIBCMT:wsetloca.obj
 0002:0000fee4       ??_C@_13ENNFDPBH@?$AA_?$AA?$AA@ 10053ee4     LIBCMT:wsetloca.obj
 0002:0000fee8       ??_C@_13JOFGPIOO@?$AA?4?$AA?$AA@ 10053ee8     LIBCMT:wsetloca.obj
 0002:0000feec       ??_C@_06PGGFOGJG@1?$CDSNAN?$AA@ 10053eec     LIBCMT:x10fout.obj
 0002:0000fef4       ??_C@_05PHHOCPM@1?$CDIND?$AA@ 10053ef4     LIBCMT:x10fout.obj
 0002:0000fefc       ??_C@_05DNEBIAHO@1?$CDINF?$AA@ 10053efc     LIBCMT:x10fout.obj
 0002:0000ff04       ??_C@_06IMKFLFPG@1?$CDQNAN?$AA@ 10053f04     LIBCMT:x10fout.obj
 0002:0000ff0c       ??_C@_0M@HHGEPIBF@CreateFile2?$AA@ 10053f0c     LIBCMT:wopen.obj
 0002:0000ff18       ??_C@_1BA@BALFACEM@?$AAC?$AAO?$AAN?$AAO?$AAU?$AAT?$AA$?$AA?$AA@ 10053f18     LIBCMT:initcon.obj
 0002:0000ff28       ___rg_language             10053f28     LIBCMT:getqloc.obj
 0002:00010234       ??_C@_1BC@LLOKLNP@?$AAa?$AAm?$AAe?$AAr?$AAi?$AAc?$AAa?$AAn?$AA?$AA@ 10054234     LIBCMT:getqloc.obj
 0002:00010248       ??_C@_1CC@HEIGCDGG@?$AAa?$AAm?$AAe?$AAr?$AAi?$AAc?$AAa?$AAn?$AA?5?$AAe?$AAn?$AAg?$AAl?$AAi?$AAs?$AAh?$AA?$AA@ 10054248     LIBCMT:getqloc.obj
 0002:0001026c       ??_C@_1CC@IHCNOMIN@?$AAa?$AAm?$AAe?$AAr?$AAi?$AAc?$AAa?$AAn?$AA?9?$AAe?$AAn?$AAg?$AAl?$AAi?$AAs?$AAh?$AA?$AA@ 1005426c     LIBCMT:getqloc.obj
 0002:00010290       ??_C@_1BG@GKAGPCGG@?$AAa?$AAu?$AAs?$AAt?$AAr?$AAa?$AAl?$AAi?$AAa?$AAn?$AA?$AA@ 10054290     LIBCMT:getqloc.obj
 0002:000102a8       ??_C@_1BA@GMENCENF@?$AAb?$AAe?$AAl?$AAg?$AAi?$AAa?$AAn?$AA?$AA@ 100542a8     LIBCMT:getqloc.obj
 0002:000102b8       ??_C@_1BC@PJMIIAAN@?$AAc?$AAa?$AAn?$AAa?$AAd?$AAi?$AAa?$AAn?$AA?$AA@ 100542b8     LIBCMT:getqloc.obj
 0002:000102cc       ??_C@_17NOIMNFBF@?$AAc?$AAh?$AAh?$AA?$AA@ 100542cc     LIBCMT:getqloc.obj
 0002:000102d4       ??_C@_17GGDALCHA@?$AAc?$AAh?$AAi?$AA?$AA@ 100542d4     LIBCMT:getqloc.obj
 0002:000102dc       ??_C@_1BA@NPNJKIBL@?$AAc?$AAh?$AAi?$AAn?$AAe?$AAs?$AAe?$AA?$AA@ 100542dc     LIBCMT:getqloc.obj
 0002:000102ec       ??_C@_1CC@DINBAMMJ@?$AAc?$AAh?$AAi?$AAn?$AAe?$AAs?$AAe?$AA?9?$AAh?$AAo?$AAn?$AAg?$AAk?$AAo?$AAn?$AAg?$AA?$AA@ 100542ec     LIBCMT:getqloc.obj
 0002:00010310       ??_C@_1CG@IOBJPACO@?$AAc?$AAh?$AAi?$AAn?$AAe?$AAs?$AAe?$AA?9?$AAs?$AAi?$AAm?$AAp?$AAl?$AAi?$AAf?$AAi?$AAe?$AAd?$AA?$AA@ 10054310     LIBCMT:getqloc.obj
 0002:00010338       ??_C@_1CE@GAJNDCKG@?$AAc?$AAh?$AAi?$AAn?$AAe?$AAs?$AAe?$AA?9?$AAs?$AAi?$AAn?$AAg?$AAa?$AAp?$AAo?$AAr?$AAe?$AA?$AA@ 10054338     LIBCMT:getqloc.obj
 0002:0001035c       ??_C@_1CI@PAJPIOOD@?$AAc?$AAh?$AAi?$AAn?$AAe?$AAs?$AAe?$AA?9?$AAt?$AAr?$AAa?$AAd?$AAi?$AAt?$AAi?$AAo?$AAn?$AAa?$AAl?$AA?$AA@ 1005435c     LIBCMT:getqloc.obj
 0002:00010384       ??_C@_1BM@NILJBMMD@?$AAd?$AAu?$AAt?$AAc?$AAh?$AA?9?$AAb?$AAe?$AAl?$AAg?$AAi?$AAa?$AAn?$AA?$AA@ 10054384     LIBCMT:getqloc.obj
 0002:000103a0       ??_C@_1CC@OOJPJNEJ@?$AAe?$AAn?$AAg?$AAl?$AAi?$AAs?$AAh?$AA?9?$AAa?$AAm?$AAe?$AAr?$AAi?$AAc?$AAa?$AAn?$AA?$AA@ 100543a0     LIBCMT:getqloc.obj
 0002:000103c4       ??_C@_1BI@IOLFEEM@?$AAe?$AAn?$AAg?$AAl?$AAi?$AAs?$AAh?$AA?9?$AAa?$AAu?$AAs?$AA?$AA@ 100543c4     LIBCMT:getqloc.obj
 0002:000103dc       ??_C@_1BO@HFFNLENJ@?$AAe?$AAn?$AAg?$AAl?$AAi?$AAs?$AAh?$AA?9?$AAb?$AAe?$AAl?$AAi?$AAz?$AAe?$AA?$AA@ 100543dc     LIBCMT:getqloc.obj
 0002:000103fc       ??_C@_1BI@HAPKJMPO@?$AAe?$AAn?$AAg?$AAl?$AAi?$AAs?$AAh?$AA?9?$AAc?$AAa?$AAn?$AA?$AA@ 100543fc     LIBCMT:getqloc.obj
 0002:00010414       ??_C@_1CE@HLNDMIOJ@?$AAe?$AAn?$AAg?$AAl?$AAi?$AAs?$AAh?$AA?9?$AAc?$AAa?$AAr?$AAi?$AAb?$AAb?$AAe?$AAa?$AAn?$AA?$AA@ 10054414     LIBCMT:getqloc.obj
 0002:00010438       ??_C@_1BI@LDHJHHAC@?$AAe?$AAn?$AAg?$AAl?$AAi?$AAs?$AAh?$AA?9?$AAi?$AAr?$AAe?$AA?$AA@ 10054438     LIBCMT:getqloc.obj
 0002:00010450       ??_C@_1CA@NJMMCFOC@?$AAe?$AAn?$AAg?$AAl?$AAi?$AAs?$AAh?$AA?9?$AAj?$AAa?$AAm?$AAa?$AAi?$AAc?$AAa?$AA?$AA@ 10054450     LIBCMT:getqloc.obj
 0002:00010470       ??_C@_1BG@BHJEBBGG@?$AAe?$AAn?$AAg?$AAl?$AAi?$AAs?$AAh?$AA?9?$AAn?$AAz?$AA?$AA@ 10054470     LIBCMT:getqloc.obj
 0002:00010488       ??_C@_1CK@FGOEJJCO@?$AAe?$AAn?$AAg?$AAl?$AAi?$AAs?$AAh?$AA?9?$AAs?$AAo?$AAu?$AAt?$AAh?$AA?5?$AAa?$AAf?$AAr?$AAi?$AAc?$AAa?$AA?$AA@ 10054488     LIBCMT:getqloc.obj
 0002:000104b4       ??_C@_1DE@PDBJPCJ@?$AAe?$AAn?$AAg?$AAl?$AAi?$AAs?$AAh?$AA?9?$AAt?$AAr?$AAi?$AAn?$AAi?$AAd?$AAa?$AAd?$AA?5?$AAy?$AA?5?$AAt?$AAo?$AAb?$AAa?$AAg?$AAo?$AA?$AA@ 100544b4     LIBCMT:getqloc.obj
 0002:000104e8       ??_C@_1BG@JGCANDME@?$AAe?$AAn?$AAg?$AAl?$AAi?$AAs?$AAh?$AA?9?$AAu?$AAk?$AA?$AA@ 100544e8     LIBCMT:getqloc.obj
 0002:00010500       ??_C@_1BG@DINKMLE@?$AAe?$AAn?$AAg?$AAl?$AAi?$AAs?$AAh?$AA?9?$AAu?$AAs?$AA?$AA@ 10054500     LIBCMT:getqloc.obj
 0002:00010518       ??_C@_1BI@NMFDBHJE@?$AAe?$AAn?$AAg?$AAl?$AAi?$AAs?$AAh?$AA?9?$AAu?$AAs?$AAa?$AA?$AA@ 10054518     LIBCMT:getqloc.obj
 0002:00010530       ??_C@_1BO@OIHKJKII@?$AAf?$AAr?$AAe?$AAn?$AAc?$AAh?$AA?9?$AAb?$AAe?$AAl?$AAg?$AAi?$AAa?$AAn?$AA?$AA@ 10054530     LIBCMT:getqloc.obj
 0002:00010550       ??_C@_1CA@NKAELJKI@?$AAf?$AAr?$AAe?$AAn?$AAc?$AAh?$AA?9?$AAc?$AAa?$AAn?$AAa?$AAd?$AAi?$AAa?$AAn?$AA?$AA@ 10054550     LIBCMT:getqloc.obj
 0002:00010570       ??_C@_1CE@MGKCNLGN@?$AAf?$AAr?$AAe?$AAn?$AAc?$AAh?$AA?9?$AAl?$AAu?$AAx?$AAe?$AAm?$AAb?$AAo?$AAu?$AAr?$AAg?$AA?$AA@ 10054570     LIBCMT:getqloc.obj
 0002:00010594       ??_C@_1BK@CEGEAILM@?$AAf?$AAr?$AAe?$AAn?$AAc?$AAh?$AA?9?$AAs?$AAw?$AAi?$AAs?$AAs?$AA?$AA@ 10054594     LIBCMT:getqloc.obj
 0002:000105b0       ??_C@_1CA@PAFKEOCC@?$AAg?$AAe?$AAr?$AAm?$AAa?$AAn?$AA?9?$AAa?$AAu?$AAs?$AAt?$AAr?$AAi?$AAa?$AAn?$AA?$AA@ 100545b0     LIBCMT:getqloc.obj
 0002:000105d0       ??_C@_1CI@HCFHGOFD@?$AAg?$AAe?$AAr?$AAm?$AAa?$AAn?$AA?9?$AAl?$AAi?$AAc?$AAh?$AAt?$AAe?$AAn?$AAs?$AAt?$AAe?$AAi?$AAn?$AA?$AA@ 100545d0     LIBCMT:getqloc.obj
 0002:000105f8       ??_C@_1CE@FEDDNPDG@?$AAg?$AAe?$AAr?$AAm?$AAa?$AAn?$AA?9?$AAl?$AAu?$AAx?$AAe?$AAm?$AAb?$AAo?$AAu?$AAr?$AAg?$AA?$AA@ 100545f8     LIBCMT:getqloc.obj
 0002:0001061c       ??_C@_1BK@LIMINNMN@?$AAg?$AAe?$AAr?$AAm?$AAa?$AAn?$AA?9?$AAs?$AAw?$AAi?$AAs?$AAs?$AA?$AA@ 1005461c     LIBCMT:getqloc.obj
 0002:00010638       ??_C@_1BM@LGMDBEPD@?$AAi?$AAr?$AAi?$AAs?$AAh?$AA?9?$AAe?$AAn?$AAg?$AAl?$AAi?$AAs?$AAh?$AA?$AA@ 10054638     LIBCMT:getqloc.obj
 0002:00010654       ??_C@_1BM@NNCFBAEE@?$AAi?$AAt?$AAa?$AAl?$AAi?$AAa?$AAn?$AA?9?$AAs?$AAw?$AAi?$AAs?$AAs?$AA?$AA@ 10054654     LIBCMT:getqloc.obj
 0002:00010670       ??_C@_1BE@FEDJNPIB@?$AAn?$AAo?$AAr?$AAw?$AAe?$AAg?$AAi?$AAa?$AAn?$AA?$AA@ 10054670     LIBCMT:getqloc.obj
 0002:00010684       ??_C@_1CC@CILKDEIE@?$AAn?$AAo?$AAr?$AAw?$AAe?$AAg?$AAi?$AAa?$AAn?$AA?9?$AAb?$AAo?$AAk?$AAm?$AAa?$AAl?$AA?$AA@ 10054684     LIBCMT:getqloc.obj
 0002:000106a8       ??_C@_1CE@DHMMHEPL@?$AAn?$AAo?$AAr?$AAw?$AAe?$AAg?$AAi?$AAa?$AAn?$AA?9?$AAn?$AAy?$AAn?$AAo?$AAr?$AAs?$AAk?$AA?$AA@ 100546a8     LIBCMT:getqloc.obj
 0002:000106cc       ??_C@_1CK@OPNMHECD@?$AAp?$AAo?$AAr?$AAt?$AAu?$AAg?$AAu?$AAe?$AAs?$AAe?$AA?9?$AAb?$AAr?$AAa?$AAz?$AAi?$AAl?$AAi?$AAa?$AAn?$AA?$AA@ 100546cc     LIBCMT:getqloc.obj
 0002:000106f8       ??_C@_1CE@KEEHCDB@?$AAs?$AAp?$AAa?$AAn?$AAi?$AAs?$AAh?$AA?9?$AAa?$AAr?$AAg?$AAe?$AAn?$AAt?$AAi?$AAn?$AAa?$AA?$AA@ 100546f8     LIBCMT:getqloc.obj
 0002:0001071c       ??_C@_1CA@GIAOLHJD@?$AAs?$AAp?$AAa?$AAn?$AAi?$AAs?$AAh?$AA?9?$AAb?$AAo?$AAl?$AAi?$AAv?$AAi?$AAa?$AA?$AA@ 1005471c     LIBCMT:getqloc.obj
 0002:0001073c       ??_C@_1BM@OJNDFNPD@?$AAs?$AAp?$AAa?$AAn?$AAi?$AAs?$AAh?$AA?9?$AAc?$AAh?$AAi?$AAl?$AAe?$AA?$AA@ 1005473c     LIBCMT:getqloc.obj
 0002:00010758       ??_C@_1CC@OCOLPALL@?$AAs?$AAp?$AAa?$AAn?$AAi?$AAs?$AAh?$AA?9?$AAc?$AAo?$AAl?$AAo?$AAm?$AAb?$AAi?$AAa?$AA?$AA@ 10054758     LIBCMT:getqloc.obj
 0002:0001077c       ??_C@_1CG@BPOFMKBB@?$AAs?$AAp?$AAa?$AAn?$AAi?$AAs?$AAh?$AA?9?$AAc?$AAo?$AAs?$AAt?$AAa?$AA?5?$AAr?$AAi?$AAc?$AAa?$AA?$AA@ 1005477c     LIBCMT:getqloc.obj
 0002:000107a4       ??_C@_1DG@IGOBAPBB@?$AAs?$AAp?$AAa?$AAn?$AAi?$AAs?$AAh?$AA?9?$AAd?$AAo?$AAm?$AAi?$AAn?$AAi?$AAc?$AAa?$AAn?$AA?5?$AAr?$AAe?$AAp?$AAu?$AAb?$AAl?$AAi?$AAc?$AA?$AA@ 100547a4     LIBCMT:getqloc.obj
 0002:000107dc       ??_C@_1CA@JHAPGEGI@?$AAs?$AAp?$AAa?$AAn?$AAi?$AAs?$AAh?$AA?9?$AAe?$AAc?$AAu?$AAa?$AAd?$AAo?$AAr?$AA?$AA@ 100547dc     LIBCMT:getqloc.obj
 0002:000107fc       ??_C@_1CI@LAPALJPP@?$AAs?$AAp?$AAa?$AAn?$AAi?$AAs?$AAh?$AA?9?$AAe?$AAl?$AA?5?$AAs?$AAa?$AAl?$AAv?$AAa?$AAd?$AAo?$AAr?$AA?$AA@ 100547fc     LIBCMT:getqloc.obj
 0002:00010824       ??_C@_1CE@PDGBOFOM@?$AAs?$AAp?$AAa?$AAn?$AAi?$AAs?$AAh?$AA?9?$AAg?$AAu?$AAa?$AAt?$AAe?$AAm?$AAa?$AAl?$AAa?$AA?$AA@ 10054824     LIBCMT:getqloc.obj
 0002:00010848       ??_C@_1CC@NBEBAODI@?$AAs?$AAp?$AAa?$AAn?$AAi?$AAs?$AAh?$AA?9?$AAh?$AAo?$AAn?$AAd?$AAu?$AAr?$AAa?$AAs?$AA?$AA@ 10054848     LIBCMT:getqloc.obj
 0002:0001086c       ??_C@_1CA@LLKGHBMF@?$AAs?$AAp?$AAa?$AAn?$AAi?$AAs?$AAh?$AA?9?$AAm?$AAe?$AAx?$AAi?$AAc?$AAa?$AAn?$AA?$AA@ 1005486c     LIBCMT:getqloc.obj
 0002:0001088c       ??_C@_1BO@LKNDOIGD@?$AAs?$AAp?$AAa?$AAn?$AAi?$AAs?$AAh?$AA?9?$AAm?$AAo?$AAd?$AAe?$AAr?$AAn?$AA?$AA@ 1005488c     LIBCMT:getqloc.obj
 0002:000108ac       ??_C@_1CE@NMDMOEEB@?$AAs?$AAp?$AAa?$AAn?$AAi?$AAs?$AAh?$AA?9?$AAn?$AAi?$AAc?$AAa?$AAr?$AAa?$AAg?$AAu?$AAa?$AA?$AA@ 100548ac     LIBCMT:getqloc.obj
 0002:000108d0       ??_C@_1BO@LLCBEJGB@?$AAs?$AAp?$AAa?$AAn?$AAi?$AAs?$AAh?$AA?9?$AAp?$AAa?$AAn?$AAa?$AAm?$AAa?$AA?$AA@ 100548d0     LIBCMT:getqloc.obj
 0002:000108f0       ??_C@_1CC@FKPGGIHO@?$AAs?$AAp?$AAa?$AAn?$AAi?$AAs?$AAh?$AA?9?$AAp?$AAa?$AAr?$AAa?$AAg?$AAu?$AAa?$AAy?$AA?$AA@ 100548f0     LIBCMT:getqloc.obj
 0002:00010914       ??_C@_1BK@CDEIHOOP@?$AAs?$AAp?$AAa?$AAn?$AAi?$AAs?$AAh?$AA?9?$AAp?$AAe?$AAr?$AAu?$AA?$AA@ 10054914     LIBCMT:getqloc.obj
 0002:00010930       ??_C@_1CI@GAHAKKGP@?$AAs?$AAp?$AAa?$AAn?$AAi?$AAs?$AAh?$AA?9?$AAp?$AAu?$AAe?$AAr?$AAt?$AAo?$AA?5?$AAr?$AAi?$AAc?$AAo?$AA?$AA@ 10054930     LIBCMT:getqloc.obj
 0002:00010958       ??_C@_1CA@NKJBCAGP@?$AAs?$AAp?$AAa?$AAn?$AAi?$AAs?$AAh?$AA?9?$AAu?$AAr?$AAu?$AAg?$AAu?$AAa?$AAy?$AA?$AA@ 10054958     LIBCMT:getqloc.obj
 0002:00010978       ??_C@_1CE@ODILCONM@?$AAs?$AAp?$AAa?$AAn?$AAi?$AAs?$AAh?$AA?9?$AAv?$AAe?$AAn?$AAe?$AAz?$AAu?$AAe?$AAl?$AAa?$AA?$AA@ 10054978     LIBCMT:getqloc.obj
 0002:0001099c       ??_C@_1CA@OBNMCGFO@?$AAs?$AAw?$AAe?$AAd?$AAi?$AAs?$AAh?$AA?9?$AAf?$AAi?$AAn?$AAl?$AAa?$AAn?$AAd?$AA?$AA@ 1005499c     LIBCMT:getqloc.obj
 0002:000109bc       ??_C@_1M@PIPDDPPI@?$AAs?$AAw?$AAi?$AAs?$AAs?$AA?$AA@ 100549bc     LIBCMT:getqloc.obj
 0002:000109c8       ??_C@_15GMFIMNFM@?$AAu?$AAs?$AA?$AA@ 100549c8     LIBCMT:getqloc.obj
 0002:000109d0       ??_C@_17HAEBFAGL@?$AAu?$AAs?$AAa?$AA?$AA@ 100549d0     LIBCMT:getqloc.obj
 0002:000109d8       ___rg_country              100549d8     LIBCMT:getqloc.obj
 0002:00010aec       ??_C@_1BA@DPFJEPHB@?$AAa?$AAm?$AAe?$AAr?$AAi?$AAc?$AAa?$AA?$AA@ 10054aec     LIBCMT:getqloc.obj
 0002:00010afc       ??_C@_1BA@ELOGGFK@?$AAb?$AAr?$AAi?$AAt?$AAa?$AAi?$AAn?$AA?$AA@ 10054afc     LIBCMT:getqloc.obj
 0002:00010b0c       ??_C@_1M@GHBGIGDA@?$AAc?$AAh?$AAi?$AAn?$AAa?$AA?$AA@ 10054b0c     LIBCMT:getqloc.obj
 0002:00010b18       ??_C@_1M@NCHEJOPO@?$AAc?$AAz?$AAe?$AAc?$AAh?$AA?$AA@ 10054b18     LIBCMT:getqloc.obj
 0002:00010b24       ??_C@_1BA@BKPAPBLA@?$AAe?$AAn?$AAg?$AAl?$AAa?$AAn?$AAd?$AA?$AA@ 10054b24     LIBCMT:getqloc.obj
 0002:00010b34       ??_C@_1BM@HKBCKIPC@?$AAg?$AAr?$AAe?$AAa?$AAt?$AA?5?$AAb?$AAr?$AAi?$AAt?$AAa?$AAi?$AAn?$AA?$AA@ 10054b34     LIBCMT:getqloc.obj
 0002:00010b50       ??_C@_1BA@PPCHPGJB@?$AAh?$AAo?$AAl?$AAl?$AAa?$AAn?$AAd?$AA?$AA@ 10054b50     LIBCMT:getqloc.obj
 0002:00010b60       ??_C@_1BE@JBMPEGDG@?$AAh?$AAo?$AAn?$AAg?$AA?9?$AAk?$AAo?$AAn?$AAg?$AA?$AA@ 10054b60     LIBCMT:getqloc.obj
 0002:00010b74       ??_C@_1BI@KOELBBPJ@?$AAn?$AAe?$AAw?$AA?9?$AAz?$AAe?$AAa?$AAl?$AAa?$AAn?$AAd?$AA?$AA@ 10054b74     LIBCMT:getqloc.obj
 0002:00010b8c       ??_C@_15HIEBHAIO@?$AAn?$AAz?$AA?$AA@ 10054b8c     LIBCMT:getqloc.obj
 0002:00010b94       ??_C@_1BC@CHBCPFPI@?$AAp?$AAr?$AA?5?$AAc?$AAh?$AAi?$AAn?$AAa?$AA?$AA@ 10054b94     LIBCMT:getqloc.obj
 0002:00010ba8       ??_C@_1BC@JAOIIFKD@?$AAp?$AAr?$AA?9?$AAc?$AAh?$AAi?$AAn?$AAa?$AA?$AA@ 10054ba8     LIBCMT:getqloc.obj
 0002:00010bbc       ??_C@_1BI@BEHPPHKC@?$AAp?$AAu?$AAe?$AAr?$AAt?$AAo?$AA?9?$AAr?$AAi?$AAc?$AAo?$AA?$AA@ 10054bbc     LIBCMT:getqloc.obj
 0002:00010bd4       ??_C@_1O@PAEOFKDI@?$AAs?$AAl?$AAo?$AAv?$AAa?$AAk?$AA?$AA@ 10054bd4     LIBCMT:getqloc.obj
 0002:00010be4       ??_C@_1BK@FIHMCKAM@?$AAs?$AAo?$AAu?$AAt?$AAh?$AA?5?$AAa?$AAf?$AAr?$AAi?$AAc?$AAa?$AA?$AA@ 10054be4     LIBCMT:getqloc.obj
 0002:00010c00       ??_C@_1BI@NAEOODKB@?$AAs?$AAo?$AAu?$AAt?$AAh?$AA?5?$AAk?$AAo?$AAr?$AAe?$AAa?$AA?$AA@ 10054c00     LIBCMT:getqloc.obj
 0002:00010c18       ??_C@_1BK@FBDGGIFF@?$AAs?$AAo?$AAu?$AAt?$AAh?$AA?9?$AAa?$AAf?$AAr?$AAi?$AAc?$AAa?$AA?$AA@ 10054c18     LIBCMT:getqloc.obj
 0002:00010c34       ??_C@_1BI@GHLEJDPK@?$AAs?$AAo?$AAu?$AAt?$AAh?$AA?9?$AAk?$AAo?$AAr?$AAe?$AAa?$AA?$AA@ 10054c34     LIBCMT:getqloc.obj
 0002:00010c4c       ??_C@_1CE@PLHLOMJF@?$AAt?$AAr?$AAi?$AAn?$AAi?$AAd?$AAa?$AAd?$AA?5?$AA?$CG?$AA?5?$AAt?$AAo?$AAb?$AAa?$AAg?$AAo?$AA?$AA@ 10054c4c     LIBCMT:getqloc.obj
 0002:00010c70       ??_C@_1BO@MODIMHHI@?$AAu?$AAn?$AAi?$AAt?$AAe?$AAd?$AA?9?$AAk?$AAi?$AAn?$AAg?$AAd?$AAo?$AAm?$AA?$AA@ 10054c70     LIBCMT:getqloc.obj
 0002:00010c90       ??_C@_1BM@FFHJONBJ@?$AAu?$AAn?$AAi?$AAt?$AAe?$AAd?$AA?9?$AAs?$AAt?$AAa?$AAt?$AAe?$AAs?$AA?$AA@ 10054c90     LIBCMT:getqloc.obj
 0002:00010cac       ___rg_language_count       10054cac     LIBCMT:getqloc.obj
 0002:00010cb0       ___rg_country_count        10054cb0     LIBCMT:getqloc.obj
 0002:00010cb4       ??_C@_17DNCLJFIF@?$AAA?$AAC?$AAP?$AA?$AA@ 10054cb4     LIBCMT:getqloc.obj
 0002:00010cbc       ??_C@_17CIKBIHLH@?$AAO?$AAC?$AAP?$AA?$AA@ 10054cbc     LIBCMT:getqloc.obj
 0002:00010cc4       ___rglangidNotDefault      10054cc4     LIBCMT:getqloc_downlevel.obj
 0002:00010cd8       __real@00000000            10054cd8     LIBCMT:wcstoq.obj
 0002:00010ce0       __load_config_used         10054ce0     LIBCMT:loadcfg.obj
 0002:00012b40       ___safe_se_handler_table   10056b40     <linker-defined>
 0002:00012c50       ___rtc_iaa                 10056c50     LIBCMT:initsect.obj
 0002:00012d54       ___rtc_izz                 10056d54     LIBCMT:initsect.obj
 0002:00012e58       ___rtc_taa                 10056e58     LIBCMT:initsect.obj
 0002:00012f5c       ___rtc_tzz                 10056f5c     LIBCMT:initsect.obj
 0003:000005b8       _Pos_PID_P                 100585b8     Pos_PID_data.obj
 0003:00001948       _pci20041digout            10059948     xpctarget.obj
 0003:0000194c       _nipcdio24cnfg             1005994c     xpctarget.obj
 0003:00001950       _rtddm6604cnfg             10059950     xpctarget.obj
 0003:00001a74       _DefaultCOMIOBase          10059a74     xpcruntime:xpcimports.obj
 0003:00001a84       _DefaultCOMIRQ             10059a84     xpcruntime:xpcimports.obj
 0003:00001aa0       __fltused                  10059aa0     LIBCMT:fpinit.obj
 0003:00001aa4       __ldused                   10059aa4     LIBCMT:fpinit.obj
 0003:00001ab0       __iob                      10059ab0     LIBCMT:_file.obj
 0003:00001d30       ___isa_enabled             10059d30     LIBCMT:cpu_disp.obj
 0003:00001d34       ___security_cookie         10059d34     LIBCMT:gs_cookie.obj
 0003:00001d38       ___security_cookie_complement 10059d38     LIBCMT:gs_cookie.obj
 0003:00001f10       ___nullstring              10059f10     LIBCMT:output.obj
 0003:00001f14       ___wnullstring             10059f14     LIBCMT:output.obj
 0003:00001f38       __cfltcvt_tab              10059f38     LIBCMT:cmiscdat.obj
 0003:00002088       __mbctype                  1005a088     LIBCMT:mbctype.obj
 0003:00002190       __mbcasemap                1005a190     LIBCMT:mbctype.obj
 0003:00002290       ___initialmbcinfo          1005a290     LIBCMT:mbctype.obj
 0003:000024b4       ___ptmbcinfo               1005a4b4     LIBCMT:mbctype.obj
 0003:000025b0       ___badioinfo               1005a5b0     LIBCMT:ioinit.obj
 0003:000025f0       __lookuptrailbytes         1005a5f0     LIBCMT:read.obj
 0003:000026f0       __d_inf                    1005a6f0     LIBCMT:util.obj
 0003:000026f8       __d_ind                    1005a6f8     LIBCMT:util.obj
 0003:00002700       __d_max                    1005a700     LIBCMT:util.obj
 0003:00002708       __d_min                    1005a708     LIBCMT:util.obj
 0003:00002710       __d_mzero                  1005a710     LIBCMT:util.obj
 0003:0000281c       ___abort_behavior          1005a81c     LIBCMT:abort.obj
 0003:00002820       ___flsindex                1005a820     LIBCMT:tidtable.obj
 0003:00002830       ___mb_cur_max              1005a830     LIBCMT:nlsdata.obj
 0003:00002834       ___wclocalestr             1005a834     LIBCMT:nlsdata.obj
 0003:00002838       ___lc_time_c               1005a838     LIBCMT:nlsdata.obj
 0003:0000299c       ___ptlocinfo               1005a99c     LIBCMT:nlsdata.obj
 0003:000029a0       ___initiallocinfo          1005a9a0     LIBCMT:nlsdata.obj
 0003:00002a58       ___initiallocalestructinfo 1005aa58     LIBCMT:nlsdata.obj
 0003:00002a60       ___globallocalestatus      1005aa60     LIBCMT:glstatus.obj
 0003:00002a70       __NLG_Destination          1005aa70     LIBCMT:exsup.obj
 0003:00002a80       __matherr_flag             1005aa80     LIBCMT:matherr.obj
 0003:00002a88       ___lconv                   1005aa88     LIBCMT:lconv.obj
 0003:00002a8c       ___lconv_static_decimal    1005aa8c     LIBCMT:lconv.obj
 0003:00002a90       ___lconv_c                 1005aa90     LIBCMT:lconv.obj
 0003:00002ae0       ___lconv_static_W_decimal  1005aae0     LIBCMT:lconv.obj
 0003:00002ae4       __pctype                   1005aae4     LIBCMT:ctype.obj
 0003:00002ae8       __pwctype                  1005aae8     LIBCMT:ctype.obj
 0003:00002b20       __confh                    1005ab20     LIBCMT:initcon.obj
 0003:00002b28       __pow10pos                 1005ab28     LIBCMT:constpow.obj
 0003:00002c88       __pow10neg                 1005ac88     LIBCMT:constpow.obj
 0003:00002df0       __HUGE                     1005adf0     LIBCMT:huge.obj
 0003:0000335c       ___isa_available_default   1005b35c     rt_logging.obj
 0003:0000336c       _pci20098PortA             1005b36c     xpctarget.obj
 0003:00003370       _pci20098PortB             1005b370     xpctarget.obj
 0003:00003374       _siepowercan_firmware_initialized 1005b374     xpctarget.obj
 0003:00003378       _siepowercan_port1_configured 1005b378     xpctarget.obj
 0003:0000337c       _siepowercan_port2_configured 1005b37c     xpctarget.obj
 0003:00003380       _CANAC2_FIRMWARE_LOADED    1005b380     xpctarget.obj
 0003:00003384       _rs232ports                1005b384     xpctarget.obj
 0003:00003394       _NI_AT_MIO_16F_5_commreg2  1005b394     xpctarget.obj
 0003:00003398       _RTD_DM6430_init           1005b398     xpctarget.obj
 0003:0000339c       _RTD_DM6420_init           1005b39c     xpctarget.obj
 0003:000033a0       _CANAC2_FIRMWARE_LOADED_mb1 1005b3a0     xpctarget.obj
 0003:000033a4       _CANAC2_FIRMWARE_LOADED_mb2 1005b3a4     xpctarget.obj
 0003:000033a8       _CANAC2_FIRMWARE_LOADED_mb3 1005b3a8     xpctarget.obj
 0003:000033ac       _xmlsize                   1005b3ac     xpctarget.obj
 0003:000039f0       ___fastflag                1005b9f0     LIBCMT:fpinit.obj
 0003:00003d18       __C_Exit_Done              1005bd18     LIBCMT:crt0dat.obj
 0003:00003d1c       ___argc                    1005bd1c     LIBCMT:crt0dat.obj
 0003:00003d20       ___argv                    1005bd20     LIBCMT:crt0dat.obj
 0003:00003d24       ___wargv                   1005bd24     LIBCMT:crt0dat.obj
 0003:00003d28       __environ                  1005bd28     LIBCMT:crt0dat.obj
 0003:00003d2c       __wenviron                 1005bd2c     LIBCMT:crt0dat.obj
 0003:00003d30       __pgmptr                   1005bd30     LIBCMT:crt0dat.obj
 0003:00003d34       __wpgmptr                  1005bd34     LIBCMT:crt0dat.obj
 0003:00003d38       __umaskval                 1005bd38     LIBCMT:crt0dat.obj
 0003:00003d3c       __exitflag                 1005bd3c     LIBCMT:crt0dat.obj
 0003:00003d40       __C_Termination_Done       1005bd40     LIBCMT:crt0dat.obj
 0003:00003d44       ___winitenv                1005bd44     LIBCMT:crt0dat.obj
 0003:00003d48       ___initenv                 1005bd48     LIBCMT:crt0dat.obj
 0003:00003d4c       __cflush                   1005bd4c     LIBCMT:_file.obj
 0003:00003d50       ___isa_available           1005bd50     LIBCMT:cpu_disp.obj
 0003:00003d54       ___favor                   1005bd54     LIBCMT:cpu_disp.obj
 0003:00003d5c       __aenvptr                  1005bd5c     LIBCMT:dllcrt0.obj
 0003:00003d60       __wenvptr                  1005bd60     LIBCMT:dllcrt0.obj
 0003:00003d64       ?_pnhHeap@@3P6AHI@ZA       1005bd64     LIBCMT:handler.obj
 0003:00003d68       ___app_type                1005bd68     LIBCMT:crt0msg.obj
 0003:00004398       __newmode                  1005c398     LIBCMT:_newmode.obj
 0003:0000439c       __crtheap                  1005c39c     LIBCMT:heapinit.obj
 0003:000043a0       ___pInvalidArgHandler      1005c3a0     LIBCMT:invarg.obj
 0003:000043a4       __stdbuf                   1005c3a4     LIBCMT:_sftbuf.obj
 0003:00004500       __maxwait                  1005c500     LIBCMT:crtheap.obj
 0003:00004504       ?__pInconsistency@@3P6AXXZA 1005c504     LIBCMT:hooks.obj
 0003:00004508       ___pPurecall               1005c508     LIBCMT:inithelp.obj
 0003:00004524       ___mbcodepage              1005c524     LIBCMT:mbctype.obj
 0003:00004528       ___ismbcodepage            1005c528     LIBCMT:mbctype.obj
 0003:0000452c       ___mbulinfo                1005c52c     LIBCMT:mbctype.obj
 0003:00004538       ___mblocalename            1005c538     LIBCMT:mbctype.obj
 0003:00004540       ___pioinfo                 1005c540     LIBCMT:ioinit.obj
 0003:00004640       ___error_mode              1005c640     LIBCMT:errmode.obj
 0003:00004760       __outputformat             1005c760     LIBCMT:outputformat.obj
 0003:00004768       __commode                  1005c768     LIBCMT:ncommode.obj
 0003:0000476c       ___lconv_static_null       1005c76c     LIBCMT:lconv.obj
 0003:00004770       ___lconv_static_W_null     1005c770     LIBCMT:lconv.obj
 0003:00004774       ___locale_changed          1005c774     LIBCMT:wsetloca.obj
 0003:00004778       __fmode                    1005c778     LIBCMT:txtmode.obj
 0003:00004780       _CANAC2_2_receiveindex_mb3 1005c780     <common>
 0003:00007854       _CANAC2_2_receivemaxindex_mb3 1005f854     <common>
 0003:00007860       _CANAC2_2_sendindex_mb3    1005f860     <common>
 0003:00007b80       _CANAC2_2_sendmaxindex_mb3 1005fb80     <common>
 0003:00007ba0       _CANAC2_1_receiveindex_mb3 1005fba0     <common>
 0003:00007ec0       _CANAC2_1_receivemaxindex_mb3 1005fec0     <common>
 0003:00007ee0       _CANAC2_1_sendindex_mb3    1005fee0     <common>
 0003:00008200       _CANAC2_1_sendmaxindex_mb3 10060200     <common>
 0003:00008220       _CANAC2_2_receive_mb3      10060220     <common>
 0003:00008540       _CANAC2_2_send_mb3         10060540     <common>
 0003:00008860       _CANAC2_1_receive_mb3      10060860     <common>
 0003:00008b80       _CANAC2_1_send_mb3         10060b80     <common>
 0003:00008ea0       _CANAC2_2_receiveindex_mb2 10060ea0     <common>
 0003:000091c0       _CANAC2_2_receivemaxindex_mb2 100611c0     <common>
 0003:000091e0       _CANAC2_2_sendindex_mb2    100611e0     <common>
 0003:00009500       _CANAC2_2_sendmaxindex_mb2 10061500     <common>
 0003:00009520       _CANAC2_1_receiveindex_mb2 10061520     <common>
 0003:00009840       _CANAC2_1_receivemaxindex_mb2 10061840     <common>
 0003:00009860       _CANAC2_1_sendindex_mb2    10061860     <common>
 0003:00009b80       _CANAC2_1_sendmaxindex_mb2 10061b80     <common>
 0003:00009ba0       _CANAC2_2_receive_mb2      10061ba0     <common>
 0003:00009ec0       _CANAC2_2_send_mb2         10061ec0     <common>
 0003:0000a1e0       _CANAC2_1_receive_mb2      100621e0     <common>
 0003:0000a500       _CANAC2_1_send_mb2         10062500     <common>
 0003:0000a820       _CANAC2_2_receiveindex_mb1 10062820     <common>
 0003:0000ab40       _CANAC2_2_receivemaxindex_mb1 10062b40     <common>
 0003:0000ab60       _CANAC2_2_sendindex_mb1    10062b60     <common>
 0003:0000ae80       _CANAC2_2_sendmaxindex_mb1 10062e80     <common>
 0003:0000aea0       _CANAC2_1_receiveindex_mb1 10062ea0     <common>
 0003:0000b1c0       _CANAC2_1_receivemaxindex_mb1 100631c0     <common>
 0003:0000b1e0       _CANAC2_1_sendindex_mb1    100631e0     <common>
 0003:0000b500       _CANAC2_1_sendmaxindex_mb1 10063500     <common>
 0003:0000b520       _CANAC2_2_receive_mb1      10063520     <common>
 0003:0000b840       _CANAC2_2_send_mb1         10063840     <common>
 0003:0000bb60       _CANAC2_1_receive_mb1      10063b60     <common>
 0003:0000be80       _CANAC2_1_send_mb1         10063e80     <common>
 0003:0000c1a0       _CANAC2_2_receiveindex     100641a0     <common>
 0003:0000c4c0       _CANAC2_2_receivemaxindex  100644c0     <common>
 0003:0000c4e0       _CANAC2_2_sendindex        100644e0     <common>
 0003:0000c800       _CANAC2_2_sendmaxindex     10064800     <common>
 0003:0000c820       _CANAC2_1_receiveindex     10064820     <common>
 0003:0000cb40       _CANAC2_1_receivemaxindex  10064b40     <common>
 0003:0000cb60       _CANAC2_1_sendindex        10064b60     <common>
 0003:0000ce80       _CANAC2_1_sendmaxindex     10064e80     <common>
 0003:0000cea0       _CANAC2_2_receive          10064ea0     <common>
 0003:0000d1c0       _CANAC2_2_send             100651c0     <common>
 0003:0000d4e0       _CANAC2_1_receive          100654e0     <common>
 0003:0000d800       _CANAC2_1_send             10065800     <common>
 0003:0000db20       _siepowercan_can_object_buffer_port2 10065b20     <common>
 0003:00011b40       _siepowercan_can_object_buffer_port1 10069b40     <common>
 0003:00015b40       _rtNaNF                    1006db40     <common>
 0003:00015b54       _rtMinusInfF               1006db54     <common>
 0003:00015b58       _rtInfF                    1006db58     <common>
 0003:00015b60       _rtNaN                     1006db60     <common>
 0003:00015b68       _rtMinusInf                1006db68     <common>
 0003:00015b70       _rtInf                     1006db70     <common>
 0003:00015b80       _Pos_PID_M_                1006db80     <common>
 0003:00018d00       _Pos_PID_DW                10070d00     <common>
 0003:00018ea0       _Pos_PID_X                 10070ea0     <common>
 0003:00018ee0       _Pos_PID_B                 10070ee0     <common>
 0003:00019160       _xpceaddEvent              10071160     <common>
 0003:000191b0       _xpceDeRegisterISR         100711b0     <common>
 0003:000191b4       _xpceRegisterISR           100711b4     <common>
 0003:000191b8       _xpcIsModelInit            100711b8     <common>
 0003:000191bc       _xpcGetElapsedTime         100711bc     <common>
 0003:000191c0       _xpcBusyWait               100711c0     <common>
 0003:000191c4       _xpcFreePhysicalMemory     100711c4     <common>
 0003:000191c8       _xpcAllocPhysicalMemory    100711c8     <common>
 0003:000191cc       _xpcReserveMemoryRegion    100711cc     <common>
 0003:000191d0       _xpcOutpB                  100711d0     <common>
 0003:000191d4       _xpcOutpW                  100711d4     <common>
 0003:000191d8       _xpcOutpDW                 100711d8     <common>
 0003:000191dc       _xpcInpB                   100711dc     <common>
 0003:000191e0       _xpcInpW                   100711e0     <common>
 0003:000191e4       _xpcInpDW                  100711e4     <common>
 0003:000191e8       _slTestRegAssessment       100711e8     <common>
 0003:000191ec       _slTestTerminate           100711ec     <common>
 0003:000191f0       _slTestEvalOnFail          100711f0     <common>
 0003:000191f4       _slTestLogAssessments      100711f4     <common>
 0003:000191f8       _slTestInitialize          100711f8     <common>
 0003:000191fc       _unRegisterPTPTimeRead     100711fc     <common>
 0003:00019200       _registerPTPTimeRead       10071200     <common>
 0003:00019204       _slrteGetCurrentStepSize   10071204     <common>
 0003:00019208       _slrteSetStepSizeDelta     10071208     <common>
 0003:0001920c       _xpceGetIntTimerGranularityNS 1007120c     <common>
 0003:00019210       _sendToAsyncQueueTgtAppSvc 10071210     <common>
 0003:00019214       _terminateToAsyncQueueTgtAppSvc 10071214     <common>
 0003:00019218       _startToAsyncQueueTgtAppSvc 10071218     <common>
 0003:0001921c       _getStatusFlags            1007121c     <common>
 0003:00019220       _getCommService            10071220     <common>
 0003:00019224       _getMemoryService          10071224     <common>
 0003:00019228       _StreamVideo               10071228     <common>
 0003:0001922c       _StopVideoDisplay          1007122c     <common>
 0003:00019230       _StartVideoDisplay         10071230     <common>
 0003:00019234       _DestroyVideoDisplay       10071234     <common>
 0003:00019238       _CreateVideoDisplay        10071238     <common>
 0003:0001923c       _ConvertUImage             1007123c     <common>
 0003:00019240       _StopVideo                 10071240     <common>
 0003:00019244       _ReadFrameBuffer           10071244     <common>
 0003:00019248       _StartVideo                10071248     <common>
 0003:0001924c       _GetVideoConfigs           1007124c     <common>
 0003:00019250       _FindUsbVideoDevice        10071250     <common>
 0003:00019254       _xpceDeleteSemaphore       10071254     <common>
 0003:00019258       _xpceSignalSemaphore       10071258     <common>
 0003:0001925c       _xpceWaitSemaphore         1007125c     <common>
 0003:00019260       _xpceCreateSemaphore       10071260     <common>
 0003:00019264       _TBGiveSpinFast            10071264     <common>
 0003:00019268       _TBTakeSpinFast            10071268     <common>
 0003:0001926c       _TBDeleteSpin              1007126c     <common>
 0003:00019270       _TBCreateSpin              10071270     <common>
 0003:00019274       _xpceScopeAcqOK            10071274     <common>
 0003:00019278       _rl32eRestartAcquisition   10071278     <common>
 0003:0001927c       _rl32eSetTargetScopeSigFt  1007127c     <common>
 0003:00019280       _rl32eSetTargetScope       10071280     <common>
 0003:00019284       _xpceFSScopeSet            10071284     <common>
 0003:00019288       _rl32eSetScope             10071288     <common>
 0003:0001928c       _rl32eAddSignal            1007128c     <common>
 0003:00019290       _rl32eGetSignalNo          10071290     <common>
 0003:00019294       _rl32eDefScope             10071294     <common>
 0003:00019298       _rl32eScopeExists          10071298     <common>
 0003:0001929c       _xpceUDPClose              1007129c     <common>
 0003:000192a0       _xpceUDPReceive            100712a0     <common>
 0003:000192a4       _xpceUDPSend               100712a4     <common>
 0003:000192a8       _xpceUDPOpenReceive        100712a8     <common>
 0003:000192ac       _xpceUDPOpenSend           100712ac     <common>
 0003:000192b0       _rl32eSendBlock            100712b0     <common>
 0003:000192b4       _rl32eLineStatus           100712b4     <common>
 0003:000192b8       _rl32eReceiveBufferCount   100712b8     <common>
 0003:000192bc       _rl32eReceiveChar          100712bc     <common>
 0003:000192c0       _rl32eSendChar             100712c0     <common>
 0003:000192c4       _rl32eCloseCOMPort         100712c4     <common>
 0003:000192c8       _rl32eInitCOMPort          100712c8     <common>
 0003:000192cc       _xpceGetParamDims          100712cc     <common>
 0003:000192d0       _xpceGetParameter          100712d0     <common>
 0003:000192d4       _xpceSetParameter          100712d4     <common>
 0003:000192d8       _xpceGetSignalValue        100712d8     <common>
 0003:000192dc       _xpceAssignPCIInterrupt    100712dc     <common>
 0003:000192e0       _rl32eGetPCIInfoAtSlot     100712e0     <common>
 0003:000192e4       _rl32eGetPCIInfo           100712e4     <common>
 0003:000192e8       _rl32eShowPCIInfo          100712e8     <common>
 0003:000192ec       _rl32eShowPCIDev           100712ec     <common>
 0003:000192f0       _xpceGetTET                100712f0     <common>
 0003:000192f4       _xpceFTSubtract            100712f4     <common>
 0003:000192f8       _xpceFTAdd                 100712f8     <common>
 0003:000192fc       _xpceFTReadTime            100712fc     <common>
 0003:00019300       ___unguarded_readlc_active 10071300     <common>
 0003:00019310       ___setlc_active            10071310     <common>
 0003:00019314       ___use_sse2_mathfcns       10071314     <common>
 0003:00019320       __nhandle                  10071320     <common>
 0003:00019340       _encodedKERNEL32Functions  10071340     <common>
 0003:000193e8       __debugger_hook_dummy      100713e8     <common>
 0003:000193f4       __pDestructExceptionObject 100713f4     <common>
 0003:00019400       __acmdln                   10071400     <common>
 0003:00019420       __bufin                    10071420     <common>
 0003:0001a75c       ___piob                    1007275c     <common>
 0003:0001a760       __nstream                  10072760     <common>
 0003:0001a764       ___dyn_tls_init_callback   10072764     <common>
 0003:0001a774       ___onexitend               10072774     <common>
 0003:0001a778       ___onexitbegin             10072778     <common>
 0003:0001a77c       ___mbctype_initialized     1007277c     <common>
 0003:0001a780       ___env_initialized         10072780     <common>
 0004:00000000       __imp__GetModuleHandleA@4  10073000     kernel32:KERNEL32.dll
 0004:00000004       __imp__GetProcAddress@8    10073004     kernel32:KERNEL32.dll
 0004:00000008       __imp__HeapAlloc@12        10073008     kernel32:KERNEL32.dll
 0004:0000000c       __imp__IsDebuggerPresent@0 1007300c     kernel32:KERNEL32.dll
 0004:00000010       __imp__IsProcessorFeaturePresent@4 10073010     kernel32:KERNEL32.dll
 0004:00000014       __imp__EncodePointer@4     10073014     kernel32:KERNEL32.dll
 0004:00000018       __imp__DecodePointer@4     10073018     kernel32:KERNEL32.dll
 0004:0000001c       __imp__GetLastError@0      1007301c     kernel32:KERNEL32.dll
 0004:00000020       __imp__ExitProcess@4       10073020     kernel32:KERNEL32.dll
 0004:00000024       __imp__GetModuleHandleExW@12 10073024     kernel32:KERNEL32.dll
 0004:00000028       __imp__AreFileApisANSI@0   10073028     kernel32:KERNEL32.dll
 0004:0000002c       __imp__MultiByteToWideChar@24 1007302c     kernel32:KERNEL32.dll
 0004:00000030       __imp__WideCharToMultiByte@32 10073030     kernel32:KERNEL32.dll
 0004:00000034       __imp__HeapFree@12         10073034     kernel32:KERNEL32.dll
 0004:00000038       __imp__HeapReAlloc@16      10073038     kernel32:KERNEL32.dll
 0004:0000003c       __imp__EnterCriticalSection@4 1007303c     kernel32:KERNEL32.dll
 0004:00000040       __imp__LeaveCriticalSection@4 10073040     kernel32:KERNEL32.dll
 0004:00000044       __imp__GetStdHandle@4      10073044     kernel32:KERNEL32.dll
 0004:00000048       __imp__GetFileType@4       10073048     kernel32:KERNEL32.dll
 0004:0000004c       __imp__GetModuleFileNameW@12 1007304c     kernel32:KERNEL32.dll
 0004:00000050       __imp__WriteConsoleW@20    10073050     kernel32:KERNEL32.dll
 0004:00000054       __imp__GetCommandLineA@0   10073054     kernel32:KERNEL32.dll
 0004:00000058       __imp__GetCurrentThreadId@0 10073058     kernel32:KERNEL32.dll
 0004:0000005c       __imp__WriteFile@20        1007305c     kernel32:KERNEL32.dll
 0004:00000060       __imp__GetProcessHeap@0    10073060     kernel32:KERNEL32.dll
 0004:00000064       __imp__UnhandledExceptionFilter@4 10073064     kernel32:KERNEL32.dll
 0004:00000068       __imp__SetUnhandledExceptionFilter@4 10073068     kernel32:KERNEL32.dll
 0004:0000006c       __imp__SetLastError@4      1007306c     kernel32:KERNEL32.dll
 0004:00000070       __imp__InitializeCriticalSectionAndSpinCount@8 10073070     kernel32:KERNEL32.dll
 0004:00000074       __imp__CreateEventW@16     10073074     kernel32:KERNEL32.dll
 0004:00000078       __imp__Sleep@4             10073078     kernel32:KERNEL32.dll
 0004:0000007c       __imp__GetCurrentProcess@0 1007307c     kernel32:KERNEL32.dll
 0004:00000080       __imp__TerminateProcess@8  10073080     kernel32:KERNEL32.dll
 0004:00000084       __imp__TlsAlloc@0          10073084     kernel32:KERNEL32.dll
 0004:00000088       __imp__TlsGetValue@4       10073088     kernel32:KERNEL32.dll
 0004:0000008c       __imp__TlsSetValue@8       1007308c     kernel32:KERNEL32.dll
 0004:00000090       __imp__TlsFree@4           10073090     kernel32:KERNEL32.dll
 0004:00000094       __imp__GetStartupInfoW@4   10073094     kernel32:KERNEL32.dll
 0004:00000098       __imp__GetTickCount@0      10073098     kernel32:KERNEL32.dll
 0004:0000009c       __imp__GetModuleHandleW@4  1007309c     kernel32:KERNEL32.dll
 0004:000000a0       __imp__CreateSemaphoreW@16 100730a0     kernel32:KERNEL32.dll
 0004:000000a4       __imp__DeleteCriticalSection@4 100730a4     kernel32:KERNEL32.dll
 0004:000000a8       __imp__FatalAppExitA@8     100730a8     kernel32:KERNEL32.dll
 0004:000000ac       __imp__SetConsoleCtrlHandler@8 100730ac     kernel32:KERNEL32.dll
 0004:000000b0       __imp__FreeLibrary@4       100730b0     kernel32:KERNEL32.dll
 0004:000000b4       __imp__LoadLibraryExW@12   100730b4     kernel32:KERNEL32.dll
 0004:000000b8       __imp__IsValidCodePage@4   100730b8     kernel32:KERNEL32.dll
 0004:000000bc       __imp__GetACP@0            100730bc     kernel32:KERNEL32.dll
 0004:000000c0       __imp__GetOEMCP@0          100730c0     kernel32:KERNEL32.dll
 0004:000000c4       __imp__GetCPInfo@8         100730c4     kernel32:KERNEL32.dll
 0004:000000c8       __imp__CloseHandle@4       100730c8     kernel32:KERNEL32.dll
 0004:000000cc       __imp__RtlUnwind@16        100730cc     kernel32:KERNEL32.dll
 0004:000000d0       __imp__ReadFile@20         100730d0     kernel32:KERNEL32.dll
 0004:000000d4       __imp__GetConsoleMode@8    100730d4     kernel32:KERNEL32.dll
 0004:000000d8       __imp__ReadConsoleW@20     100730d8     kernel32:KERNEL32.dll
 0004:000000dc       __imp__GetConsoleCP@0      100730dc     kernel32:KERNEL32.dll
 0004:000000e0       __imp__DeleteFileW@4       100730e0     kernel32:KERNEL32.dll
 0004:000000e4       __imp__SetFilePointerEx@20 100730e4     kernel32:KERNEL32.dll
 0004:000000e8       __imp__RaiseException@16   100730e8     kernel32:KERNEL32.dll
 0004:000000ec       __imp__OutputDebugStringW@4 100730ec     kernel32:KERNEL32.dll
 0004:000000f0       __imp__GetCurrentThread@0  100730f0     kernel32:KERNEL32.dll
 0004:000000f4       __imp__GetModuleFileNameA@12 100730f4     kernel32:KERNEL32.dll
 0004:000000f8       __imp__QueryPerformanceCounter@4 100730f8     kernel32:KERNEL32.dll
 0004:000000fc       __imp__GetCurrentProcessId@0 100730fc     kernel32:KERNEL32.dll
 0004:00000100       __imp__GetSystemTimeAsFileTime@4 10073100     kernel32:KERNEL32.dll
 0004:00000104       __imp__GetEnvironmentStringsW@0 10073104     kernel32:KERNEL32.dll
 0004:00000108       __imp__FreeEnvironmentStringsW@4 10073108     kernel32:KERNEL32.dll
 0004:0000010c       __imp__HeapSize@12         1007310c     kernel32:KERNEL32.dll
 0004:00000110       __imp__GetDateFormatW@24   10073110     kernel32:KERNEL32.dll
 0004:00000114       __imp__GetTimeFormatW@24   10073114     kernel32:KERNEL32.dll
 0004:00000118       __imp__CompareStringW@24   10073118     kernel32:KERNEL32.dll
 0004:0000011c       __imp__LCMapStringW@24     1007311c     kernel32:KERNEL32.dll
 0004:00000120       __imp__GetLocaleInfoW@16   10073120     kernel32:KERNEL32.dll
 0004:00000124       __imp__IsValidLocale@8     10073124     kernel32:KERNEL32.dll
 0004:00000128       __imp__GetUserDefaultLCID@0 10073128     kernel32:KERNEL32.dll
 0004:0000012c       __imp__EnumSystemLocalesW@8 1007312c     kernel32:KERNEL32.dll
 0004:00000130       __imp__GetStringTypeW@16   10073130     kernel32:KERNEL32.dll
 0004:00000134       __imp__FlushFileBuffers@4  10073134     kernel32:KERNEL32.dll
 0004:00000138       __imp__SetStdHandle@8      10073138     kernel32:KERNEL32.dll
 0004:0000013c       __imp__CreateFileW@28      1007313c     kernel32:KERNEL32.dll
 0004:00000140       __imp__SetEndOfFile@4      10073140     kernel32:KERNEL32.dll
 0004:00000144       \177KERNEL32_NULL_THUNK_DATA 10073144     kernel32:KERNEL32.dll
 0004:000001b0       __IMPORT_DESCRIPTOR_KERNEL32 100731b0     kernel32:KERNEL32.dll
 0004:000001c4       __NULL_IMPORT_DESCRIPTOR   100731c4     kernel32:KERNEL32.dll

 entry point at        0001:00017d8a

