 rx_target_xpc

 Timestamp is 5830fd29 (Sat Nov 19 20:32:25 2016)

 Preferred load address is 10000000

 Start         Length     Name                   Class
 0001:00000000 00038501H .text$mn                CODE
 0002:00000000 00000104H .CRT$XCA                DATA
 0002:00000104 00000104H .CRT$XCZ                DATA
 0002:00000208 00000104H .CRT$XIA                DATA
 0002:0000030c 00000113H .CRT$XIC                DATA
 0002:00000420 00000104H .CRT$XIZ                DATA
 0002:00000524 00000104H .CRT$XPA                DATA
 0002:00000628 00000109H .CRT$XPX                DATA
 0002:00000734 00000104H .CRT$XPXA               DATA
 0002:00000838 00000104H .CRT$XPZ                DATA
 0002:0000093c 00000104H .CRT$XTA                DATA
 0002:00000a40 00000104H .CRT$XTZ                DATA
 0002:00000b50 0000922aH .rdata                  DATA
 0002:00009d7c 000001a3H .rdata$debug            DATA
 0002:00009f20 0000010eH .rdata$sxdata           DATA
 0002:0000a030 00000104H .rtc$IAA                DATA
 0002:0000a134 00000104H .rtc$IZZ                DATA
 0002:0000a238 00000104H .rtc$TAA                DATA
 0002:0000a33c 00000104H .rtc$TZZ                DATA
 0002:0000a440 00000991H .xdata$x                DATA
 0002:0000ade0 00000216H .edata                  DATA
 0003:00000000 000019e7H .data                   DATA
 0003:00001a00 00013bc4H .bss                    DATA
 0004:00000000 000001b0H .idata$5                DATA
 0004:000001b0 00000014H .idata$2                DATA
 0004:000001c4 00000014H .idata$3                DATA
 0004:000001d8 000001b0H .idata$4                DATA
 0004:00000388 0000076bH .idata$6                DATA

  Address         Publics by Value              Rva+Base       Lib:Object

 0000:00000000       ___guard_fids_table        00000000     <absolute>
 0000:00000000       ___guard_fids_count        00000000     <absolute>
 0000:00000000       ___guard_flags             00000000     <absolute>
 0000:00000000       __except_list              00000000     <absolute>
 0000:00000003       ___safe_se_handler_count   00000003     <absolute>
 0000:00000000       ___ImageBase               10000000     <linker-defined>
 0001:000002b0       _MdlInitialize             100012b0 f   rx_target.obj
 0001:000002c0       _MdlInitializeSampleTimes  100012c0 f   rx_target.obj
 0001:000002d0       _MdlInitializeSizes        100012d0 f   rx_target.obj
 0001:000002e0       _MdlOutputs                100012e0 f   rx_target.obj
 0001:000002f0       _MdlStart                  100012f0 f   rx_target.obj
 0001:00000300       _MdlTerminate              10001300 f   rx_target.obj
 0001:00000310       _MdlUpdate                 10001310 f   rx_target.obj
 0001:000003a0       _rx_target                 100013a0 f   rx_target.obj
 0001:00000a30       _rtGetInf                  10001a30 f   rtGetInf.obj
 0001:00000a60       _rtGetInfF                 10001a60 f   rtGetInf.obj
 0001:00000a80       _rtGetMinusInf             10001a80 f   rtGetInf.obj
 0001:00000ab0       _rtGetMinusInfF            10001ab0 f   rtGetInf.obj
 0001:00000ad0       _rtGetNaN                  10001ad0 f   rtGetNaN.obj
 0001:00000b00       _rtGetNaNF                 10001b00 f   rtGetNaN.obj
 0001:00001430       _rt_CreateLogVar           10002430 f   rt_logging.obj
 0001:000014c0       _rt_CreateLogVarWithConvert 100024c0 f   rt_logging.obj
 0001:00001e40       _rt_CreateStructLogVar     10002e40 f   rt_logging.obj
 0001:00002bb0       _rt_GetMxIdFromDTypeId     10003bb0 f   rt_logging.obj
 0001:00002be0       _rt_GetMxIdFromDTypeIdForRSim 10003be0 f   rt_logging.obj
 0001:00005520       _rt_StartDataLogging       10006520 f   rt_logging.obj
 0001:000059e0       _rt_StartDataLoggingWithStartTime 100069e0 f   rt_logging.obj
 0001:00006340       _rt_StopDataLogging        10007340 f   rt_logging.obj
 0001:00006360       _rt_StopDataLoggingImpl    10007360 f   rt_logging.obj
 0001:00006680       _rt_UpdateLogVar           10007680 f   rt_logging.obj
 0001:00007a40       _rt_UpdateStructLogVar     10008a40 f   rt_logging.obj
 0001:00007ad0       _rt_UpdateTXXFYLogVars     10008ad0 f   rt_logging.obj
 0001:00007e10       _rt_UpdateTXYLogVars       10008e10 f   rt_logging.obj
 0001:00008060       _rt_CleanUpForStateLogWithMMI 10009060 f   rt_logging_mmi.obj
 0001:00008170       _rt_FillStateSigInfoFromMMI 10009170 f   rt_logging_mmi.obj
 0001:00008520       _rtIsInf                   10009520 f   rt_nonfinite.obj
 0001:00008560       _rtIsInfF                  10009560 f   rt_nonfinite.obj
 0001:000085a0       _rtIsNaN                   100095a0 f   rt_nonfinite.obj
 0001:000085c0       _rtIsNaNF                  100095c0 f   rt_nonfinite.obj
 0001:000085e0       _rt_InitInfAndNaN          100095e0 f   rt_nonfinite.obj
 0001:00008640       _rtwCAPI_CountSysRan       10009640 f   rtw_modelmap_utils.obj
 0001:000086e0       _rtwCAPI_EncodePath        100096e0 f   rtw_modelmap_utils.obj
 0001:000087d0       _rtwCAPI_FillSysRan        100097d0 f   rtw_modelmap_utils.obj
 0001:000088c0       _rtwCAPI_FreeFullPaths     100098c0 f   rtw_modelmap_utils.obj
 0001:00008950       _rtwCAPI_GetFullStateBlockPath 10009950 f   rtw_modelmap_utils.obj
 0001:00008b00       _rtwCAPI_GetNumContStateRecords 10009b00 f   rtw_modelmap_utils.obj
 0001:00008bc0       _rtwCAPI_GetNumSigLogRecords 10009bc0 f   rtw_modelmap_utils.obj
 0001:00008c10       _rtwCAPI_GetNumSigLogRecordsForRTWLogging 10009c10 f   rtw_modelmap_utils.obj
 0001:00008ca0       _rtwCAPI_GetNumStateRecords 10009ca0 f   rtw_modelmap_utils.obj
 0001:00008cf0       _rtwCAPI_GetNumStateRecordsForRTWLogging 10009cf0 f   rtw_modelmap_utils.obj
 0001:00008d80       _rtwCAPI_GetSigAddrFromMap 10009d80 f   rtw_modelmap_utils.obj
 0001:00008e40       _rtwCAPI_GetSigLogRecordInfo 10009e40 f   rtw_modelmap_utils.obj
 0001:00009270       _rtwCAPI_GetStateRecordInfo 1000a270 f   rtw_modelmap_utils.obj
 0001:00009720       _rtwCAPI_GetStateWidth     1000a720 f   rtw_modelmap_utils.obj
 0001:00009780       _rtwCAPI_HasStates         1000a780 f   rtw_modelmap_utils.obj
 0001:000097f0       _rtwCAPI_UpdateFullPaths   1000a7f0 f   rtw_modelmap_utils.obj
 0001:000099d0       _rx_target_GetCAPIStaticMap 1000a9d0 f   rx_target_capi.obj
 0001:000099e0       _rx_target_InitializeDataMapInfo 1000a9e0 f   rx_target_capi.obj
 0001:00009a50       _TgtConnBackgroundTask     1000aa50 f   rx_target_tgtconn.obj
 0001:00009a60       _TgtConnInit               1000aa60 f   rx_target_tgtconn.obj
 0001:00009a80       _TgtConnPostStep           1000aa80 f   rx_target_tgtconn.obj
 0001:00009a90       _TgtConnPreStep            1000aa90 f   rx_target_tgtconn.obj
 0001:00009aa0       _TgtConnTerm               1000aaa0 f   rx_target_tgtconn.obj
 0001:00009ab0       _DllMain@12                1000aab0 f   xpctarget.obj
 0001:00009ac0       _SLRTSetErrorStatus        1000aac0 f   xpctarget.obj
 0001:00009ae0       _changeStepSize            1000aae0 f   xpctarget.obj
 0001:00009b30       _getDLMVersion             1000ab30 f   xpctarget.obj
 0001:00009b40       _getRefMdlPath             1000ab40 f   xpctarget.obj
 0001:00009bc0       _getRefMdlSignalNumber     1000abc0 f   xpctarget.obj
 0001:00009c70       _getrlmdlinfo              1000ac70 f   xpctarget.obj
 0001:00009e50       _rx_target_ChangeStepSize  1000ae50 f   xpctarget.obj
 0001:00009ea0       _updateDiscreteEvents      1000aea0 f   xpctarget.obj
 0001:00009eb0       _getNumRef                 1000aeb0 f   appmappingData.obj
 0001:00009ec0       _GetPCIDeviceFull          1000aec0 f   xpcruntime:xpcimports.obj
 0001:00009ef0       _ShowPCIDevice             1000aef0 f   xpcruntime:xpcimports.obj
 0001:0000a560       _xpcGetPciConfigAtSlot     1000b560 f   xpcruntime:xpcimports.obj
 0001:0000a7e0       _xpcInitProcs              1000b7e0 f   xpcruntime:xpcimports.obj
 0001:0000b340       _xpceuploadevent           1000c340 f   xpcruntime:xpcimports.obj
 0001:0000b341       __heap_alloc               1000c341 f i LIBCMT:malloc.obj
 0001:0000b37e       _malloc                    1000c37e f   LIBCMT:malloc.obj
 0001:0000b410       __get_printf_count_output  1000c410 f   LIBCMT:printf.obj
 0001:0000b425       __printf_l                 1000c425 f   LIBCMT:printf.obj
 0001:0000b43c       __printf_p                 1000c43c f   LIBCMT:printf.obj
 0001:0000b452       __printf_p_l               1000c452 f   LIBCMT:printf.obj
 0001:0000b469       __printf_s_l               1000c469 f   LIBCMT:printf.obj
 0001:0000b480       __set_printf_count_output  1000c480 f   LIBCMT:printf.obj
 0001:0000b4a8       _printf                    1000c4a8 f   LIBCMT:printf.obj
 0001:0000b557       _printf_s                  1000c557 f   LIBCMT:printf.obj
 0001:0000b56d       @__security_check_cookie@4 1000c56d f   LIBCMT:secchk.obj
 0001:0000b580       _memset                    1000c580 f   LIBCMT:memset.obj
 0001:0000b610       __fpmath                   1000c610 f   LIBCMT:fpinit.obj
 0001:0000b627       ___setfflag                1000c627 f   LIBCMT:fpinit.obj
 0001:0000b63a       __cfltcvt_init             1000c63a f   LIBCMT:fpinit.obj
 0001:0000b69a       ___raise_securityfailure   1000c69a f   LIBCMT:gs_report.obj
 0001:0000b6d7       ___report_gsfailure        1000c6d7 f   LIBCMT:gs_report.obj
 0001:0000b7d2       ___report_rangecheckfailure 1000c7d2 f   LIBCMT:gs_report.obj
 0001:0000b7de       ___report_securityfailure  1000c7de f   LIBCMT:gs_report.obj
 0001:0000b8ae       ___report_securityfailureEx 1000c8ae f   LIBCMT:gs_report.obj
 0001:0000b9c4       ___copy_path_to_wide_string 1000c9c4 f   LIBCMT:crt0dat.obj
 0001:0000ba76       ___copy_to_char            1000ca76 f   LIBCMT:crt0dat.obj
 0001:0000bb2b       ___crtCorExitProcess       1000cb2b f   LIBCMT:crt0dat.obj
 0001:0000bb5f       ___crtExitProcess          1000cb5f f   LIBCMT:crt0dat.obj
 0001:0000bb75       ___freeCrtMemory           1000cb75 f   LIBCMT:crt0dat.obj
 0001:0000bc82       __amsg_exit                1000cc82 f   LIBCMT:crt0dat.obj
 0001:0000bc9e       __c_exit                   1000cc9e f   LIBCMT:crt0dat.obj
 0001:0000bcad       __cexit                    1000ccad f   LIBCMT:crt0dat.obj
 0001:0000bcbc       __cinit                    1000ccbc f   LIBCMT:crt0dat.obj
 0001:0000bd40       __exit                     1000cd40 f   LIBCMT:crt0dat.obj
 0001:0000bd54       __exit_app                 1000cd54 f   LIBCMT:crt0dat.obj
 0001:0000bd62       __get_pgmptr               1000cd62 f   LIBCMT:crt0dat.obj
 0001:0000bd91       __get_wpgmptr              1000cd91 f   LIBCMT:crt0dat.obj
 0001:0000bdc0       __init_pointers            1000cdc0 f   LIBCMT:crt0dat.obj
 0001:0000be2e       __initterm_e               1000ce2e f   LIBCMT:crt0dat.obj
 0001:0000be50       __lockexit                 1000ce50 f   LIBCMT:crt0dat.obj
 0001:0000be59       __unlockexit               1000ce59 f   LIBCMT:crt0dat.obj
 0001:0000bf91       _exit                      1000cf91 f   LIBCMT:crt0dat.obj
 0001:0000bfa5       _calloc                    1000cfa5 f   LIBCMT:calloc.obj
 0001:0000bfe5       _free                      1000cfe5 f   LIBCMT:free.obj
 0001:0000c01d       _realloc                   1000d01d f   LIBCMT:realloc.obj
 0001:0000c0d0       _memmove                   1000d0d0 f   LIBCMT:memmove.obj
 0001:0000c720       _strchr                    1000d720 f   LIBCMT:strchr.obj
 0001:0000c78e       ___from_strstr_to_strchr   1000d78e     LIBCMT:strchr.obj
 0001:0000c850       _strncat                   1000d850 f   LIBCMT:strncat.obj
 0001:0000c990       _strncpy                   1000d990 f   LIBCMT:strncpy.obj
 0001:0000cab4       ___initstdio               1000dab4 f   LIBCMT:_file.obj
 0001:0000cb27       ___endstdio                1000db27 f   LIBCMT:_file.obj
 0001:0000cb4e       ___iob_func                1000db4e f   LIBCMT:_file.obj
 0001:0000cb54       __lock_file                1000db54 f   LIBCMT:_file.obj
 0001:0000cb93       __lock_file2               1000db93 f   LIBCMT:_file.obj
 0001:0000cbc3       __unlock_file              1000dbc3 f   LIBCMT:_file.obj
 0001:0000cbfd       __unlock_file2             1000dbfd f   LIBCMT:_file.obj
 0001:0000cc2a       __fclose_nolock            1000dc2a f   LIBCMT:fclose.obj
 0001:0000cc96       _fclose                    1000dc96 f   LIBCMT:fclose.obj
 0001:0000cd0d       __fsopen                   1000dd0d f   LIBCMT:fopen.obj
 0001:0000cdd1       _fopen                     1000ddd1 f   LIBCMT:fopen.obj
 0001:0000cde6       _fopen_s                   1000dde6 f   LIBCMT:fopen.obj
 0001:0000ce2b       __fprintf_l                1000de2b f   LIBCMT:fprintf.obj
 0001:0000ce45       __fprintf_p                1000de45 f   LIBCMT:fprintf.obj
 0001:0000ce5e       __fprintf_p_l              1000de5e f   LIBCMT:fprintf.obj
 0001:0000ce78       __fprintf_s_l              1000de78 f   LIBCMT:fprintf.obj
 0001:0000ce92       _fprintf                   1000de92 f   LIBCMT:fprintf.obj
 0001:0000cfa4       _fprintf_s                 1000dfa4 f   LIBCMT:fprintf.obj
 0001:0000cfbd       __fread_nolock             1000dfbd f   LIBCMT:fread.obj
 0001:0000cfd8       __fread_nolock_s           1000dfd8 f   LIBCMT:fread.obj
 0001:0000d19d       _fread                     1000e19d f   LIBCMT:fread.obj
 0001:0000d1b8       _fread_s                   1000e1b8 f   LIBCMT:fread.obj
 0001:0000d249       __fwrite_nolock            1000e249 f   LIBCMT:fwrite.obj
 0001:0000d3a2       _fwrite                    1000e3a2 f   LIBCMT:fwrite.obj
 0001:0000d424       __unlink                   1000e424 f   LIBCMT:unlink.obj
 0001:0000d42d       _remove                    1000e42d f   LIBCMT:unlink.obj
 0001:0000d46f       _rewind                    1000e46f f   LIBCMT:rewind.obj
 0001:0000d52e       __scprintf                 1000e52e f   LIBCMT:sprintf.obj
 0001:0000d541       __scprintf_l               1000e541 f   LIBCMT:sprintf.obj
 0001:0000d558       __scprintf_p               1000e558 f   LIBCMT:sprintf.obj
 0001:0000d56b       __scprintf_p_l             1000e56b f   LIBCMT:sprintf.obj
 0001:0000d582       __snprintf_s               1000e582 f   LIBCMT:sprintf.obj
 0001:0000d5a1       __snprintf_s_l             1000e5a1 f   LIBCMT:sprintf.obj
 0001:0000d5c1       __sprintf_l                1000e5c1 f   LIBCMT:sprintf.obj
 0001:0000d5db       __sprintf_p                1000e5db f   LIBCMT:sprintf.obj
 0001:0000d5f7       __sprintf_p_l              1000e5f7 f   LIBCMT:sprintf.obj
 0001:0000d614       __sprintf_s_l              1000e614 f   LIBCMT:sprintf.obj
 0001:0000d631       _sprintf                   1000e631 f   LIBCMT:sprintf.obj
 0001:0000d6b5       _sprintf_s                 1000e6b5 f   LIBCMT:sprintf.obj
 0001:0000d6d1       _ldexp                     1000e6d1 f   LIBCMT:ldexp.obj
 0001:0000d8c0       __ftoui3                   1000e8c0 f   LIBCMT:ftol3.obj
 0001:0000d8cf       __ftoul3                   1000e8cf f   LIBCMT:ftol3.obj
 0001:0000d8de       __ftol3                    1000e8de f   LIBCMT:ftol3.obj
 0001:0000d8eb       __ftol3_NaN                1000e8eb f   LIBCMT:ftol3.obj
 0001:0000d903       __ftol3_work               1000e903 f   LIBCMT:ftol3.obj
 0001:0000d989       __ftol3_common             1000e989 f   LIBCMT:ftol3.obj
 0001:0000da4b       __ftol3_arg_error          1000ea4b f   LIBCMT:ftol3.obj
 0001:0000da5d       __ftol3_except             1000ea5d f   LIBCMT:ftol3.obj
 0001:0000da9f       __dtoui3                   1000ea9f f   LIBCMT:ftol3.obj
 0001:0000daae       __dtoul3                   1000eaae f   LIBCMT:ftol3.obj
 0001:0000dabd       __dtol3                    1000eabd f   LIBCMT:ftol3.obj
 0001:0000daca       __dtol3_NaN                1000eaca f   LIBCMT:ftol3.obj
 0001:0000dae7       __dtol3_work               1000eae7 f   LIBCMT:ftol3.obj
 0001:0000dbcc       __ultod3                   1000ebcc f   LIBCMT:ftol3.obj
 0001:0000dc5d       __ltod3                    1000ec5d f   LIBCMT:ftol3.obj
 0001:0000dc90       _memcpy                    1000ec90 f   LIBCMT:memcpy.obj
 0001:0000e2d4       ___isa_available_init      1000f2d4 f   LIBCMT:cpu_disp.obj
 0001:0000e44d       __invoke_watson_if_error   1000f44d f i LIBCMT:wassert.obj
 0001:0000e46d       __wassert                  1000f46d f   LIBCMT:wassert.obj
 0001:0000eb11       __CRT_INIT@12              1000fb11 f   LIBCMT:dllcrt0.obj
 0001:0000ec83       __DllMainCRTStartup@12     1000fc83 f   LIBCMT:dllcrt0.obj
 0001:0000edb4       ___DllXcptFilter           1000fdb4 f   LIBCMT:dllcrt0.obj
 0001:0000edd9       ?_query_new_handler@@YAP6AHI@ZXZ 1000fdd9 f   LIBCMT:handler.obj
 0001:0000ede6       ?_set_new_handler@@YAP6AHI@ZH@Z 1000fde6 f   LIBCMT:handler.obj
 0001:0000edef       ?_set_new_handler@@YAP6AHI@ZP6AHI@Z@Z 1000fdef f   LIBCMT:handler.obj
 0001:0000ee24       __callnewh                 1000fe24 f   LIBCMT:handler.obj
 0001:0000ee4a       __initp_heap_handler       1000fe4a f   LIBCMT:handler.obj
 0001:0000ee57       __FF_MSGBANNER             1000fe57 f   LIBCMT:crt0msg.obj
 0001:0000ee90       __GET_RTERRMSG             1000fe90 f   LIBCMT:crt0msg.obj
 0001:0000eeb4       __NMSG_WRITE               1000feb4 f   LIBCMT:crt0msg.obj
 0001:0000f071       ___doserrno                10010071 f   LIBCMT:dosmap.obj
 0001:0000f084       __dosmaperr                10010084 f   LIBCMT:dosmap.obj
 0001:0000f0a5       __errno                    100100a5 f   LIBCMT:dosmap.obj
 0001:0000f0b8       __get_doserrno             100100b8 f   LIBCMT:dosmap.obj
 0001:0000f0db       __get_errno                100100db f   LIBCMT:dosmap.obj
 0001:0000f0fe       __get_errno_from_oserr     100100fe f   LIBCMT:dosmap.obj
 0001:0000f13f       __set_doserrno             1001013f f   LIBCMT:dosmap.obj
 0001:0000f15e       __set_errno                1001015e f   LIBCMT:dosmap.obj
 0001:0000f17d       __get_heap_handle          1001017d f   LIBCMT:heapinit.obj
 0001:0000f183       __heap_init                10010183 f   LIBCMT:heapinit.obj
 0001:0000f198       __heap_term                10010198 f   LIBCMT:heapinit.obj
 0001:0000f1a0       ?_invalid_parameter@@YAXPBG00II@Z 100101a0 f   LIBCMT:invarg.obj
 0001:0000f1a5       ?_invoke_watson@@YAXPBG00II@Z 100101a5 f   LIBCMT:invarg.obj
 0001:0000f1bd       __call_reportfault         100101bd f   LIBCMT:invarg.obj
 0001:0000f2e2       __get_invalid_parameter_handler 100102e2 f   LIBCMT:invarg.obj
 0001:0000f2ef       __initp_misc_invarg        100102ef f   LIBCMT:invarg.obj
 0001:0000f2fc       __invalid_parameter        100102fc f   LIBCMT:invarg.obj
 0001:0000f327       __invalid_parameter_noinfo 10010327 f   LIBCMT:invarg.obj
 0001:0000f337       __invalid_parameter_noinfo_noreturn 10010337 f   LIBCMT:invarg.obj
 0001:0000f352       __invoke_watson            10010352 f   LIBCMT:invarg.obj
 0001:0000f37d       __set_invalid_parameter_handler 1001037d f   LIBCMT:invarg.obj
 0001:0000f3a2       __vprintf_l                100103a2 f   LIBCMT:vprintf.obj
 0001:0000f3bd       __vprintf_p                100103bd f   LIBCMT:vprintf.obj
 0001:0000f3d7       __vprintf_p_l              100103d7 f   LIBCMT:vprintf.obj
 0001:0000f3f2       __vprintf_s_l              100103f2 f   LIBCMT:vprintf.obj
 0001:0000f40d       _vprintf                   1001040d f   LIBCMT:vprintf.obj
 0001:0000f427       _vprintf_helper            10010427 f   LIBCMT:vprintf.obj
 0001:0000f4b4       _vprintf_s                 100104b4 f   LIBCMT:vprintf.obj
 0001:0000f4ce       __ftbuf                    100104ce f   LIBCMT:_sftbuf.obj
 0001:0000f4ff       __stbuf                    100104ff f   LIBCMT:_sftbuf.obj
 0001:0000f5a5       ??0_LocaleUpdate@@QAE@PAUlocaleinfo_struct@@@Z 100105a5 f i LIBCMT:output.obj
 0001:0000f62d       ??1_LocaleUpdate@@QAE@XZ   1001062d f i LIBCMT:output.obj
 0001:0000f63b       ?GetLocaleT@_LocaleUpdate@@QAEPAUlocaleinfo_struct@@XZ 1001063b f i LIBCMT:output.obj
 0001:0000f63e       __output_l                 1001063e f   LIBCMT:output.obj
 0001:000101be       _get_int64_arg             100111be f i LIBCMT:output.obj
 0001:000101d1       _get_int_arg               100111d1 f i LIBCMT:output.obj
 0001:000101e1       _get_short_arg             100111e1 f i LIBCMT:output.obj
 0001:000102e0       __SEH_prolog4              100112e0 f   LIBCMT:sehprolg4.obj
 0001:00010325       __SEH_epilog4              10011325 f   LIBCMT:sehprolg4.obj
 0001:00010380       __except_handler4          10011380 f   LIBCMT:chandler4.obj
 0001:00010514       __VEC_memset               10011514 f   LIBCMT:p4_memset.obj
 0001:000105dc       ?strrchr@@YAPADPADH@Z      100115dc f i LIBCMT:cvt.obj
 0001:000105e5       __cfltcvt                  100115e5 f   LIBCMT:cvt.obj
 0001:00010606       __cfltcvt_l                10011606 f   LIBCMT:cvt.obj
 0001:0001068c       __cftoa                    1001168c f   LIBCMT:cvt.obj
 0001:000106aa       __cftoa_l                  100116aa f   LIBCMT:cvt.obj
 0001:00010a06       __cftoe                    10011a06 f   LIBCMT:cvt.obj
 0001:00010b75       __cftoe_l                  10011b75 f   LIBCMT:cvt.obj
 0001:00010c43       __cftof                    10011c43 f   LIBCMT:cvt.obj
 0001:00010d4a       __cftof_l                  10011d4a f   LIBCMT:cvt.obj
 0001:00010e0b       __cftog                    10011e0b f   LIBCMT:cvt.obj
 0001:00010e29       __cftog_l                  10011e29 f   LIBCMT:cvt.obj
 0001:00010f28       __cropzeros                10011f28 f   LIBCMT:cvt.obj
 0001:00010f39       __cropzeros_l              10011f39 f   LIBCMT:cvt.obj
 0001:00010fb9       __fassign                  10011fb9 f   LIBCMT:cvt.obj
 0001:00010fd1       __fassign_l                10011fd1 f   LIBCMT:cvt.obj
 0001:00011013       __forcdecpt                10012013 f   LIBCMT:cvt.obj
 0001:00011024       __forcdecpt_l              10012024 f   LIBCMT:cvt.obj
 0001:00011098       __positive                 10012098 f   LIBCMT:cvt.obj
 0001:000110da       __setdefaultprecision      100120da f   LIBCMT:fp8.obj
 0001:00011101       __initp_misc_cfltcvt_tab   10012101 f   LIBCMT:cmiscdat.obj
 0001:00011120       __crt_debugger_hook        10012120 f   LIBCMT:dbghook.obj
 0001:00011155       ___crtCloseThreadpoolTimer 10012155 f   LIBCMT:winapisupp.obj
 0001:0001116c       ___crtCloseThreadpoolWait  1001216c f   LIBCMT:winapisupp.obj
 0001:00011183       ___crtCreateEventExW       10012183 f   LIBCMT:winapisupp.obj
 0001:000111be       ___crtCreateSemaphoreExW   100121be f   LIBCMT:winapisupp.obj
 0001:000111f8       ___crtCreateSymbolicLinkW  100121f8 f   LIBCMT:winapisupp.obj
 0001:00011221       ___crtCreateThreadpoolTimer 10012221 f   LIBCMT:winapisupp.obj
 0001:00011242       ___crtCreateThreadpoolWait 10012242 f   LIBCMT:winapisupp.obj
 0001:00011263       ___crtFlsAlloc             10012263 f   LIBCMT:winapisupp.obj
 0001:00011281       ___crtFlsFree              10012281 f   LIBCMT:winapisupp.obj
 0001:000112a0       ___crtFlsGetValue          100122a0 f   LIBCMT:winapisupp.obj
 0001:000112bf       ___crtFlsSetValue          100122bf f   LIBCMT:winapisupp.obj
 0001:000112e1       ___crtFlushProcessWriteBuffers 100122e1 f   LIBCMT:winapisupp.obj
 0001:000112f1       ___crtFreeLibraryWhenCallbackReturns 100122f1 f   LIBCMT:winapisupp.obj
 0001:0001130b       ___crtGetCurrentProcessorNumber 1001230b f   LIBCMT:winapisupp.obj
 0001:0001131d       ___crtGetFileInformationByHandleEx 1001231d f   LIBCMT:winapisupp.obj
 0001:00011349       ___crtGetLogicalProcessorInformation 10012349 f   LIBCMT:winapisupp.obj
 0001:0001136f       ___crtGetShowWindowMode    1001236f f   LIBCMT:winapisupp.obj
 0001:00011392       ___crtGetTickCount64       10012392 f   LIBCMT:winapisupp.obj
 0001:000113aa       ___crtInitializeCriticalSectionEx 100123aa f   LIBCMT:winapisupp.obj
 0001:000113d8       ___crtIsPackagedApp        100123d8 f   LIBCMT:winapisupp.obj
 0001:00011418       ___crtLoadWinApiPointers   10012418 f   LIBCMT:winapisupp.obj
 0001:000116a3       ___crtSetFileInformationByHandle 100126a3 f   LIBCMT:winapisupp.obj
 0001:000116cf       ___crtSetThreadStackGuarantee 100126cf f   LIBCMT:winapisupp.obj
 0001:000116ea       ___crtSetThreadpoolTimer   100126ea f   LIBCMT:winapisupp.obj
 0001:0001170a       ___crtSetThreadpoolWait    1001270a f   LIBCMT:winapisupp.obj
 0001:00011727       ___crtSetUnhandledExceptionFilter 10012727 f   LIBCMT:winapisupp.obj
 0001:00011735       ___crtSleep                10012735 f   LIBCMT:winapisupp.obj
 0001:00011743       ___crtTerminateProcess     10012743 f   LIBCMT:winapisupp.obj
 0001:00011758       ___crtUnhandledException   10012758 f   LIBCMT:winapisupp.obj
 0001:0001176e       ___crtWaitForThreadpoolTimerCallbacks 1001276e f   LIBCMT:winapisupp.obj
 0001:00011788       __RTC_Initialize           10012788 f   LIBCMT:initsect.obj
 0001:000117a8       __RTC_Terminate            100127a8 f   LIBCMT:initsect.obj
 0001:000117c8       __lock                     100127c8 f   LIBCMT:mlock.obj
 0001:000117fc       __lockerr_exit             100127fc f   LIBCMT:mlock.obj
 0001:0001181c       __mtdeletelocks            1001281c f   LIBCMT:mlock.obj
 0001:00011870       __mtinitlocknum            10012870 f   LIBCMT:mlock.obj
 0001:00011919       __mtinitlocks              10012919 f   LIBCMT:mlock.obj
 0001:00011952       __unlock                   10012952 f   LIBCMT:mlock.obj
 0001:00011970       __FindPESection            10012970 f   LIBCMT:pesect.obj
 0001:000119c0       __IsNonwritableInCurrentImage 100129c0 f   LIBCMT:pesect.obj
 0001:00011a80       __ValidateImageBase        10012a80 f   LIBCMT:pesect.obj
 0001:00011ab1       ___onexitinit              10012ab1 f   LIBCMT:onexit.obj
 0001:00011ae0       __onexit                   10012ae0 f   LIBCMT:onexit.obj
 0001:00011bdc       _atexit                    10012bdc f   LIBCMT:onexit.obj
 0001:00011bf1       __calloc_crt               10012bf1 f   LIBCMT:crtheap.obj
 0001:00011c39       __malloc_crt               10012c39 f   LIBCMT:crtheap.obj
 0001:00011c80       __realloc_crt              10012c80 f   LIBCMT:crtheap.obj
 0001:00011cca       __recalloc_crt             10012cca f   LIBCMT:crtheap.obj
 0001:00011d18       __set_malloc_crt_max_wait  10012d18 f   LIBCMT:crtheap.obj
 0001:00011d2b       _wait_a_bit                10012d2b f i LIBCMT:crtheap.obj
 0001:00011d4f       ?_inconsistency@@YAXXZ     10012d4f f   LIBCMT:hooks.obj
 0001:00011d87       ?terminate@@YAXXZ          10012d87 f   LIBCMT:hooks.obj
 0001:00011dbb       ?unexpected@@YAXXZ         10012dbb f   LIBCMT:hooks.obj
 0001:00011dce       __initp_eh_hooks           10012dce f   LIBCMT:hooks.obj
 0001:00011ddf       ___getlocaleinfo           10012ddf f   LIBCMT:inithelp.obj
 0001:00011fb8       __initp_misc_purevirt      10012fb8 f   LIBCMT:inithelp.obj
 0001:00011fc5       ___fpecode                 10012fc5 f   LIBCMT:winsig.obj
 0001:00011fce       ___get_sigabrt             10012fce f   LIBCMT:winsig.obj
 0001:00011fdb       ___pxcptinfoptrs           10012fdb f   LIBCMT:winsig.obj
 0001:00011fe4       __initp_misc_winsig        10012fe4 f   LIBCMT:winsig.obj
 0001:000120a5       _raise                     100130a5 f   LIBCMT:winsig.obj
 0001:0001229a       _signal                    1001329a f   LIBCMT:winsig.obj
 0001:000124f1       __initp_misc_rand_s        100134f1 f   LIBCMT:rand_s.obj
 0001:000124fe       _rand_s                    100134fe f   LIBCMT:rand_s.obj
 0001:00012604       ___initmbctable            10013604 f   LIBCMT:mbctype.obj
 0001:000128bb       ___updatetmbcinfo          100138bb f   LIBCMT:mbctype.obj
 0001:00012961       __getmbcp                  10013961 f   LIBCMT:mbctype.obj
 0001:00012992       __setmbcp                  10013992 f   LIBCMT:mbctype.obj
 0001:00012b3a       __setmbcp_nolock           10013b3a f   LIBCMT:mbctype.obj
 0001:00012d25       __calloc_impl              10013d25 f   LIBCMT:calloc_impl.obj
 0001:00012d9f       __fcloseall                10013d9f f   LIBCMT:closeall.obj
 0001:00012e3c       __fflush_nolock            10013e3c f   LIBCMT:fflush.obj
 0001:00012e82       __flush                    10013e82 f   LIBCMT:fflush.obj
 0001:00012ee6       __flushall                 10013ee6 f   LIBCMT:fflush.obj
 0001:00012eef       _fflush                    10013eef f   LIBCMT:fflush.obj
 0001:0001302c       __fileno                   1001402c f   LIBCMT:fileno.obj
 0001:00013050       __close                    10014050 f   LIBCMT:close.obj
 0001:0001312b       __close_nolock             1001412b f   LIBCMT:close.obj
 0001:000131c5       __freebuf                  100141c5 f   LIBCMT:_freebuf.obj
 0001:000131f5       __getstream                100141f5 f   LIBCMT:stream.obj
 0001:00013314       __openfile                 10014314 f   LIBCMT:_open.obj
 0001:00013590       __local_unwind4            10014590 f   LIBCMT:exsup4.obj
 0001:00013666       __seh_longjmp_unwind4@4    10014666 f   LIBCMT:exsup4.obj
 0001:00013682       @_EH4_CallFilterFunc@8     10014682 f   LIBCMT:exsup4.obj
 0001:00013699       @_EH4_TransferToHandler@8  10014699 f   LIBCMT:exsup4.obj
 0001:000136b2       @_EH4_GlobalUnwind2@8      100146b2 f   LIBCMT:exsup4.obj
 0001:000136cb       @_EH4_LocalUnwind@16       100146cb f   LIBCMT:exsup4.obj
 0001:000136e2       __vfprintf_l               100146e2 f   LIBCMT:vfprintf.obj
 0001:00013700       __vfprintf_p               10014700 f   LIBCMT:vfprintf.obj
 0001:0001371d       __vfprintf_p_l             1001471d f   LIBCMT:vfprintf.obj
 0001:0001373b       __vfprintf_s_l             1001473b f   LIBCMT:vfprintf.obj
 0001:00013759       _vfprintf                  10014759 f   LIBCMT:vfprintf.obj
 0001:00013776       _vfprintf_helper           10014776 f   LIBCMT:vfprintf.obj
 0001:00013887       _vfprintf_s                10014887 f   LIBCMT:vfprintf.obj
 0001:000138a4       __ioinit                   100148a4 f   LIBCMT:ioinit.obj
 0001:00013b58       __ioterm                   10014b58 f   LIBCMT:ioinit.obj
 0001:00013baa       __filbuf                   10014baa f   LIBCMT:_filbuf.obj
 0001:00013ccb       _memcpy_s                  10014ccb f   LIBCMT:memcpy_s.obj
 0001:00013d4a       __read                     10014d4a f   LIBCMT:read.obj
 0001:00013e5e       __read_nolock              10014e5e f   LIBCMT:read.obj
 0001:000145ef       __flsbuf                   100155ef f   LIBCMT:_flsbuf.obj
 0001:0001473e       __write                    1001573e f   LIBCMT:write.obj
 0001:0001482d       __write_nolock             1001582d f   LIBCMT:write.obj
 0001:00015092       __wremove                  10016092 f   LIBCMT:wunlink.obj
 0001:000150c0       __wunlink                  100160c0 f   LIBCMT:wunlink.obj
 0001:000150c9       __lseek                    100160c9 f   LIBCMT:lseek.obj
 0001:000151b8       __lseek_nolock             100161b8 f   LIBCMT:lseek.obj
 0001:0001525f       __vscprintf                1001625f f   LIBCMT:vsprintf.obj
 0001:00015279       __vscprintf_helper         10016279 f   LIBCMT:vsprintf.obj
 0001:000152d5       __vscprintf_l              100162d5 f   LIBCMT:vsprintf.obj
 0001:000152f0       __vscprintf_p              100162f0 f   LIBCMT:vsprintf.obj
 0001:0001530a       __vscprintf_p_l            1001630a f   LIBCMT:vsprintf.obj
 0001:00015325       __vsprintf_l               10016325 f   LIBCMT:vsprintf.obj
 0001:000153a9       _vsprintf                  100163a9 f   LIBCMT:vsprintf.obj
 0001:000153c1       __vsnprintf_c              100163c1 f   LIBCMT:vsnprnc.obj
 0001:000153e8       __vsnprintf_c_l            100163e8 f   LIBCMT:vsnprnc.obj
 0001:00015410       __vsnprintf_helper         10016410 f   LIBCMT:vsnprnc.obj
 0001:000154da       __vsnprintf_s              100164da f   LIBCMT:vsnprnc.obj
 0001:000154f8       __vsnprintf_s_l            100164f8 f   LIBCMT:vsnprnc.obj
 0001:000155f8       __vsprintf_p               100165f8 f   LIBCMT:vsnprnc.obj
 0001:0001561f       __vsprintf_p_l             1001661f f   LIBCMT:vsnprnc.obj
 0001:00015647       __vsprintf_s_l             10016647 f   LIBCMT:vsnprnc.obj
 0001:000156bc       _vsprintf_s                100166bc f   LIBCMT:vsnprnc.obj
 0001:000156d7       __chgsign                  100166d7 f   LIBCMT:ieeemisc.obj
 0001:00015704       __chgsignf                 10016704 f   LIBCMT:ieeemisc.obj
 0001:00015725       __copysign                 10016725 f   LIBCMT:ieeemisc.obj
 0001:0001574d       __copysignf                1001674d f   LIBCMT:ieeemisc.obj
 0001:00015769       __finite                   10016769 f   LIBCMT:ieeemisc.obj
 0001:00015781       __fpclass                  10016781 f   LIBCMT:ieeemisc.obj
 0001:0001581d       __isnan                    1001681d f   LIBCMT:ieeemisc.obj
 0001:00015850       __logb                     10016850 f   LIBCMT:ieeemisc.obj
 0001:00015931       __nextafter                10016931 f   LIBCMT:ieeemisc.obj
 0001:00015bd1       __scalb                    10016bd1 f   LIBCMT:ieeemisc.obj
 0001:00015be9       __add_exp                  10016be9 f   LIBCMT:util.obj
 0001:00015c18       __decomp                   10016c18 f   LIBCMT:util.obj
 0001:00015cea       __get_exp                  10016cea f   LIBCMT:util.obj
 0001:00015d03       __set_bexp                 10016d03 f   LIBCMT:util.obj
 0001:00015d2c       __set_exp                  10016d2c f   LIBCMT:util.obj
 0001:00015d5b       __sptype                   10016d5b f   LIBCMT:util.obj
 0001:00015db6       __errcode                  10016db6 f   LIBCMT:fpexcept.obj
 0001:00015de8       __except1                  10016de8 f   LIBCMT:fpexcept.obj
 0001:00015eb0       __except2                  10016eb0 f   LIBCMT:fpexcept.obj
 0001:00015fb0       __handle_exc               10016fb0 f   LIBCMT:fpexcept.obj
 0001:0001618e       __handle_qnan1             1001718e f   LIBCMT:fpexcept.obj
 0001:000161de       __handle_qnan2             100171de f   LIBCMT:fpexcept.obj
 0001:0001623e       __raise_exc                1001723e f   LIBCMT:fpexcept.obj
 0001:0001625f       __raise_exc_ex             1001725f f   LIBCMT:fpexcept.obj
 0001:00016544       __raise_excf               10017544 f   LIBCMT:fpexcept.obj
 0001:00016565       __set_errno_from_matherr   10017565 f   LIBCMT:fpexcept.obj
 0001:00016592       __umatherr                 10017592 f   LIBCMT:fpexcept.obj
 0001:00016632       ___clrfp_sse2              10017632 f   LIBCMT:fpctrl.obj
 0001:00016653       ___ctrlfp_sse2             10017653 f   LIBCMT:fpctrl.obj
 0001:0001668c       ___fclrf_sse2              1001768c f   LIBCMT:fpctrl.obj
 0001:000166a9       ___get_fpsr_sse2           100176a9 f   LIBCMT:fpctrl.obj
 0001:000166c5       ___set_fpsr_sse2           100176c5 f   LIBCMT:fpctrl.obj
 0001:0001673b       ___set_statfp_sse2         1001773b f   LIBCMT:fpctrl.obj
 0001:00016754       ___statfp_sse2             10017754 f   LIBCMT:fpctrl.obj
 0001:00016769       __clrfp                    10017769 f   LIBCMT:fpctrl.obj
 0001:0001677a       __ctrlfp                   1001777a f   LIBCMT:fpctrl.obj
 0001:000167a5       __set_statfp               100177a5 f   LIBCMT:fpctrl.obj
 0001:000167fd       __statfp                   100177fd f   LIBCMT:fpctrl.obj
 0001:0001680d       _wcscat_s                  1001780d f   LIBCMT:wcscat_s.obj
 0001:00016879       _wcscpy_s                  10017879 f   LIBCMT:wcscpy_s.obj
 0001:000168d5       _wcslen                    100178d5 f   LIBCMT:wcslen.obj
 0001:000168ee       _wcsncat_s                 100178ee f   LIBCMT:wcsncat_s.obj
 0001:000169bc       __set_abort_behavior       100179bc f   LIBCMT:abort.obj
 0001:000169db       _abort                     100179db f   LIBCMT:abort.obj
 0001:00016a1e       ___set_app_type            10017a1e f   LIBCMT:errmode.obj
 0001:00016a2b       __set_error_mode           10017a2b f   LIBCMT:errmode.obj
 0001:00016b87       __i64tow_s                 10017b87 f   LIBCMT:xtows.obj
 0001:00016bb8       __itow_s                   10017bb8 f   LIBCMT:xtows.obj
 0001:00016be1       __ltow_s                   10017be1 f   LIBCMT:xtows.obj
 0001:00016c0b       __ui64tow_s                10017c0b f   LIBCMT:xtows.obj
 0001:00016c26       __ultow_s                  10017c26 f   LIBCMT:xtows.obj
 0001:00016d31       _setvbuf                   10017d31 f   LIBCMT:setvbuf.obj
 0001:00016e37       __fwprintf_l               10017e37 f   LIBCMT:fwprintf.obj
 0001:00016e51       __fwprintf_p               10017e51 f   LIBCMT:fwprintf.obj
 0001:00016e6a       __fwprintf_p_l             10017e6a f   LIBCMT:fwprintf.obj
 0001:00016e84       __fwprintf_s_l             10017e84 f   LIBCMT:fwprintf.obj
 0001:00016e9e       _fwprintf                  10017e9e f   LIBCMT:fwprintf.obj
 0001:00016f32       _fwprintf_s                10017f32 f   LIBCMT:fwprintf.obj
 0001:00016f4b       __vsnwprintf_s             10017f4b f   LIBCMT:vswprnc.obj
 0001:00016f69       __vsnwprintf_s_l           10017f69 f   LIBCMT:vswprnc.obj
 0001:0001706d       __vswprintf_c              1001806d f   LIBCMT:vswprnc.obj
 0001:00017094       __vswprintf_c_l            10018094 f   LIBCMT:vswprnc.obj
 0001:000170bc       __vswprintf_helper         100180bc f   LIBCMT:vswprnc.obj
 0001:000171b7       __vswprintf_p              100181b7 f   LIBCMT:vswprnc.obj
 0001:000171de       __vswprintf_p_l            100181de f   LIBCMT:vswprnc.obj
 0001:00017206       __vswprintf_s_l            10018206 f   LIBCMT:vswprnc.obj
 0001:0001727d       _vswprintf_s               1001827d f   LIBCMT:vswprnc.obj
 0001:00017298       ___crtMessageBoxW          10018298 f   LIBCMT:crtmboxw.obj
 0001:0001747e       ___crtMessageBoxWaitThreadW@4 1001847e f   LIBCMT:crtmboxw.obj
 0001:0001749c       __XcptFilter               1001849c f   LIBCMT:winxfltr.obj
 0001:000175f7       ___CppXcptFilter           100185f7 f   LIBCMT:winxfltr.obj
 0001:00017649       ___get_flsindex            10018649 f   LIBCMT:tidtable.obj
 0001:0001764f       ___threadhandle            1001864f f   LIBCMT:tidtable.obj
 0001:00017655       ___threadid                10018655 f   LIBCMT:tidtable.obj
 0001:0001765b       __freefls@4                1001865b f   LIBCMT:tidtable.obj
 0001:00017790       __freeptd                  10018790 f   LIBCMT:tidtable.obj
 0001:000177c6       __getptd                   100187c6 f   LIBCMT:tidtable.obj
 0001:000177de       __getptd_noexit            100187de f   LIBCMT:tidtable.obj
 0001:0001784d       __initptd                  1001884d f   LIBCMT:tidtable.obj
 0001:00017900       __mtinit                   10018900 f   LIBCMT:tidtable.obj
 0001:00017976       __mtterm                   10018976 f   LIBCMT:tidtable.obj
 0001:00017993       __set_pgmptr               10018993 f i LIBCMT:stdargv.obj
 0001:000179a0       __setargv                  100189a0 f   LIBCMT:stdargv.obj
 0001:00017bcf       __setenvp                  10018bcf f   LIBCMT:stdenvp.obj
 0001:00017cb0       ___security_init_cookie    10018cb0 f   LIBCMT:gs_support.obj
 0001:00017d4c       ___crtGetEnvironmentStringsA 10018d4c f   LIBCMT:a_env.obj
 0001:00017de0       _strlen                    10018de0 f   LIBCMT:strlen.obj
 0001:00017e6b       _wcsncpy_s                 10018e6b f   LIBCMT:wcsncpy_s.obj
 0001:00017f29       __output_s_l               10018f29 f   LIBCMT:outputs.obj
 0001:00018bb1       __output_p_l               10019bb1 f   LIBCMT:outputp.obj
 0001:00019ee9       __validate_param_reuseA    1001aee9 f   LIBCMT:outputp.obj
 0001:0001a01f       _get_crtdouble_arg         1001b01f f i LIBCMT:outputp.obj
 0001:0001a11e       __isatty                   1001b11e f   LIBCMT:isatty.obj
 0001:0001a172       ___addlocaleref            1001b172 f   LIBCMT:localref.obj
 0001:0001a207       ___freetlocinfo            1001b207 f   LIBCMT:localref.obj
 0001:0001a361       ___removelocaleref         1001b361 f   LIBCMT:localref.obj
 0001:0001a401       ___updatetlocinfo          1001b401 f   LIBCMT:localref.obj
 0001:0001a481       __updatetlocinfoEx_nolock  1001b481 f   LIBCMT:localref.obj
 0001:0001a4cc       ___iswcsym                 1001b4cc f i LIBCMT:_wctype.obj
 0001:0001a4f0       ___iswcsymf                1001b4f0 f i LIBCMT:_wctype.obj
 0001:0001a514       __isleadbyte_l             1001b514 f i LIBCMT:_wctype.obj
 0001:0001a54e       __iswalnum_l               1001b54e f i LIBCMT:_wctype.obj
 0001:0001a562       __iswalpha_l               1001b562 f i LIBCMT:_wctype.obj
 0001:0001a576       __iswblank_l               1001b576 f i LIBCMT:_wctype.obj
 0001:0001a591       __iswcntrl_l               1001b591 f i LIBCMT:_wctype.obj
 0001:0001a5a2       __iswcsym_l                1001b5a2 f i LIBCMT:_wctype.obj
 0001:0001a5c6       __iswcsymf_l               1001b5c6 f i LIBCMT:_wctype.obj
 0001:0001a5ea       __iswdigit_l               1001b5ea f i LIBCMT:_wctype.obj
 0001:0001a5fb       __iswgraph_l               1001b5fb f i LIBCMT:_wctype.obj
 0001:0001a60f       __iswlower_l               1001b60f f i LIBCMT:_wctype.obj
 0001:0001a620       __iswprint_l               1001b620 f i LIBCMT:_wctype.obj
 0001:0001a634       __iswpunct_l               1001b634 f i LIBCMT:_wctype.obj
 0001:0001a645       __iswspace_l               1001b645 f i LIBCMT:_wctype.obj
 0001:0001a656       __iswupper_l               1001b656 f i LIBCMT:_wctype.obj
 0001:0001a667       __iswxdigit_l              1001b667 f i LIBCMT:_wctype.obj
 0001:0001a67b       _isleadbyte                1001b67b f i LIBCMT:_wctype.obj
 0001:0001a68c       _iswalnum                  1001b68c f i LIBCMT:_wctype.obj
 0001:0001a6a0       _iswalpha                  1001b6a0 f i LIBCMT:_wctype.obj
 0001:0001a6b4       _iswascii                  1001b6b4 f i LIBCMT:_wctype.obj
 0001:0001a6c6       _iswblank                  1001b6c6 f i LIBCMT:_wctype.obj
 0001:0001a6e1       _iswcntrl                  1001b6e1 f i LIBCMT:_wctype.obj
 0001:0001a6f2       _iswdigit                  1001b6f2 f i LIBCMT:_wctype.obj
 0001:0001a703       _iswgraph                  1001b703 f i LIBCMT:_wctype.obj
 0001:0001a717       _iswlower                  1001b717 f i LIBCMT:_wctype.obj
 0001:0001a728       _iswprint                  1001b728 f i LIBCMT:_wctype.obj
 0001:0001a73c       _iswpunct                  1001b73c f i LIBCMT:_wctype.obj
 0001:0001a74d       _iswspace                  1001b74d f i LIBCMT:_wctype.obj
 0001:0001a75e       _iswupper                  1001b75e f i LIBCMT:_wctype.obj
 0001:0001a76f       _iswxdigit                 1001b76f f i LIBCMT:_wctype.obj
 0001:0001a783       __wctomb_l                 1001b783 f   LIBCMT:wctomb.obj
 0001:0001a7d2       __wctomb_s_l               1001b7d2 f   LIBCMT:wctomb.obj
 0001:0001a8f6       _wctomb                    1001b8f6 f   LIBCMT:wctomb.obj
 0001:0001a929       _wctomb_s                  1001b929 f   LIBCMT:wctomb.obj
 0001:0001a950       __aulldvrm                 1001b950 f   LIBCMT:ulldvrm.obj
 0001:0001a9e5       ___isascii                 1001b9e5 f i LIBCMT:_ctype.obj
 0001:0001a9f5       ___iscsym                  1001b9f5 f i LIBCMT:_ctype.obj
 0001:0001aa15       ___iscsymf                 1001ba15 f i LIBCMT:_ctype.obj
 0001:0001aa32       ___toascii                 1001ba32 f i LIBCMT:_ctype.obj
 0001:0001aa3d       __isalnum_l                1001ba3d f i LIBCMT:_ctype.obj
 0001:0001aa95       __isalpha_l                1001ba95 f i LIBCMT:_ctype.obj
 0001:0001aaed       __isblank_l                1001baed f i LIBCMT:_ctype.obj
 0001:0001ab47       __iscntrl_l                1001bb47 f i LIBCMT:_ctype.obj
 0001:0001ab99       __iscsym_l                 1001bb99 f i LIBCMT:_ctype.obj
 0001:0001abba       __iscsymf_l                1001bbba f i LIBCMT:_ctype.obj
 0001:0001abdb       __isdigit_l                1001bbdb f i LIBCMT:_ctype.obj
 0001:0001ac2d       __isgraph_l                1001bc2d f i LIBCMT:_ctype.obj
 0001:0001ac85       __islower_l                1001bc85 f i LIBCMT:_ctype.obj
 0001:0001acd7       __isprint_l                1001bcd7 f i LIBCMT:_ctype.obj
 0001:0001ad2f       __ispunct_l                1001bd2f f i LIBCMT:_ctype.obj
 0001:0001ad81       __isspace_l                1001bd81 f i LIBCMT:_ctype.obj
 0001:0001add3       __isupper_l                1001bdd3 f i LIBCMT:_ctype.obj
 0001:0001ae25       __isxdigit_l               1001be25 f i LIBCMT:_ctype.obj
 0001:0001ae7d       _isalnum                   1001be7d f i LIBCMT:_ctype.obj
 0001:0001aeaa       _isalpha                   1001beaa f i LIBCMT:_ctype.obj
 0001:0001aed7       _isblank                   1001bed7 f i LIBCMT:_ctype.obj
 0001:0001af0c       _iscntrl                   1001bf0c f i LIBCMT:_ctype.obj
 0001:0001af37       _isdigit                   1001bf37 f i LIBCMT:_ctype.obj
 0001:0001af62       _isgraph                   1001bf62 f i LIBCMT:_ctype.obj
 0001:0001af8f       _islower                   1001bf8f f i LIBCMT:_ctype.obj
 0001:0001afba       _isprint                   1001bfba f i LIBCMT:_ctype.obj
 0001:0001afe7       _ispunct                   1001bfe7 f i LIBCMT:_ctype.obj
 0001:0001b012       _isspace                   1001c012 f i LIBCMT:_ctype.obj
 0001:0001b03d       _isupper                   1001c03d f i LIBCMT:_ctype.obj
 0001:0001b068       _isxdigit                  1001c068 f i LIBCMT:_ctype.obj
 0001:0001b095       __tolower                  1001c095 f   LIBCMT:tolower.obj
 0001:0001b0a0       __tolower_l                1001c0a0 f   LIBCMT:tolower.obj
 0001:0001b1e3       _tolower                   1001c1e3 f   LIBCMT:tolower.obj
 0001:0001b20f       _strcpy_s                  1001c20f f   LIBCMT:strcpy_s.obj
 0001:0001b270       _strrchr                   1001c270 f   LIBCMT:strrchr.obj
 0001:0001b3a7       __fptostr                  1001c3a7 f   LIBCMT:_fptostr.obj
 0001:0001b457       ___crt_atoflt_l            1001c457 f   LIBCMT:atodbl.obj
 0001:0001b4fb       __atodbl                   1001c4fb f   LIBCMT:atodbl.obj
 0001:0001b510       __atodbl_l                 1001c510 f   LIBCMT:atodbl.obj
 0001:0001b59e       __atoflt                   1001c59e f   LIBCMT:atodbl.obj
 0001:0001b5b3       __atoflt_l                 1001c5b3 f   LIBCMT:atodbl.obj
 0001:0001b5cb       __atoldbl                  1001c5cb f   LIBCMT:atodbl.obj
 0001:0001b5e0       __atoldbl_l                1001c5e0 f   LIBCMT:atodbl.obj
 0001:0001b66f       ___dtold                   1001c66f f   LIBCMT:cfout.obj
 0001:0001b737       __fltout2                  1001c737 f   LIBCMT:cfout.obj
 0001:0001b7d0       __alldvrm                  1001c7d0 f   LIBCMT:lldvrm.obj
 0001:0001b8b0       __aullshr                  1001c8b0 f   LIBCMT:ullshr.obj
 0001:0001b8cf       __get_output_format        1001c8cf f   LIBCMT:outputformat.obj
 0001:0001b8d5       __set_output_format        1001c8d5 f   LIBCMT:outputformat.obj
 0001:0001b907       __controlfp_s              1001c907 f   LIBCMT:contrlfp.obj
 0001:0001b964       __fptrap                   1001c964 f   LIBCMT:crt0fp.obj
 0001:0001b96d       __msize                    1001c96d f   LIBCMT:msize.obj
 0001:0001b99e       __recalloc                 1001c99e f   LIBCMT:recalloc.obj
 0001:0001ba07       _strncpy_s                 1001ca07 f   LIBCMT:strncpy_s.obj
 0001:0001bb8f       __MallocaIsSizeInRange     1001cb8f f i LIBCMT:a_loc.obj
 0001:0001bba0       __MarkAllocaS              1001cba0 f i LIBCMT:a_loc.obj
 0001:0001bbb4       ___crtGetLocaleInfoA       1001cbb4 f   LIBCMT:a_loc.obj
 0001:0001bbee       __freea                    1001cbee f i LIBCMT:a_loc.obj
 0001:0001bc0c       _GetTableIndexFromLcid     1001cc0c f   LIBCMT:winapinls.obj
 0001:0001bc41       _GetTableIndexFromLocaleName 1001cc41 f   LIBCMT:winapinls.obj
 0001:0001bc8f       ___crtCompareStringEx      1001cc8f f   LIBCMT:winapinls.obj
 0001:0001bcdb       ___crtDownlevelLCIDToLocaleName 1001ccdb f   LIBCMT:winapinls.obj
 0001:0001bd57       ___crtDownlevelLocaleNameToLCID 1001cd57 f   LIBCMT:winapinls.obj
 0001:0001bd95       ___crtEnumSystemLocalesEx  1001cd95 f   LIBCMT:winapinls.obj
 0001:0001bdd2       ___crtGetDateFormatEx      1001cdd2 f   LIBCMT:winapinls.obj
 0001:0001be1b       ___crtGetLocaleInfoEx      1001ce1b f   LIBCMT:winapinls.obj
 0001:0001be4a       ___crtGetTimeFormatEx      1001ce4a f   LIBCMT:winapinls.obj
 0001:0001be7f       ___crtGetUserDefaultLocaleName 1001ce7f f   LIBCMT:winapinls.obj
 0001:0001beaa       ___crtIsValidLocaleName    1001ceaa f   LIBCMT:winapinls.obj
 0001:0001bed5       ___crtLCMapStringEx        1001ced5 f   LIBCMT:winapinls.obj
 0001:0001bf21       ___wcsnicmp_ascii          1001cf21 f   LIBCMT:winapinls.obj
 0001:0001c1b3       ___crtLCMapStringA         1001d1b3 f   LIBCMT:a_map.obj
 0001:0001c2f1       ___crtGetStringTypeA       1001d2f1 f   LIBCMT:a_str.obj
 0001:0001c331       __commit                   1001d331 f   LIBCMT:commit.obj
 0001:0001c41a       ___lock_fhandle            1001d41a f   LIBCMT:osfinfo.obj
 0001:0001c4a8       __alloc_osfhnd             1001d4a8 f   LIBCMT:osfinfo.obj
 0001:0001c651       __free_osfhnd              1001d651 f   LIBCMT:osfinfo.obj
 0001:0001c6d7       __get_osfhandle            1001d6d7 f   LIBCMT:osfinfo.obj
 0001:0001c73e       __open_osfhandle           1001d73e f   LIBCMT:osfinfo.obj
 0001:0001c854       __set_osfhnd               1001d854 f   LIBCMT:osfinfo.obj
 0001:0001c8d6       __unlock_fhandle           1001d8d6 f   LIBCMT:osfinfo.obj
 0001:0001c8fc       __open                     1001d8fc f   LIBCMT:open.obj
 0001:0001c9ac       __sopen                    1001d9ac f   LIBCMT:open.obj
 0001:0001c9df       __sopen_helper             1001d9df f   LIBCMT:open.obj
 0001:0001caa8       __sopen_nolock             1001daa8 f   LIBCMT:open.obj
 0001:0001caf6       __sopen_s                  1001daf6 f   LIBCMT:open.obj
 0001:0001cb14       __mbsnbcmp                 1001db14 f   LIBCMT:mbsnbcmp.obj
 0001:0001cb2c       __mbsnbcmp_l               1001db2c f   LIBCMT:mbsnbcmp.obj
 0001:0001cc43       __mbsnbicmp                1001dc43 f   LIBCMT:mbsnbicm.obj
 0001:0001cc5b       __mbsnbicmp_l              1001dc5b f   LIBCMT:mbsnbicm.obj
 0001:0001ce20       __global_unwind2           1001de20 f   LIBCMT:exsup.obj
 0001:0001ce85       __local_unwind2            1001de85 f   LIBCMT:exsup.obj
 0001:0001cf09       __abnormal_termination     1001df09 f   LIBCMT:exsup.obj
 0001:0001cf2c       __NLG_Notify1              1001df2c f   LIBCMT:exsup.obj
 0001:0001cf35       __NLG_Notify               1001df35 f   LIBCMT:exsup.obj
 0001:0001cf4c       __NLG_Dispatch             1001df4c     LIBCMT:exsup.obj
 0001:0001cf4c       __NLG_Dispatch2            1001df4c     LIBCMT:exsup.obj
 0001:0001cf54       __NLG_Call                 1001df54 f   LIBCMT:exsup.obj
 0001:0001cf56       __NLG_Return2              1001df56     LIBCMT:exsup.obj
 0001:0001cf57       __getbuf                   1001df57 f   LIBCMT:_getbuf.obj
 0001:0001cf9d       __lseeki64                 1001df9d f   LIBCMT:lseeki64.obj
 0001:0001d099       __lseeki64_nolock          1001e099 f   LIBCMT:lseeki64.obj
 0001:0001d10c       __mbtowc_l                 1001e10c f   LIBCMT:mbtowc.obj
 0001:0001d201       _mbtowc                    1001e201 f   LIBCMT:mbtowc.obj
 0001:0001d219       __putwch                   1001e219 f   LIBCMT:putwch.obj
 0001:0001d265       __putwch_nolock            1001e265 f   LIBCMT:putwch.obj
 0001:0001d2b0       __alloca_probe             1001e2b0 f   LIBCMT:chkstk.obj
 0001:0001d2b0       __chkstk                   1001e2b0 f   LIBCMT:chkstk.obj
 0001:0001d2db       __matherr                  1001e2db f   LIBCMT:matherr.obj
 0001:0001d2de       __vfwprintf_l              1001e2de f   LIBCMT:vfwprint.obj
 0001:0001d2fc       __vfwprintf_p              1001e2fc f   LIBCMT:vfwprint.obj
 0001:0001d319       __vfwprintf_p_l            1001e319 f   LIBCMT:vfwprint.obj
 0001:0001d337       __vfwprintf_s_l            1001e337 f   LIBCMT:vfwprint.obj
 0001:0001d355       _vfwprintf                 1001e355 f   LIBCMT:vfwprint.obj
 0001:0001d372       _vfwprintf_helper          1001e372 f   LIBCMT:vfwprint.obj
 0001:0001d405       _vfwprintf_s               1001e405 f   LIBCMT:vfwprint.obj
 0001:0001d422       __woutput_l                1001e422 f   LIBCMT:woutput.obj
 0001:0001e101       __woutput_s_l              1001f101 f   LIBCMT:woutputs.obj
 0001:0001ee18       __validate_param_reuseW    1001fe18 f   LIBCMT:woutputp.obj
 0001:0001ef90       __woutput_p_l              1001ff90 f   LIBCMT:woutputp.obj
 0001:000203b9       __ismbbalnum               100213b9 f   LIBCMT:ismbbyte.obj
 0001:000203d2       __ismbbalnum_l             100213d2 f   LIBCMT:ismbbyte.obj
 0001:000203ec       __ismbbalpha               100213ec f   LIBCMT:ismbbyte.obj
 0001:00020405       __ismbbalpha_l             10021405 f   LIBCMT:ismbbyte.obj
 0001:0002041f       __ismbbblank               1002141f f   LIBCMT:ismbbyte.obj
 0001:00020440       __ismbbblank_l             10021440 f   LIBCMT:ismbbyte.obj
 0001:00020462       __ismbbgraph               10021462 f   LIBCMT:ismbbyte.obj
 0001:0002047b       __ismbbgraph_l             1002147b f   LIBCMT:ismbbyte.obj
 0001:00020495       __ismbbkalnum              10021495 f   LIBCMT:ismbbyte.obj
 0001:000204ab       __ismbbkalnum_l            100214ab f   LIBCMT:ismbbyte.obj
 0001:000204c2       __ismbbkana                100214c2 f   LIBCMT:ismbbyte.obj
 0001:000204d3       __ismbbkana_l              100214d3 f   LIBCMT:ismbbyte.obj
 0001:0002051f       __ismbbkprint              1002151f f   LIBCMT:ismbbyte.obj
 0001:00020535       __ismbbkprint_l            10021535 f   LIBCMT:ismbbyte.obj
 0001:0002054c       __ismbbkpunct              1002154c f   LIBCMT:ismbbyte.obj
 0001:00020562       __ismbbkpunct_l            10021562 f   LIBCMT:ismbbyte.obj
 0001:00020579       __ismbblead                10021579 f   LIBCMT:ismbbyte.obj
 0001:0002058f       __ismbblead_l              1002158f f   LIBCMT:ismbbyte.obj
 0001:000205a6       __ismbbprint               100215a6 f   LIBCMT:ismbbyte.obj
 0001:000205bf       __ismbbprint_l             100215bf f   LIBCMT:ismbbyte.obj
 0001:000205d9       __ismbbpunct               100215d9 f   LIBCMT:ismbbyte.obj
 0001:000205ef       __ismbbpunct_l             100215ef f   LIBCMT:ismbbyte.obj
 0001:00020606       __ismbbtrail               10021606 f   LIBCMT:ismbbyte.obj
 0001:0002061c       __ismbbtrail_l             1002161c f   LIBCMT:ismbbyte.obj
 0001:00020859       __strtol_l                 10021859 f   LIBCMT:strtol.obj
 0001:00020874       __strtoul_l                10021874 f   LIBCMT:strtol.obj
 0001:0002088f       _strtol                    1002188f f   LIBCMT:strtol.obj
 0001:000208b9       _strtoul                   100218b9 f   LIBCMT:strtol.obj
 0001:000208e3       ___free_lconv_mon          100218e3 f   LIBCMT:initmon.obj
 0001:000209df       ___init_monetary           100219df f   LIBCMT:initmon.obj
 0001:00020db8       ___free_lconv_num          10021db8 f   LIBCMT:initnum.obj
 0001:00020e1f       ___init_numeric            10021e1f f   LIBCMT:initnum.obj
 0001:0002105d       ___free_lc_time            1002205d f   LIBCMT:inittime.obj
 0001:000213dd       ___init_time               100223dd f   LIBCMT:inittime.obj
 0001:00021c4c       _localeconv                10022c4c f   LIBCMT:lconv.obj
 0001:00021c72       __iswctype_l               10022c72 f   LIBCMT:iswctype.obj
 0001:00021c84       _is_wctype                 10022c84 f   LIBCMT:iswctype.obj
 0001:00021c8d       _iswctype                  10022c8d f   LIBCMT:iswctype.obj
 0001:00021ce3       ____lc_codepage_func       10022ce3 f   LIBCMT:initctyp.obj
 0001:00021d09       ____lc_collate_cp_func     10022d09 f   LIBCMT:initctyp.obj
 0001:00021d2f       ____lc_locale_name_func    10022d2f f   LIBCMT:initctyp.obj
 0001:00021d57       ____mb_cur_max_func        10022d57 f   LIBCMT:initctyp.obj
 0001:00021d7d       ____mb_cur_max_l_func      10022d7d f   LIBCMT:initctyp.obj
 0001:00021d94       ___init_ctype              10022d94 f   LIBCMT:initctyp.obj
 0001:0002212c       ___pctype_func             1002312c f   LIBCMT:ctype.obj
 0001:00022155       ___pwctype_func            10023155 f   LIBCMT:ctype.obj
 0001:0002215b       __isctype                  1002315b f   LIBCMT:isctype.obj
 0001:0002218a       __isctype_l                1002318a f   LIBCMT:isctype.obj
 0001:0002223b       ___init_dummy              1002323b f   LIBCMT:wsetloca.obj
 0001:0002223e       __locterm                  1002323e f   LIBCMT:wsetloca.obj
 0001:00022290       ____setlc_active_func      10023290 f   LIBCMT:wsetloca.obj
 0001:00022296       ____unguarded_readlc_active_add_func 10023296 f   LIBCMT:wsetloca.obj
 0001:0002229c       ___copy_locale_name        1002329c f   LIBCMT:wsetloca.obj
 0001:00022300       ___create_locale           10023300 f   LIBCMT:wsetloca.obj
 0001:00022309       ___free_locale             10023309 f   LIBCMT:wsetloca.obj
 0001:0002230e       ___get_current_locale      1002330e f   LIBCMT:wsetloca.obj
 0001:00022313       ___lc_lctowcs              10023313 f   LIBCMT:wsetloca.obj
 0001:00022381       ___lc_wcstolc              10023381 f   LIBCMT:wsetloca.obj
 0001:000224ad       __configthreadlocale       100234ad f   LIBCMT:wsetloca.obj
 0001:00022533       __create_locale            10023533 f   LIBCMT:wsetloca.obj
 0001:00022595       __expandlocale             10023595 f   LIBCMT:wsetloca.obj
 0001:0002288c       __free_locale              1002388c f   LIBCMT:wsetloca.obj
 0001:00022943       __get_current_locale       10023943 f   LIBCMT:wsetloca.obj
 0001:000229f2       __wcreate_locale           100239f2 f   LIBCMT:wsetloca.obj
 0001:00022ac9       __wcscats                  10023ac9 f   LIBCMT:wsetloca.obj
 0001:00022b08       __wsetlocale               10023b08 f   LIBCMT:wsetloca.obj
 0001:0002344a       __CopyMan                  1002444a f i LIBCMT:intrncvt.obj
 0001:00023467       __FillZeroMan              10024467 f i LIBCMT:intrncvt.obj
 0001:00023476       __IncMan                   10024476 f i LIBCMT:intrncvt.obj
 0001:000234d8       __IsZeroMan                100244d8 f i LIBCMT:intrncvt.obj
 0001:000234f5       __RoundMan                 100244f5 f i LIBCMT:intrncvt.obj
 0001:000235f6       __ShrMan                   100245f6 f i LIBCMT:intrncvt.obj
 0001:00023684       __ZeroTail                 10024684 f i LIBCMT:intrncvt.obj
 0001:000236cc       ___addl                    100246cc f i LIBCMT:intrncvt.obj
 0001:000236f0       __ld12cvt                  100246f0 f i LIBCMT:intrncvt.obj
 0001:00023c5b       __ld12tod                  10024c5b f   LIBCMT:intrncvt.obj
 0001:000241cd       __ld12tof                  100251cd f   LIBCMT:intrncvt.obj
 0001:0002473f       __ld12told                 1002573f f   LIBCMT:intrncvt.obj
 0001:0002480e       ___STRINGTOLD_L            1002580e f   LIBCMT:strgtold.obj
 0001:00024869       ___ld12mul                 10025869 f i LIBCMT:strgtold.obj
 0001:00024b35       ___multtenpow12            10025b35 f i LIBCMT:strgtold.obj
 0001:00024e88       ___shl_12                  10025e88 f i LIBCMT:strgtold.obj
 0001:00024eb9       ___shr_12                  10025eb9 f i LIBCMT:strgtold.obj
 0001:00024ee9       ___strgtold12_l            10025ee9 f   LIBCMT:strgtold.obj
 0001:00025691       _$I10_OUTPUT               10026691 f   LIBCMT:x10fout.obj
 0001:00026065       ___add_12                  10027065 f i LIBCMT:x10fout.obj
 0001:00026211       ___control87_2             10027211 f   LIBCMT:ieee87.obj
 0001:00026885       __clearfp                  10027885 f   LIBCMT:ieee87.obj
 0001:00026965       __control87                10027965 f i LIBCMT:ieee87.obj
 0001:00026c67       __controlfp                10027c67 f   LIBCMT:ieee87.obj
 0001:00026f72       __fpreset                  10027f72 f   LIBCMT:ieee87.obj
 0001:0002703f       __set_controlfp            1002803f f   LIBCMT:ieee87.obj
 0001:000270b2       __statusfp                 100280b2 f   LIBCMT:ieee87.obj
 0001:0002714c       __statusfp2                1002814c f   LIBCMT:ieee87.obj
 0001:000271b0       __alloca_probe_16          100281b0 f   LIBCMT:alloca16.obj
 0001:000271c6       __alloca_probe_8           100281c6     LIBCMT:alloca16.obj
 0001:000271dc       _wcsnlen                   100281dc f   LIBCMT:wcslen_s.obj
 0001:00027283       __wopen                    10028283 f   LIBCMT:wopen.obj
 0001:00027333       __wsopen                   10028333 f   LIBCMT:wopen.obj
 0001:00027366       __wsopen_helper            10028366 f   LIBCMT:wopen.obj
 0001:0002742f       __wsopen_nolock            1002842f f   LIBCMT:wopen.obj
 0001:00027b82       __wsopen_s                 10028b82 f   LIBCMT:wopen.obj
 0001:00027ba0       _strncmp                   10028ba0 f   LIBCMT:strncmp.obj
 0001:00027c18       __strnicmp                 10028c18 f   LIBCMT:strnicmp.obj
 0001:00027c83       __strnicmp_l               10028c83 f   LIBCMT:strnicmp.obj
 0001:00027d34       ___termconout              10028d34 f   LIBCMT:initcon.obj
 0001:00027d4b       ___initconout              10028d4b f   LIBCMT:initcon.obj
 0001:00027d6a       __fputwc_nolock            10028d6a f   LIBCMT:fputwc.obj
 0001:00027ef0       _fputwc                    10028ef0 f   LIBCMT:fputwc.obj
 0001:00027f67       _putwc                     10028f67 f   LIBCMT:fputwc.obj
 0001:00028151       __wcstol_l                 10029151 f   LIBCMT:wcstol.obj
 0001:00028169       __wcstoul_l                10029169 f   LIBCMT:wcstol.obj
 0001:00028181       _wcstol                    10029181 f   LIBCMT:wcstol.obj
 0001:00028199       _wcstoul                   10029199 f   LIBCMT:wcstol.obj
 0001:000281b1       ___init_collate            100291b1 f   LIBCMT:initcoll.obj
 0001:000282d1       _memcmp                    100292d1 f   LIBCMT:memcmp.obj
 0001:0002b1e5       _wcscmp                    1002c1e5 f   LIBCMT:wcscmp.obj
 0001:0002b223       _wcscspn                   1002c223 f   LIBCMT:wcscspn.obj
 0001:0002b26e       _wcsncmp                   1002c26e f   LIBCMT:wcsncmp.obj
 0001:0002b2a4       _wcspbrk                   1002c2a4 f   LIBCMT:wcspbrk.obj
 0001:0002b8a8       ___get_qualified_locale    1002c8a8 f   LIBCMT:getqloc.obj
 0001:0002c118       ___get_qualified_locale_downlevel 1002d118 f   LIBCMT:getqloc_downlevel.obj
 0001:0002c334       ___mtold12                 1002d334 f   LIBCMT:mantold.obj
 0001:0002c514       __chsize                   1002d514 f   LIBCMT:chsize.obj
 0001:0002c52e       __chsize_nolock            1002d52e f   LIBCMT:chsize.obj
 0001:0002c6e4       __chsize_s                 1002d6e4 f   LIBCMT:chsize.obj
 0001:0002c7d2       __get_fmode                1002d7d2 f   LIBCMT:setmode.obj
 0001:0002c7fc       __set_fmode                1002d7fc f   LIBCMT:setmode.obj
 0001:0002c837       __setmode                  1002d837 f   LIBCMT:setmode.obj
 0001:0002c93c       __setmode_nolock           1002d93c f   LIBCMT:setmode.obj
 0001:0002ca10       ___ascii_strnicmp          1002da10 f   LIBCMT:_strnicm.obj
 0001:0002ca71       __flswbuf                  1002da71 f   LIBCMT:_flswbuf.obj
 0001:0002cbd3       __wchartodigit             1002dbd3 f   LIBCMT:wchtodig.obj
 0001:0002cd72       __wtoi                     1002dd72 f   LIBCMT:wtox.obj
 0001:0002cd7b       __wtoi64                   1002dd7b f   LIBCMT:wtox.obj
 0001:0002cd8f       __wtoi64_l                 1002dd8f f   LIBCMT:wtox.obj
 0001:0002cda6       __wtoi_l                   1002dda6 f   LIBCMT:wtox.obj
 0001:0002cdaf       __wtol                     1002ddaf f   LIBCMT:wtox.obj
 0001:0002cdc3       __wtol_l                   1002ddc3 f   LIBCMT:wtox.obj
 0001:0002cdda       __wtoll                    1002ddda f   LIBCMT:wtox.obj
 0001:0002cdee       __wtoll_l                  1002ddee f   LIBCMT:wtox.obj
 0001:0002ce05       _wcschr                    1002de05 f   LIBCMT:wcschr.obj
 0001:0002ceb3       __wcsicmp                  1002deb3 f   LIBCMT:wcsicmp.obj
 0001:0002cf46       __wcsicmp_l                1002df46 f   LIBCMT:wcsicmp.obj
 0001:0002d021       __wcsnicmp                 1002e021 f   LIBCMT:wcsnicmp.obj
 0001:0002d0d7       __wcsnicmp_l               1002e0d7 f   LIBCMT:wcsnicmp.obj
 0001:0002d4a0       __wcstof_l                 1002e4a0 f   LIBCMT:wcstoq.obj
 0001:0002d553       __wcstoi64                 1002e553 f   LIBCMT:wcstoq.obj
 0001:0002d57d       __wcstoi64_l               1002e57d f   LIBCMT:wcstoq.obj
 0001:0002d598       __wcstoimax_l              1002e598 f   LIBCMT:wcstoq.obj
 0001:0002d5a1       __wcstold_l                1002e5a1 f   LIBCMT:wcstoq.obj
 0001:0002d5aa       __wcstoll_l                1002e5aa f   LIBCMT:wcstoq.obj
 0001:0002d5b3       __wcstoui64                1002e5b3 f   LIBCMT:wcstoq.obj
 0001:0002d5dd       __wcstoui64_l              1002e5dd f   LIBCMT:wcstoq.obj
 0001:0002d5f8       __wcstoull_l               1002e5f8 f   LIBCMT:wcstoq.obj
 0001:0002d601       __wcstoumax_l              1002e601 f   LIBCMT:wcstoq.obj
 0001:0002d60a       _wcstof                    1002e60a f   LIBCMT:wcstoq.obj
 0001:0002d61f       _wcstoimax                 1002e61f f   LIBCMT:wcstoq.obj
 0001:0002d628       _wcstold                   1002e628 f   LIBCMT:wcstoq.obj
 0001:0002d631       _wcstoll                   1002e631 f   LIBCMT:wcstoq.obj
 0001:0002d63a       _wcstoull                  1002e63a f   LIBCMT:wcstoq.obj
 0001:0002d643       _wcstoumax                 1002e643 f   LIBCMT:wcstoq.obj
 0001:0002d64c       __towlower_l               1002e64c f   LIBCMT:towlower.obj
 0001:0002d6fd       _towlower                  1002e6fd f   LIBCMT:towlower.obj
 0001:0002d70e       __wcstod_l                 1002e70e f   LIBCMT:wcstod.obj
 0001:0002d809       _wcstod                    1002e809 f   LIBCMT:wcstod.obj
 0001:0002d820       __allmul                   1002e820 f   LIBCMT:llmul.obj
 0001:0002d854       ___crtLCMapStringW         1002e854 f   LIBCMT:w_map.obj
 0001:0002d883       __wfltin2                  1002e883 f   LIBCMT:wcfin.obj
 0001:0002d930       ___WSTRINGTOLD_L           1002e930 f   LIBCMT:wstrgtold.obj
 0001:0002d98b       ___wstrgtold12_l           1002e98b f   LIBCMT:wstrgtold.obj
 0001:0002e1dc       _GetModuleHandleA@4        1002f1dc f   kernel32:KERNEL32.dll
 0001:0002e1e2       _GetProcAddress@8          1002f1e2 f   kernel32:KERNEL32.dll
 0001:0002e1e8       _HeapAlloc@12              1002f1e8 f   kernel32:KERNEL32.dll
 0001:0002e1ee       _IsDebuggerPresent@0       1002f1ee f   kernel32:KERNEL32.dll
 0001:0002e1f4       _IsProcessorFeaturePresent@4 1002f1f4 f   kernel32:KERNEL32.dll
 0001:0002e1fa       _EncodePointer@4           1002f1fa f   kernel32:KERNEL32.dll
 0001:0002e200       _DecodePointer@4           1002f200 f   kernel32:KERNEL32.dll
 0001:0002e206       _GetLastError@0            1002f206 f   kernel32:KERNEL32.dll
 0001:0002e20c       _ExitProcess@4             1002f20c f   kernel32:KERNEL32.dll
 0001:0002e212       _GetModuleHandleExW@12     1002f212 f   kernel32:KERNEL32.dll
 0001:0002e218       _AreFileApisANSI@0         1002f218 f   kernel32:KERNEL32.dll
 0001:0002e21e       _MultiByteToWideChar@24    1002f21e f   kernel32:KERNEL32.dll
 0001:0002e224       _WideCharToMultiByte@32    1002f224 f   kernel32:KERNEL32.dll
 0001:0002e22a       _HeapFree@12               1002f22a f   kernel32:KERNEL32.dll
 0001:0002e230       _HeapReAlloc@16            1002f230 f   kernel32:KERNEL32.dll
 0001:0002e236       _EnterCriticalSection@4    1002f236 f   kernel32:KERNEL32.dll
 0001:0002e23c       _LeaveCriticalSection@4    1002f23c f   kernel32:KERNEL32.dll
 0001:0002e242       _GetStdHandle@4            1002f242 f   kernel32:KERNEL32.dll
 0001:0002e248       _GetFileType@4             1002f248 f   kernel32:KERNEL32.dll
 0001:0002e24e       _GetModuleFileNameW@12     1002f24e f   kernel32:KERNEL32.dll
 0001:0002e254       _WriteConsoleW@20          1002f254 f   kernel32:KERNEL32.dll
 0001:0002e25a       _GetCommandLineA@0         1002f25a f   kernel32:KERNEL32.dll
 0001:0002e260       _GetCurrentThreadId@0      1002f260 f   kernel32:KERNEL32.dll
 0001:0002e266       _WriteFile@20              1002f266 f   kernel32:KERNEL32.dll
 0001:0002e26c       _GetProcessHeap@0          1002f26c f   kernel32:KERNEL32.dll
 0001:0002e272       _UnhandledExceptionFilter@4 1002f272 f   kernel32:KERNEL32.dll
 0001:0002e278       _SetUnhandledExceptionFilter@4 1002f278 f   kernel32:KERNEL32.dll
 0001:0002e27e       _SetLastError@4            1002f27e f   kernel32:KERNEL32.dll
 0001:0002e284       _InitializeCriticalSectionAndSpinCount@8 1002f284 f   kernel32:KERNEL32.dll
 0001:0002e28a       _CreateEventW@16           1002f28a f   kernel32:KERNEL32.dll
 0001:0002e290       _Sleep@4                   1002f290 f   kernel32:KERNEL32.dll
 0001:0002e296       _GetCurrentProcess@0       1002f296 f   kernel32:KERNEL32.dll
 0001:0002e29c       _TerminateProcess@8        1002f29c f   kernel32:KERNEL32.dll
 0001:0002e2a2       _TlsAlloc@0                1002f2a2 f   kernel32:KERNEL32.dll
 0001:0002e2a8       _TlsGetValue@4             1002f2a8 f   kernel32:KERNEL32.dll
 0001:0002e2ae       _TlsSetValue@8             1002f2ae f   kernel32:KERNEL32.dll
 0001:0002e2b4       _TlsFree@4                 1002f2b4 f   kernel32:KERNEL32.dll
 0001:0002e2ba       _GetStartupInfoW@4         1002f2ba f   kernel32:KERNEL32.dll
 0001:0002e2c0       _GetTickCount@0            1002f2c0 f   kernel32:KERNEL32.dll
 0001:0002e2c6       _GetModuleHandleW@4        1002f2c6 f   kernel32:KERNEL32.dll
 0001:0002e2cc       _CreateSemaphoreW@16       1002f2cc f   kernel32:KERNEL32.dll
 0001:0002e2d2       _DeleteCriticalSection@4   1002f2d2 f   kernel32:KERNEL32.dll
 0001:0002e2d8       _FatalAppExitA@8           1002f2d8 f   kernel32:KERNEL32.dll
 0001:0002e2de       _SetConsoleCtrlHandler@8   1002f2de f   kernel32:KERNEL32.dll
 0001:0002e2e4       _FreeLibrary@4             1002f2e4 f   kernel32:KERNEL32.dll
 0001:0002e2ea       _LoadLibraryExW@12         1002f2ea f   kernel32:KERNEL32.dll
 0001:0002e2f0       _IsValidCodePage@4         1002f2f0 f   kernel32:KERNEL32.dll
 0001:0002e2f6       _GetACP@0                  1002f2f6 f   kernel32:KERNEL32.dll
 0001:0002e2fc       _GetOEMCP@0                1002f2fc f   kernel32:KERNEL32.dll
 0001:0002e302       _GetCPInfo@8               1002f302 f   kernel32:KERNEL32.dll
 0001:0002e308       _CloseHandle@4             1002f308 f   kernel32:KERNEL32.dll
 0001:0002e30e       _RtlUnwind@16              1002f30e f   kernel32:KERNEL32.dll
 0001:0002e314       _ReadFile@20               1002f314 f   kernel32:KERNEL32.dll
 0001:0002e31a       _GetConsoleMode@8          1002f31a f   kernel32:KERNEL32.dll
 0001:0002e320       _ReadConsoleW@20           1002f320 f   kernel32:KERNEL32.dll
 0001:0002e326       _GetConsoleCP@0            1002f326 f   kernel32:KERNEL32.dll
 0001:0002e32c       _DeleteFileW@4             1002f32c f   kernel32:KERNEL32.dll
 0001:0002e332       _SetFilePointerEx@20       1002f332 f   kernel32:KERNEL32.dll
 0001:0002e338       _RaiseException@16         1002f338 f   kernel32:KERNEL32.dll
 0001:0002e33e       _OutputDebugStringW@4      1002f33e f   kernel32:KERNEL32.dll
 0001:0002e344       _GetCurrentThread@0        1002f344 f   kernel32:KERNEL32.dll
 0001:0002e34a       _GetModuleFileNameA@12     1002f34a f   kernel32:KERNEL32.dll
 0001:0002e350       _QueryPerformanceCounter@4 1002f350 f   kernel32:KERNEL32.dll
 0001:0002e356       _GetCurrentProcessId@0     1002f356 f   kernel32:KERNEL32.dll
 0001:0002e35c       _GetSystemTimeAsFileTime@4 1002f35c f   kernel32:KERNEL32.dll
 0001:0002e362       _GetEnvironmentStringsW@0  1002f362 f   kernel32:KERNEL32.dll
 0001:0002e368       _FreeEnvironmentStringsW@4 1002f368 f   kernel32:KERNEL32.dll
 0001:0002e36e       _HeapSize@12               1002f36e f   kernel32:KERNEL32.dll
 0001:0002e374       _GetDateFormatW@24         1002f374 f   kernel32:KERNEL32.dll
 0001:0002e37a       _GetTimeFormatW@24         1002f37a f   kernel32:KERNEL32.dll
 0001:0002e380       _CompareStringW@24         1002f380 f   kernel32:KERNEL32.dll
 0001:0002e386       _LCMapStringW@24           1002f386 f   kernel32:KERNEL32.dll
 0001:0002e38c       _GetLocaleInfoW@16         1002f38c f   kernel32:KERNEL32.dll
 0001:0002e392       _IsValidLocale@8           1002f392 f   kernel32:KERNEL32.dll
 0001:0002e398       _GetUserDefaultLCID@0      1002f398 f   kernel32:KERNEL32.dll
 0001:0002e39e       _EnumSystemLocalesW@8      1002f39e f   kernel32:KERNEL32.dll
 0001:0002e3a4       _GetStringTypeW@16         1002f3a4 f   kernel32:KERNEL32.dll
 0001:0002e3aa       _FlushFileBuffers@4        1002f3aa f   kernel32:KERNEL32.dll
 0001:0002e3b0       _SetStdHandle@8            1002f3b0 f   kernel32:KERNEL32.dll
 0001:0002e3b6       _CreateFileW@28            1002f3b6 f   kernel32:KERNEL32.dll
 0001:0002e3bc       _SetEndOfFile@4            1002f3bc f   kernel32:KERNEL32.dll
 0002:00000000       ___xc_a                    1003a000     LIBCMT:crt0init.obj
 0002:00000104       ___xc_z                    1003a104     LIBCMT:crt0init.obj
 0002:00000208       ___xi_a                    1003a208     LIBCMT:crt0init.obj
 0002:00000420       ___xi_z                    1003a420     LIBCMT:crt0init.obj
 0002:00000524       ___xp_a                    1003a524     LIBCMT:crt0init.obj
 0002:00000838       ___xp_z                    1003a838     LIBCMT:crt0init.obj
 0002:0000093c       ___xt_a                    1003a93c     LIBCMT:crt0init.obj
 0002:00000a40       ___xt_z                    1003aa40     LIBCMT:crt0init.obj
 0002:00000b88       _rx_target_M               1003ab88     rx_target.obj
 0002:00000bb8       ??_C@_0BI@PHJEPFFP@Error?5creating?5scope?51?6?$AA@ 1003abb8     rx_target.obj
 0002:00000bd4       ??_C@_0BD@KBCFEDGB@MATLAB?5Function?1s1?$AA@ 1003abd4     rx_target.obj
 0002:00000bec       ??_C@_0BD@IKAIBAKC@MATLAB?5Function?1s2?$AA@ 1003abec     rx_target.obj
 0002:00000c04       ??_C@_0BD@JDBDCBOD@MATLAB?5Function?1s3?$AA@ 1003ac04     rx_target.obj
 0002:00000c1c       ??_C@_0BD@NMFCLHCE@MATLAB?5Function?1s4?$AA@ 1003ac1c     rx_target.obj
 0002:00000c34       ??_C@_0BD@MFEJIGGF@MATLAB?5Function?1s5?$AA@ 1003ac34     rx_target.obj
 0002:00000c4c       ??_C@_0BD@OOGENFKG@MATLAB?5Function?1s6?$AA@ 1003ac4c     rx_target.obj
 0002:00000c64       ??_C@_04EPKDLPPB@tout?$AA@ 1003ac64     rx_target.obj
 0002:00000c6a       ??_C@_00CNPNBAHC@?$AA@     1003ac6a     rx_target.obj
 0002:00000c6c       ??_C@_03HBFGMJOD@rt_?$AA@  1003ac6c     rx_target.obj
 0002:00000c70       __real@3e312e0be826d695    1003ac70     rx_target.obj
 0002:00000c80       __real@3e5eada78c455a9c    1003ac80     rx_target.obj
 0002:00000c90       __real@3e65798ee2308c3a    1003ac90     rx_target.obj
 0002:00000ca0       __real@3f50624dd2f1a9fc    1003aca0     rx_target.obj
 0002:00000cb0       __real@3ff0000000000000    1003acb0     rx_target.obj
 0002:00000cc0       __real@4000000000000000    1003acc0     rx_target.obj
 0002:00000cd0       __real@408f400000000000    1003acd0     rx_target.obj
 0002:00000ce0       __real@41f0000000000000    1003ace0     rx_target.obj
 0002:00000cf0       __real@bff0000000000000    1003acf0     rx_target.obj
 0002:00000d00       __xmm@00000000000000003f50624dd2f1a9fc 1003ad00     rx_target.obj
 0002:00000d20       __xmm@41f00000000000000000000000000000 1003ad20     rx_target.obj
 0002:00001598       ??_C@_0DJ@FHKINPLE@Unexpected?5itemKind?5?$DN?5DATA_ITEM?5@ 1003b598     rt_logging.obj
 0002:000015dc       ??_C@_0DA@IEHFPFCJ@Unexpected?5itemKind?$DN?$CFd?5in?5rt_Pro@ 1003b5dc     rt_logging.obj
 0002:00001618       ??_C@_0DA@IFLHJPBO@Unexpected?5itemKind?$DN?$CFd?5in?5rt_Pro@ 1003b618     rt_logging.obj
 0002:00001654       ??_C@_0DA@IAPIIJJL@Unexpected?5itemKind?$DN?$CFd?5in?5rt_Pro@ 1003b654     rt_logging.obj
 0002:00001690       ??_C@_0BE@LCIGPJIG@MATLAB?55?40?5MAT?9file?$AA@ 1003b690     rt_logging.obj
 0002:000016a8       ??_C@_0FB@PCJEAJIB@?$CK?$CK?$CK?5Log?5variable?5?$CFs?5has?5wrapped?5@ 1003b6a8     rt_logging.obj
 0002:00001710       ??_C@_0MG@NKMLMOGF@?$CK?$CK?$CK?5To?5avoid?5wrapping?0?5explicitl@ 1003b710     rt_logging.obj
 0002:00001800       ??_C@_0N@IPAEOLLP@_rtw_tmw?4tmw?$AA@ 1003b800     rt_logging.obj
 0002:00001810       ??_C@_04HDOCAJNK@?$CFs?$CFs?$AA@ 1003b810     rt_logging.obj
 0002:00001818       ??_C@_03ELIABIOC@w?$CLb?$AA@ 1003b818     rt_logging.obj
 0002:0000181c       ??_C@_0BF@JPILDDFA@?$CK?$CK?$CK?5Error?5opening?5?$CFs?$AA@ 1003b81c     rt_logging.obj
 0002:00001838       ??_C@_0BK@EEMDELA@unable?5to?5open?5data?5file?6?$AA@ 1003b838     rt_logging.obj
 0002:00001858       ??_C@_04CGFJFPFD@none?$AA@ 1003b858     rt_logging.obj
 0002:00001860       ??_C@_0EE@LCGFPNON@?$CK?$CK?$CK?5Error?5creating?5signals?5struc@ 1003b860     rt_logging.obj
 0002:000018b4       ??_C@_0CE@NHECEDMK@?$CK?$CK?$CK?5Error?5creating?5log?5variable?5@ 1003b8b4     rt_logging.obj
 0002:000018e0       ??_C@_0DB@IOCGKAGH@?$CK?$CK?$CK?5Errors?5occurred?5when?5startin@ 1003b8e0     rt_logging.obj
 0002:0000191c       ??_C@_0BO@BBLOGEBK@?$CK?$CK?$CK?5Memory?5allocation?5error?4?6?$AA@ 1003b91c     rt_logging.obj
 0002:00001940       ??_C@_0N@LGFBAGEL@?5?$CIreal?5part?$CJ?$AA@ 1003b940     rt_logging.obj
 0002:00001950       ??_C@_0KH@CGNMHNFE@?5?5?5?5varName?5?5?5?5?5?5?5?5?5?5?$DN?5?$CFs?$CFs?6?5?5?5?5@ 1003b950     rt_logging.obj
 0002:00001a18       ??_C@_0LE@OALKKEFM@?5?5?5?5varName?5?5?5?5?5?5?5?5?5?5?$DN?5?$CFs?5?$CIcompl@ 1003ba18     rt_logging.obj
 0002:00001af0       ??_C@_0KF@JDDLEOKO@?5?5?5?5varName?5?5?5?5?5?5?5?5?5?5?$DN?5?$CFs?6?5?5?5?5nR@ 1003baf0     rt_logging.obj
 0002:00001bb8       ??_C@_0DP@HPDMIOFM@?$CK?$CK?$CK?5Using?5a?5default?5buffer?5of?5si@ 1003bbb8     rt_logging.obj
 0002:00001c08       ??_C@_0KE@JEFOLKNF@?6?$CK?$CK?$CK?5Memory?5required?5to?5log?5vari@ 1003bc08     rt_logging.obj
 0002:00001cd0       ??_C@_0JP@DKLMHCBI@?$CK?$CK?$CK?5Details?3?6?5?5?5?5?5?5?5varName?5?5?5?5?5@ 1003bcd0     rt_logging.obj
 0002:00001d90       ??_C@_0CM@CAMILBED@?$CK?$CK?$CK?5Error?5allocating?5memory?5for?5@ 1003bd90     rt_logging.obj
 0002:00001dc4       ??_C@_0DF@BBCNMOPM@?$CK?$CK?$CK?5Error?5allocating?5memory?5for?5@ 1003bdc4     rt_logging.obj
 0002:00001e08       ??_C@_0JP@DBCLPCCI@?$CK?$CK?$CK?5Details?3?6?5?5?5?5?5?5?5varName?5?5?5?5?5@ 1003be08     rt_logging.obj
 0002:00001ec8       ??_C@_0FK@DPGAOBGA@?$CK?$CK?$CK?5Error?5allocating?5memory?5for?5@ 1003bec8     rt_logging.obj
 0002:00001f34       ??_C@_0BI@GGDNPHLJ@?$CK?$CK?$CK?5Error?5writing?5to?5?$CFs?$AA@ 1003bf34     rt_logging.obj
 0002:00001f50       ??_C@_0CB@IBGJGELG@?$CK?$CK?$CK?5Error?5writing?5?$CFs?5due?5to?3?5?$CFs?6@ 1003bf50     rt_logging.obj
 0002:00001f78       ??_C@_0CN@FLMCHCPB@?$CK?$CK?$CK?5Error?5writing?5log?5variable?5?$CF@ 1003bf78     rt_logging.obj
 0002:00001fb0       ??_C@_0DH@GAJCNOJP@?$CK?$CK?$CK?5Error?5writing?5structure?5log?5@ 1003bfb0     rt_logging.obj
 0002:00001ff4       ??_C@_0BD@POEALECL@?$CK?$CK?5created?5?$CFs?5?$CK?$CK?6?6?$AA@ 1003bff4     rt_logging.obj
 0002:00002010       __real@0000000000000000    1003c010     rt_logging.obj
 0002:00002020       __real@4020000000000000    1003c020     rt_logging.obj
 0002:00002030       __real@41dfffffffc00000    1003c030     rt_logging.obj
 0002:00002040       __real@41efffffffe00000    1003c040     rt_logging.obj
 0002:00002050       __real@4330000000000000    1003c050     rt_logging.obj
 0002:00002060       __real@8000000000000000    1003c060     rt_logging.obj
 0002:00002070       __real@bfbf9add3afd2773    1003c070     rt_logging.obj
 0002:00002080       __real@c000000000000000    1003c080     rt_logging.obj
 0002:00002090       __xmm@20202020202020202020202020202020 1003c090     rt_logging.obj
 0002:000020c0       ??_C@_0BI@INNPNFJN@Memory?5Allocation?5Error?$AA@ 1003c0c0     rtw_modelmap_utils.obj
 0002:000020e0       ??_C@_1HC@OAPLBLFC@?$AAC?$AA?3?$AA?2?$AAP?$AAR?$AAO?$AAG?$AAR?$AAA?$AA?$HO?$AA1?$AA?2?$AAM?$AAA?$AAT?$AAL?$AAA?$AAB?$AA?2?$AAR?$AA2?$AA0?$AA1?$AA6?$AAa?$AA?2?$AAr?$AAt?$AAw?$AA?2?$AAc?$AA?2@ 1003c0e0     rtw_modelmap_utils.obj
 0002:00002168       ??_C@_1CI@OEAJCJND@?$AAj?$AA?5?$AA?$DN?$AA?$DN?$AA?5?$AAe?$AAn?$AAc?$AAo?$AAd?$AAe?$AAd?$AAP?$AAa?$AAt?$AAh?$AAL?$AAe?$AAn?$AA?$AA@ 1003c168     rtw_modelmap_utils.obj
 0002:00002198       ??_C@_1DC@NFAOIFKB@?$AAe?$AAn?$AAc?$AAo?$AAd?$AAe?$AAd?$AAP?$AAa?$AAt?$AAh?$AA?$FL?$AAj?$AA?9?$AA1?$AA?$FN?$AA?5?$AA?$DN?$AA?$DN?$AA?5?$AA?8?$AA?2?$AA0?$AA?8?$AA?$AA@ 1003c198     rtw_modelmap_utils.obj
 0002:000021d4       ??_C@_1DI@FLNJGPEE@?$AAs?$AAi?$AAg?$AAC?$AAo?$AAm?$AAp?$AAl?$AAe?$AAx?$AAi?$AAt?$AAy?$AA?$FL?$AA?$CK?$AAs?$AAi?$AAg?$AAI?$AAd?$AAx?$AA?$FN?$AA?5?$AA?$CB?$AA?$DN?$AA?5?$AA1?$AA?$AA@ 1003c1d4     rtw_modelmap_utils.obj
 0002:00002218       ??_C@_1KI@OFELMGBG@?$AA?$CI?$AA?$CI?$AA?$CI?$AAd?$AAa?$AAt?$AAa?$AAT?$AAy?$AAp?$AAe?$AAM?$AAa?$AAp?$AA?$CJ?$AA?$FL?$AA?$CI?$AA?$CI?$AA?$CI?$AAs?$AAt?$AAa?$AAt?$AAe?$AAs?$AA?$CJ?$AA?$FL?$AA?$CI?$AAi?$AA?$CJ?$AA?$FN?$AA?4@ 1003c218     rtw_modelmap_utils.obj
 0002:000022e4       ??_C@_1DA@ILCMPHNE@?$AAf?$AAu?$AAl?$AAl?$AAP?$AAa?$AAt?$AAh?$AA?5?$AA?$CB?$AA?$DN?$AA?5?$AA?$CI?$AA?$CI?$AAv?$AAo?$AAi?$AAd?$AA?5?$AA?$CK?$AA?$CJ?$AA0?$AA?$CJ?$AA?$AA@ 1003c2e4     rtw_modelmap_utils.obj
 0002:00002320       ??_C@_1CI@OEPPFCCA@?$AAp?$AAa?$AAt?$AAh?$AA?5?$AA?$CB?$AA?$DN?$AA?5?$AA?$CI?$AA?$CI?$AAv?$AAo?$AAi?$AAd?$AA?5?$AA?$CK?$AA?$CJ?$AA0?$AA?$CJ?$AA?$AA@ 1003c320     rtw_modelmap_utils.obj
 0002:00002350       ??_C@_1FK@GLJIMFHB@?$AA?$CI?$AA?$CI?$AAm?$AAm?$AAi?$AA?$CJ?$AA?9?$AA?$DO?$AAI?$AAn?$AAs?$AAt?$AAa?$AAn?$AAc?$AAe?$AAM?$AAa?$AAp?$AA?4?$AAf?$AAu?$AAl?$AAl?$AAP?$AAa?$AAt?$AAh?$AA?$CJ?$AA?5?$AA?$DN?$AA?$DN@ 1003c350     rtw_modelmap_utils.obj
 0002:000023bc       ??_C@_1DG@HPCJGNCE@?$AAm?$AAm?$AAi?$AAP?$AAa?$AAt?$AAh?$AA?$FL?$AAp?$AAa?$AAt?$AAh?$AAL?$AAe?$AAn?$AA?9?$AA1?$AA?$FN?$AA?5?$AA?$DN?$AA?$DN?$AA?5?$AA?8?$AA?2?$AA0?$AA?8?$AA?$AA@ 1003c3bc     rtw_modelmap_utils.obj
 0002:000023fc       ??_C@_1DM@DBAOGGOO@?$AAm?$AAm?$AAi?$AAP?$AAa?$AAt?$AAh?$AA?$FL?$AAm?$AAm?$AAi?$AAP?$AAa?$AAt?$AAh?$AAL?$AAe?$AAn?$AA?9?$AA1?$AA?$FN?$AA?5?$AA?$DN?$AA?$DN?$AA?5?$AA?8?$AA?2?$AA0?$AA?8?$AA?$AA@ 1003c3fc     rtw_modelmap_utils.obj
 0002:00002444       ??_C@_1DC@LHIAKAFE@?$AAb?$AAl?$AAo?$AAc?$AAk?$AAP?$AAa?$AAt?$AAh?$AA?5?$AA?$CB?$AA?$DN?$AA?5?$AA?$CI?$AA?$CI?$AAv?$AAo?$AAi?$AAd?$AA?5?$AA?$CK?$AA?$CJ?$AA0?$AA?$CJ?$AA?$AA@ 1003c444     rtw_modelmap_utils.obj
 0002:00002480       ??_C@_1GI@KIEJKPGC@?$AAf?$AAu?$AAl?$AAl?$AAS?$AAt?$AAa?$AAt?$AAe?$AAB?$AAl?$AAo?$AAc?$AAk?$AAP?$AAa?$AAt?$AAh?$AA?$FL?$AAf?$AAu?$AAl?$AAl?$AAS?$AAt?$AAa?$AAt?$AAe?$AAB?$AAl?$AAo?$AAc@ 1003c480     rtw_modelmap_utils.obj
 0002:00002500       ??_C@_1EE@DNPIBJHC@?$AA?$CI?$AA?$CI?$AAd?$AAi?$AAm?$AAM?$AAa?$AAp?$AA?$CJ?$AA?$FL?$AA?$CI?$AAm?$AAa?$AAp?$AAI?$AAd?$AAx?$AA?$CJ?$AA?$FN?$AA?4?$AAn?$AAu?$AAm?$AAD?$AAi?$AAm?$AAs?$AA?$CJ?$AA?5?$AA?$DN?$AA?$DN?$AA?5@ 1003c500     rtw_modelmap_utils.obj
 0002:00002554       ??_C@_06JFOKFOED@CSTATE?$AA@ 1003c554     rtw_modelmap_utils.obj
 0002:0000255c       ??_C@_06FAENGAMN@DSTATE?$AA@ 1003c55c     rtw_modelmap_utils.obj
 0002:00002564       ??_C@_1BI@LEBJNOGG@?$AAc?$AAs?$AAv?$AAI?$AAd?$AAx?$AA?5?$AA?$DO?$AA?$DN?$AA?5?$AA0?$AA?$AA@ 1003c564     rtw_modelmap_utils.obj
 0002:00002580       ??_C@_1BA@KDMGHCHP@?$AAT?$AAI?$AAD?$AA?$DN?$AA?$DN?$AA?9?$AA1?$AA?$AA@ 1003c580     rtw_modelmap_utils.obj
 0002:00002594       ??_C@_1DM@DHGKBPCE@?$AAs?$AAi?$AAg?$AAP?$AAa?$AAt?$AAh?$AA?$FL?$AAs?$AAi?$AAg?$AAP?$AAa?$AAt?$AAh?$AAL?$AAe?$AAn?$AA?9?$AA1?$AA?$FN?$AA?5?$AA?$DN?$AA?$DN?$AA?5?$AA?8?$AA?2?$AA0?$AA?8?$AA?$AA@ 1003c594     rtw_modelmap_utils.obj
 0002:0000271c       ??_C@_0BA@NKAHAPKM@MATLAB?5Function?$AA@ 1003c71c     rx_target_capi.obj
 0002:00002730       ??_C@_0N@JEFHIENP@UDP?5Receive1?$AA@ 1003c730     rx_target_capi.obj
 0002:00002740       ??_C@_06BNJCAIGJ@double?$AA@ 1003c740     rx_target_capi.obj
 0002:00002748       ??_C@_06CNMIJIPB@real_T?$AA@ 1003c748     rx_target_capi.obj
 0002:00002750       ??_C@_0O@PPAIJIHF@unsigned?5char?$AA@ 1003c750     rx_target_capi.obj
 0002:00002760       ??_C@_07NCEHLPOC@uint8_T?$AA@ 1003c760     rx_target_capi.obj
 0002:0000276c       ??_C@_05KNFBNCOH@float?$AA@ 1003c76c     rx_target_capi.obj
 0002:00002774       ??_C@_0CJ@GGPBKPNK@Could?5not?5start?5ToAsyncQueue?5app@ 1003c774     rx_target_tgtconn.obj
 0002:000027a8       _serialfifoground          1003c7a8     xpc_datatype_ground.obj
 0002:000027b4       _bcmsg1553ground           1003c7b4     xpc_datatype_ground.obj
 0002:000027c4       _bcstatground              1003c7c4     xpc_datatype_ground.obj
 0002:000027dc       _bmmsg1553ground           1003c7dc     xpc_datatype_ground.obj
 0002:000027fc       ??_C@_09NCJHKDGA@rx_target?$AA@ 1003c7fc     xpctarget.obj
 0002:00002808       _ptsetfilename             1003c808     xpctarget.obj
 0002:0000280c       _xmlfile                   1003c80c     xpctarget.obj
 0002:00002814       ??_C@_0L@CHBJKKFC@xpceSetVar?$AA@ 1003c814     xpctarget.obj
 0002:00002824       ??_C@_03ICACBPID@6?44?$AA@ 1003c824     xpctarget.obj
 0002:00002828       __real@3fb999999999999a    1003c828     xpctarget.obj
 0002:00002838       _rx_target_BIOMAP          1003c838     appmappingData.obj
 0002:0000285c       _rx_target_LBLMAP          1003c85c     appmappingData.obj
 0002:00002880       _rx_target_SIDMAP          1003c880     appmappingData.obj
 0002:000028a4       _rx_target_SBIO            1003c8a4     appmappingData.obj
 0002:000028b0       _rx_target_SLBL            1003c8b0     appmappingData.obj
 0002:000028bc       _rx_target_PTIDSMAP        1003c8bc     appmappingData.obj
 0002:000028c4       _rx_target_PTNAMESMAP      1003c8c4     appmappingData.obj
 0002:000028cc       _rx_target_SPTMAP          1003c8cc     appmappingData.obj
 0002:000028d0       _rx_target_dtmap           1003c8d0     appmappingData.obj
 0002:000028e8       _appInfo                   1003c8e8     appmappingData.obj
 0002:00002968       ??_C@_0CC@DMFKNLL@VendorId?5?$DN?50x?$CFx?0?5DeviceId?5?$DN?50x?$CFx@ 1003c968     xpcruntime:xpcimports.obj
 0002:0000298c       ??_C@_0DH@OHCBLNMG@Subsystem?5Device?5ID?5?$DN?50x?$CFx?6Subsy@ 1003c98c     xpcruntime:xpcimports.obj
 0002:000029c4       ??_C@_0BD@MMMMEFCM@Class?5Code?5?$DN?50x?$CFx?6?$AA@ 1003c9c4     xpcruntime:xpcimports.obj
 0002:000029d8       ??_C@_0BE@OLDDDNHM@InterruptLine?5?$DN?5?$CFd?6?$AA@ 1003c9d8     xpcruntime:xpcimports.obj
 0002:000029ec       ??_C@_0BF@OLKLEKBD@bus?5?$DN?5?$CFd?0?5slot?5?$DN?5?$CFd?6?$AA@ 1003c9ec     xpcruntime:xpcimports.obj
 0002:00002a04       ??_C@_0CE@DGLLGDFH@?5?5?5?5Phys?5?5?5Virtual?5?5?5Length?5IO?1M@ 1003ca04     xpcruntime:xpcimports.obj
 0002:00002a28       ??_C@_0BI@FEOPLEMG@?$CF08x?5?$CF08x?5?$CF08x?5?5?5?5?5?5?$CFc?6?$AA@ 1003ca28     xpcruntime:xpcimports.obj
 0002:00002a40       ??_C@_0BB@BNNCEDPC@rl32eScopeExists?$AA@ 1003ca40     xpcruntime:xpcimports.obj
 0002:00002a54       ??_C@_0BM@FJBFEGFG@rl32eScopeExists?5not?5found?6?$AA@ 1003ca54     xpcruntime:xpcimports.obj
 0002:00002a70       ??_C@_0O@BNNGKJEA@rl32eDefScope?$AA@ 1003ca70     xpcruntime:xpcimports.obj
 0002:00002a80       ??_C@_0BJ@CDNOENKA@rl32eDefScope?5not?5found?6?$AA@ 1003ca80     xpcruntime:xpcimports.obj
 0002:00002a9c       ??_C@_0P@CKNKILDP@rl32eAddSignal?$AA@ 1003ca9c     xpcruntime:xpcimports.obj
 0002:00002aac       ??_C@_0BK@GMJAJBAI@rl32eAddSignal?5not?5found?6?$AA@ 1003caac     xpcruntime:xpcimports.obj
 0002:00002ac8       ??_C@_0BB@LDMIHGCE@rl32eGetSignalNo?$AA@ 1003cac8     xpcruntime:xpcimports.obj
 0002:00002adc       ??_C@_0BM@LGAMBAID@rl32eGetSignalNo?5not?5found?6?$AA@ 1003cadc     xpcruntime:xpcimports.obj
 0002:00002af8       ??_C@_0O@CFDGALBP@rl32eSetScope?$AA@ 1003caf8     xpcruntime:xpcimports.obj
 0002:00002b08       ??_C@_0BJ@JCLHHIN@rl32eSetScope?5not?5found?6?$AA@ 1003cb08     xpcruntime:xpcimports.obj
 0002:00002b24       ??_C@_0P@IKMCBMHH@xpceFSScopeSet?$AA@ 1003cb24     xpcruntime:xpcimports.obj
 0002:00002b34       ??_C@_0BK@JODJPNNH@xpceFSScopeSet?5not?5found?6?$AA@ 1003cb34     xpcruntime:xpcimports.obj
 0002:00002b50       ??_C@_0BE@DLACEEJM@rl32eSetTargetScope?$AA@ 1003cb50     xpcruntime:xpcimports.obj
 0002:00002b64       ??_C@_0BP@JCHFMKPJ@rl32eSetTargetScope?5not?5found?6?$AA@ 1003cb64     xpcruntime:xpcimports.obj
 0002:00002b84       ??_C@_0BJ@LIDLNDHC@rl32eSetTargetScopeSigFt?$AA@ 1003cb84     xpcruntime:xpcimports.obj
 0002:00002ba0       ??_C@_0CE@JLGHCFHI@rl32eSetTargetScopeSigFt?5not?5fou@ 1003cba0     xpcruntime:xpcimports.obj
 0002:00002bc4       ??_C@_0BI@JAPOIDNG@rl32eRestartAcquisition?$AA@ 1003cbc4     xpcruntime:xpcimports.obj
 0002:00002bdc       ??_C@_0CD@LLBEFFBO@rl32eRestartAcquisition?5not?5foun@ 1003cbdc     xpcruntime:xpcimports.obj
 0002:00002c00       ??_C@_0P@IEIIADJB@xpceScopeAcqOK?$AA@ 1003cc00     xpcruntime:xpcimports.obj
 0002:00002c10       ??_C@_0BK@NJCKNFPN@xpceScopeAcqOK?5not?5found?6?$AA@ 1003cc10     xpcruntime:xpcimports.obj
 0002:00002c2c       ??_C@_0BA@IJINKAHF@xpceRegisterISR?$AA@ 1003cc2c     xpcruntime:xpcimports.obj
 0002:00002c3c       ??_C@_0BL@NNDLOEJE@xpceRegisterISR?5not?5found?6?$AA@ 1003cc3c     xpcruntime:xpcimports.obj
 0002:00002c58       ??_C@_0BC@NLBADGKF@xpceDeRegisterISR?$AA@ 1003cc58     xpcruntime:xpcimports.obj
 0002:00002c6c       ??_C@_0BN@DCAIKFFD@xpceDeRegisterISR?5not?5found?6?$AA@ 1003cc6c     xpcruntime:xpcimports.obj
 0002:00002c8c       ??_C@_0P@CPGPNKEB@xpceFTReadTime?$AA@ 1003cc8c     xpcruntime:xpcimports.obj
 0002:00002c9c       ??_C@_0BK@NMABIODN@xpceFTReadTime?5not?5found?6?$AA@ 1003cc9c     xpcruntime:xpcimports.obj
 0002:00002cb8       ??_C@_09PHNHCHFH@xpceFTAdd?$AA@ 1003ccb8     xpcruntime:xpcimports.obj
 0002:00002cc4       ??_C@_0BF@FJLEIILA@xpceFTAdd?5not?5found?6?$AA@ 1003ccc4     xpcruntime:xpcimports.obj
 0002:00002cdc       ??_C@_0P@KEODBLHO@xpceFTSubtract?$AA@ 1003ccdc     xpcruntime:xpcimports.obj
 0002:00002cec       ??_C@_0BK@HONODOKP@xpceFTSubtract?5not?5found?6?$AA@ 1003ccec     xpcruntime:xpcimports.obj
 0002:00002d08       ??_C@_07JPMEPILD@xpcInpB?$AA@ 1003cd08     xpcruntime:xpcimports.obj
 0002:00002d10       ??_C@_0BD@PGABEJOL@xpcInpB?5not?5found?6?$AA@ 1003cd10     xpcruntime:xpcimports.obj
 0002:00002d24       ??_C@_07KIHBBOKH@xpcInpW?$AA@ 1003cd24     xpcruntime:xpcimports.obj
 0002:00002d2c       ??_C@_0BD@FPCJFMCC@xpcInpW?5not?5found?6?$AA@ 1003cd2c     xpcruntime:xpcimports.obj
 0002:00002d40       ??_C@_08KDIAJBOP@xpcInpDW?$AA@ 1003cd40     xpcruntime:xpcimports.obj
 0002:00002d4c       ??_C@_0BE@PIELDNIL@xpcInpDW?5not?5found?6?$AA@ 1003cd4c     xpcruntime:xpcimports.obj
 0002:00002d60       ??_C@_08PJFMOIGO@xpcOutpB?$AA@ 1003cd60     xpcruntime:xpcimports.obj
 0002:00002d6c       ??_C@_0BE@HCKNCEKF@xpcOutpB?5not?5found?6?$AA@ 1003cd6c     xpcruntime:xpcimports.obj
 0002:00002d80       ??_C@_08MOOJAOHK@xpcOutpW?$AA@ 1003cd80     xpcruntime:xpcimports.obj
 0002:00002d8c       ??_C@_0BE@NLIFDBGM@xpcOutpW?5not?5found?6?$AA@ 1003cd8c     xpcruntime:xpcimports.obj
 0002:00002da0       ??_C@_09FLIEKHJG@xpcOutpDW?$AA@ 1003cda0     xpcruntime:xpcimports.obj
 0002:00002dac       ??_C@_0BF@GJKLPNHB@xpcOutpDW?5not?5found?6?$AA@ 1003cdac     xpcruntime:xpcimports.obj
 0002:00002dc4       ??_C@_0BH@EHOLELHH@xpcReserveMemoryRegion?$AA@ 1003cdc4     xpcruntime:xpcimports.obj
 0002:00002ddc       ??_C@_0CC@KAAAGPI@xpcReserveMemoryRegion?5not?5found@ 1003cddc     xpcruntime:xpcimports.obj
 0002:00002e00       ??_C@_0BA@JGPMHGAF@rl32eShowPCIDev?$AA@ 1003ce00     xpcruntime:xpcimports.obj
 0002:00002e10       ??_C@_0BL@DDFFLNHI@rl32eShowPCIDev?5not?5found?6?$AA@ 1003ce10     xpcruntime:xpcimports.obj
 0002:00002e2c       ??_C@_0BB@KBCOJPFB@rl32eShowPCIInfo?$AA@ 1003ce2c     xpcruntime:xpcimports.obj
 0002:00002e40       ??_C@_0BM@IFDMAGLO@rl32eShowPCIInfo?5not?5found?6?$AA@ 1003ce40     xpcruntime:xpcimports.obj
 0002:00002e5c       ??_C@_0BA@BGPAADB@rl32eGetPCIInfo?$AA@ 1003ce5c     xpcruntime:xpcimports.obj
 0002:00002e6c       ??_C@_0BL@IGOMLDCK@rl32eGetPCIInfo?5not?5found?6?$AA@ 1003ce6c     xpcruntime:xpcimports.obj
 0002:00002e88       ??_C@_0BG@NJPFKFDP@rl32eGetPCIInfoAtSlot?$AA@ 1003ce88     xpcruntime:xpcimports.obj
 0002:00002ea0       ??_C@_0CB@BBKIPMLA@rl32eGetPCIInfoAtSlot?5not?5found?6@ 1003cea0     xpcruntime:xpcimports.obj
 0002:00002ec4       ??_C@_0BH@OKBOPNFG@xpceAssignPCIInterrupt?$AA@ 1003cec4     xpcruntime:xpcimports.obj
 0002:00002edc       ??_C@_0CC@CDNDNJBJ@xpceAssignPCIInterrupt?5not?5found@ 1003cedc     xpcruntime:xpcimports.obj
 0002:00002f00       ??_C@_0BB@FCHHFAAH@rl32eInitCOMPort?$AA@ 1003cf00     xpcruntime:xpcimports.obj
 0002:00002f14       ??_C@_0BM@DDJGKAHB@rl32eInitCOMPort?5not?5found?6?$AA@ 1003cf14     xpcruntime:xpcimports.obj
 0002:00002f30       ??_C@_0BC@CHEEFCP@rl32eCloseCOMPort?$AA@ 1003cf30     xpcruntime:xpcimports.obj
 0002:00002f44       ??_C@_0BN@KCOFELEM@rl32eCloseCOMPort?5not?5found?6?$AA@ 1003cf44     xpcruntime:xpcimports.obj
 0002:00002f64       ??_C@_0O@LLJGKFOG@rl32eSendChar?$AA@ 1003cf64     xpcruntime:xpcimports.obj
 0002:00002f74       ??_C@_0BJ@JCJKDACJ@rl32eSendChar?5not?5found?6?$AA@ 1003cf74     xpcruntime:xpcimports.obj
 0002:00002f90       ??_C@_0BB@OMFKCOEK@rl32eReceiveChar?$AA@ 1003cf90     xpcruntime:xpcimports.obj
 0002:00002fa4       ??_C@_0BM@HGAIOAND@rl32eReceiveChar?5not?5found?6?$AA@ 1003cfa4     xpcruntime:xpcimports.obj
 0002:00002fc0       ??_C@_0BI@PKEJFHMJ@rl32eReceiveBufferCount?$AA@ 1003cfc0     xpcruntime:xpcimports.obj
 0002:00002fd8       ??_C@_0CD@LNMOFLAH@rl32eReceiveBufferCount?5not?5foun@ 1003cfd8     xpcruntime:xpcimports.obj
 0002:00002ffc       ??_C@_0BA@CFIJOJPK@rl32eLineStatus?$AA@ 1003cffc     xpcruntime:xpcimports.obj
 0002:0000300c       ??_C@_0BL@PLIDKKGI@rl32eLineStatus?5not?5found?6?$AA@ 1003d00c     xpcruntime:xpcimports.obj
 0002:00003028       ??_C@_0P@MDMKIJF@rl32eSendBlock?$AA@ 1003d028     xpcruntime:xpcimports.obj
 0002:00003038       ??_C@_0BK@KNBNFIKH@rl32eSendBlock?5not?5found?6?$AA@ 1003d038     xpcruntime:xpcimports.obj
 0002:00003054       ??_C@_0BD@PCKOKHO@xpceGetSignalValue?$AA@ 1003d054     xpcruntime:xpcimports.obj
 0002:00003068       ??_C@_0BO@GCBDJHMB@xpceGetSignalValue?5not?5found?6?$AA@ 1003d068     xpcruntime:xpcimports.obj
 0002:00003088       ??_C@_0BB@BJONJAGA@xpceSetParameter?$AA@ 1003d088     xpcruntime:xpcimports.obj
 0002:0000309c       ??_C@_0BM@BJIKDLHA@xpceSetParameter?5not?5found?6?$AA@ 1003d09c     xpcruntime:xpcimports.obj
 0002:000030b8       ??_C@_0BB@GNFDFMCM@xpceGetParameter?$AA@ 1003d0b8     xpcruntime:xpcimports.obj
 0002:000030cc       ??_C@_0BM@POHNKBC@xpceGetParameter?5not?5found?6?$AA@ 1003d0cc     xpcruntime:xpcimports.obj
 0002:000030e8       ??_C@_0BB@CEIJLFCD@xpceGetParamDims?$AA@ 1003d0e8     xpcruntime:xpcimports.obj
 0002:000030fc       ??_C@_0BM@OABDBKAO@xpceGetParamDims?5not?5found?6?$AA@ 1003d0fc     xpcruntime:xpcimports.obj
 0002:00003118       ??_C@_0L@OCBLLHBM@xpceGetTET?$AA@ 1003d118     xpcruntime:xpcimports.obj
 0002:00003124       ??_C@_0BG@HNOFBOB@xpceGetTET?5not?5found?6?$AA@ 1003d124     xpcruntime:xpcimports.obj
 0002:0000313c       ??_C@_0BA@FHMIOKFL@xpceUDPOpenSend?$AA@ 1003d13c     xpcruntime:xpcimports.obj
 0002:0000314c       ??_C@_0BL@HNLPFEK@xpceUDPOpenSend?5not?5found?6?$AA@ 1003d14c     xpcruntime:xpcimports.obj
 0002:00003168       ??_C@_0BD@BCELJJJL@xpceUDPOpenReceive?$AA@ 1003d168     xpcruntime:xpcimports.obj
 0002:0000317c       ??_C@_0BO@IFKJBHKC@xpceUDPOpenReceive?5not?5found?6?$AA@ 1003d17c     xpcruntime:xpcimports.obj
 0002:0000319c       ??_C@_0M@OFPFLJGN@xpceUDPSend?$AA@ 1003d19c     xpcruntime:xpcimports.obj
 0002:000031a8       ??_C@_0BH@NOIKLPAB@xpceUDPSend?5not?5found?6?$AA@ 1003d1a8     xpcruntime:xpcimports.obj
 0002:000031c0       ??_C@_0P@PLFDECIN@xpceUDPReceive?$AA@ 1003d1c0     xpcruntime:xpcimports.obj
 0002:000031d0       ??_C@_0BK@OPJMLDLH@xpceUDPReceive?5not?5found?6?$AA@ 1003d1d0     xpcruntime:xpcimports.obj
 0002:000031ec       ??_C@_0N@IEHPMFME@xpceUDPClose?$AA@ 1003d1ec     xpcruntime:xpcimports.obj
 0002:000031fc       ??_C@_0BI@FHPFHECO@xpceUDPClose?5not?5found?6?$AA@ 1003d1fc     xpcruntime:xpcimports.obj
 0002:00003214       ??_C@_0P@OKGNGAGH@xpcIsModelInit?$AA@ 1003d214     xpcruntime:xpcimports.obj
 0002:00003224       ??_C@_0BK@DHEMLBIM@xpcIsModelInit?5not?5found?6?$AA@ 1003d224     xpcruntime:xpcimports.obj
 0002:00003240       ??_C@_0BH@KJJLCAOJ@xpcAllocPhysicalMemory?$AA@ 1003d240     xpcruntime:xpcimports.obj
 0002:00003258       ??_C@_0CC@MOJPNHKL@xpcAllocPhysicalMemory?5not?5found@ 1003d258     xpcruntime:xpcimports.obj
 0002:0000327c       ??_C@_0BG@CBNPGAEL@xpcFreePhysicalMemory?$AA@ 1003d27c     xpcruntime:xpcimports.obj
 0002:00003294       ??_C@_0CB@PKJEBPOG@xpcFreePhysicalMemory?5not?5found?6@ 1003d294     xpcruntime:xpcimports.obj
 0002:000032b8       ??_C@_0BC@JGKNLICL@xpcGetElapsedTime?$AA@ 1003d2b8     xpcruntime:xpcimports.obj
 0002:000032cc       ??_C@_0BN@OEOAHCIO@xpcGetElapsedTime?5not?5found?6?$AA@ 1003d2cc     xpcruntime:xpcimports.obj
 0002:000032ec       ??_C@_0M@ICBLMODA@xpcBusyWait?$AA@ 1003d2ec     xpcruntime:xpcimports.obj
 0002:000032f8       ??_C@_0BH@FBOPECBI@xpcBusyWait?5not?5found?6?$AA@ 1003d2f8     xpcruntime:xpcimports.obj
 0002:00003310       ??_C@_0N@LKKJEKKA@TBCreateSpin?$AA@ 1003d310     xpcruntime:xpcimports.obj
 0002:00003320       ??_C@_0BI@FHKMLKOE@TBCreateSpin?5not?5found?6?$AA@ 1003d320     xpcruntime:xpcimports.obj
 0002:00003338       ??_C@_0N@HOAJHNBD@TBDeleteSpin?$AA@ 1003d338     xpcruntime:xpcimports.obj
 0002:00003348       ??_C@_0BI@BKCPAAG@TBDeleteSpin?5not?5found?6?$AA@ 1003d348     xpcruntime:xpcimports.obj
 0002:00003360       ??_C@_0P@DAHDDBJG@TBTakeSpinFast?$AA@ 1003d360     xpcruntime:xpcimports.obj
 0002:00003370       ??_C@_0BK@NKAIBHGB@TBTakeSpinFast?5not?5found?6?$AA@ 1003d370     xpcruntime:xpcimports.obj
 0002:0000338c       ??_C@_0P@FKNAAELA@TBGiveSpinFast?$AA@ 1003d38c     xpcruntime:xpcimports.obj
 0002:0000339c       ??_C@_0BK@KGPJBJND@TBGiveSpinFast?5not?5found?6?$AA@ 1003d39c     xpcruntime:xpcimports.obj
 0002:000033b8       ??_C@_0BE@IIGBFDHK@xpceCreateSemaphore?$AA@ 1003d3b8     xpcruntime:xpcimports.obj
 0002:000033cc       ??_C@_0BP@KFBAFFKJ@xpceCreateSemaphore?5not?5found?6?$AA@ 1003d3cc     xpcruntime:xpcimports.obj
 0002:000033ec       ??_C@_0BC@IFNIONKJ@xpceWaitSemaphore?$AA@ 1003d3ec     xpcruntime:xpcimports.obj
 0002:00003400       ??_C@_0BN@NMFAADIO@xpceWaitSemaphore?5not?5found?6?$AA@ 1003d400     xpcruntime:xpcimports.obj
 0002:00003420       ??_C@_0BE@NNDIOBKE@xpceSignalSemaphore?$AA@ 1003d420     xpcruntime:xpcimports.obj
 0002:00003434       ??_C@_0BP@LBANMHJP@xpceSignalSemaphore?5not?5found?6?$AA@ 1003d434     xpcruntime:xpcimports.obj
 0002:00003454       ??_C@_0BE@MEBEKOIM@xpceDeleteSemaphore?$AA@ 1003d454     xpcruntime:xpcimports.obj
 0002:00003468       ??_C@_0BP@OFNCKOJH@xpceDeleteSemaphore?5not?5found?6?$AA@ 1003d468     xpcruntime:xpcimports.obj
 0002:00003488       ??_C@_0BD@MFNDMBOF@FindUsbVideoDevice?$AA@ 1003d488     xpcruntime:xpcimports.obj
 0002:0000349c       ??_C@_0BO@POKLDHMI@FindUsbVideoDevice?5not?5found?6?$AA@ 1003d49c     xpcruntime:xpcimports.obj
 0002:000034bc       ??_C@_0BA@PLPAPNAB@GetVideoConfigs?$AA@ 1003d4bc     xpcruntime:xpcimports.obj
 0002:000034cc       ??_C@_0BL@DALDHKHC@GetVideoConfigs?5not?5found?6?$AA@ 1003d4cc     xpcruntime:xpcimports.obj
 0002:000034e8       ??_C@_0L@GBAEMHMH@StartVideo?$AA@ 1003d4e8     xpcruntime:xpcimports.obj
 0002:000034f4       ??_C@_0BG@HDCELEBP@StartVideo?5not?5found?6?$AA@ 1003d4f4     xpcruntime:xpcimports.obj
 0002:0000350c       ??_C@_0BA@FDNPOCLN@ReadFrameBuffer?$AA@ 1003d50c     xpcruntime:xpcimports.obj
 0002:0000351c       ??_C@_0BL@JHGHPNBI@ReadFrameBuffer?5not?5found?6?$AA@ 1003d51c     xpcruntime:xpcimports.obj
 0002:00003538       ??_C@_09FAHCLKAG@StopVideo?$AA@ 1003d538     xpcruntime:xpcimports.obj
 0002:00003544       ??_C@_0BF@NKGKKADL@StopVideo?5not?5found?6?$AA@ 1003d544     xpcruntime:xpcimports.obj
 0002:0000355c       ??_C@_0O@MCPKDLLL@ConvertUImage?$AA@ 1003d55c     xpcruntime:xpcimports.obj
 0002:0000356c       ??_C@_0BJ@PHJKOAFL@ConvertUImage?5not?5found?6?$AA@ 1003d56c     xpcruntime:xpcimports.obj
 0002:00003588       ??_C@_0BD@NKCBPBJJ@CreateVideoDisplay?$AA@ 1003d588     xpcruntime:xpcimports.obj
 0002:0000359c       ??_C@_0BO@HPPLLNFP@CreateVideoDisplay?5not?5found?6?$AA@ 1003d59c     xpcruntime:xpcimports.obj
 0002:000035bc       ??_C@_0BE@KJCKGPHA@DestroyVideoDisplay?$AA@ 1003d5bc     xpcruntime:xpcimports.obj
 0002:000035d0       ??_C@_0BP@FMGLJAIJ@DestroyVideoDisplay?5not?5found?6?$AA@ 1003d5d0     xpcruntime:xpcimports.obj
 0002:000035f0       ??_C@_0BC@HCMIMIDN@StartVideoDisplay?$AA@ 1003d5f0     xpcruntime:xpcimports.obj
 0002:00003604       ??_C@_0BN@EFIEBGOO@StartVideoDisplay?5not?5found?6?$AA@ 1003d604     xpcruntime:xpcimports.obj
 0002:00003624       ??_C@_0BB@JBBLMILG@StopVideoDisplay?$AA@ 1003d624     xpcruntime:xpcimports.obj
 0002:00003638       ??_C@_0BM@DBJBPLEL@StopVideoDisplay?5not?5found?6?$AA@ 1003d638     xpcruntime:xpcimports.obj
 0002:00003654       ??_C@_0M@MFJEGMHC@StreamVideo?$AA@ 1003d654     xpcruntime:xpcimports.obj
 0002:00003660       ??_C@_0BH@OINCDMLA@StreamVideo?5not?5found?6?$AA@ 1003d660     xpcruntime:xpcimports.obj
 0002:00003678       ??_C@_0N@IGGLCIGE@xpceaddEvent?$AA@ 1003d678     xpcruntime:xpcimports.obj
 0002:00003688       ??_C@_0BI@NHJNFMKH@xpceaddEvent?5not?5found?6?$AA@ 1003d688     xpcruntime:xpcimports.obj
 0002:000036a0       ??_C@_0BB@LCMHHHFN@getMemoryService?$AA@ 1003d6a0     xpcruntime:xpcimports.obj
 0002:000036b4       ??_C@_0BM@MPLCNIIE@getMemoryService?5not?5found?6?$AA@ 1003d6b4     xpcruntime:xpcimports.obj
 0002:000036d0       ??_C@_0P@KIKONDKK@getCommService?$AA@ 1003d6d0     xpcruntime:xpcimports.obj
 0002:000036e0       ??_C@_0BK@NCECBKNM@getCommService?5not?5found?6?$AA@ 1003d6e0     xpcruntime:xpcimports.obj
 0002:000036fc       ??_C@_0P@GDLHFECE@getStatusFlags?$AA@ 1003d6fc     xpcruntime:xpcimports.obj
 0002:0000370c       ??_C@_0BK@NEKDLJHG@getStatusFlags?5not?5found?6?$AA@ 1003d70c     xpcruntime:xpcimports.obj
 0002:00003728       ??_C@_0BL@CDFCLKOL@startToAsyncQueueTgtAppSvc?$AA@ 1003d728     xpcruntime:xpcimports.obj
 0002:00003744       ??_C@_0CG@JGOFFKEL@startToAsyncQueueTgtAppSvc?5not?5f@ 1003d744     xpcruntime:xpcimports.obj
 0002:0000376c       ??_C@_0BP@IJNGPPPE@terminateToAsyncQueueTgtAppSvc?$AA@ 1003d76c     xpcruntime:xpcimports.obj
 0002:0000378c       ??_C@_0CK@NDEMAMKF@terminateToAsyncQueueTgtAppSvc?5n@ 1003d78c     xpcruntime:xpcimports.obj
 0002:000037b8       ??_C@_0BK@IDACEHAO@sendToAsyncQueueTgtAppSvc?$AA@ 1003d7b8     xpcruntime:xpcimports.obj
 0002:000037d4       ??_C@_0CF@PNCKPEHN@sendToAsyncQueueTgtAppSvc?5not?5fo@ 1003d7d4     xpcruntime:xpcimports.obj
 0002:000037fc       ??_C@_0BN@HJOHIFOM@xpceGetIntTimerGranularityNS?$AA@ 1003d7fc     xpcruntime:xpcimports.obj
 0002:0000381c       ??_C@_0CI@OADDPMKB@xpceGetIntTimerGranularityNS?5not@ 1003d81c     xpcruntime:xpcimports.obj
 0002:00003844       ??_C@_0BG@CCHICKPN@slrteSetStepSizeDelta?$AA@ 1003d844     xpcruntime:xpcimports.obj
 0002:0000385c       ??_C@_0CB@MKHINEIJ@slrteSetStepSizeDelta?5not?5found?6@ 1003d85c     xpcruntime:xpcimports.obj
 0002:00003880       ??_C@_0BI@CLNBLDKJ@slrteGetCurrentStepSize?$AA@ 1003d880     xpcruntime:xpcimports.obj
 0002:00003898       ??_C@_0CD@GIOJPGJA@slrteGetCurrentStepSize?5not?5foun@ 1003d898     xpcruntime:xpcimports.obj
 0002:000038bc       ??_C@_0BE@FCLCBOC@registerPTPTimeRead?$AA@ 1003d8bc     xpcruntime:xpcimports.obj
 0002:000038d0       ??_C@_0BP@LHPKAJIP@registerPTPTimeRead?5not?5found?6?$AA@ 1003d8d0     xpcruntime:xpcimports.obj
 0002:000038f0       ??_C@_0BG@KIGCDDJI@unRegisterPTPTimeRead?$AA@ 1003d8f0     xpcruntime:xpcimports.obj
 0002:00003908       ??_C@_0CB@MLFFBFCM@unRegisterPTPTimeRead?5not?5found?6@ 1003d908     xpcruntime:xpcimports.obj
 0002:0000392c       ??_C@_0BB@IPMDDBHK@slTestInitialize?$AA@ 1003d92c     xpcruntime:xpcimports.obj
 0002:00003940       ??_C@_0BM@LAJFCCJH@slTestInitialize?5not?5found?6?$AA@ 1003d940     xpcruntime:xpcimports.obj
 0002:0000395c       ??_C@_0BF@OOMPMEBC@slTestLogAssessments?$AA@ 1003d95c     xpcruntime:xpcimports.obj
 0002:00003974       ??_C@_0CA@FGJCEBAG@slTestLogAssessments?5not?5found?6?$AA@ 1003d974     xpcruntime:xpcimports.obj
 0002:00003994       ??_C@_0BB@HJHKONHO@slTestEvalOnFail?$AA@ 1003d994     xpcruntime:xpcimports.obj
 0002:000039a8       ??_C@_0BM@JIKCFFNJ@slTestEvalOnFail?5not?5found?6?$AA@ 1003d9a8     xpcruntime:xpcimports.obj
 0002:000039c4       ??_C@_0BA@LBHLABFP@slTestTerminate?$AA@ 1003d9c4     xpcruntime:xpcimports.obj
 0002:000039d4       ??_C@_0BL@EMFGKAPA@slTestTerminate?5not?5found?6?$AA@ 1003d9d4     xpcruntime:xpcimports.obj
 0002:000039f0       ??_C@_0BE@JPNPBBEO@slTestRegAssessment?$AA@ 1003d9f0     xpcruntime:xpcimports.obj
 0002:00003a04       ??_C@_0BP@FBDEJJJH@slTestRegAssessment?5not?5found?6?$AA@ 1003da04     xpcruntime:xpcimports.obj
 0002:00003a24       __FPinit                   1003da24     LIBCMT:fpinit.obj
 0002:00003a30       ??_C@_1BI@BGOHAHKC@?$AAm?$AAs?$AAc?$AAo?$AAr?$AAe?$AAe?$AA?4?$AAd?$AAl?$AAl?$AA?$AA@ 1003da30     LIBCMT:crt0dat.obj
 0002:00003a48       ??_C@_0P@MIGLKIOC@CorExitProcess?$AA@ 1003da48     LIBCMT:crt0dat.obj
 0002:00003ae4       ??_C@_17LGKOMLJ@?$AA?4?$AA?4?$AA?4?$AA?$AA@ 1003dae4     LIBCMT:wassert.obj
 0002:00003aec       ??_C@_13LBAGMAIH@?$AA?6?$AA?$AA@ 1003daec     LIBCMT:wassert.obj
 0002:00003af0       ??_C@_15IABLJNFO@?$AA?6?$AA?6?$AA?$AA@ 1003daf0     LIBCMT:wassert.obj
 0002:00003af8       ??_C@_1CE@OJBNHDMO@?$AAA?$AAs?$AAs?$AAe?$AAr?$AAt?$AAi?$AAo?$AAn?$AA?5?$AAf?$AAa?$AAi?$AAl?$AAe?$AAd?$AA?$CB?$AA?$AA@ 1003daf8     LIBCMT:wassert.obj
 0002:00003b1c       ??_C@_1BE@PHKBBGE@?$AAP?$AAr?$AAo?$AAg?$AAr?$AAa?$AAm?$AA?3?$AA?5?$AA?$AA@ 1003db1c     LIBCMT:wassert.obj
 0002:00003b30       ??_C@_1CO@EAEJAADC@?$AA?$DM?$AAp?$AAr?$AAo?$AAg?$AAr?$AAa?$AAm?$AA?5?$AAn?$AAa?$AAm?$AAe?$AA?5?$AAu?$AAn?$AAk?$AAn?$AAo?$AAw?$AAn?$AA?$DO?$AA?$AA@ 1003db30     LIBCMT:wassert.obj
 0002:00003b60       ??_C@_1O@HEMHKNDC@?$AAF?$AAi?$AAl?$AAe?$AA?3?$AA?5?$AA?$AA@ 1003db60     LIBCMT:wassert.obj
 0002:00003b70       ??_C@_1O@KCAFKHJE@?$AAL?$AAi?$AAn?$AAe?$AA?3?$AA?5?$AA?$AA@ 1003db70     LIBCMT:wassert.obj
 0002:00003b80       ??_C@_1BK@PEDCIPMA@?$AAE?$AAx?$AAp?$AAr?$AAe?$AAs?$AAs?$AAi?$AAo?$AAn?$AA?3?$AA?5?$AA?$AA@ 1003db80     LIBCMT:wassert.obj
 0002:00003ba0       ??_C@_1OA@EGMLFBHJ@?$AAF?$AAo?$AAr?$AA?5?$AAi?$AAn?$AAf?$AAo?$AAr?$AAm?$AAa?$AAt?$AAi?$AAo?$AAn?$AA?5?$AAo?$AAn?$AA?5?$AAh?$AAo?$AAw?$AA?5?$AAy?$AAo?$AAu?$AAr?$AA?5?$AAp?$AAr?$AAo?$AAg@ 1003dba0     LIBCMT:wassert.obj
 0002:00003c80       ??_C@_1HK@POCJMFGK@?$AA?$CI?$AAP?$AAr?$AAe?$AAs?$AAs?$AA?5?$AAR?$AAe?$AAt?$AAr?$AAy?$AA?5?$AAt?$AAo?$AA?5?$AAd?$AAe?$AAb?$AAu?$AAg?$AA?5?$AAt?$AAh?$AAe?$AA?5?$AAa?$AAp?$AAp?$AAl?$AAi?$AAc@ 1003dc80     LIBCMT:wassert.obj
 0002:00003d00       ??_C@_1EK@MBDPDCGA@?$AAM?$AAi?$AAc?$AAr?$AAo?$AAs?$AAo?$AAf?$AAt?$AA?5?$AAV?$AAi?$AAs?$AAu?$AAa?$AAl?$AA?5?$AAC?$AA?$CL?$AA?$CL?$AA?5?$AAR?$AAu?$AAn?$AAt?$AAi?$AAm?$AAe?$AA?5?$AAL?$AAi?$AAb@ 1003dd00     LIBCMT:wassert.obj
 0002:00003d4c       __pDefaultRawDllMain       1003dd4c     LIBCMT:dllcrt0.obj
 0002:00003d4c       __pRawDllMain              1003dd4c     LIBCMT:dllcrt0.obj
 0002:00003d50       ?ProcessDetach@NativeDll@<CrtImplementationDetails>@@0IB 1003dd50     LIBCMT:handler.obj
 0002:00003d54       ?ProcessAttach@NativeDll@<CrtImplementationDetails>@@0IB 1003dd54     LIBCMT:handler.obj
 0002:00003d58       ?ThreadAttach@NativeDll@<CrtImplementationDetails>@@0IB 1003dd58     LIBCMT:handler.obj
 0002:00003d5c       ?ThreadDetach@NativeDll@<CrtImplementationDetails>@@0IB 1003dd5c     LIBCMT:handler.obj
 0002:00003d60       ?ProcessVerifier@NativeDll@<CrtImplementationDetails>@@0IB 1003dd60     LIBCMT:handler.obj
 0002:00003e20       ??_C@_1FK@PGACCAFB@?$AAR?$AA6?$AA0?$AA0?$AA2?$AA?$AN?$AA?6?$AA?9?$AA?5?$AAf?$AAl?$AAo?$AAa?$AAt?$AAi?$AAn?$AAg?$AA?5?$AAp?$AAo?$AAi?$AAn?$AAt?$AA?5?$AAs?$AAu?$AAp?$AAp?$AAo?$AAr?$AAt?$AA?5@ 1003de20     LIBCMT:crt0msg.obj
 0002:00003e80       ??_C@_1FE@LLNEDJMD@?$AAR?$AA6?$AA0?$AA0?$AA8?$AA?$AN?$AA?6?$AA?9?$AA?5?$AAn?$AAo?$AAt?$AA?5?$AAe?$AAn?$AAo?$AAu?$AAg?$AAh?$AA?5?$AAs?$AAp?$AAa?$AAc?$AAe?$AA?5?$AAf?$AAo?$AAr?$AA?5?$AAa?$AAr@ 1003de80     LIBCMT:crt0msg.obj
 0002:00003ed8       ??_C@_1FI@HONFMGBI@?$AAR?$AA6?$AA0?$AA0?$AA9?$AA?$AN?$AA?6?$AA?9?$AA?5?$AAn?$AAo?$AAt?$AA?5?$AAe?$AAn?$AAo?$AAu?$AAg?$AAh?$AA?5?$AAs?$AAp?$AAa?$AAc?$AAe?$AA?5?$AAf?$AAo?$AAr?$AA?5?$AAe?$AAn@ 1003ded8     LIBCMT:crt0msg.obj
 0002:00003f30       ??_C@_1EG@BEHAGFJD@?$AAR?$AA6?$AA0?$AA1?$AA0?$AA?$AN?$AA?6?$AA?9?$AA?5?$AAa?$AAb?$AAo?$AAr?$AAt?$AA?$CI?$AA?$CJ?$AA?5?$AAh?$AAa?$AAs?$AA?5?$AAb?$AAe?$AAe?$AAn?$AA?5?$AAc?$AAa?$AAl?$AAl?$AAe?$AAd@ 1003df30     LIBCMT:crt0msg.obj
 0002:00003f78       ??_C@_1FI@LOGNIKDM@?$AAR?$AA6?$AA0?$AA1?$AA6?$AA?$AN?$AA?6?$AA?9?$AA?5?$AAn?$AAo?$AAt?$AA?5?$AAe?$AAn?$AAo?$AAu?$AAg?$AAh?$AA?5?$AAs?$AAp?$AAa?$AAc?$AAe?$AA?5?$AAf?$AAo?$AAr?$AA?5?$AAt?$AAh@ 1003df78     LIBCMT:crt0msg.obj
 0002:00003fd0       ??_C@_1FK@BEOGODMC@?$AAR?$AA6?$AA0?$AA1?$AA7?$AA?$AN?$AA?6?$AA?9?$AA?5?$AAu?$AAn?$AAe?$AAx?$AAp?$AAe?$AAc?$AAt?$AAe?$AAd?$AA?5?$AAm?$AAu?$AAl?$AAt?$AAi?$AAt?$AAh?$AAr?$AAe?$AAa?$AAd?$AA?5@ 1003dfd0     LIBCMT:crt0msg.obj
 0002:00004030       ??_C@_1EC@JIBHAOPH@?$AAR?$AA6?$AA0?$AA1?$AA8?$AA?$AN?$AA?6?$AA?9?$AA?5?$AAu?$AAn?$AAe?$AAx?$AAp?$AAe?$AAc?$AAt?$AAe?$AAd?$AA?5?$AAh?$AAe?$AAa?$AAp?$AA?5?$AAe?$AAr?$AAr?$AAo?$AAr?$AA?$AN?$AA?6@ 1003e030     LIBCMT:crt0msg.obj
 0002:00004078       ??_C@_1FC@ECHBIFBC@?$AAR?$AA6?$AA0?$AA1?$AA9?$AA?$AN?$AA?6?$AA?9?$AA?5?$AAu?$AAn?$AAa?$AAb?$AAl?$AAe?$AA?5?$AAt?$AAo?$AA?5?$AAo?$AAp?$AAe?$AAn?$AA?5?$AAc?$AAo?$AAn?$AAs?$AAo?$AAl?$AAe?$AA?5@ 1003e078     LIBCMT:crt0msg.obj
 0002:000040d0       ??_C@_1GK@FHCKBEFA@?$AAR?$AA6?$AA0?$AA2?$AA4?$AA?$AN?$AA?6?$AA?9?$AA?5?$AAn?$AAo?$AAt?$AA?5?$AAe?$AAn?$AAo?$AAu?$AAg?$AAh?$AA?5?$AAs?$AAp?$AAa?$AAc?$AAe?$AA?5?$AAf?$AAo?$AAr?$AA?5?$AA_?$AAo@ 1003e0d0     LIBCMT:crt0msg.obj
 0002:00004140       ??_C@_1EM@MAADIHMB@?$AAR?$AA6?$AA0?$AA2?$AA5?$AA?$AN?$AA?6?$AA?9?$AA?5?$AAp?$AAu?$AAr?$AAe?$AA?5?$AAv?$AAi?$AAr?$AAt?$AAu?$AAa?$AAl?$AA?5?$AAf?$AAu?$AAn?$AAc?$AAt?$AAi?$AAo?$AAn?$AA?5?$AAc@ 1003e140     LIBCMT:crt0msg.obj
 0002:00004190       ??_C@_1GK@MCAAGJMO@?$AAR?$AA6?$AA0?$AA2?$AA6?$AA?$AN?$AA?6?$AA?9?$AA?5?$AAn?$AAo?$AAt?$AA?5?$AAe?$AAn?$AAo?$AAu?$AAg?$AAh?$AA?5?$AAs?$AAp?$AAa?$AAc?$AAe?$AA?5?$AAf?$AAo?$AAr?$AA?5?$AAs?$AAt@ 1003e190     LIBCMT:crt0msg.obj
 0002:00004200       ??_C@_1GK@MFGOKLAG@?$AAR?$AA6?$AA0?$AA2?$AA7?$AA?$AN?$AA?6?$AA?9?$AA?5?$AAn?$AAo?$AAt?$AA?5?$AAe?$AAn?$AAo?$AAu?$AAg?$AAh?$AA?5?$AAs?$AAp?$AAa?$AAc?$AAe?$AA?5?$AAf?$AAo?$AAr?$AA?5?$AAl?$AAo@ 1003e200     LIBCMT:crt0msg.obj
 0002:00004270       ??_C@_1EK@HHFLMAOL@?$AAR?$AA6?$AA0?$AA2?$AA8?$AA?$AN?$AA?6?$AA?9?$AA?5?$AAu?$AAn?$AAa?$AAb?$AAl?$AAe?$AA?5?$AAt?$AAo?$AA?5?$AAi?$AAn?$AAi?$AAt?$AAi?$AAa?$AAl?$AAi?$AAz?$AAe?$AA?5?$AAh?$AAe@ 1003e270     LIBCMT:crt0msg.obj
 0002:000042bc       ??_C@_1DO@BMFCDCD@?$AAR?$AA6?$AA0?$AA3?$AA0?$AA?$AN?$AA?6?$AA?9?$AA?5?$AAC?$AAR?$AAT?$AA?5?$AAn?$AAo?$AAt?$AA?5?$AAi?$AAn?$AAi?$AAt?$AAi?$AAa?$AAl?$AAi?$AAz?$AAe?$AAd?$AA?$AN?$AA?6?$AA?$AA@ 1003e2bc     LIBCMT:crt0msg.obj
 0002:00004300       ??_C@_1MG@ENCOOIDF@?$AAR?$AA6?$AA0?$AA3?$AA1?$AA?$AN?$AA?6?$AA?9?$AA?5?$AAA?$AAt?$AAt?$AAe?$AAm?$AAp?$AAt?$AA?5?$AAt?$AAo?$AA?5?$AAi?$AAn?$AAi?$AAt?$AAi?$AAa?$AAl?$AAi?$AAz?$AAe?$AA?5?$AAt@ 1003e300     LIBCMT:crt0msg.obj
 0002:000043c8       ??_C@_1GG@GOPILAJP@?$AAR?$AA6?$AA0?$AA3?$AA2?$AA?$AN?$AA?6?$AA?9?$AA?5?$AAn?$AAo?$AAt?$AA?5?$AAe?$AAn?$AAo?$AAu?$AAg?$AAh?$AA?5?$AAs?$AAp?$AAa?$AAc?$AAe?$AA?5?$AAf?$AAo?$AAr?$AA?5?$AAl?$AAo@ 1003e3c8     LIBCMT:crt0msg.obj
 0002:00004430       ??_C@_1BOO@KGEDBGAJ@?$AAR?$AA6?$AA0?$AA3?$AA3?$AA?$AN?$AA?6?$AA?9?$AA?5?$AAA?$AAt?$AAt?$AAe?$AAm?$AAp?$AAt?$AA?5?$AAt?$AAo?$AA?5?$AAu?$AAs?$AAe?$AA?5?$AAM?$AAS?$AAI?$AAL?$AA?5?$AAc?$AAo?$AAd@ 1003e430     LIBCMT:crt0msg.obj
 0002:00004620       ??_C@_1GG@MKFPEKFO@?$AAR?$AA6?$AA0?$AA3?$AA4?$AA?$AN?$AA?6?$AA?9?$AA?5?$AAi?$AAn?$AAc?$AAo?$AAn?$AAs?$AAi?$AAs?$AAt?$AAe?$AAn?$AAt?$AA?5?$AAo?$AAn?$AAe?$AAx?$AAi?$AAt?$AA?5?$AAb?$AAe?$AAg@ 1003e620     LIBCMT:crt0msg.obj
 0002:00004688       ??_C@_1BO@BFCDCGC@?$AAD?$AAO?$AAM?$AAA?$AAI?$AAN?$AA?5?$AAe?$AAr?$AAr?$AAo?$AAr?$AA?$AN?$AA?6?$AA?$AA@ 1003e688     LIBCMT:crt0msg.obj
 0002:000046a8       ??_C@_1BK@KMOMNAAI@?$AAS?$AAI?$AAN?$AAG?$AA?5?$AAe?$AAr?$AAr?$AAo?$AAr?$AA?$AN?$AA?6?$AA?$AA@ 1003e6a8     LIBCMT:crt0msg.obj
 0002:000046c4       ??_C@_1BM@JBBEPPHI@?$AAT?$AAL?$AAO?$AAS?$AAS?$AA?5?$AAe?$AAr?$AAr?$AAo?$AAr?$AA?$AN?$AA?6?$AA?$AA@ 1003e6c4     LIBCMT:crt0msg.obj
 0002:000046e0       ??_C@_15JNBOKNOG@?$AA?$AN?$AA?6?$AA?$AA@ 1003e6e0     LIBCMT:crt0msg.obj
 0002:000046e8       ??_C@_1BO@BKOMIGKJ@?$AAr?$AAu?$AAn?$AAt?$AAi?$AAm?$AAe?$AA?5?$AAe?$AAr?$AAr?$AAo?$AAr?$AA?5?$AA?$AA@ 1003e6e8     LIBCMT:crt0msg.obj
 0002:00004708       ??_C@_1DE@JNGNBFGO@?$AAR?$AAu?$AAn?$AAt?$AAi?$AAm?$AAe?$AA?5?$AAE?$AAr?$AAr?$AAo?$AAr?$AA?$CB?$AA?6?$AA?6?$AAP?$AAr?$AAo?$AAg?$AAr?$AAa?$AAm?$AA?3?$AA?5?$AA?$AA@ 1003e708     LIBCMT:crt0msg.obj
 0002:0000473c       ??_C@_06OJHGLDPL@?$CInull?$CJ?$AA@ 1003e73c     LIBCMT:output.obj
 0002:00004744       ??_C@_1O@CEDCILHN@?$AA?$CI?$AAn?$AAu?$AAl?$AAl?$AA?$CJ?$AA?$AA@ 1003e744     LIBCMT:output.obj
 0002:00004758       ___lookuptable             1003e758     LIBCMT:output.obj
 0002:000047b4       ??_C@_05KLBDPFGC@e?$CL000?$AA@ 1003e7b4     LIBCMT:cvt.obj
 0002:000047bc       ??_C@_1BK@MGMFAEKH@?$AAk?$AAe?$AAr?$AAn?$AAe?$AAl?$AA3?$AA2?$AA?4?$AAd?$AAl?$AAl?$AA?$AA@ 1003e7bc     LIBCMT:winapisupp.obj
 0002:000047d8       ??_C@_08KNHFBNJ@FlsAlloc?$AA@ 1003e7d8     LIBCMT:winapisupp.obj
 0002:000047e4       ??_C@_07PEJMOBNF@FlsFree?$AA@ 1003e7e4     LIBCMT:winapisupp.obj
 0002:000047ec       ??_C@_0M@GDNOONDI@FlsGetValue?$AA@ 1003e7ec     LIBCMT:winapisupp.obj
 0002:000047f8       ??_C@_0M@JCPCPOEF@FlsSetValue?$AA@ 1003e7f8     LIBCMT:winapisupp.obj
 0002:00004804       ??_C@_0BM@HCFOFFN@InitializeCriticalSectionEx?$AA@ 1003e804     LIBCMT:winapisupp.obj
 0002:00004820       ??_C@_0P@DLHPPCNH@CreateEventExW?$AA@ 1003e820     LIBCMT:winapisupp.obj
 0002:00004830       ??_C@_0BD@KIEEOEEH@CreateSemaphoreExW?$AA@ 1003e830     LIBCMT:winapisupp.obj
 0002:00004844       ??_C@_0BI@BKLFFAPO@SetThreadStackGuarantee?$AA@ 1003e844     LIBCMT:winapisupp.obj
 0002:0000485c       ??_C@_0BG@OGFAJCKC@CreateThreadpoolTimer?$AA@ 1003e85c     LIBCMT:winapisupp.obj
 0002:00004874       ??_C@_0BD@LPLEMMDI@SetThreadpoolTimer?$AA@ 1003e874     LIBCMT:winapisupp.obj
 0002:00004888       ??_C@_0CA@FMNJENH@WaitForThreadpoolTimerCallbacks?$AA@ 1003e888     LIBCMT:winapisupp.obj
 0002:000048a8       ??_C@_0BF@DCFCCNOC@CloseThreadpoolTimer?$AA@ 1003e8a8     LIBCMT:winapisupp.obj
 0002:000048c0       ??_C@_0BF@FLABGKKM@CreateThreadpoolWait?$AA@ 1003e8c0     LIBCMT:winapisupp.obj
 0002:000048d8       ??_C@_0BC@MGCOHNA@SetThreadpoolWait?$AA@ 1003e8d8     LIBCMT:winapisupp.obj
 0002:000048ec       ??_C@_0BE@OCIOMIMP@CloseThreadpoolWait?$AA@ 1003e8ec     LIBCMT:winapisupp.obj
 0002:00004900       ??_C@_0BJ@LKGHFHBO@FlushProcessWriteBuffers?$AA@ 1003e900     LIBCMT:winapisupp.obj
 0002:0000491c       ??_C@_0BP@KALKKPMO@FreeLibraryWhenCallbackReturns?$AA@ 1003e91c     LIBCMT:winapisupp.obj
 0002:0000493c       ??_C@_0BK@DFNBACLA@GetCurrentProcessorNumber?$AA@ 1003e93c     LIBCMT:winapisupp.obj
 0002:00004958       ??_C@_0BP@KHGALBC@GetLogicalProcessorInformation?$AA@ 1003e958     LIBCMT:winapisupp.obj
 0002:00004978       ??_C@_0BE@FKKLLFLM@CreateSymbolicLinkW?$AA@ 1003e978     LIBCMT:winapisupp.obj
 0002:0000498c       ??_C@_0BJ@OHNKDLIJ@SetDefaultDllDirectories?$AA@ 1003e98c     LIBCMT:winapisupp.obj
 0002:000049a8       ??_C@_0BE@LJANKFHF@EnumSystemLocalesEx?$AA@ 1003e9a8     LIBCMT:winapisupp.obj
 0002:000049bc       ??_C@_0BA@IHGNDAEB@CompareStringEx?$AA@ 1003e9bc     LIBCMT:winapisupp.obj
 0002:000049cc       ??_C@_0BA@EPCJIIPD@GetDateFormatEx?$AA@ 1003e9cc     LIBCMT:winapisupp.obj
 0002:000049dc       ??_C@_0BA@ONOKGCMP@GetLocaleInfoEx?$AA@ 1003e9dc     LIBCMT:winapisupp.obj
 0002:000049ec       ??_C@_0BA@CIJJKCJJ@GetTimeFormatEx?$AA@ 1003e9ec     LIBCMT:winapisupp.obj
 0002:000049fc       ??_C@_0BJ@PBCCBIPI@GetUserDefaultLocaleName?$AA@ 1003e9fc     LIBCMT:winapisupp.obj
 0002:00004a18       ??_C@_0BC@CELBKLLA@IsValidLocaleName?$AA@ 1003ea18     LIBCMT:winapisupp.obj
 0002:00004a2c       ??_C@_0O@KKBNKAPF@LCMapStringEx?$AA@ 1003ea2c     LIBCMT:winapisupp.obj
 0002:00004a3c       ??_C@_0BE@JOGNEJCI@GetCurrentPackageId?$AA@ 1003ea3c     LIBCMT:winapisupp.obj
 0002:00004a50       ??_C@_0P@CDHHOHKP@GetTickCount64?$AA@ 1003ea50     LIBCMT:winapisupp.obj
 0002:00004a60       ??_C@_0BO@KPCLFDJJ@GetFileInformationByHandleExW?$AA@ 1003ea60     LIBCMT:winapisupp.obj
 0002:00004a80       ??_C@_0BM@MHIDLABK@SetFileInformationByHandleW?$AA@ 1003ea80     LIBCMT:winapisupp.obj
 0002:00004a9c       ??_C@_1BK@GAEMIDIL@?$AAA?$AAD?$AAV?$AAA?$AAP?$AAI?$AA3?$AA2?$AA?4?$AAD?$AAL?$AAL?$AA?$AA@ 1003ea9c     LIBCMT:rand_s.obj
 0002:00004ab8       ??_C@_0BC@JEAENNKH@SystemFunction036?$AA@ 1003eab8     LIBCMT:rand_s.obj
 0002:00004adc       ??_C@_1M@HPNHIDJI@?$AAj?$AAa?$AA?9?$AAJ?$AAP?$AA?$AA@ 1003eadc     LIBCMT:mbctype.obj
 0002:00004ae8       ??_C@_1M@BIBDDEMK@?$AAz?$AAh?$AA?9?$AAC?$AAN?$AA?$AA@ 1003eae8     LIBCMT:mbctype.obj
 0002:00004af4       ??_C@_1M@JLOOOEGK@?$AAk?$AAo?$AA?9?$AAK?$AAR?$AA?$AA@ 1003eaf4     LIBCMT:mbctype.obj
 0002:00004b00       ??_C@_1M@CLNBBOPM@?$AAz?$AAh?$AA?9?$AAT?$AAW?$AA?$AA@ 1003eb00     LIBCMT:mbctype.obj
 0002:00004b2c       ??_C@_04FJHINJAO@tanh?$AA@ 1003eb2c     LIBCMT:fpexcept.obj
 0002:00004b34       ??_C@_04FIHNOPOL@asin?$AA@ 1003eb34     LIBCMT:fpexcept.obj
 0002:00004b3c       ??_C@_04PDIFKINK@acos?$AA@ 1003eb3c     LIBCMT:fpexcept.obj
 0002:00004b44       ??_C@_04MLLJIGOK@atan?$AA@ 1003eb44     LIBCMT:fpexcept.obj
 0002:00004b4c       ??_C@_05KNGEOGJB@atan2?$AA@ 1003eb4c     LIBCMT:fpexcept.obj
 0002:00004b54       ??_C@_04EIAKFFMI@sqrt?$AA@ 1003eb54     LIBCMT:fpexcept.obj
 0002:00004b5c       ??_C@_03BLEJJJBH@sin?$AA@  1003eb5c     LIBCMT:fpexcept.obj
 0002:00004b60       ??_C@_03LALBNOCG@cos?$AA@  1003eb60     LIBCMT:fpexcept.obj
 0002:00004b64       ??_C@_03IIINPABG@tan?$AA@  1003eb64     LIBCMT:fpexcept.obj
 0002:00004b68       ??_C@_04GFPJNGEK@ceil?$AA@ 1003eb68     LIBCMT:fpexcept.obj
 0002:00004b70       ??_C@_05PBJFFIGL@floor?$AA@ 1003eb70     LIBCMT:fpexcept.obj
 0002:00004b78       ??_C@_04ODHECPBC@fabs?$AA@ 1003eb78     LIBCMT:fpexcept.obj
 0002:00004b80       ??_C@_04EHEDPDJG@modf?$AA@ 1003eb80     LIBCMT:fpexcept.obj
 0002:00004b88       ??_C@_05CEJMAHNP@ldexp?$AA@ 1003eb88     LIBCMT:fpexcept.obj
 0002:00004b90       ??_C@_05KBKMEMPO@_cabs?$AA@ 1003eb90     LIBCMT:fpexcept.obj
 0002:00004b98       ??_C@_06MEIMCGCF@_hypot?$AA@ 1003eb98     LIBCMT:fpexcept.obj
 0002:00004ba0       ??_C@_04KEPJIHGP@fmod?$AA@ 1003eba0     LIBCMT:fpexcept.obj
 0002:00004ba8       ??_C@_05GKKHEGJL@frexp?$AA@ 1003eba8     LIBCMT:fpexcept.obj
 0002:00004bb0       ??_C@_03MJLDFKDL@_y0?$AA@  1003ebb0     LIBCMT:fpexcept.obj
 0002:00004bb4       ??_C@_03NAKIGLHK@_y1?$AA@  1003ebb4     LIBCMT:fpexcept.obj
 0002:00004bb8       ??_C@_03ONILCKOB@_yn?$AA@  1003ebb8     LIBCMT:fpexcept.obj
 0002:00004bbc       ??_C@_05JGDBENOH@_logb?$AA@ 1003ebbc     LIBCMT:fpexcept.obj
 0002:00004bc4       ??_C@_0L@KDOEJCKC@_nextafter?$AA@ 1003ebc4     LIBCMT:fpexcept.obj
 0002:00004bd0       ??_C@_03KHJOGHMM@exp?$AA@  1003ebd0     LIBCMT:fpexcept.obj
 0002:00004bd4       ??_C@_03JGHBODFD@pow?$AA@  1003ebd4     LIBCMT:fpexcept.obj
 0002:00004bd8       ??_C@_03MGHMBJCF@log?$AA@  1003ebd8     LIBCMT:fpexcept.obj
 0002:00004bdc       ??_C@_05HGHHAHAP@log10?$AA@ 1003ebdc     LIBCMT:fpexcept.obj
 0002:00004be4       ??_C@_04COOMCNPB@sinh?$AA@ 1003ebe4     LIBCMT:fpexcept.obj
 0002:00004bec       ??_C@_04HPJJNFIM@cosh?$AA@ 1003ebec     LIBCMT:fpexcept.obj
 0002:00004bf4       ??_C@_1BG@GOEBHBDC@?$AAU?$AAS?$AAE?$AAR?$AA3?$AA2?$AA?4?$AAD?$AAL?$AAL?$AA?$AA@ 1003ebf4     LIBCMT:crtmboxw.obj
 0002:00004c0c       ??_C@_0M@DLDCCGNP@MessageBoxW?$AA@ 1003ec0c     LIBCMT:crtmboxw.obj
 0002:00004c18       ??_C@_0BA@HNOPNCHB@GetActiveWindow?$AA@ 1003ec18     LIBCMT:crtmboxw.obj
 0002:00004c28       ??_C@_0BD@HHGDFDBJ@GetLastActivePopup?$AA@ 1003ec28     LIBCMT:crtmboxw.obj
 0002:00004c3c       ??_C@_0BK@DEKFELLI@GetUserObjectInformationW?$AA@ 1003ec3c     LIBCMT:crtmboxw.obj
 0002:00004c58       ??_C@_0BI@DFKBFLJE@GetProcessWindowStation?$AA@ 1003ec58     LIBCMT:crtmboxw.obj
 0002:00004c70       __XcptActTab               1003ec70     LIBCMT:winxfltr.obj
 0002:00004d00       __XcptActTabCount          1003ed00     LIBCMT:winxfltr.obj
 0002:00004d04       __XcptActTabSize           1003ed04     LIBCMT:winxfltr.obj
 0002:00004d08       __First_FPE_Indx           1003ed08     LIBCMT:winxfltr.obj
 0002:00004d0c       __Num_FPE                  1003ed0c     LIBCMT:winxfltr.obj
 0002:00004d10       ___lookuptable_s           1003ed10     LIBCMT:outputs.obj
 0002:00004d6c       ??_C@_03KOEHGMDN@Sun?$AA@  1003ed6c     LIBCMT:nlsdata.obj
 0002:00004d70       ??_C@_03PDAGKDH@Mon?$AA@   1003ed70     LIBCMT:nlsdata.obj
 0002:00004d74       ??_C@_03NAGEINEP@Tue?$AA@  1003ed74     LIBCMT:nlsdata.obj
 0002:00004d78       ??_C@_03MHOMLAJA@Wed?$AA@  1003ed78     LIBCMT:nlsdata.obj
 0002:00004d7c       ??_C@_03IOFIKPDN@Thu?$AA@  1003ed7c     LIBCMT:nlsdata.obj
 0002:00004d80       ??_C@_03IDIOELNC@Fri?$AA@  1003ed80     LIBCMT:nlsdata.obj
 0002:00004d84       ??_C@_03FEFJNEK@Sat?$AA@   1003ed84     LIBCMT:nlsdata.obj
 0002:00004d88       ??_C@_06OOPIFAJ@Sunday?$AA@ 1003ed88     LIBCMT:nlsdata.obj
 0002:00004d90       ??_C@_06JLEDEDGH@Monday?$AA@ 1003ed90     LIBCMT:nlsdata.obj
 0002:00004d98       ??_C@_07BAAGCFCM@Tuesday?$AA@ 1003ed98     LIBCMT:nlsdata.obj
 0002:00004da0       ??_C@_09DLIGFAKA@Wednesday?$AA@ 1003eda0     LIBCMT:nlsdata.obj
 0002:00004dac       ??_C@_08HACCIKIA@Thursday?$AA@ 1003edac     LIBCMT:nlsdata.obj
 0002:00004db8       ??_C@_06JECMNKMI@Friday?$AA@ 1003edb8     LIBCMT:nlsdata.obj
 0002:00004dc0       ??_C@_08INBOOONO@Saturday?$AA@ 1003edc0     LIBCMT:nlsdata.obj
 0002:00004dcc       ??_C@_03JIHJHPIE@Jan?$AA@  1003edcc     LIBCMT:nlsdata.obj
 0002:00004dd0       ??_C@_03HJBDCHOM@Feb?$AA@  1003edd0     LIBCMT:nlsdata.obj
 0002:00004dd4       ??_C@_03ODNJBKGA@Mar?$AA@  1003edd4     LIBCMT:nlsdata.obj
 0002:00004dd8       ??_C@_03LEOLGMJP@Apr?$AA@  1003edd8     LIBCMT:nlsdata.obj
 0002:00004ddc       ??_C@_03CNMDKL@May?$AA@    1003eddc     LIBCMT:nlsdata.obj
 0002:00004de0       ??_C@_03IDFGHECI@Jun?$AA@  1003ede0     LIBCMT:nlsdata.obj
 0002:00004de4       ??_C@_03LBGABGKK@Jul?$AA@  1003ede4     LIBCMT:nlsdata.obj
 0002:00004de8       ??_C@_03IFJFEIGA@Aug?$AA@  1003ede8     LIBCMT:nlsdata.obj
 0002:00004dec       ??_C@_03GGCAPAJC@Sep?$AA@  1003edec     LIBCMT:nlsdata.obj
 0002:00004df0       ??_C@_03BMAOKBAD@Oct?$AA@  1003edf0     LIBCMT:nlsdata.obj
 0002:00004df4       ??_C@_03JPJOFNIA@Nov?$AA@  1003edf4     LIBCMT:nlsdata.obj
 0002:00004df8       ??_C@_03MKABNOCG@Dec?$AA@  1003edf8     LIBCMT:nlsdata.obj
 0002:00004dfc       ??_C@_07CGJPFGJA@January?$AA@ 1003edfc     LIBCMT:nlsdata.obj
 0002:00004e04       ??_C@_08GNJGEPFN@February?$AA@ 1003ee04     LIBCMT:nlsdata.obj
 0002:00004e10       ??_C@_05HPCKOFNC@March?$AA@ 1003ee10     LIBCMT:nlsdata.obj
 0002:00004e18       ??_C@_05DMJDNLEJ@April?$AA@ 1003ee18     LIBCMT:nlsdata.obj
 0002:00004e20       ??_C@_04CNLMGBGM@June?$AA@ 1003ee20     LIBCMT:nlsdata.obj
 0002:00004e28       ??_C@_04MIEPOIFP@July?$AA@ 1003ee28     LIBCMT:nlsdata.obj
 0002:00004e30       ??_C@_06LBBHFDDG@August?$AA@ 1003ee30     LIBCMT:nlsdata.obj
 0002:00004e38       ??_C@_09BHHEALKD@September?$AA@ 1003ee38     LIBCMT:nlsdata.obj
 0002:00004e44       ??_C@_07JJNFCEND@October?$AA@ 1003ee44     LIBCMT:nlsdata.obj
 0002:00004e4c       ??_C@_08HCHEGEOA@November?$AA@ 1003ee4c     LIBCMT:nlsdata.obj
 0002:00004e58       ??_C@_08EDHMEBNP@December?$AA@ 1003ee58     LIBCMT:nlsdata.obj
 0002:00004e64       ??_C@_02DEDBPAFC@AM?$AA@   1003ee64     LIBCMT:nlsdata.obj
 0002:00004e68       ??_C@_02CJNFDJBF@PM?$AA@   1003ee68     LIBCMT:nlsdata.obj
 0002:00004e6c       ??_C@_08BPBNCDIB@MM?1dd?1yy?$AA@ 1003ee6c     LIBCMT:nlsdata.obj
 0002:00004e78       ??_C@_0BE@CKGJFCPC@dddd?0?5MMMM?5dd?0?5yyyy?$AA@ 1003ee78     LIBCMT:nlsdata.obj
 0002:00004e8c       ??_C@_08JCCMCCIL@HH?3mm?3ss?$AA@ 1003ee8c     LIBCMT:nlsdata.obj
 0002:00004e98       ??_C@_17MBGCMIPB@?$AAS?$AAu?$AAn?$AA?$AA@ 1003ee98     LIBCMT:nlsdata.obj
 0002:00004ea0       ??_C@_17KBOMKBF@?$AAM?$AAo?$AAn?$AA?$AA@ 1003eea0     LIBCMT:nlsdata.obj
 0002:00004ea8       ??_C@_17BMKGEGOJ@?$AAT?$AAu?$AAe?$AA?$AA@ 1003eea8     LIBCMT:nlsdata.obj
 0002:00004eb0       ??_C@_17CJEDCEPE@?$AAW?$AAe?$AAd?$AA?$AA@ 1003eeb0     LIBCMT:nlsdata.obj
 0002:00004eb8       ??_C@_17PDPHAADD@?$AAT?$AAh?$AAu?$AA?$AA@ 1003eeb8     LIBCMT:nlsdata.obj
 0002:00004ec0       ??_C@_17HFOLPPLP@?$AAF?$AAr?$AAi?$AA?$AA@ 1003eec0     LIBCMT:nlsdata.obj
 0002:00004ec8       ??_C@_17GGIBDPIH@?$AAS?$AAa?$AAt?$AA?$AA@ 1003eec8     LIBCMT:nlsdata.obj
 0002:00004ed0       ??_C@_1O@IHNHDHPB@?$AAS?$AAu?$AAn?$AAd?$AAa?$AAy?$AA?$AA@ 1003eed0     LIBCMT:nlsdata.obj
 0002:00004ee0       ??_C@_1O@MMNBFLIA@?$AAM?$AAo?$AAn?$AAd?$AAa?$AAy?$AA?$AA@ 1003eee0     LIBCMT:nlsdata.obj
 0002:00004ef0       ??_C@_1BA@ENFBFFEK@?$AAT?$AAu?$AAe?$AAs?$AAd?$AAa?$AAy?$AA?$AA@ 1003eef0     LIBCMT:nlsdata.obj
 0002:00004f00       ??_C@_1BE@EBOGMDOH@?$AAW?$AAe?$AAd?$AAn?$AAe?$AAs?$AAd?$AAa?$AAy?$AA?$AA@ 1003ef00     LIBCMT:nlsdata.obj
 0002:00004f14       ??_C@_1BC@HHMNLIHE@?$AAT?$AAh?$AAu?$AAr?$AAs?$AAd?$AAa?$AAy?$AA?$AA@ 1003ef14     LIBCMT:nlsdata.obj
 0002:00004f28       ??_C@_1O@PDICJHAG@?$AAF?$AAr?$AAi?$AAd?$AAa?$AAy?$AA?$AA@ 1003ef28     LIBCMT:nlsdata.obj
 0002:00004f38       ??_C@_1BC@ENMNNPAJ@?$AAS?$AAa?$AAt?$AAu?$AAr?$AAd?$AAa?$AAy?$AA?$AA@ 1003ef38     LIBCMT:nlsdata.obj
 0002:00004f4c       ??_C@_17DKNBKCHM@?$AAJ?$AAa?$AAn?$AA?$AA@ 1003ef4c     LIBCMT:nlsdata.obj
 0002:00004f54       ??_C@_17LMDJEKJN@?$AAF?$AAe?$AAb?$AA?$AA@ 1003ef54     LIBCMT:nlsdata.obj
 0002:00004f5c       ??_C@_17CKNLEDEC@?$AAM?$AAa?$AAr?$AA?$AA@ 1003ef5c     LIBCMT:nlsdata.obj
 0002:00004f64       ??_C@_17LFPOIHDD@?$AAA?$AAp?$AAr?$AA?$AA@ 1003ef64     LIBCMT:nlsdata.obj
 0002:00004f6c       ??_C@_17PNNKMEED@?$AAM?$AAa?$AAy?$AA?$AA@ 1003ef6c     LIBCMT:nlsdata.obj
 0002:00004f74       ??_C@_17KCJGOCPB@?$AAJ?$AAu?$AAn?$AA?$AA@ 1003ef74     LIBCMT:nlsdata.obj
 0002:00004f7c       ??_C@_17IJPCKHK@?$AAJ?$AAu?$AAl?$AA?$AA@ 1003ef7c     LIBCMT:nlsdata.obj
 0002:00004f84       ??_C@_17ICPELBCN@?$AAA?$AAu?$AAg?$AA?$AA@ 1003ef84     LIBCMT:nlsdata.obj
 0002:00004f8c       ??_C@_17HCHCOKMG@?$AAS?$AAe?$AAp?$AA?$AA@ 1003ef8c     LIBCMT:nlsdata.obj
 0002:00004f94       ??_C@_17FNLKOI@?$AAO?$AAc?$AAt?$AA?$AA@ 1003ef94     LIBCMT:nlsdata.obj
 0002:00004f9c       ??_C@_17BBDMLCIG@?$AAN?$AAo?$AAv?$AA?$AA@ 1003ef9c     LIBCMT:nlsdata.obj
 0002:00004fa4       ??_C@_17EGKACKIF@?$AAD?$AAe?$AAc?$AA?$AA@ 1003efa4     LIBCMT:nlsdata.obj
 0002:00004fac       ??_C@_1BA@EFMEIEBA@?$AAJ?$AAa?$AAn?$AAu?$AAa?$AAr?$AAy?$AA?$AA@ 1003efac     LIBCMT:nlsdata.obj
 0002:00004fbc       ??_C@_1BC@JGDDFFAM@?$AAF?$AAe?$AAb?$AAr?$AAu?$AAa?$AAr?$AAy?$AA?$AA@ 1003efbc     LIBCMT:nlsdata.obj
 0002:00004fd0       ??_C@_1M@IKEENEDF@?$AAM?$AAa?$AAr?$AAc?$AAh?$AA?$AA@ 1003efd0     LIBCMT:nlsdata.obj
 0002:00004fdc       ??_C@_1M@GJNLMHFD@?$AAA?$AAp?$AAr?$AAi?$AAl?$AA?$AA@ 1003efdc     LIBCMT:nlsdata.obj
 0002:00004fe8       ??_C@_19EPFLPGAP@?$AAJ?$AAu?$AAn?$AAe?$AA?$AA@ 1003efe8     LIBCMT:nlsdata.obj
 0002:00004ff4       ??_C@_19BIFMLPCD@?$AAJ?$AAu?$AAl?$AAy?$AA?$AA@ 1003eff4     LIBCMT:nlsdata.obj
 0002:00005000       ??_C@_1O@PAHLKOAC@?$AAA?$AAu?$AAg?$AAu?$AAs?$AAt?$AA?$AA@ 1003f000     LIBCMT:nlsdata.obj
 0002:00005010       ??_C@_1BE@DKAAMBJL@?$AAS?$AAe?$AAp?$AAt?$AAe?$AAm?$AAb?$AAe?$AAr?$AA?$AA@ 1003f010     LIBCMT:nlsdata.obj
 0002:00005024       ??_C@_1BA@EPANDLNG@?$AAO?$AAc?$AAt?$AAo?$AAb?$AAe?$AAr?$AA?$AA@ 1003f024     LIBCMT:nlsdata.obj
 0002:00005034       ??_C@_1BC@BGLIFPF@?$AAN?$AAo?$AAv?$AAe?$AAm?$AAb?$AAe?$AAr?$AA?$AA@ 1003f034     LIBCMT:nlsdata.obj
 0002:00005048       ??_C@_1BC@FEMKIFH@?$AAD?$AAe?$AAc?$AAe?$AAm?$AAb?$AAe?$AAr?$AA?$AA@ 1003f048     LIBCMT:nlsdata.obj
 0002:0000505c       ??_C@_15ODEHAHHF@?$AAA?$AAM?$AA?$AA@ 1003f05c     LIBCMT:nlsdata.obj
 0002:00005064       ??_C@_15CLMNNGEL@?$AAP?$AAM?$AA?$AA@ 1003f064     LIBCMT:nlsdata.obj
 0002:0000506c       ??_C@_1BC@IEBCMHCM@?$AAM?$AAM?$AA?1?$AAd?$AAd?$AA?1?$AAy?$AAy?$AA?$AA@ 1003f06c     LIBCMT:nlsdata.obj
 0002:00005080       ??_C@_1CI@KNAKOEBC@?$AAd?$AAd?$AAd?$AAd?$AA?0?$AA?5?$AAM?$AAM?$AAM?$AAM?$AA?5?$AAd?$AAd?$AA?0?$AA?5?$AAy?$AAy?$AAy?$AAy?$AA?$AA@ 1003f080     LIBCMT:nlsdata.obj
 0002:000050a8       ??_C@_1BC@GDGBMEMK@?$AAH?$AAH?$AA?3?$AAm?$AAm?$AA?3?$AAs?$AAs?$AA?$AA@ 1003f0a8     LIBCMT:nlsdata.obj
 0002:000050bc       ??_C@_1M@BMHNFIME@?$AAe?$AAn?$AA?9?$AAU?$AAS?$AA?$AA@ 1003f0bc     LIBCMT:nlsdata.obj
 0002:000050c8       _LcidToLocaleNameTable     1003f0c8     LIBCMT:winapinls.obj
 0002:000057e8       _LocaleNameToIndexTable    1003f7e8     LIBCMT:winapinls.obj
 0002:00005f08       ??_C@_15EMKDOKLE@?$AAa?$AAr?$AA?$AA@ 1003ff08     LIBCMT:winapinls.obj
 0002:00005f10       ??_C@_15KNPADPLH@?$AAb?$AAg?$AA?$AA@ 1003ff10     LIBCMT:winapinls.obj
 0002:00005f18       ??_C@_15EDMHLDMO@?$AAc?$AAa?$AA?$AA@ 1003ff18     LIBCMT:winapinls.obj
 0002:00005f20       ??_C@_1O@BPEAJADD@?$AAz?$AAh?$AA?9?$AAC?$AAH?$AAS?$AA?$AA@ 1003ff20     LIBCMT:winapinls.obj
 0002:00005f30       ??_C@_15LJNHCMNK@?$AAc?$AAs?$AA?$AA@ 1003ff30     LIBCMT:winapinls.obj
 0002:00005f38       ??_C@_15FOMCIDHG@?$AAd?$AAa?$AA?$AA@ 1003ff38     LIBCMT:winapinls.obj
 0002:00005f40       ??_C@_15NBKABECB@?$AAd?$AAe?$AA?$AA@ 1003ff40     LIBCMT:winapinls.obj
 0002:00005f48       ??_C@_15GHPEIIAO@?$AAe?$AAl?$AA?$AA@ 1003ff48     LIBCMT:winapinls.obj
 0002:00005f50       ??_C@_15MNPNEAIF@?$AAe?$AAn?$AA?$AA@ 1003ff50     LIBCMT:winapinls.obj
 0002:00005f58       ??_C@_15GPIOMPMH@?$AAe?$AAs?$AA?$AA@ 1003ff58     LIBCMT:winapinls.obj
 0002:00005f60       ??_C@_15NGLOAKJC@?$AAf?$AAi?$AA?$AA@ 1003ff60     LIBCMT:winapinls.obj
 0002:00005f68       ??_C@_15FBKGNKAM@?$AAf?$AAr?$AA?$AA@ 1003ff68     LIBCMT:winapinls.obj
 0002:00005f70       ??_C@_15KGGCNEFK@?$AAh?$AAe?$AA?$AA@ 1003ff70     LIBCMT:winapinls.obj
 0002:00005f78       ??_C@_15PGHLIDMF@?$AAh?$AAu?$AA?$AA@ 1003ff78     LIBCMT:winapinls.obj
 0002:00005f80       ??_C@_15BIEMAPLM@?$AAi?$AAs?$AA?$AA@ 1003ff80     LIBCMT:winapinls.obj
 0002:00005f88       ??_C@_15IFJLDHAF@?$AAi?$AAt?$AA?$AA@ 1003ff88     LIBCMT:winapinls.obj
 0002:00005f90       ??_C@_15GEMIOCAG@?$AAj?$AAa?$AA?$AA@ 1003ff90     LIBCMT:winapinls.obj
 0002:00005f98       ??_C@_15EPELEGJA@?$AAk?$AAo?$AA?$AA@ 1003ff98     LIBCMT:winapinls.obj
 0002:00005fa0       ??_C@_15NDDHIMN@?$AAn?$AAl?$AA?$AA@ 1003ffa0     LIBCMT:winapinls.obj
 0002:00005fa8       ??_C@_15BPIGNHCD@?$AAn?$AAo?$AA?$AA@ 1003ffa8     LIBCMT:winapinls.obj
 0002:00005fb0       ??_C@_15DEOPBLCG@?$AAp?$AAl?$AA?$AA@ 1003ffb0     LIBCMT:winapinls.obj
 0002:00005fb8       ??_C@_15KBECGEFG@?$AAp?$AAt?$AA?$AA@ 1003ffb8     LIBCMT:winapinls.obj
 0002:00005fc0       ??_C@_15GLJCBFMD@?$AAr?$AAo?$AA?$AA@ 1003ffc0     LIBCMT:winapinls.obj
 0002:00005fc8       ??_C@_15FEDGKCDI@?$AAr?$AAu?$AA?$AA@ 1003ffc8     LIBCMT:winapinls.obj
 0002:00005fd0       ??_C@_15GLKMLLHM@?$AAh?$AAr?$AA?$AA@ 1003ffd0     LIBCMT:winapinls.obj
 0002:00005fd8       ??_C@_15CPKMFBDB@?$AAs?$AAk?$AA?$AA@ 1003ffd8     LIBCMT:winapinls.obj
 0002:00005fe0       ??_C@_15BAAIOGMK@?$AAs?$AAq?$AA?$AA@ 1003ffe0     LIBCMT:winapinls.obj
 0002:00005fe8       ??_C@_15INNPNOHD@?$AAs?$AAv?$AA?$AA@ 1003ffe8     LIBCMT:winapinls.obj
 0002:00005ff0       ??_C@_15CABMMOGH@?$AAt?$AAh?$AA?$AA@ 1003fff0     LIBCMT:winapinls.obj
 0002:00005ff8       ??_C@_15BPLIHJJM@?$AAt?$AAr?$AA?$AA@ 1003fff8     LIBCMT:winapinls.obj
 0002:00006000       ??_C@_15NEOEKKDJ@?$AAu?$AAr?$AA?$AA@ 10040000     LIBCMT:winapinls.obj
 0002:00006008       ??_C@_15NFICGAJK@?$AAi?$AAd?$AA?$AA@ 10040008     LIBCMT:winapinls.obj
 0002:00006010       ??_C@_15PJPFLCCM@?$AAu?$AAk?$AA?$AA@ 10040010     LIBCMT:winapinls.obj
 0002:00006018       ??_C@_15HPJPHDM@?$AAb?$AAe?$AA?$AA@ 10040018     LIBCMT:winapinls.obj
 0002:00006020       ??_C@_15LCHLGJII@?$AAs?$AAl?$AA?$AA@ 10040020     LIBCMT:winapinls.obj
 0002:00006028       ??_C@_15PCFJPHHO@?$AAe?$AAt?$AA?$AA@ 10040028     LIBCMT:winapinls.obj
 0002:00006030       ??_C@_15HPFPGODN@?$AAl?$AAv?$AA?$AA@ 10040030     LIBCMT:winapinls.obj
 0002:00006038       ??_C@_15NFFGKGLG@?$AAl?$AAt?$AA?$AA@ 10040038     LIBCMT:winapinls.obj
 0002:00006040       ??_C@_15BDAKCCHN@?$AAf?$AAa?$AA?$AA@ 10040040     LIBCMT:winapinls.obj
 0002:00006048       ??_C@_15NFGIAIAJ@?$AAv?$AAi?$AA?$AA@ 10040048     LIBCMT:winapinls.obj
 0002:00006050       ??_C@_15LMKNDMHN@?$AAh?$AAy?$AA?$AA@ 10040050     LIBCMT:winapinls.obj
 0002:00006058       ??_C@_15IJBHMCFL@?$AAa?$AAz?$AA?$AA@ 10040058     LIBCMT:winapinls.obj
 0002:00006060       ??_C@_15EKOFJABL@?$AAe?$AAu?$AA?$AA@ 10040060     LIBCMT:winapinls.obj
 0002:00006068       ??_C@_15BGHADCNK@?$AAm?$AAk?$AA?$AA@ 10040068     LIBCMT:winapinls.obj
 0002:00006070       ??_C@_15JDNICKHM@?$AAa?$AAf?$AA?$AA@ 10040070     LIBCMT:winapinls.obj
 0002:00006078       ??_C@_15KPJEDBKD@?$AAk?$AAa?$AA?$AA@ 10040078     LIBCMT:winapinls.obj
 0002:00006080       ??_C@_15PDNFFFEO@?$AAf?$AAo?$AA?$AA@ 10040080     LIBCMT:winapinls.obj
 0002:00006088       ??_C@_15OMLEGLOC@?$AAh?$AAi?$AA?$AA@ 10040088     LIBCMT:winapinls.obj
 0002:00006090       ??_C@_15IDNNENKK@?$AAm?$AAs?$AA?$AA@ 10040090     LIBCMT:winapinls.obj
 0002:00006098       ??_C@_15MACJNBMH@?$AAk?$AAk?$AA?$AA@ 10040098     LIBCMT:winapinls.obj
 0002:000060a0       ??_C@_15DKDJEOND@?$AAk?$AAy?$AA?$AA@ 100400a0     LIBCMT:winapinls.obj
 0002:000060a8       ??_C@_15DFGDLJBG@?$AAs?$AAw?$AA?$AA@ 100400a8     LIBCMT:winapinls.obj
 0002:000060b0       ??_C@_15BBFAICNG@?$AAu?$AAz?$AA?$AA@ 100400b0     LIBCMT:winapinls.obj
 0002:000060b8       ??_C@_15DKNDCGEA@?$AAt?$AAt?$AA?$AA@ 100400b8     LIBCMT:winapinls.obj
 0002:000060c0       ??_C@_15MGIFMDPL@?$AAp?$AAa?$AA?$AA@ 100400c0     LIBCMT:winapinls.obj
 0002:000060c8       ??_C@_15HCNDBBA@?$AAg?$AAu?$AA?$AA@ 100400c8     LIBCMT:winapinls.obj
 0002:000060d0       ??_C@_15FNBEIBON@?$AAt?$AAa?$AA?$AA@ 100400d0     LIBCMT:winapinls.obj
 0002:000060d8       ??_C@_15NCHGBGLK@?$AAt?$AAe?$AA?$AA@ 100400d8     LIBCMT:winapinls.obj
 0002:000060e0       ??_C@_15PHPHCBPF@?$AAk?$AAn?$AA?$AA@ 100400e0     LIBCMT:winapinls.obj
 0002:000060e8       ??_C@_15DLGBCKMP@?$AAm?$AAr?$AA?$AA@ 100400e8     LIBCMT:winapinls.obj
 0002:000060f0       ??_C@_15EABBLBFF@?$AAs?$AAa?$AA?$AA@ 100400f0     LIBCMT:winapinls.obj
 0002:000060f8       ??_C@_15CBKOMCOI@?$AAm?$AAn?$AA?$AA@ 100400f8     LIBCMT:winapinls.obj
 0002:00006100       ??_C@_15CKDMCJAF@?$AAg?$AAl?$AA?$AA@ 10040100     LIBCMT:winapinls.obj
 0002:00006108       ??_C@_17CNJFBPG@?$AAk?$AAo?$AAk?$AA?$AA@ 10040108     LIBCMT:winapinls.obj
 0002:00006110       ??_C@_17FFBJICPL@?$AAs?$AAy?$AAr?$AA?$AA@ 10040110     LIBCMT:winapinls.obj
 0002:00006118       ??_C@_17KPNDCPAF@?$AAd?$AAi?$AAv?$AA?$AA@ 10040118     LIBCMT:winapinls.obj
 0002:00006120       ??_C@_11LOCGONAA@?$AA?$AA@ 10040120     LIBCMT:winapinls.obj
 0002:00006124       ??_C@_1M@OKAHONE@?$AAa?$AAr?$AA?9?$AAS?$AAA?$AA?$AA@ 10040124     LIBCMT:winapinls.obj
 0002:00006130       ??_C@_1M@FFFIGIGK@?$AAb?$AAg?$AA?9?$AAB?$AAG?$AA?$AA@ 10040130     LIBCMT:winapinls.obj
 0002:0000613c       ??_C@_1M@BJNKEDC@?$AAc?$AAa?$AA?9?$AAE?$AAS?$AA?$AA@ 1004013c     LIBCMT:winapinls.obj
 0002:00006148       ??_C@_1M@IJJHFJHA@?$AAc?$AAs?$AA?9?$AAC?$AAZ?$AA?$AA@ 10040148     LIBCMT:winapinls.obj
 0002:00006154       ??_C@_1M@CLPEOBGI@?$AAd?$AAa?$AA?9?$AAD?$AAK?$AA?$AA@ 10040154     LIBCMT:winapinls.obj
 0002:00006160       ??_C@_1M@MCMADGCB@?$AAd?$AAe?$AA?9?$AAD?$AAE?$AA?$AA@ 10040160     LIBCMT:winapinls.obj
 0002:0000616c       ??_C@_1M@OOCKEMAM@?$AAe?$AAl?$AA?9?$AAG?$AAR?$AA?$AA@ 1004016c     LIBCMT:winapinls.obj
 0002:00006178       ??_C@_1M@DDNJFGID@?$AAf?$AAi?$AA?9?$AAF?$AAI?$AA?$AA@ 10040178     LIBCMT:winapinls.obj
 0002:00006184       ??_C@_1M@GLIPPMAC@?$AAf?$AAr?$AA?9?$AAF?$AAR?$AA?$AA@ 10040184     LIBCMT:winapinls.obj
 0002:00006190       ??_C@_1M@GFMCHPE@?$AAh?$AAe?$AA?9?$AAI?$AAL?$AA?$AA@ 10040190     LIBCMT:winapinls.obj
 0002:0000619c       ??_C@_1M@MHLPGNKM@?$AAh?$AAu?$AA?9?$AAH?$AAU?$AA?$AA@ 1004019c     LIBCMT:winapinls.obj
 0002:000061a8       ??_C@_1M@LPDDNNPN@?$AAi?$AAs?$AA?9?$AAI?$AAS?$AA?$AA@ 100401a8     LIBCMT:winapinls.obj
 0002:000061b4       ??_C@_1M@MADIPODN@?$AAi?$AAt?$AA?9?$AAI?$AAT?$AA?$AA@ 100401b4     LIBCMT:winapinls.obj
 0002:000061c0       ??_C@_1M@IHBJJGG@?$AAn?$AAl?$AA?9?$AAN?$AAL?$AA?$AA@ 100401c0     LIBCMT:winapinls.obj
 0002:000061cc       ??_C@_1M@EANAGDL@?$AAn?$AAb?$AA?9?$AAN?$AAO?$AA?$AA@ 100401cc     LIBCMT:winapinls.obj
 0002:000061d8       ??_C@_1M@NEIEMEGP@?$AAp?$AAl?$AA?9?$AAP?$AAL?$AA?$AA@ 100401d8     LIBCMT:winapinls.obj
 0002:000061e4       ??_C@_1M@BOCFIGEP@?$AAp?$AAt?$AA?9?$AAB?$AAR?$AA?$AA@ 100401e4     LIBCMT:winapinls.obj
 0002:000061f0       ??_C@_1M@IMPFOPBG@?$AAr?$AAo?$AA?9?$AAR?$AAO?$AA?$AA@ 100401f0     LIBCMT:winapinls.obj
 0002:000061fc       ??_C@_1M@IDNNEJMM@?$AAr?$AAu?$AA?9?$AAR?$AAU?$AA?$AA@ 100401fc     LIBCMT:winapinls.obj
 0002:00006208       ??_C@_1M@LILEEOGM@?$AAh?$AAr?$AA?9?$AAH?$AAR?$AA?$AA@ 10040208     LIBCMT:winapinls.obj
 0002:00006214       ??_C@_1M@FKIFEHPB@?$AAs?$AAk?$AA?9?$AAS?$AAK?$AA?$AA@ 10040214     LIBCMT:winapinls.obj
 0002:00006220       ??_C@_1M@LJMAMNPJ@?$AAs?$AAq?$AA?9?$AAA?$AAL?$AA?$AA@ 10040220     LIBCMT:winapinls.obj
 0002:0000622c       ??_C@_1M@GIAKDKJK@?$AAs?$AAv?$AA?9?$AAS?$AAE?$AA?$AA@ 1004022c     LIBCMT:winapinls.obj
 0002:00006238       ??_C@_1M@MKJKIKCL@?$AAt?$AAh?$AA?9?$AAT?$AAH?$AA?$AA@ 10040238     LIBCMT:winapinls.obj
 0002:00006244       ??_C@_1M@MFLCCMPB@?$AAt?$AAr?$AA?9?$AAT?$AAR?$AA?$AA@ 10040244     LIBCMT:winapinls.obj
 0002:00006250       ??_C@_1M@OIJHDKJN@?$AAu?$AAr?$AA?9?$AAP?$AAK?$AA?$AA@ 10040250     LIBCMT:winapinls.obj
 0002:0000625c       ??_C@_1M@LHIPCIEK@?$AAi?$AAd?$AA?9?$AAI?$AAD?$AA?$AA@ 1004025c     LIBCMT:winapinls.obj
 0002:00006268       ??_C@_1M@MFMOBGI@?$AAu?$AAk?$AA?9?$AAU?$AAA?$AA?$AA@ 10040268     LIBCMT:winapinls.obj
 0002:00006274       ??_C@_1M@OBGLJIPL@?$AAb?$AAe?$AA?9?$AAB?$AAY?$AA?$AA@ 10040274     LIBCMT:winapinls.obj
 0002:00006280       ??_C@_1M@BCFAJEAD@?$AAs?$AAl?$AA?9?$AAS?$AAI?$AA?$AA@ 10040280     LIBCMT:winapinls.obj
 0002:0000628c       ??_C@_1M@FKFFEDDN@?$AAe?$AAt?$AA?9?$AAE?$AAE?$AA?$AA@ 1004028c     LIBCMT:winapinls.obj
 0002:00006298       ??_C@_1M@KGKKAACI@?$AAl?$AAv?$AA?9?$AAL?$AAV?$AA?$AA@ 10040298     LIBCMT:winapinls.obj
 0002:000062a4       ??_C@_1M@IFGBIJO@?$AAl?$AAt?$AA?9?$AAL?$AAT?$AA?$AA@ 100402a4     LIBCMT:winapinls.obj
 0002:000062b0       ??_C@_1M@FGEAHEDM@?$AAf?$AAa?$AA?9?$AAI?$AAR?$AA?$AA@ 100402b0     LIBCMT:winapinls.obj
 0002:000062bc       ??_C@_1M@KBMAIBFN@?$AAv?$AAi?$AA?9?$AAV?$AAN?$AA?$AA@ 100402bc     LIBCMT:winapinls.obj
 0002:000062c8       ??_C@_1M@GPCBKDJK@?$AAh?$AAy?$AA?9?$AAA?$AAM?$AA?$AA@ 100402c8     LIBCMT:winapinls.obj
 0002:000062d4       ??_C@_1BG@BECMDDJB@?$AAa?$AAz?$AA?9?$AAA?$AAZ?$AA?9?$AAL?$AAa?$AAt?$AAn?$AA?$AA@ 100402d4     LIBCMT:winapinls.obj
 0002:000062ec       ??_C@_1M@MAOFCAEA@?$AAe?$AAu?$AA?9?$AAE?$AAS?$AA?$AA@ 100402ec     LIBCMT:winapinls.obj
 0002:000062f8       ??_C@_1M@IGHABKPI@?$AAm?$AAk?$AA?9?$AAM?$AAK?$AA?$AA@ 100402f8     LIBCMT:winapinls.obj
 0002:00006304       ??_C@_1M@IAIGNEJG@?$AAt?$AAn?$AA?9?$AAZ?$AAA?$AA?$AA@ 10040304     LIBCMT:winapinls.obj
 0002:00006310       ??_C@_1M@IIJCOJFA@?$AAx?$AAh?$AA?9?$AAZ?$AAA?$AA?$AA@ 10040310     LIBCMT:winapinls.obj
 0002:0000631c       ??_C@_1M@LGPJHNJH@?$AAz?$AAu?$AA?9?$AAZ?$AAA?$AA?$AA@ 1004031c     LIBCMT:winapinls.obj
 0002:00006328       ??_C@_1M@HOKAOIO@?$AAa?$AAf?$AA?9?$AAZ?$AAA?$AA?$AA@ 10040328     LIBCMT:winapinls.obj
 0002:00006334       ??_C@_1M@DPCLHLIE@?$AAk?$AAa?$AA?9?$AAG?$AAE?$AA?$AA@ 10040334     LIBCMT:winapinls.obj
 0002:00006340       ??_C@_1M@BLKMHJBI@?$AAf?$AAo?$AA?9?$AAF?$AAO?$AA?$AA@ 10040340     LIBCMT:winapinls.obj
 0002:0000634c       ??_C@_1M@LGGJAPPB@?$AAh?$AAi?$AA?9?$AAI?$AAN?$AA?$AA@ 1004034c     LIBCMT:winapinls.obj
 0002:00006358       ??_C@_1M@FIKPIHFE@?$AAm?$AAt?$AA?9?$AAM?$AAT?$AA?$AA@ 10040358     LIBCMT:winapinls.obj
 0002:00006364       ??_C@_1M@HEGGPBFA@?$AAs?$AAe?$AA?9?$AAN?$AAO?$AA?$AA@ 10040364     LIBCMT:winapinls.obj
 0002:00006370       ??_C@_1M@EIBJEEPA@?$AAm?$AAs?$AA?9?$AAM?$AAY?$AA?$AA@ 10040370     LIBCMT:winapinls.obj
 0002:0000637c       ??_C@_1M@FHLBGMPP@?$AAk?$AAk?$AA?9?$AAK?$AAZ?$AA?$AA@ 1004037c     LIBCMT:winapinls.obj
 0002:00006388       ??_C@_1M@NGJJLCGI@?$AAk?$AAy?$AA?9?$AAK?$AAG?$AA?$AA@ 10040388     LIBCMT:winapinls.obj
 0002:00006394       ??_C@_1M@GIENNBFC@?$AAs?$AAw?$AA?9?$AAK?$AAE?$AA?$AA@ 10040394     LIBCMT:winapinls.obj
 0002:000063a0       ??_C@_1BG@NDGMJIMJ@?$AAu?$AAz?$AA?9?$AAU?$AAZ?$AA?9?$AAL?$AAa?$AAt?$AAn?$AA?$AA@ 100403a0     LIBCMT:winapinls.obj
 0002:000063b8       ??_C@_1M@IDCCIHBC@?$AAt?$AAt?$AA?9?$AAR?$AAU?$AA?$AA@ 100403b8     LIBCMT:winapinls.obj
 0002:000063c4       ??_C@_1M@LOICPMOJ@?$AAb?$AAn?$AA?9?$AAI?$AAN?$AA?$AA@ 100403c4     LIBCMT:winapinls.obj
 0002:000063d0       ??_C@_1M@KPKKNEAH@?$AAp?$AAa?$AA?9?$AAI?$AAN?$AA?$AA@ 100403d0     LIBCMT:winapinls.obj
 0002:000063dc       ??_C@_1M@PJGPPBOG@?$AAg?$AAu?$AA?9?$AAI?$AAN?$AA?$AA@ 100403dc     LIBCMT:winapinls.obj
 0002:000063e8       ??_C@_1M@KMKMOPHI@?$AAt?$AAa?$AA?9?$AAI?$AAN?$AA?$AA@ 100403e8     LIBCMT:winapinls.obj
 0002:000063f4       ??_C@_1M@KFEHEPAC@?$AAt?$AAe?$AA?9?$AAI?$AAN?$AA?$AA@ 100403f4     LIBCMT:winapinls.obj
 0002:00006400       ??_C@_1M@CDCLMGHI@?$AAk?$AAn?$AA?9?$AAI?$AAN?$AA?$AA@ 10040400     LIBCMT:winapinls.obj
 0002:0000640c       ??_C@_1M@MIODLDKF@?$AAm?$AAl?$AA?9?$AAI?$AAN?$AA?$AA@ 1004040c     LIBCMT:winapinls.obj
 0002:00006418       ??_C@_1M@PBIEACPO@?$AAm?$AAr?$AA?9?$AAI?$AAN?$AA?$AA@ 10040418     LIBCMT:winapinls.obj
 0002:00006424       ??_C@_1M@NIDEAGPH@?$AAs?$AAa?$AA?9?$AAI?$AAN?$AA?$AA@ 10040424     LIBCMT:winapinls.obj
 0002:00006430       ??_C@_1M@FHIHCBIO@?$AAm?$AAn?$AA?9?$AAM?$AAN?$AA?$AA@ 10040430     LIBCMT:winapinls.obj
 0002:0000643c       ??_C@_1M@JAIJPENP@?$AAc?$AAy?$AA?9?$AAG?$AAB?$AA?$AA@ 1004043c     LIBCMT:winapinls.obj
 0002:00006448       ??_C@_1M@PHGFBEPN@?$AAg?$AAl?$AA?9?$AAE?$AAS?$AA?$AA@ 10040448     LIBCMT:winapinls.obj
 0002:00006454       ??_C@_1O@KPIPDNCP@?$AAk?$AAo?$AAk?$AA?9?$AAI?$AAN?$AA?$AA@ 10040454     LIBCMT:winapinls.obj
 0002:00006464       ??_C@_1O@KNHJLDJA@?$AAs?$AAy?$AAr?$AA?9?$AAS?$AAY?$AA?$AA@ 10040464     LIBCMT:winapinls.obj
 0002:00006474       ??_C@_1O@MKEKBLAH@?$AAd?$AAi?$AAv?$AA?9?$AAM?$AAV?$AA?$AA@ 10040474     LIBCMT:winapinls.obj
 0002:00006484       ??_C@_1O@OHDCKDDF@?$AAq?$AAu?$AAz?$AA?9?$AAB?$AAO?$AA?$AA@ 10040484     LIBCMT:winapinls.obj
 0002:00006494       ??_C@_1M@LEPJNLFD@?$AAn?$AAs?$AA?9?$AAZ?$AAA?$AA?$AA@ 10040494     LIBCMT:winapinls.obj
 0002:000064a0       ??_C@_1M@OMLEIIJB@?$AAm?$AAi?$AA?9?$AAN?$AAZ?$AA?$AA@ 100404a0     LIBCMT:winapinls.obj
 0002:000064ac       ??_C@_1M@PMPEAILG@?$AAa?$AAr?$AA?9?$AAI?$AAQ?$AA?$AA@ 100404ac     LIBCMT:winapinls.obj
 0002:000064b8       ??_C@_1M@CNKPNOEE@?$AAd?$AAe?$AA?9?$AAC?$AAH?$AA?$AA@ 100404b8     LIBCMT:winapinls.obj
 0002:000064c4       ??_C@_1M@LKMGMLKO@?$AAe?$AAn?$AA?9?$AAG?$AAB?$AA?$AA@ 100404c4     LIBCMT:winapinls.obj
 0002:000064d0       ??_C@_1M@PGKJFFGL@?$AAe?$AAs?$AA?9?$AAM?$AAX?$AA?$AA@ 100404d0     LIBCMT:winapinls.obj
 0002:000064dc       ??_C@_1M@DNNANBDC@?$AAf?$AAr?$AA?9?$AAB?$AAE?$AA?$AA@ 100404dc     LIBCMT:winapinls.obj
 0002:000064e8       ??_C@_1M@HLGMDFHM@?$AAi?$AAt?$AA?9?$AAC?$AAH?$AA?$AA@ 100404e8     LIBCMT:winapinls.obj
 0002:000064f4       ??_C@_1M@CLLBGJH@?$AAn?$AAl?$AA?9?$AAB?$AAE?$AA?$AA@ 100404f4     LIBCMT:winapinls.obj
 0002:00006500       ??_C@_1M@BODBOGLF@?$AAn?$AAn?$AA?9?$AAN?$AAO?$AA?$AA@ 10040500     LIBCMT:winapinls.obj
 0002:0000650c       ??_C@_1M@HFFAHKAD@?$AAp?$AAt?$AA?9?$AAP?$AAT?$AA?$AA@ 1004050c     LIBCMT:winapinls.obj
 0002:00006518       ??_C@_1BG@LNOAKHIE@?$AAs?$AAr?$AA?9?$AAS?$AAP?$AA?9?$AAL?$AAa?$AAt?$AAn?$AA?$AA@ 10040518     LIBCMT:winapinls.obj
 0002:00006530       ??_C@_1M@HBMHBGAK@?$AAs?$AAv?$AA?9?$AAF?$AAI?$AA?$AA@ 10040530     LIBCMT:winapinls.obj
 0002:0000653c       ??_C@_1BG@DGCJGJBE@?$AAa?$AAz?$AA?9?$AAA?$AAZ?$AA?9?$AAC?$AAy?$AAr?$AAl?$AA?$AA@ 1004053c     LIBCMT:winapinls.obj
 0002:00006554       ??_C@_1M@KEJDAAHB@?$AAs?$AAe?$AA?9?$AAS?$AAE?$AA?$AA@ 10040554     LIBCMT:winapinls.obj
 0002:00006560       ??_C@_1M@HEIBJJAD@?$AAm?$AAs?$AA?9?$AAB?$AAN?$AA?$AA@ 10040560     LIBCMT:winapinls.obj
 0002:0000656c       ??_C@_1BG@PBGJMCEM@?$AAu?$AAz?$AA?9?$AAU?$AAZ?$AA?9?$AAC?$AAy?$AAr?$AAl?$AA?$AA@ 1004056c     LIBCMT:winapinls.obj
 0002:00006584       ??_C@_1O@LAOBCMDF@?$AAq?$AAu?$AAz?$AA?9?$AAE?$AAC?$AA?$AA@ 10040584     LIBCMT:winapinls.obj
 0002:00006594       ??_C@_1M@POEEMAIO@?$AAa?$AAr?$AA?9?$AAE?$AAG?$AA?$AA@ 10040594     LIBCMT:winapinls.obj
 0002:000065a0       ??_C@_1M@EFAKDEDL@?$AAz?$AAh?$AA?9?$AAH?$AAK?$AA?$AA@ 100405a0     LIBCMT:winapinls.obj
 0002:000065ac       ??_C@_1M@HKKIJHGI@?$AAd?$AAe?$AA?9?$AAA?$AAT?$AA?$AA@ 100405ac     LIBCMT:winapinls.obj
 0002:000065b8       ??_C@_1M@KBFBEHJF@?$AAe?$AAn?$AA?9?$AAA?$AAU?$AA?$AA@ 100405b8     LIBCMT:winapinls.obj
 0002:000065c4       ??_C@_1M@MNPLFAAH@?$AAe?$AAs?$AA?9?$AAE?$AAS?$AA?$AA@ 100405c4     LIBCMT:winapinls.obj
 0002:000065d0       ??_C@_1M@HJOOJFMA@?$AAf?$AAr?$AA?9?$AAC?$AAA?$AA?$AA@ 100405d0     LIBCMT:winapinls.obj
 0002:000065dc       ??_C@_1BG@JPOFPNAB@?$AAs?$AAr?$AA?9?$AAS?$AAP?$AA?9?$AAC?$AAy?$AAr?$AAl?$AA?$AA@ 100405dc     LIBCMT:winapinls.obj
 0002:000065f4       ??_C@_1M@LNFOCMOB@?$AAs?$AAe?$AA?9?$AAF?$AAI?$AA?$AA@ 100405f4     LIBCMT:winapinls.obj
 0002:00006600       ??_C@_1O@MGJBOAMB@?$AAq?$AAu?$AAz?$AA?9?$AAP?$AAE?$AA?$AA@ 10040600     LIBCMT:winapinls.obj
 0002:00006610       ??_C@_1M@GJINLBOK@?$AAa?$AAr?$AA?9?$AAL?$AAY?$AA?$AA@ 10040610     LIBCMT:winapinls.obj
 0002:0000661c       ??_C@_1M@GGMNHJNL@?$AAz?$AAh?$AA?9?$AAS?$AAG?$AA?$AA@ 1004061c     LIBCMT:winapinls.obj
 0002:00006628       ??_C@_1M@HOIKODND@?$AAd?$AAe?$AA?9?$AAL?$AAU?$AA?$AA@ 10040628     LIBCMT:winapinls.obj
 0002:00006634       ??_C@_1M@DDOCCGFG@?$AAe?$AAn?$AA?9?$AAC?$AAA?$AA?$AA@ 10040634     LIBCMT:winapinls.obj
 0002:00006640       ??_C@_1M@BNOEMJLF@?$AAe?$AAs?$AA?9?$AAG?$AAT?$AA?$AA@ 10040640     LIBCMT:winapinls.obj
 0002:0000664c       ??_C@_1M@EOGNKEK@?$AAf?$AAr?$AA?9?$AAC?$AAH?$AA?$AA@ 1004064c     LIBCMT:winapinls.obj
 0002:00006658       ??_C@_1M@FLIDJFHL@?$AAh?$AAr?$AA?9?$AAB?$AAA?$AA?$AA@ 10040658     LIBCMT:winapinls.obj
 0002:00006664       ??_C@_1O@FMCELNAJ@?$AAs?$AAm?$AAj?$AA?9?$AAN?$AAO?$AA?$AA@ 10040664     LIBCMT:winapinls.obj
 0002:00006674       ??_C@_1M@JHGLJMGJ@?$AAa?$AAr?$AA?9?$AAD?$AAZ?$AA?$AA@ 10040674     LIBCMT:winapinls.obj
 0002:00006680       ??_C@_1M@JKKFDCNP@?$AAz?$AAh?$AA?9?$AAM?$AAO?$AA?$AA@ 10040680     LIBCMT:winapinls.obj
 0002:0000668c       ??_C@_1M@GEEFALPE@?$AAd?$AAe?$AA?9?$AAL?$AAI?$AA?$AA@ 1004068c     LIBCMT:winapinls.obj
 0002:00006698       ??_C@_1M@IGEOFBG@?$AAe?$AAn?$AA?9?$AAN?$AAZ?$AA?$AA@ 10040698     LIBCMT:winapinls.obj
 0002:000066a4       ??_C@_1M@KDBONEHP@?$AAe?$AAs?$AA?9?$AAC?$AAR?$AA?$AA@ 100406a4     LIBCMT:winapinls.obj
 0002:000066b0       ??_C@_1M@FHMDOHNN@?$AAf?$AAr?$AA?9?$AAL?$AAU?$AA?$AA@ 100406b0     LIBCMT:winapinls.obj
 0002:000066bc       ??_C@_1BG@NFKKMAFG@?$AAb?$AAs?$AA?9?$AAB?$AAA?$AA?9?$AAL?$AAa?$AAt?$AAn?$AA?$AA@ 100406bc     LIBCMT:winapinls.obj
 0002:000066d4       ??_C@_1O@IMNBEMCI@?$AAs?$AAm?$AAj?$AA?9?$AAS?$AAE?$AA?$AA@ 100406d4     LIBCMT:winapinls.obj
 0002:000066e4       ??_C@_1M@DHHMBNDP@?$AAa?$AAr?$AA?9?$AAM?$AAA?$AA?$AA@ 100406e4     LIBCMT:winapinls.obj
 0002:000066f0       ??_C@_1M@BNBLJCGH@?$AAe?$AAn?$AA?9?$AAI?$AAE?$AA?$AA@ 100406f0     LIBCMT:winapinls.obj
 0002:000066fc       ??_C@_1M@GEPAFMDL@?$AAe?$AAs?$AA?9?$AAP?$AAA?$AA?$AA@ 100406fc     LIBCMT:winapinls.obj
 0002:00006708       ??_C@_1M@OJONDMDL@?$AAf?$AAr?$AA?9?$AAM?$AAC?$AA?$AA@ 10040708     LIBCMT:winapinls.obj
 0002:00006714       ??_C@_1BG@OBCNFJB@?$AAs?$AAr?$AA?9?$AAB?$AAA?$AA?9?$AAL?$AAa?$AAt?$AAn?$AA?$AA@ 10040714     LIBCMT:winapinls.obj
 0002:0000672c       ??_C@_1O@KEMEEGPO@?$AAs?$AAm?$AAa?$AA?9?$AAN?$AAO?$AA?$AA@ 1004072c     LIBCMT:winapinls.obj
 0002:0000673c       ??_C@_1M@ELMGFODK@?$AAa?$AAr?$AA?9?$AAT?$AAN?$AA?$AA@ 1004073c     LIBCMT:winapinls.obj
 0002:00006748       ??_C@_1M@BHDLHFAF@?$AAe?$AAn?$AA?9?$AAZ?$AAA?$AA?$AA@ 10040748     LIBCMT:winapinls.obj
 0002:00006754       ??_C@_1M@BMGIGLIF@?$AAe?$AAs?$AA?9?$AAD?$AAO?$AA?$AA@ 10040754     LIBCMT:winapinls.obj
 0002:00006760       ??_C@_1BG@CMBHIPBE@?$AAs?$AAr?$AA?9?$AAB?$AAA?$AA?9?$AAC?$AAy?$AAr?$AAl?$AA?$AA@ 10040760     LIBCMT:winapinls.obj
 0002:00006778       ??_C@_1O@HEDBLHNP@?$AAs?$AAm?$AAa?$AA?9?$AAS?$AAE?$AA?$AA@ 10040778     LIBCMT:winapinls.obj
 0002:00006788       ??_C@_1M@DAGCADIM@?$AAa?$AAr?$AA?9?$AAO?$AAM?$AA?$AA@ 10040788     LIBCMT:winapinls.obj
 0002:00006794       ??_C@_1M@FODLMICG@?$AAe?$AAn?$AA?9?$AAJ?$AAM?$AA?$AA@ 10040794     LIBCMT:winapinls.obj
 0002:000067a0       ??_C@_1M@DNMLCIHB@?$AAe?$AAs?$AA?9?$AAV?$AAE?$AA?$AA@ 100407a0     LIBCMT:winapinls.obj
 0002:000067ac       ??_C@_1O@EOKHMKJK@?$AAs?$AAm?$AAs?$AA?9?$AAF?$AAI?$AA?$AA@ 100407ac     LIBCMT:winapinls.obj
 0002:000067bc       ??_C@_1M@CAFJMKOF@?$AAa?$AAr?$AA?9?$AAY?$AAE?$AA?$AA@ 100407bc     LIBCMT:winapinls.obj
 0002:000067c8       ??_C@_1M@CBFHIJLI@?$AAe?$AAn?$AA?9?$AAC?$AAB?$AA?$AA@ 100407c8     LIBCMT:winapinls.obj
 0002:000067d4       ??_C@_1M@BGNFLDN@?$AAe?$AAs?$AA?9?$AAC?$AAO?$AA?$AA@ 100407d4     LIBCMT:winapinls.obj
 0002:000067e0       ??_C@_1O@JMPHMAMC@?$AAs?$AAm?$AAn?$AA?9?$AAF?$AAI?$AA?$AA@ 100407e0     LIBCMT:winapinls.obj
 0002:000067f0       ??_C@_1M@JLANABKE@?$AAa?$AAr?$AA?9?$AAS?$AAY?$AA?$AA@ 100407f0     LIBCMT:winapinls.obj
 0002:000067fc       ??_C@_1M@HPKGCFGN@?$AAe?$AAn?$AA?9?$AAB?$AAZ?$AA?$AA@ 100407fc     LIBCMT:winapinls.obj
 0002:00006808       ??_C@_1M@OLJCMLGM@?$AAe?$AAs?$AA?9?$AAP?$AAE?$AA?$AA@ 10040808     LIBCMT:winapinls.obj
 0002:00006814       ??_C@_1M@MKKGFKLE@?$AAa?$AAr?$AA?9?$AAJ?$AAO?$AA?$AA@ 10040814     LIBCMT:winapinls.obj
 0002:00006820       ??_C@_1M@EKPGLDNI@?$AAe?$AAn?$AA?9?$AAT?$AAT?$AA?$AA@ 10040820     LIBCMT:winapinls.obj
 0002:0000682c       ??_C@_1M@OONGHFHE@?$AAe?$AAs?$AA?9?$AAA?$AAR?$AA?$AA@ 1004082c     LIBCMT:winapinls.obj
 0002:00006838       ??_C@_1M@OOJFGBHE@?$AAa?$AAr?$AA?9?$AAL?$AAB?$AA?$AA@ 10040838     LIBCMT:winapinls.obj
 0002:00006844       ??_C@_1M@GCEJHNEG@?$AAe?$AAn?$AA?9?$AAZ?$AAW?$AA?$AA@ 10040844     LIBCMT:winapinls.obj
 0002:00006850       ??_C@_1M@JNOCAHJI@?$AAe?$AAs?$AA?9?$AAE?$AAC?$AA?$AA@ 10040850     LIBCMT:winapinls.obj
 0002:0000685c       ??_C@_1M@JEFHPGGB@?$AAa?$AAr?$AA?9?$AAK?$AAW?$AA?$AA@ 1004085c     LIBCMT:winapinls.obj
 0002:00006868       ??_C@_1M@MLKIBJOJ@?$AAe?$AAn?$AA?9?$AAP?$AAH?$AA?$AA@ 10040868     LIBCMT:winapinls.obj
 0002:00006874       ??_C@_1M@BDNIPEND@?$AAe?$AAs?$AA?9?$AAC?$AAL?$AA?$AA@ 10040874     LIBCMT:winapinls.obj
 0002:00006880       ??_C@_1M@MPNMEKBD@?$AAa?$AAr?$AA?9?$AAA?$AAE?$AA?$AA@ 10040880     LIBCMT:winapinls.obj
 0002:0000688c       ??_C@_1M@KBJALCPI@?$AAe?$AAs?$AA?9?$AAU?$AAY?$AA?$AA@ 1004088c     LIBCMT:winapinls.obj
 0002:00006898       ??_C@_1M@LLCCOAGA@?$AAa?$AAr?$AA?9?$AAB?$AAH?$AA?$AA@ 10040898     LIBCMT:winapinls.obj
 0002:000068a4       ??_C@_1M@PBFNCDEL@?$AAe?$AAs?$AA?9?$AAP?$AAY?$AA?$AA@ 100408a4     LIBCMT:winapinls.obj
 0002:000068b0       ??_C@_1M@EDGINPNP@?$AAa?$AAr?$AA?9?$AAQ?$AAA?$AA?$AA@ 100408b0     LIBCMT:winapinls.obj
 0002:000068bc       ??_C@_1M@MKDBIIJI@?$AAe?$AAs?$AA?9?$AAB?$AAO?$AA?$AA@ 100408bc     LIBCMT:winapinls.obj
 0002:000068c8       ??_C@_1M@CPKKEBLD@?$AAe?$AAs?$AA?9?$AAS?$AAV?$AA?$AA@ 100408c8     LIBCMT:winapinls.obj
 0002:000068d4       ??_C@_1M@NDBGMMJL@?$AAe?$AAs?$AA?9?$AAH?$AAN?$AA?$AA@ 100408d4     LIBCMT:winapinls.obj
 0002:000068e0       ??_C@_1M@JIJIBHDP@?$AAe?$AAs?$AA?9?$AAN?$AAI?$AA?$AA@ 100408e0     LIBCMT:winapinls.obj
 0002:000068ec       ??_C@_1M@CGFMKEEK@?$AAe?$AAs?$AA?9?$AAP?$AAR?$AA?$AA@ 100408ec     LIBCMT:winapinls.obj
 0002:000068f8       ??_C@_1O@ICJHKIIK@?$AAz?$AAh?$AA?9?$AAC?$AAH?$AAT?$AA?$AA@ 100408f8     LIBCMT:winapinls.obj
 0002:00006908       ??_C@_15CLNEJCE@?$AAs?$AAr?$AA?$AA@ 10040908     LIBCMT:winapinls.obj
 0002:00006910       ??_C@_1M@KAHEKEIG@?$AAa?$AAf?$AA?9?$AAz?$AAa?$AA?$AA@ 10040910     LIBCMT:winapinls.obj
 0002:0000691c       ??_C@_1M@GIECOABL@?$AAa?$AAr?$AA?9?$AAa?$AAe?$AA?$AA@ 1004091c     LIBCMT:winapinls.obj
 0002:00006928       ??_C@_1M@BMLMEKGI@?$AAa?$AAr?$AA?9?$AAb?$AAh?$AA?$AA@ 10040928     LIBCMT:winapinls.obj
 0002:00006934       ??_C@_1M@DAPFDGGB@?$AAa?$AAr?$AA?9?$AAd?$AAz?$AA?$AA@ 10040934     LIBCMT:winapinls.obj
 0002:00006940       ??_C@_1M@FJNKGKIG@?$AAa?$AAr?$AA?9?$AAe?$AAg?$AA?$AA@ 10040940     LIBCMT:winapinls.obj
 0002:0000694c       ??_C@_1M@FLGKKCLO@?$AAa?$AAr?$AA?9?$AAi?$AAq?$AA?$AA@ 1004094c     LIBCMT:winapinls.obj
 0002:00006958       ??_C@_1M@GNDIPALM@?$AAa?$AAr?$AA?9?$AAj?$AAo?$AA?$AA@ 10040958     LIBCMT:winapinls.obj
 0002:00006964       ??_C@_1M@DDMJFMGJ@?$AAa?$AAr?$AA?9?$AAk?$AAw?$AA?$AA@ 10040964     LIBCMT:winapinls.obj
 0002:00006970       ??_C@_1M@EJALMLHM@?$AAa?$AAr?$AA?9?$AAl?$AAb?$AA?$AA@ 10040970     LIBCMT:winapinls.obj
 0002:0000697c       ??_C@_1M@MOBDBLOC@?$AAa?$AAr?$AA?9?$AAl?$AAy?$AA?$AA@ 1004097c     LIBCMT:winapinls.obj
 0002:00006988       ??_C@_1M@JAOCLHDH@?$AAa?$AAr?$AA?9?$AAm?$AAa?$AA?$AA@ 10040988     LIBCMT:winapinls.obj
 0002:00006994       ??_C@_1M@JHPMKJIE@?$AAa?$AAr?$AA?9?$AAo?$AAm?$AA?$AA@ 10040994     LIBCMT:winapinls.obj
 0002:000069a0       ??_C@_1M@OEPGHFNH@?$AAa?$AAr?$AA?9?$AAq?$AAa?$AA?$AA@ 100409a0     LIBCMT:winapinls.obj
 0002:000069ac       ??_C@_1M@KJDONENM@?$AAa?$AAr?$AA?9?$AAs?$AAa?$AA?$AA@ 100409ac     LIBCMT:winapinls.obj
 0002:000069b8       ??_C@_1M@DMJDKLKM@?$AAa?$AAr?$AA?9?$AAs?$AAy?$AA?$AA@ 100409b8     LIBCMT:winapinls.obj
 0002:000069c4       ??_C@_1M@OMFIPEDC@?$AAa?$AAr?$AA?9?$AAt?$AAn?$AA?$AA@ 100409c4     LIBCMT:winapinls.obj
 0002:000069d0       ??_C@_1M@IHMHGAON@?$AAa?$AAr?$AA?9?$AAy?$AAe?$AA?$AA@ 100409d0     LIBCMT:winapinls.obj
 0002:000069dc       ??_C@_1BG@KDCPGJGB@?$AAa?$AAz?$AA?9?$AAa?$AAz?$AA?9?$AAc?$AAy?$AAr?$AAl?$AA?$AA@ 100409dc     LIBCMT:winapinls.obj
 0002:000069f4       ??_C@_1BG@IBCKDDOE@?$AAa?$AAz?$AA?9?$AAa?$AAz?$AA?9?$AAl?$AAa?$AAt?$AAn?$AA?$AA@ 100409f4     LIBCMT:winapinls.obj
 0002:00006a0c       ??_C@_1M@EGPFDCPD@?$AAb?$AAe?$AA?9?$AAb?$AAy?$AA?$AA@ 10040a0c     LIBCMT:winapinls.obj
 0002:00006a18       ??_C@_1M@PCMGMCGC@?$AAb?$AAg?$AA?9?$AAb?$AAg?$AA?$AA@ 10040a18     LIBCMT:winapinls.obj
 0002:00006a24       ??_C@_1M@BJBMFGOB@?$AAb?$AAn?$AA?9?$AAi?$AAn?$AA?$AA@ 10040a24     LIBCMT:winapinls.obj
 0002:00006a30       ??_C@_1BG@EAKMMACD@?$AAb?$AAs?$AA?9?$AAb?$AAa?$AA?9?$AAl?$AAa?$AAt?$AAn?$AA?$AA@ 10040a30     LIBCMT:winapinls.obj
 0002:00006a48       ??_C@_1M@KGADAODK@?$AAc?$AAa?$AA?9?$AAe?$AAs?$AA?$AA@ 10040a48     LIBCMT:winapinls.obj
 0002:00006a54       ??_C@_1M@COAJPDHI@?$AAc?$AAs?$AA?9?$AAc?$AAz?$AA?$AA@ 10040a54     LIBCMT:winapinls.obj
 0002:00006a60       ??_C@_1M@DHBHFONH@?$AAc?$AAy?$AA?9?$AAg?$AAb?$AA?$AA@ 10040a60     LIBCMT:winapinls.obj
 0002:00006a6c       ??_C@_1M@IMGKELGA@?$AAd?$AAa?$AA?9?$AAd?$AAk?$AA?$AA@ 10040a6c     LIBCMT:winapinls.obj
 0002:00006a78       ??_C@_1M@NNDGDNGA@?$AAd?$AAe?$AA?9?$AAa?$AAt?$AA?$AA@ 10040a78     LIBCMT:winapinls.obj
 0002:00006a84       ??_C@_1M@IKDBHEEM@?$AAd?$AAe?$AA?9?$AAc?$AAh?$AA?$AA@ 10040a84     LIBCMT:winapinls.obj
 0002:00006a90       ??_C@_1M@GFFOJMCJ@?$AAd?$AAe?$AA?9?$AAd?$AAe?$AA?$AA@ 10040a90     LIBCMT:winapinls.obj
 0002:00006a9c       ??_C@_1M@MDNLKBPM@?$AAd?$AAe?$AA?9?$AAl?$AAi?$AA?$AA@ 10040a9c     LIBCMT:winapinls.obj
 0002:00006aa8       ??_C@_1M@NJBEEJNL@?$AAd?$AAe?$AA?9?$AAl?$AAu?$AA?$AA@ 10040aa8     LIBCMT:winapinls.obj
 0002:00006ab4       ??_C@_1O@GNNELBAP@?$AAd?$AAi?$AAv?$AA?9?$AAm?$AAv?$AA?$AA@ 10040ab4     LIBCMT:winapinls.obj
 0002:00006ac4       ??_C@_1M@EJLEOGAE@?$AAe?$AAl?$AA?9?$AAg?$AAr?$AA?$AA@ 10040ac4     LIBCMT:winapinls.obj
 0002:00006ad0       ??_C@_1M@GMPONJN@?$AAe?$AAn?$AA?9?$AAa?$AAu?$AA?$AA@ 10040ad0     LIBCMT:winapinls.obj
 0002:00006adc       ??_C@_1M@NIDIIPGF@?$AAe?$AAn?$AA?9?$AAb?$AAz?$AA?$AA@ 10040adc     LIBCMT:winapinls.obj
 0002:00006ae8       ??_C@_1M@JEHMIMFO@?$AAe?$AAn?$AA?9?$AAc?$AAa?$AA?$AA@ 10040ae8     LIBCMT:winapinls.obj
 0002:00006af4       ??_C@_1M@IGMJCDLA@?$AAe?$AAn?$AA?9?$AAc?$AAb?$AA?$AA@ 10040af4     LIBCMT:winapinls.obj
 0002:00006b00       ??_C@_1M@BNFIGBKG@?$AAe?$AAn?$AA?9?$AAg?$AAb?$AA?$AA@ 10040b00     LIBCMT:winapinls.obj
 0002:00006b0c       ??_C@_1M@LKIFDIGP@?$AAe?$AAn?$AA?9?$AAi?$AAe?$AA?$AA@ 10040b0c     LIBCMT:winapinls.obj
 0002:00006b18       ??_C@_1M@PJKFGCCO@?$AAe?$AAn?$AA?9?$AAj?$AAm?$AA?$AA@ 10040b18     LIBCMT:winapinls.obj
 0002:00006b24       ??_C@_1M@KPPKEPBO@?$AAe?$AAn?$AA?9?$AAn?$AAz?$AA?$AA@ 10040b24     LIBCMT:winapinls.obj
 0002:00006b30       ??_C@_1M@GMDGLDOB@?$AAe?$AAn?$AA?9?$AAp?$AAh?$AA?$AA@ 10040b30     LIBCMT:winapinls.obj
 0002:00006b3c       ??_C@_1M@ONGIBJNA@?$AAe?$AAn?$AA?9?$AAt?$AAt?$AA?$AA@ 10040b3c     LIBCMT:winapinls.obj
 0002:00006b48       ??_C@_1M@LLODPCMM@?$AAe?$AAn?$AA?9?$AAu?$AAs?$AA?$AA@ 10040b48     LIBCMT:winapinls.obj
 0002:00006b54       ??_C@_1M@LAKFNPAN@?$AAe?$AAn?$AA?9?$AAz?$AAa?$AA?$AA@ 10040b54     LIBCMT:winapinls.obj
 0002:00006b60       ??_C@_1M@MFNHNHEO@?$AAe?$AAn?$AA?9?$AAz?$AAw?$AA?$AA@ 10040b60     LIBCMT:winapinls.obj
 0002:00006b6c       ??_C@_1M@EJEINPHM@?$AAe?$AAs?$AA?9?$AAa?$AAr?$AA?$AA@ 10040b6c     LIBCMT:winapinls.obj
 0002:00006b78       ??_C@_1M@GNKPCCJA@?$AAe?$AAs?$AA?9?$AAb?$AAo?$AA?$AA@ 10040b78     LIBCMT:winapinls.obj
 0002:00006b84       ??_C@_1M@LEEGFONL@?$AAe?$AAs?$AA?9?$AAc?$AAl?$AA?$AA@ 10040b84     LIBCMT:winapinls.obj
 0002:00006b90       ??_C@_1M@KGPDPBDF@?$AAe?$AAs?$AA?9?$AAc?$AAo?$AA?$AA@ 10040b90     LIBCMT:winapinls.obj
 0002:00006b9c       ??_C@_1M@EIAHOHH@?$AAe?$AAs?$AA?9?$AAc?$AAr?$AA?$AA@ 10040b9c     LIBCMT:winapinls.obj
 0002:00006ba8       ??_C@_1M@LLPGMBIN@?$AAe?$AAs?$AA?9?$AAd?$AAo?$AA?$AA@ 10040ba8     LIBCMT:winapinls.obj
 0002:00006bb4       ??_C@_1M@DKHMKNJA@?$AAe?$AAs?$AA?9?$AAe?$AAc?$AA?$AA@ 10040bb4     LIBCMT:winapinls.obj
 0002:00006bc0       ??_C@_1M@GKGFPKAP@?$AAe?$AAs?$AA?9?$AAe?$AAs?$AA?$AA@ 10040bc0     LIBCMT:winapinls.obj
 0002:00006bcc       ??_C@_1M@LKHKGDLN@?$AAe?$AAs?$AA?9?$AAg?$AAt?$AA?$AA@ 10040bcc     LIBCMT:winapinls.obj
 0002:00006bd8       ??_C@_1M@HEIIGGJD@?$AAe?$AAs?$AA?9?$AAh?$AAn?$AA?$AA@ 10040bd8     LIBCMT:winapinls.obj
 0002:00006be4       ??_C@_1M@FBDHPPGD@?$AAe?$AAs?$AA?9?$AAm?$AAx?$AA?$AA@ 10040be4     LIBCMT:winapinls.obj
 0002:00006bf0       ??_C@_1M@DPAGLNDH@?$AAe?$AAs?$AA?9?$AAn?$AAi?$AA?$AA@ 10040bf0     LIBCMT:winapinls.obj
 0002:00006bfc       ??_C@_1M@MDGOPGDD@?$AAe?$AAs?$AA?9?$AAp?$AAa?$AA?$AA@ 10040bfc     LIBCMT:winapinls.obj
 0002:00006c08       ??_C@_1M@EMAMGBGE@?$AAe?$AAs?$AA?9?$AAp?$AAe?$AA?$AA@ 10040c08     LIBCMT:winapinls.obj
 0002:00006c14       ??_C@_1M@IBMCAOEC@?$AAe?$AAs?$AA?9?$AAp?$AAr?$AA?$AA@ 10040c14     LIBCMT:winapinls.obj
 0002:00006c20       ??_C@_1M@FGMDIJED@?$AAe?$AAs?$AA?9?$AAp?$AAy?$AA?$AA@ 10040c20     LIBCMT:winapinls.obj
 0002:00006c2c       ??_C@_1M@IIDEOLLL@?$AAe?$AAs?$AA?9?$AAs?$AAv?$AA?$AA@ 10040c2c     LIBCMT:winapinls.obj
 0002:00006c38       ??_C@_1M@GAOBIPA@?$AAe?$AAs?$AA?9?$AAu?$AAy?$AA?$AA@ 10040c38     LIBCMT:winapinls.obj
 0002:00006c44       ??_C@_1M@JKFFICHJ@?$AAe?$AAs?$AA?9?$AAv?$AAe?$AA?$AA@ 10040c44     LIBCMT:winapinls.obj
 0002:00006c50       ??_C@_1M@PNMLOJDF@?$AAe?$AAt?$AA?9?$AAe?$AAe?$AA?$AA@ 10040c50     LIBCMT:winapinls.obj
 0002:00006c5c       ??_C@_1M@GHHLIKEI@?$AAe?$AAu?$AA?9?$AAe?$AAs?$AA?$AA@ 10040c5c     LIBCMT:winapinls.obj
 0002:00006c68       ??_C@_1M@PBNONODE@?$AAf?$AAa?$AA?9?$AAi?$AAr?$AA?$AA@ 10040c68     LIBCMT:winapinls.obj
 0002:00006c74       ??_C@_1M@JEEHPMIL@?$AAf?$AAi?$AA?9?$AAf?$AAi?$AA?$AA@ 10040c74     LIBCMT:winapinls.obj
 0002:00006c80       ??_C@_1M@LMDCNDBA@?$AAf?$AAo?$AA?9?$AAf?$AAo?$AA?$AA@ 10040c80     LIBCMT:winapinls.obj
 0002:00006c8c       ??_C@_1M@JKEOHLDK@?$AAf?$AAr?$AA?9?$AAb?$AAe?$AA?$AA@ 10040c8c     LIBCMT:winapinls.obj
 0002:00006c98       ??_C@_1M@NOHADPMI@?$AAf?$AAr?$AA?9?$AAc?$AAa?$AA?$AA@ 10040c98     LIBCMT:winapinls.obj
 0002:00006ca4       ??_C@_1M@KDHIHAEC@?$AAf?$AAr?$AA?9?$AAc?$AAh?$AA?$AA@ 10040ca4     LIBCMT:winapinls.obj
 0002:00006cb0       ??_C@_1M@MMBBFGAK@?$AAf?$AAr?$AA?9?$AAf?$AAr?$AA?$AA@ 10040cb0     LIBCMT:winapinls.obj
 0002:00006cbc       ??_C@_1M@PAFNENNF@?$AAf?$AAr?$AA?9?$AAl?$AAu?$AA?$AA@ 10040cbc     LIBCMT:winapinls.obj
 0002:00006cc8       ??_C@_1M@EOHDJGDD@?$AAf?$AAr?$AA?9?$AAm?$AAc?$AA?$AA@ 10040cc8     LIBCMT:winapinls.obj
 0002:00006cd4       ??_C@_1M@FAPLLOPF@?$AAg?$AAl?$AA?9?$AAe?$AAs?$AA?$AA@ 10040cd4     LIBCMT:winapinls.obj
 0002:00006ce0       ??_C@_1M@FOPBFLOO@?$AAg?$AAu?$AA?9?$AAi?$AAn?$AA?$AA@ 10040ce0     LIBCMT:winapinls.obj
 0002:00006cec       ??_C@_1M@KBMCINPM@?$AAh?$AAe?$AA?9?$AAi?$AAl?$AA?$AA@ 10040cec     LIBCMT:winapinls.obj
 0002:00006cf8       ??_C@_1M@BBPHKFPJ@?$AAh?$AAi?$AA?9?$AAi?$AAn?$AA?$AA@ 10040cf8     LIBCMT:winapinls.obj
 0002:00006d04       ??_C@_1M@PMBNDPHD@?$AAh?$AAr?$AA?9?$AAb?$AAa?$AA?$AA@ 10040d04     LIBCMT:winapinls.obj
 0002:00006d10       ??_C@_1M@BPCKOEGE@?$AAh?$AAr?$AA?9?$AAh?$AAr?$AA?$AA@ 10040d10     LIBCMT:winapinls.obj
 0002:00006d1c       ??_C@_1M@GACBMHKE@?$AAh?$AAu?$AA?9?$AAh?$AAu?$AA?$AA@ 10040d1c     LIBCMT:winapinls.obj
 0002:00006d28       ??_C@_1M@MILPAJJC@?$AAh?$AAy?$AA?9?$AAa?$AAm?$AA?$AA@ 10040d28     LIBCMT:winapinls.obj
 0002:00006d34       ??_C@_1M@BABBICEC@?$AAi?$AAd?$AA?9?$AAi?$AAd?$AA?$AA@ 10040d34     LIBCMT:winapinls.obj
 0002:00006d40       ??_C@_1M@BIKNHHPF@?$AAi?$AAs?$AA?9?$AAi?$AAs?$AA?$AA@ 10040d40     LIBCMT:winapinls.obj
 0002:00006d4c       ??_C@_1M@NMPCJPHE@?$AAi?$AAt?$AA?9?$AAc?$AAh?$AA?$AA@ 10040d4c     LIBCMT:winapinls.obj
 0002:00006d58       ??_C@_1M@GHKGFEDF@?$AAi?$AAt?$AA?9?$AAi?$AAt?$AA?$AA@ 10040d58     LIBCMT:winapinls.obj
 0002:00006d64       ??_C@_1M@NIEJCJJA@?$AAj?$AAa?$AA?9?$AAj?$AAp?$AA?$AA@ 10040d64     LIBCMT:winapinls.obj
 0002:00006d70       ??_C@_1M@JILFNBIM@?$AAk?$AAa?$AA?9?$AAg?$AAe?$AA?$AA@ 10040d70     LIBCMT:winapinls.obj
 0002:00006d7c       ??_C@_1M@PACPMGPH@?$AAk?$AAk?$AA?9?$AAk?$AAz?$AA?$AA@ 10040d7c     LIBCMT:winapinls.obj
 0002:00006d88       ??_C@_1M@IELFGMHA@?$AAk?$AAn?$AA?9?$AAi?$AAn?$AA?$AA@ 10040d88     LIBCMT:winapinls.obj
 0002:00006d94       ??_C@_1O@IBBJHCH@?$AAk?$AAo?$AAk?$AA?9?$AAi?$AAn?$AA?$AA@ 10040d94     LIBCMT:winapinls.obj
 0002:00006da4       ??_C@_1M@DMHAEOGC@?$AAk?$AAo?$AA?9?$AAk?$AAr?$AA?$AA@ 10040da4     LIBCMT:winapinls.obj
 0002:00006db0       ??_C@_1M@HBAHBIGA@?$AAk?$AAy?$AA?9?$AAk?$AAg?$AA?$AA@ 10040db0     LIBCMT:winapinls.obj
 0002:00006dbc       ??_C@_1M@KPMILCJG@?$AAl?$AAt?$AA?9?$AAl?$AAt?$AA?$AA@ 10040dbc     LIBCMT:winapinls.obj
 0002:00006dc8       ??_C@_1M@BDEKKCA@?$AAl?$AAv?$AA?9?$AAl?$AAv?$AA?$AA@ 10040dc8     LIBCMT:winapinls.obj
 0002:00006dd4       ??_C@_1M@ELCKCCJJ@?$AAm?$AAi?$AA?9?$AAn?$AAz?$AA?$AA@ 10040dd4     LIBCMT:winapinls.obj
 0002:00006de0       ??_C@_1M@CBOOLAPA@?$AAm?$AAk?$AA?9?$AAm?$AAk?$AA?$AA@ 10040de0     LIBCMT:winapinls.obj
 0002:00006dec       ??_C@_1M@GPHNBJKN@?$AAm?$AAl?$AA?9?$AAi?$AAn?$AA?$AA@ 10040dec     LIBCMT:winapinls.obj
 0002:00006df8       ??_C@_1M@PABJILIG@?$AAm?$AAn?$AA?9?$AAm?$AAn?$AA?$AA@ 10040df8     LIBCMT:winapinls.obj
 0002:00006e04       ??_C@_1M@FGBKKIPG@?$AAm?$AAr?$AA?9?$AAi?$AAn?$AA?$AA@ 10040e04     LIBCMT:winapinls.obj
 0002:00006e10       ??_C@_1M@NDBPDDAL@?$AAm?$AAs?$AA?9?$AAb?$AAn?$AA?$AA@ 10040e10     LIBCMT:winapinls.obj
 0002:00006e1c       ??_C@_1M@OPIHOOPI@?$AAm?$AAs?$AA?9?$AAm?$AAy?$AA?$AA@ 10040e1c     LIBCMT:winapinls.obj
 0002:00006e28       ??_C@_1M@PPDBCNFM@?$AAm?$AAt?$AA?9?$AAm?$AAt?$AA?$AA@ 10040e28     LIBCMT:winapinls.obj
 0002:00006e34       ??_C@_1M@KDJDKMDD@?$AAn?$AAb?$AA?9?$AAn?$AAo?$AA?$AA@ 10040e34     LIBCMT:winapinls.obj
 0002:00006e40       ??_C@_1M@KFCFLMJP@?$AAn?$AAl?$AA?9?$AAb?$AAe?$AA?$AA@ 10040e40     LIBCMT:winapinls.obj
 0002:00006e4c       ??_C@_1M@KPOPDDGO@?$AAn?$AAl?$AA?9?$AAn?$AAl?$AA?$AA@ 10040e4c     LIBCMT:winapinls.obj
 0002:00006e58       ??_C@_1M@LJKPEMLN@?$AAn?$AAn?$AA?9?$AAn?$AAo?$AA?$AA@ 10040e58     LIBCMT:winapinls.obj
 0002:00006e64       ??_C@_1M@BDGHHBFL@?$AAn?$AAs?$AA?9?$AAz?$AAa?$AA?$AA@ 10040e64     LIBCMT:winapinls.obj
 0002:00006e70       ??_C@_1M@IDEHOAP@?$AAp?$AAa?$AA?9?$AAi?$AAn?$AA?$AA@ 10040e70     LIBCMT:winapinls.obj
 0002:00006e7c       ??_C@_1M@HDBKGOGH@?$AAp?$AAl?$AA?9?$AAp?$AAl?$AA?$AA@ 10040e7c     LIBCMT:winapinls.obj
 0002:00006e88       ??_C@_1M@LJLLCMEH@?$AAp?$AAt?$AA?9?$AAb?$AAr?$AA?$AA@ 10040e88     LIBCMT:winapinls.obj
 0002:00006e94       ??_C@_1M@NCMONAAL@?$AAp?$AAt?$AA?9?$AAp?$AAt?$AA?$AA@ 10040e94     LIBCMT:winapinls.obj
 0002:00006ea0       ??_C@_1O@EAKMAJDN@?$AAq?$AAu?$AAz?$AA?9?$AAb?$AAo?$AA?$AA@ 10040ea0     LIBCMT:winapinls.obj
 0002:00006eb0       ??_C@_1O@BHHPIGDN@?$AAq?$AAu?$AAz?$AA?9?$AAe?$AAc?$AA?$AA@ 10040eb0     LIBCMT:winapinls.obj
 0002:00006ec0       ??_C@_1O@GBAPEKMJ@?$AAq?$AAu?$AAz?$AA?9?$AAp?$AAe?$AA?$AA@ 10040ec0     LIBCMT:winapinls.obj
 0002:00006ed0       ??_C@_1M@CLGLEFBO@?$AAr?$AAo?$AA?9?$AAr?$AAo?$AA?$AA@ 10040ed0     LIBCMT:winapinls.obj
 0002:00006edc       ??_C@_1M@CEEDODME@?$AAr?$AAu?$AA?9?$AAr?$AAu?$AA?$AA@ 10040edc     LIBCMT:winapinls.obj
 0002:00006ee8       ??_C@_1M@HPKKKMPP@?$AAs?$AAa?$AA?9?$AAi?$AAn?$AA?$AA@ 10040ee8     LIBCMT:winapinls.obj
 0002:00006ef4       ??_C@_1M@BKMAIGOJ@?$AAs?$AAe?$AA?9?$AAf?$AAi?$AA?$AA@ 10040ef4     LIBCMT:winapinls.obj
 0002:00006f00       ??_C@_1M@NDPIFLFI@?$AAs?$AAe?$AA?9?$AAn?$AAo?$AA?$AA@ 10040f00     LIBCMT:winapinls.obj
 0002:00006f0c       ??_C@_1M@DANKKHJ@?$AAs?$AAe?$AA?9?$AAs?$AAe?$AA?$AA@ 10040f0c     LIBCMT:winapinls.obj
 0002:00006f18       ??_C@_1M@PNBLONPJ@?$AAs?$AAk?$AA?9?$AAs?$AAk?$AA?$AA@ 10040f18     LIBCMT:winapinls.obj
 0002:00006f24       ??_C@_1M@LFMODOAL@?$AAs?$AAl?$AA?9?$AAs?$AAi?$AA?$AA@ 10040f24     LIBCMT:winapinls.obj
 0002:00006f30       ??_C@_1O@DFKOMPG@?$AAs?$AAm?$AAa?$AA?9?$AAn?$AAo?$AA?$AA@ 10040f30     LIBCMT:winapinls.obj
 0002:00006f40       ??_C@_1O@NDKPBNNH@?$AAs?$AAm?$AAa?$AA?9?$AAs?$AAe?$AA?$AA@ 10040f40     LIBCMT:winapinls.obj
 0002:00006f50       ??_C@_1O@PLLKBHAB@?$AAs?$AAm?$AAj?$AA?9?$AAn?$AAo?$AA?$AA@ 10040f50     LIBCMT:winapinls.obj
 0002:00006f60       ??_C@_1O@CLEPOGCA@?$AAs?$AAm?$AAj?$AA?9?$AAs?$AAe?$AA?$AA@ 10040f60     LIBCMT:winapinls.obj
 0002:00006f70       ??_C@_1O@DLGJGKMK@?$AAs?$AAm?$AAn?$AA?9?$AAf?$AAi?$AA?$AA@ 10040f70     LIBCMT:winapinls.obj
 0002:00006f80       ??_C@_1O@OJDJGAJC@?$AAs?$AAm?$AAs?$AA?9?$AAf?$AAi?$AA?$AA@ 10040f80     LIBCMT:winapinls.obj
 0002:00006f90       ??_C@_1M@BOFOGHPB@?$AAs?$AAq?$AA?9?$AAa?$AAl?$AA?$AA@ 10040f90     LIBCMT:winapinls.obj
 0002:00006f9c       ??_C@_1BG@LJBBIPGB@?$AAs?$AAr?$AA?9?$AAb?$AAa?$AA?9?$AAc?$AAy?$AAr?$AAl?$AA?$AA@ 10040f9c     LIBCMT:winapinls.obj
 0002:00006fb4       ??_C@_1BG@JLBENFOE@?$AAs?$AAr?$AA?9?$AAb?$AAa?$AA?9?$AAl?$AAa?$AAt?$AAn?$AA?$AA@ 10040fb4     LIBCMT:winapinls.obj
 0002:00006fcc       ??_C@_1BG@KODPNHE@?$AAs?$AAr?$AA?9?$AAs?$AAp?$AA?9?$AAc?$AAy?$AAr?$AAl?$AA?$AA@ 10040fcc     LIBCMT:winapinls.obj
 0002:00006fe4       ??_C@_1BG@CIOGKHPB@?$AAs?$AAr?$AA?9?$AAs?$AAp?$AA?9?$AAl?$AAa?$AAt?$AAn?$AA?$AA@ 10040fe4     LIBCMT:winapinls.obj
 0002:00006ffc       ??_C@_1M@NGFJLMAC@?$AAs?$AAv?$AA?9?$AAf?$AAi?$AA?$AA@ 10040ffc     LIBCMT:winapinls.obj
 0002:00007008       ??_C@_1M@MPJEJAJC@?$AAs?$AAv?$AA?9?$AAs?$AAe?$AA?$AA@ 10041008     LIBCMT:winapinls.obj
 0002:00007014       ??_C@_1M@MPNDHLFK@?$AAs?$AAw?$AA?9?$AAk?$AAe?$AA?$AA@ 10041014     LIBCMT:winapinls.obj
 0002:00007020       ??_C@_1O@KOHBJJI@?$AAs?$AAy?$AAr?$AA?9?$AAs?$AAy?$AA?$AA@ 10041020     LIBCMT:winapinls.obj
 0002:00007030       ??_C@_1M@LDCEFHA@?$AAt?$AAa?$AA?9?$AAi?$AAn?$AA?$AA@ 10041030     LIBCMT:winapinls.obj
 0002:0000703c       ??_C@_1M@CNJOFAK@?$AAt?$AAe?$AA?9?$AAi?$AAn?$AA?$AA@ 1004103c     LIBCMT:winapinls.obj
 0002:00007048       ??_C@_1M@GNAECACD@?$AAt?$AAh?$AA?9?$AAt?$AAh?$AA?$AA@ 10041048     LIBCMT:winapinls.obj
 0002:00007054       ??_C@_1M@CHBIHOJO@?$AAt?$AAn?$AA?9?$AAz?$AAa?$AA?$AA@ 10041054     LIBCMT:winapinls.obj
 0002:00007060       ??_C@_1M@GCCMIGPJ@?$AAt?$AAr?$AA?9?$AAt?$AAr?$AA?$AA@ 10041060     LIBCMT:winapinls.obj
 0002:0000706c       ??_C@_1M@CELMCNBK@?$AAt?$AAt?$AA?9?$AAr?$AAu?$AA?$AA@ 1004106c     LIBCMT:winapinls.obj
 0002:00007078       ??_C@_1M@KLMCELGA@?$AAu?$AAk?$AA?9?$AAu?$AAa?$AA?$AA@ 10041078     LIBCMT:winapinls.obj
 0002:00007084       ??_C@_1M@EPAJJAJF@?$AAu?$AAr?$AA?9?$AAp?$AAk?$AA?$AA@ 10041084     LIBCMT:winapinls.obj
 0002:00007090       ??_C@_1BG@GEGPMCDJ@?$AAu?$AAz?$AA?9?$AAu?$AAz?$AA?9?$AAc?$AAy?$AAr?$AAl?$AA?$AA@ 10041090     LIBCMT:winapinls.obj
 0002:000070a8       ??_C@_1BG@EGGKJILM@?$AAu?$AAz?$AA?9?$AAu?$AAz?$AA?9?$AAl?$AAa?$AAt?$AAn?$AA?$AA@ 100410a8     LIBCMT:winapinls.obj
 0002:000070c0       ??_C@_1M@GFOCLFF@?$AAv?$AAi?$AA?9?$AAv?$AAn?$AA?$AA@ 100410c0     LIBCMT:winapinls.obj
 0002:000070cc       ??_C@_1M@CPAMEDFI@?$AAx?$AAh?$AA?9?$AAz?$AAa?$AA?$AA@ 100410cc     LIBCMT:winapinls.obj
 0002:000070d8       ??_C@_1O@EBKIFIGN@?$AAz?$AAh?$AA?9?$AAc?$AAh?$AAs?$AA?$AA@ 100410d8     LIBCMT:winapinls.obj
 0002:000070e8       ??_C@_1O@NMHPGANE@?$AAz?$AAh?$AA?9?$AAc?$AAh?$AAt?$AA?$AA@ 100410e8     LIBCMT:winapinls.obj
 0002:000070f8       ??_C@_1M@LPINJOMC@?$AAz?$AAh?$AA?9?$AAc?$AAn?$AA?$AA@ 100410f8     LIBCMT:winapinls.obj
 0002:00007104       ??_C@_1M@OCJEJODD@?$AAz?$AAh?$AA?9?$AAh?$AAk?$AA?$AA@ 10041104     LIBCMT:winapinls.obj
 0002:00007110       ??_C@_1M@DNDLJINH@?$AAz?$AAh?$AA?9?$AAm?$AAo?$AA?$AA@ 10041110     LIBCMT:winapinls.obj
 0002:0000711c       ??_C@_1M@MBFDNDND@?$AAz?$AAh?$AA?9?$AAs?$AAg?$AA?$AA@ 1004111c     LIBCMT:winapinls.obj
 0002:00007128       ??_C@_1M@IMEPLEPE@?$AAz?$AAh?$AA?9?$AAt?$AAw?$AA?$AA@ 10041128     LIBCMT:winapinls.obj
 0002:00007134       ??_C@_1M@BBGHNHJP@?$AAz?$AAu?$AA?9?$AAz?$AAa?$AA?$AA@ 10041134     LIBCMT:winapinls.obj
 0002:00007140       ___newctype                10041140     LIBCMT:ctype.obj
 0002:00007440       __wctype                   10041440     LIBCMT:ctype.obj
 0002:00007648       ___newclmap                10041648     LIBCMT:ctype.obj
 0002:000077c8       ___newcumap                100417c8     LIBCMT:ctype.obj
 0002:00007948       ___lc_category             10041948     LIBCMT:wsetloca.obj
 0002:00007990       ??_C@_1O@GIFLHMA@?$AAL?$AAC?$AA_?$AAA?$AAL?$AAL?$AA?$AA@ 10041990     LIBCMT:wsetloca.obj
 0002:000079a0       ??_C@_1BG@PPOMIBNJ@?$AAL?$AAC?$AA_?$AAC?$AAO?$AAL?$AAL?$AAA?$AAT?$AAE?$AA?$AA@ 100419a0     LIBCMT:wsetloca.obj
 0002:000079b8       ??_C@_1BC@FFJGAPJM@?$AAL?$AAC?$AA_?$AAC?$AAT?$AAY?$AAP?$AAE?$AA?$AA@ 100419b8     LIBCMT:wsetloca.obj
 0002:000079cc       ??_C@_1BI@PCKFNJFB@?$AAL?$AAC?$AA_?$AAM?$AAO?$AAN?$AAE?$AAT?$AAA?$AAR?$AAY?$AA?$AA@ 100419cc     LIBCMT:wsetloca.obj
 0002:000079e4       ??_C@_1BG@ENIEDKID@?$AAL?$AAC?$AA_?$AAN?$AAU?$AAM?$AAE?$AAR?$AAI?$AAC?$AA?$AA@ 100419e4     LIBCMT:wsetloca.obj
 0002:000079fc       ??_C@_1BA@HAAOMIIG@?$AAL?$AAC?$AA_?$AAT?$AAI?$AAM?$AAE?$AA?$AA@ 100419fc     LIBCMT:wsetloca.obj
 0002:00007a90       ??_C@_15NBPDDFIP@?$AA?$DN?$AA?$DL?$AA?$AA@ 10041a90     LIBCMT:wsetloca.obj
 0002:00007a98       ??_C@_13PJJBFPED@?$AA?$DL?$AA?$AA@ 10041a98     LIBCMT:wsetloca.obj
 0002:00007a9c       ??_C@_13NMPKAAJP@?$AA?$DN?$AA?$AA@ 10041a9c     LIBCMT:wsetloca.obj
 0002:00007aa0       ??_C@_13FHBKNHDA@?$AAC?$AA?$AA@ 10041aa0     LIBCMT:wsetloca.obj
 0002:00007aa4       ??_C@_17MBJJLFDM@?$AA_?$AA?4?$AA?0?$AA?$AA@ 10041aa4     LIBCMT:wsetloca.obj
 0002:00007aac       ??_C@_13ENNFDPBH@?$AA_?$AA?$AA@ 10041aac     LIBCMT:wsetloca.obj
 0002:00007ab0       ??_C@_13JOFGPIOO@?$AA?4?$AA?$AA@ 10041ab0     LIBCMT:wsetloca.obj
 0002:00007ab4       ??_C@_06PGGFOGJG@1?$CDSNAN?$AA@ 10041ab4     LIBCMT:x10fout.obj
 0002:00007abc       ??_C@_05PHHOCPM@1?$CDIND?$AA@ 10041abc     LIBCMT:x10fout.obj
 0002:00007ac4       ??_C@_05DNEBIAHO@1?$CDINF?$AA@ 10041ac4     LIBCMT:x10fout.obj
 0002:00007acc       ??_C@_06IMKFLFPG@1?$CDQNAN?$AA@ 10041acc     LIBCMT:x10fout.obj
 0002:00007ad4       ??_C@_0M@HHGEPIBF@CreateFile2?$AA@ 10041ad4     LIBCMT:wopen.obj
 0002:00007ae0       ??_C@_1BA@BALFACEM@?$AAC?$AAO?$AAN?$AAO?$AAU?$AAT?$AA$?$AA?$AA@ 10041ae0     LIBCMT:initcon.obj
 0002:00007af0       ___rg_language             10041af0     LIBCMT:getqloc.obj
 0002:00007dfc       ??_C@_1BC@LLOKLNP@?$AAa?$AAm?$AAe?$AAr?$AAi?$AAc?$AAa?$AAn?$AA?$AA@ 10041dfc     LIBCMT:getqloc.obj
 0002:00007e10       ??_C@_1CC@HEIGCDGG@?$AAa?$AAm?$AAe?$AAr?$AAi?$AAc?$AAa?$AAn?$AA?5?$AAe?$AAn?$AAg?$AAl?$AAi?$AAs?$AAh?$AA?$AA@ 10041e10     LIBCMT:getqloc.obj
 0002:00007e34       ??_C@_1CC@IHCNOMIN@?$AAa?$AAm?$AAe?$AAr?$AAi?$AAc?$AAa?$AAn?$AA?9?$AAe?$AAn?$AAg?$AAl?$AAi?$AAs?$AAh?$AA?$AA@ 10041e34     LIBCMT:getqloc.obj
 0002:00007e58       ??_C@_1BG@GKAGPCGG@?$AAa?$AAu?$AAs?$AAt?$AAr?$AAa?$AAl?$AAi?$AAa?$AAn?$AA?$AA@ 10041e58     LIBCMT:getqloc.obj
 0002:00007e70       ??_C@_1BA@GMENCENF@?$AAb?$AAe?$AAl?$AAg?$AAi?$AAa?$AAn?$AA?$AA@ 10041e70     LIBCMT:getqloc.obj
 0002:00007e80       ??_C@_1BC@PJMIIAAN@?$AAc?$AAa?$AAn?$AAa?$AAd?$AAi?$AAa?$AAn?$AA?$AA@ 10041e80     LIBCMT:getqloc.obj
 0002:00007e94       ??_C@_17NOIMNFBF@?$AAc?$AAh?$AAh?$AA?$AA@ 10041e94     LIBCMT:getqloc.obj
 0002:00007e9c       ??_C@_17GGDALCHA@?$AAc?$AAh?$AAi?$AA?$AA@ 10041e9c     LIBCMT:getqloc.obj
 0002:00007ea4       ??_C@_1BA@NPNJKIBL@?$AAc?$AAh?$AAi?$AAn?$AAe?$AAs?$AAe?$AA?$AA@ 10041ea4     LIBCMT:getqloc.obj
 0002:00007eb4       ??_C@_1CC@DINBAMMJ@?$AAc?$AAh?$AAi?$AAn?$AAe?$AAs?$AAe?$AA?9?$AAh?$AAo?$AAn?$AAg?$AAk?$AAo?$AAn?$AAg?$AA?$AA@ 10041eb4     LIBCMT:getqloc.obj
 0002:00007ed8       ??_C@_1CG@IOBJPACO@?$AAc?$AAh?$AAi?$AAn?$AAe?$AAs?$AAe?$AA?9?$AAs?$AAi?$AAm?$AAp?$AAl?$AAi?$AAf?$AAi?$AAe?$AAd?$AA?$AA@ 10041ed8     LIBCMT:getqloc.obj
 0002:00007f00       ??_C@_1CE@GAJNDCKG@?$AAc?$AAh?$AAi?$AAn?$AAe?$AAs?$AAe?$AA?9?$AAs?$AAi?$AAn?$AAg?$AAa?$AAp?$AAo?$AAr?$AAe?$AA?$AA@ 10041f00     LIBCMT:getqloc.obj
 0002:00007f24       ??_C@_1CI@PAJPIOOD@?$AAc?$AAh?$AAi?$AAn?$AAe?$AAs?$AAe?$AA?9?$AAt?$AAr?$AAa?$AAd?$AAi?$AAt?$AAi?$AAo?$AAn?$AAa?$AAl?$AA?$AA@ 10041f24     LIBCMT:getqloc.obj
 0002:00007f4c       ??_C@_1BM@NILJBMMD@?$AAd?$AAu?$AAt?$AAc?$AAh?$AA?9?$AAb?$AAe?$AAl?$AAg?$AAi?$AAa?$AAn?$AA?$AA@ 10041f4c     LIBCMT:getqloc.obj
 0002:00007f68       ??_C@_1CC@OOJPJNEJ@?$AAe?$AAn?$AAg?$AAl?$AAi?$AAs?$AAh?$AA?9?$AAa?$AAm?$AAe?$AAr?$AAi?$AAc?$AAa?$AAn?$AA?$AA@ 10041f68     LIBCMT:getqloc.obj
 0002:00007f8c       ??_C@_1BI@IOLFEEM@?$AAe?$AAn?$AAg?$AAl?$AAi?$AAs?$AAh?$AA?9?$AAa?$AAu?$AAs?$AA?$AA@ 10041f8c     LIBCMT:getqloc.obj
 0002:00007fa4       ??_C@_1BO@HFFNLENJ@?$AAe?$AAn?$AAg?$AAl?$AAi?$AAs?$AAh?$AA?9?$AAb?$AAe?$AAl?$AAi?$AAz?$AAe?$AA?$AA@ 10041fa4     LIBCMT:getqloc.obj
 0002:00007fc4       ??_C@_1BI@HAPKJMPO@?$AAe?$AAn?$AAg?$AAl?$AAi?$AAs?$AAh?$AA?9?$AAc?$AAa?$AAn?$AA?$AA@ 10041fc4     LIBCMT:getqloc.obj
 0002:00007fdc       ??_C@_1CE@HLNDMIOJ@?$AAe?$AAn?$AAg?$AAl?$AAi?$AAs?$AAh?$AA?9?$AAc?$AAa?$AAr?$AAi?$AAb?$AAb?$AAe?$AAa?$AAn?$AA?$AA@ 10041fdc     LIBCMT:getqloc.obj
 0002:00008000       ??_C@_1BI@LDHJHHAC@?$AAe?$AAn?$AAg?$AAl?$AAi?$AAs?$AAh?$AA?9?$AAi?$AAr?$AAe?$AA?$AA@ 10042000     LIBCMT:getqloc.obj
 0002:00008018       ??_C@_1CA@NJMMCFOC@?$AAe?$AAn?$AAg?$AAl?$AAi?$AAs?$AAh?$AA?9?$AAj?$AAa?$AAm?$AAa?$AAi?$AAc?$AAa?$AA?$AA@ 10042018     LIBCMT:getqloc.obj
 0002:00008038       ??_C@_1BG@BHJEBBGG@?$AAe?$AAn?$AAg?$AAl?$AAi?$AAs?$AAh?$AA?9?$AAn?$AAz?$AA?$AA@ 10042038     LIBCMT:getqloc.obj
 0002:00008050       ??_C@_1CK@FGOEJJCO@?$AAe?$AAn?$AAg?$AAl?$AAi?$AAs?$AAh?$AA?9?$AAs?$AAo?$AAu?$AAt?$AAh?$AA?5?$AAa?$AAf?$AAr?$AAi?$AAc?$AAa?$AA?$AA@ 10042050     LIBCMT:getqloc.obj
 0002:0000807c       ??_C@_1DE@PDBJPCJ@?$AAe?$AAn?$AAg?$AAl?$AAi?$AAs?$AAh?$AA?9?$AAt?$AAr?$AAi?$AAn?$AAi?$AAd?$AAa?$AAd?$AA?5?$AAy?$AA?5?$AAt?$AAo?$AAb?$AAa?$AAg?$AAo?$AA?$AA@ 1004207c     LIBCMT:getqloc.obj
 0002:000080b0       ??_C@_1BG@JGCANDME@?$AAe?$AAn?$AAg?$AAl?$AAi?$AAs?$AAh?$AA?9?$AAu?$AAk?$AA?$AA@ 100420b0     LIBCMT:getqloc.obj
 0002:000080c8       ??_C@_1BG@DINKMLE@?$AAe?$AAn?$AAg?$AAl?$AAi?$AAs?$AAh?$AA?9?$AAu?$AAs?$AA?$AA@ 100420c8     LIBCMT:getqloc.obj
 0002:000080e0       ??_C@_1BI@NMFDBHJE@?$AAe?$AAn?$AAg?$AAl?$AAi?$AAs?$AAh?$AA?9?$AAu?$AAs?$AAa?$AA?$AA@ 100420e0     LIBCMT:getqloc.obj
 0002:000080f8       ??_C@_1BO@OIHKJKII@?$AAf?$AAr?$AAe?$AAn?$AAc?$AAh?$AA?9?$AAb?$AAe?$AAl?$AAg?$AAi?$AAa?$AAn?$AA?$AA@ 100420f8     LIBCMT:getqloc.obj
 0002:00008118       ??_C@_1CA@NKAELJKI@?$AAf?$AAr?$AAe?$AAn?$AAc?$AAh?$AA?9?$AAc?$AAa?$AAn?$AAa?$AAd?$AAi?$AAa?$AAn?$AA?$AA@ 10042118     LIBCMT:getqloc.obj
 0002:00008138       ??_C@_1CE@MGKCNLGN@?$AAf?$AAr?$AAe?$AAn?$AAc?$AAh?$AA?9?$AAl?$AAu?$AAx?$AAe?$AAm?$AAb?$AAo?$AAu?$AAr?$AAg?$AA?$AA@ 10042138     LIBCMT:getqloc.obj
 0002:0000815c       ??_C@_1BK@CEGEAILM@?$AAf?$AAr?$AAe?$AAn?$AAc?$AAh?$AA?9?$AAs?$AAw?$AAi?$AAs?$AAs?$AA?$AA@ 1004215c     LIBCMT:getqloc.obj
 0002:00008178       ??_C@_1CA@PAFKEOCC@?$AAg?$AAe?$AAr?$AAm?$AAa?$AAn?$AA?9?$AAa?$AAu?$AAs?$AAt?$AAr?$AAi?$AAa?$AAn?$AA?$AA@ 10042178     LIBCMT:getqloc.obj
 0002:00008198       ??_C@_1CI@HCFHGOFD@?$AAg?$AAe?$AAr?$AAm?$AAa?$AAn?$AA?9?$AAl?$AAi?$AAc?$AAh?$AAt?$AAe?$AAn?$AAs?$AAt?$AAe?$AAi?$AAn?$AA?$AA@ 10042198     LIBCMT:getqloc.obj
 0002:000081c0       ??_C@_1CE@FEDDNPDG@?$AAg?$AAe?$AAr?$AAm?$AAa?$AAn?$AA?9?$AAl?$AAu?$AAx?$AAe?$AAm?$AAb?$AAo?$AAu?$AAr?$AAg?$AA?$AA@ 100421c0     LIBCMT:getqloc.obj
 0002:000081e4       ??_C@_1BK@LIMINNMN@?$AAg?$AAe?$AAr?$AAm?$AAa?$AAn?$AA?9?$AAs?$AAw?$AAi?$AAs?$AAs?$AA?$AA@ 100421e4     LIBCMT:getqloc.obj
 0002:00008200       ??_C@_1BM@LGMDBEPD@?$AAi?$AAr?$AAi?$AAs?$AAh?$AA?9?$AAe?$AAn?$AAg?$AAl?$AAi?$AAs?$AAh?$AA?$AA@ 10042200     LIBCMT:getqloc.obj
 0002:0000821c       ??_C@_1BM@NNCFBAEE@?$AAi?$AAt?$AAa?$AAl?$AAi?$AAa?$AAn?$AA?9?$AAs?$AAw?$AAi?$AAs?$AAs?$AA?$AA@ 1004221c     LIBCMT:getqloc.obj
 0002:00008238       ??_C@_1BE@FEDJNPIB@?$AAn?$AAo?$AAr?$AAw?$AAe?$AAg?$AAi?$AAa?$AAn?$AA?$AA@ 10042238     LIBCMT:getqloc.obj
 0002:0000824c       ??_C@_1CC@CILKDEIE@?$AAn?$AAo?$AAr?$AAw?$AAe?$AAg?$AAi?$AAa?$AAn?$AA?9?$AAb?$AAo?$AAk?$AAm?$AAa?$AAl?$AA?$AA@ 1004224c     LIBCMT:getqloc.obj
 0002:00008270       ??_C@_1CE@DHMMHEPL@?$AAn?$AAo?$AAr?$AAw?$AAe?$AAg?$AAi?$AAa?$AAn?$AA?9?$AAn?$AAy?$AAn?$AAo?$AAr?$AAs?$AAk?$AA?$AA@ 10042270     LIBCMT:getqloc.obj
 0002:00008294       ??_C@_1CK@OPNMHECD@?$AAp?$AAo?$AAr?$AAt?$AAu?$AAg?$AAu?$AAe?$AAs?$AAe?$AA?9?$AAb?$AAr?$AAa?$AAz?$AAi?$AAl?$AAi?$AAa?$AAn?$AA?$AA@ 10042294     LIBCMT:getqloc.obj
 0002:000082c0       ??_C@_1CE@KEEHCDB@?$AAs?$AAp?$AAa?$AAn?$AAi?$AAs?$AAh?$AA?9?$AAa?$AAr?$AAg?$AAe?$AAn?$AAt?$AAi?$AAn?$AAa?$AA?$AA@ 100422c0     LIBCMT:getqloc.obj
 0002:000082e4       ??_C@_1CA@GIAOLHJD@?$AAs?$AAp?$AAa?$AAn?$AAi?$AAs?$AAh?$AA?9?$AAb?$AAo?$AAl?$AAi?$AAv?$AAi?$AAa?$AA?$AA@ 100422e4     LIBCMT:getqloc.obj
 0002:00008304       ??_C@_1BM@OJNDFNPD@?$AAs?$AAp?$AAa?$AAn?$AAi?$AAs?$AAh?$AA?9?$AAc?$AAh?$AAi?$AAl?$AAe?$AA?$AA@ 10042304     LIBCMT:getqloc.obj
 0002:00008320       ??_C@_1CC@OCOLPALL@?$AAs?$AAp?$AAa?$AAn?$AAi?$AAs?$AAh?$AA?9?$AAc?$AAo?$AAl?$AAo?$AAm?$AAb?$AAi?$AAa?$AA?$AA@ 10042320     LIBCMT:getqloc.obj
 0002:00008344       ??_C@_1CG@BPOFMKBB@?$AAs?$AAp?$AAa?$AAn?$AAi?$AAs?$AAh?$AA?9?$AAc?$AAo?$AAs?$AAt?$AAa?$AA?5?$AAr?$AAi?$AAc?$AAa?$AA?$AA@ 10042344     LIBCMT:getqloc.obj
 0002:0000836c       ??_C@_1DG@IGOBAPBB@?$AAs?$AAp?$AAa?$AAn?$AAi?$AAs?$AAh?$AA?9?$AAd?$AAo?$AAm?$AAi?$AAn?$AAi?$AAc?$AAa?$AAn?$AA?5?$AAr?$AAe?$AAp?$AAu?$AAb?$AAl?$AAi?$AAc?$AA?$AA@ 1004236c     LIBCMT:getqloc.obj
 0002:000083a4       ??_C@_1CA@JHAPGEGI@?$AAs?$AAp?$AAa?$AAn?$AAi?$AAs?$AAh?$AA?9?$AAe?$AAc?$AAu?$AAa?$AAd?$AAo?$AAr?$AA?$AA@ 100423a4     LIBCMT:getqloc.obj
 0002:000083c4       ??_C@_1CI@LAPALJPP@?$AAs?$AAp?$AAa?$AAn?$AAi?$AAs?$AAh?$AA?9?$AAe?$AAl?$AA?5?$AAs?$AAa?$AAl?$AAv?$AAa?$AAd?$AAo?$AAr?$AA?$AA@ 100423c4     LIBCMT:getqloc.obj
 0002:000083ec       ??_C@_1CE@PDGBOFOM@?$AAs?$AAp?$AAa?$AAn?$AAi?$AAs?$AAh?$AA?9?$AAg?$AAu?$AAa?$AAt?$AAe?$AAm?$AAa?$AAl?$AAa?$AA?$AA@ 100423ec     LIBCMT:getqloc.obj
 0002:00008410       ??_C@_1CC@NBEBAODI@?$AAs?$AAp?$AAa?$AAn?$AAi?$AAs?$AAh?$AA?9?$AAh?$AAo?$AAn?$AAd?$AAu?$AAr?$AAa?$AAs?$AA?$AA@ 10042410     LIBCMT:getqloc.obj
 0002:00008434       ??_C@_1CA@LLKGHBMF@?$AAs?$AAp?$AAa?$AAn?$AAi?$AAs?$AAh?$AA?9?$AAm?$AAe?$AAx?$AAi?$AAc?$AAa?$AAn?$AA?$AA@ 10042434     LIBCMT:getqloc.obj
 0002:00008454       ??_C@_1BO@LKNDOIGD@?$AAs?$AAp?$AAa?$AAn?$AAi?$AAs?$AAh?$AA?9?$AAm?$AAo?$AAd?$AAe?$AAr?$AAn?$AA?$AA@ 10042454     LIBCMT:getqloc.obj
 0002:00008474       ??_C@_1CE@NMDMOEEB@?$AAs?$AAp?$AAa?$AAn?$AAi?$AAs?$AAh?$AA?9?$AAn?$AAi?$AAc?$AAa?$AAr?$AAa?$AAg?$AAu?$AAa?$AA?$AA@ 10042474     LIBCMT:getqloc.obj
 0002:00008498       ??_C@_1BO@LLCBEJGB@?$AAs?$AAp?$AAa?$AAn?$AAi?$AAs?$AAh?$AA?9?$AAp?$AAa?$AAn?$AAa?$AAm?$AAa?$AA?$AA@ 10042498     LIBCMT:getqloc.obj
 0002:000084b8       ??_C@_1CC@FKPGGIHO@?$AAs?$AAp?$AAa?$AAn?$AAi?$AAs?$AAh?$AA?9?$AAp?$AAa?$AAr?$AAa?$AAg?$AAu?$AAa?$AAy?$AA?$AA@ 100424b8     LIBCMT:getqloc.obj
 0002:000084dc       ??_C@_1BK@CDEIHOOP@?$AAs?$AAp?$AAa?$AAn?$AAi?$AAs?$AAh?$AA?9?$AAp?$AAe?$AAr?$AAu?$AA?$AA@ 100424dc     LIBCMT:getqloc.obj
 0002:000084f8       ??_C@_1CI@GAHAKKGP@?$AAs?$AAp?$AAa?$AAn?$AAi?$AAs?$AAh?$AA?9?$AAp?$AAu?$AAe?$AAr?$AAt?$AAo?$AA?5?$AAr?$AAi?$AAc?$AAo?$AA?$AA@ 100424f8     LIBCMT:getqloc.obj
 0002:00008520       ??_C@_1CA@NKJBCAGP@?$AAs?$AAp?$AAa?$AAn?$AAi?$AAs?$AAh?$AA?9?$AAu?$AAr?$AAu?$AAg?$AAu?$AAa?$AAy?$AA?$AA@ 10042520     LIBCMT:getqloc.obj
 0002:00008540       ??_C@_1CE@ODILCONM@?$AAs?$AAp?$AAa?$AAn?$AAi?$AAs?$AAh?$AA?9?$AAv?$AAe?$AAn?$AAe?$AAz?$AAu?$AAe?$AAl?$AAa?$AA?$AA@ 10042540     LIBCMT:getqloc.obj
 0002:00008564       ??_C@_1CA@OBNMCGFO@?$AAs?$AAw?$AAe?$AAd?$AAi?$AAs?$AAh?$AA?9?$AAf?$AAi?$AAn?$AAl?$AAa?$AAn?$AAd?$AA?$AA@ 10042564     LIBCMT:getqloc.obj
 0002:00008584       ??_C@_1M@PIPDDPPI@?$AAs?$AAw?$AAi?$AAs?$AAs?$AA?$AA@ 10042584     LIBCMT:getqloc.obj
 0002:00008590       ??_C@_15GMFIMNFM@?$AAu?$AAs?$AA?$AA@ 10042590     LIBCMT:getqloc.obj
 0002:00008598       ??_C@_17HAEBFAGL@?$AAu?$AAs?$AAa?$AA?$AA@ 10042598     LIBCMT:getqloc.obj
 0002:000085a0       ___rg_country              100425a0     LIBCMT:getqloc.obj
 0002:000086b4       ??_C@_1BA@DPFJEPHB@?$AAa?$AAm?$AAe?$AAr?$AAi?$AAc?$AAa?$AA?$AA@ 100426b4     LIBCMT:getqloc.obj
 0002:000086c4       ??_C@_1BA@ELOGGFK@?$AAb?$AAr?$AAi?$AAt?$AAa?$AAi?$AAn?$AA?$AA@ 100426c4     LIBCMT:getqloc.obj
 0002:000086d4       ??_C@_1M@GHBGIGDA@?$AAc?$AAh?$AAi?$AAn?$AAa?$AA?$AA@ 100426d4     LIBCMT:getqloc.obj
 0002:000086e0       ??_C@_1M@NCHEJOPO@?$AAc?$AAz?$AAe?$AAc?$AAh?$AA?$AA@ 100426e0     LIBCMT:getqloc.obj
 0002:000086ec       ??_C@_1BA@BKPAPBLA@?$AAe?$AAn?$AAg?$AAl?$AAa?$AAn?$AAd?$AA?$AA@ 100426ec     LIBCMT:getqloc.obj
 0002:000086fc       ??_C@_1BM@HKBCKIPC@?$AAg?$AAr?$AAe?$AAa?$AAt?$AA?5?$AAb?$AAr?$AAi?$AAt?$AAa?$AAi?$AAn?$AA?$AA@ 100426fc     LIBCMT:getqloc.obj
 0002:00008718       ??_C@_1BA@PPCHPGJB@?$AAh?$AAo?$AAl?$AAl?$AAa?$AAn?$AAd?$AA?$AA@ 10042718     LIBCMT:getqloc.obj
 0002:00008728       ??_C@_1BE@JBMPEGDG@?$AAh?$AAo?$AAn?$AAg?$AA?9?$AAk?$AAo?$AAn?$AAg?$AA?$AA@ 10042728     LIBCMT:getqloc.obj
 0002:0000873c       ??_C@_1BI@KOELBBPJ@?$AAn?$AAe?$AAw?$AA?9?$AAz?$AAe?$AAa?$AAl?$AAa?$AAn?$AAd?$AA?$AA@ 1004273c     LIBCMT:getqloc.obj
 0002:00008754       ??_C@_15HIEBHAIO@?$AAn?$AAz?$AA?$AA@ 10042754     LIBCMT:getqloc.obj
 0002:0000875c       ??_C@_1BC@CHBCPFPI@?$AAp?$AAr?$AA?5?$AAc?$AAh?$AAi?$AAn?$AAa?$AA?$AA@ 1004275c     LIBCMT:getqloc.obj
 0002:00008770       ??_C@_1BC@JAOIIFKD@?$AAp?$AAr?$AA?9?$AAc?$AAh?$AAi?$AAn?$AAa?$AA?$AA@ 10042770     LIBCMT:getqloc.obj
 0002:00008784       ??_C@_1BI@BEHPPHKC@?$AAp?$AAu?$AAe?$AAr?$AAt?$AAo?$AA?9?$AAr?$AAi?$AAc?$AAo?$AA?$AA@ 10042784     LIBCMT:getqloc.obj
 0002:0000879c       ??_C@_1O@PAEOFKDI@?$AAs?$AAl?$AAo?$AAv?$AAa?$AAk?$AA?$AA@ 1004279c     LIBCMT:getqloc.obj
 0002:000087ac       ??_C@_1BK@FIHMCKAM@?$AAs?$AAo?$AAu?$AAt?$AAh?$AA?5?$AAa?$AAf?$AAr?$AAi?$AAc?$AAa?$AA?$AA@ 100427ac     LIBCMT:getqloc.obj
 0002:000087c8       ??_C@_1BI@NAEOODKB@?$AAs?$AAo?$AAu?$AAt?$AAh?$AA?5?$AAk?$AAo?$AAr?$AAe?$AAa?$AA?$AA@ 100427c8     LIBCMT:getqloc.obj
 0002:000087e0       ??_C@_1BK@FBDGGIFF@?$AAs?$AAo?$AAu?$AAt?$AAh?$AA?9?$AAa?$AAf?$AAr?$AAi?$AAc?$AAa?$AA?$AA@ 100427e0     LIBCMT:getqloc.obj
 0002:000087fc       ??_C@_1BI@GHLEJDPK@?$AAs?$AAo?$AAu?$AAt?$AAh?$AA?9?$AAk?$AAo?$AAr?$AAe?$AAa?$AA?$AA@ 100427fc     LIBCMT:getqloc.obj
 0002:00008814       ??_C@_1CE@PLHLOMJF@?$AAt?$AAr?$AAi?$AAn?$AAi?$AAd?$AAa?$AAd?$AA?5?$AA?$CG?$AA?5?$AAt?$AAo?$AAb?$AAa?$AAg?$AAo?$AA?$AA@ 10042814     LIBCMT:getqloc.obj
 0002:00008838       ??_C@_1BO@MODIMHHI@?$AAu?$AAn?$AAi?$AAt?$AAe?$AAd?$AA?9?$AAk?$AAi?$AAn?$AAg?$AAd?$AAo?$AAm?$AA?$AA@ 10042838     LIBCMT:getqloc.obj
 0002:00008858       ??_C@_1BM@FFHJONBJ@?$AAu?$AAn?$AAi?$AAt?$AAe?$AAd?$AA?9?$AAs?$AAt?$AAa?$AAt?$AAe?$AAs?$AA?$AA@ 10042858     LIBCMT:getqloc.obj
 0002:00008874       ___rg_language_count       10042874     LIBCMT:getqloc.obj
 0002:00008878       ___rg_country_count        10042878     LIBCMT:getqloc.obj
 0002:0000887c       ??_C@_17DNCLJFIF@?$AAA?$AAC?$AAP?$AA?$AA@ 1004287c     LIBCMT:getqloc.obj
 0002:00008884       ??_C@_17CIKBIHLH@?$AAO?$AAC?$AAP?$AA?$AA@ 10042884     LIBCMT:getqloc.obj
 0002:0000888c       ___rglangidNotDefault      1004288c     LIBCMT:getqloc_downlevel.obj
 0002:000088a0       __real@00000000            100428a0     LIBCMT:wcstoq.obj
 0002:000088a8       __load_config_used         100428a8     LIBCMT:loadcfg.obj
 0002:00009f20       ___safe_se_handler_table   10043f20     <linker-defined>
 0002:0000a030       ___rtc_iaa                 10044030     LIBCMT:initsect.obj
 0002:0000a134       ___rtc_izz                 10044134     LIBCMT:initsect.obj
 0002:0000a238       ___rtc_taa                 10044238     LIBCMT:initsect.obj
 0002:0000a33c       ___rtc_tzz                 1004433c     LIBCMT:initsect.obj
 0003:00000090       _pci20041digout            10045090     xpctarget.obj
 0003:00000094       _nipcdio24cnfg             10045094     xpctarget.obj
 0003:00000098       _rtddm6604cnfg             10045098     xpctarget.obj
 0003:000001bc       _DefaultCOMIOBase          100451bc     xpcruntime:xpcimports.obj
 0003:000001cc       _DefaultCOMIRQ             100451cc     xpcruntime:xpcimports.obj
 0003:000001e0       ___security_cookie         100451e0     LIBCMT:gs_cookie.obj
 0003:000001e4       ___security_cookie_complement 100451e4     LIBCMT:gs_cookie.obj
 0003:000001e8       __fltused                  100451e8     LIBCMT:fpinit.obj
 0003:000001ec       __ldused                   100451ec     LIBCMT:fpinit.obj
 0003:000001f0       __iob                      100451f0     LIBCMT:_file.obj
 0003:00000470       ___isa_enabled             10045470     LIBCMT:cpu_disp.obj
 0003:00000648       ___nullstring              10045648     LIBCMT:output.obj
 0003:0000064c       ___wnullstring             1004564c     LIBCMT:output.obj
 0003:00000650       __cfltcvt_tab              10045650     LIBCMT:cmiscdat.obj
 0003:000007a0       __mbctype                  100457a0     LIBCMT:mbctype.obj
 0003:000008a8       __mbcasemap                100458a8     LIBCMT:mbctype.obj
 0003:000009a8       ___initialmbcinfo          100459a8     LIBCMT:mbctype.obj
 0003:00000bcc       ___ptmbcinfo               10045bcc     LIBCMT:mbctype.obj
 0003:00000cc0       ___badioinfo               10045cc0     LIBCMT:ioinit.obj
 0003:00000d00       __lookuptrailbytes         10045d00     LIBCMT:read.obj
 0003:00000e00       __d_inf                    10045e00     LIBCMT:util.obj
 0003:00000e08       __d_ind                    10045e08     LIBCMT:util.obj
 0003:00000e10       __d_max                    10045e10     LIBCMT:util.obj
 0003:00000e18       __d_min                    10045e18     LIBCMT:util.obj
 0003:00000e20       __d_mzero                  10045e20     LIBCMT:util.obj
 0003:00000f2c       ___abort_behavior          10045f2c     LIBCMT:abort.obj
 0003:00000f30       ___flsindex                10045f30     LIBCMT:tidtable.obj
 0003:00000f40       ___mb_cur_max              10045f40     LIBCMT:nlsdata.obj
 0003:00000f44       ___wclocalestr             10045f44     LIBCMT:nlsdata.obj
 0003:00000f48       ___lc_time_c               10045f48     LIBCMT:nlsdata.obj
 0003:000010ac       ___ptlocinfo               100460ac     LIBCMT:nlsdata.obj
 0003:000010b0       ___initiallocinfo          100460b0     LIBCMT:nlsdata.obj
 0003:00001168       ___initiallocalestructinfo 10046168     LIBCMT:nlsdata.obj
 0003:00001170       ___globallocalestatus      10046170     LIBCMT:glstatus.obj
 0003:00001180       __NLG_Destination          10046180     LIBCMT:exsup.obj
 0003:00001190       __matherr_flag             10046190     LIBCMT:matherr.obj
 0003:00001198       ___lconv                   10046198     LIBCMT:lconv.obj
 0003:0000119c       ___lconv_static_decimal    1004619c     LIBCMT:lconv.obj
 0003:000011a0       ___lconv_c                 100461a0     LIBCMT:lconv.obj
 0003:000011f0       ___lconv_static_W_decimal  100461f0     LIBCMT:lconv.obj
 0003:000011f4       __pctype                   100461f4     LIBCMT:ctype.obj
 0003:000011f8       __pwctype                  100461f8     LIBCMT:ctype.obj
 0003:00001230       __confh                    10046230     LIBCMT:initcon.obj
 0003:00001238       __pow10pos                 10046238     LIBCMT:constpow.obj
 0003:00001398       __pow10neg                 10046398     LIBCMT:constpow.obj
 0003:00001500       __HUGE                     10046500     LIBCMT:huge.obj
 0003:00001a58       ___isa_available_default   10046a58     rt_logging.obj
 0003:00001a60       _pci20098PortA             10046a60     xpctarget.obj
 0003:00001a64       _pci20098PortB             10046a64     xpctarget.obj
 0003:00001a68       _siepowercan_firmware_initialized 10046a68     xpctarget.obj
 0003:00001a6c       _siepowercan_port1_configured 10046a6c     xpctarget.obj
 0003:00001a70       _siepowercan_port2_configured 10046a70     xpctarget.obj
 0003:00001a74       _CANAC2_FIRMWARE_LOADED    10046a74     xpctarget.obj
 0003:00001a78       _rs232ports                10046a78     xpctarget.obj
 0003:00001a88       _NI_AT_MIO_16F_5_commreg2  10046a88     xpctarget.obj
 0003:00001a8c       _RTD_DM6430_init           10046a8c     xpctarget.obj
 0003:00001a90       _RTD_DM6420_init           10046a90     xpctarget.obj
 0003:00001a94       _CANAC2_FIRMWARE_LOADED_mb1 10046a94     xpctarget.obj
 0003:00001a98       _CANAC2_FIRMWARE_LOADED_mb2 10046a98     xpctarget.obj
 0003:00001a9c       _CANAC2_FIRMWARE_LOADED_mb3 10046a9c     xpctarget.obj
 0003:00001aa0       _xmlsize                   10046aa0     xpctarget.obj
 0003:00001abc       ___fastflag                10046abc     LIBCMT:fpinit.obj
 0003:00001de0       __C_Exit_Done              10046de0     LIBCMT:crt0dat.obj
 0003:00001de4       ___argc                    10046de4     LIBCMT:crt0dat.obj
 0003:00001de8       ___argv                    10046de8     LIBCMT:crt0dat.obj
 0003:00001dec       ___wargv                   10046dec     LIBCMT:crt0dat.obj
 0003:00001df0       __environ                  10046df0     LIBCMT:crt0dat.obj
 0003:00001df4       __wenviron                 10046df4     LIBCMT:crt0dat.obj
 0003:00001df8       __pgmptr                   10046df8     LIBCMT:crt0dat.obj
 0003:00001dfc       __wpgmptr                  10046dfc     LIBCMT:crt0dat.obj
 0003:00001e00       __umaskval                 10046e00     LIBCMT:crt0dat.obj
 0003:00001e04       __exitflag                 10046e04     LIBCMT:crt0dat.obj
 0003:00001e08       __C_Termination_Done       10046e08     LIBCMT:crt0dat.obj
 0003:00001e0c       ___winitenv                10046e0c     LIBCMT:crt0dat.obj
 0003:00001e10       ___initenv                 10046e10     LIBCMT:crt0dat.obj
 0003:00001e14       __cflush                   10046e14     LIBCMT:_file.obj
 0003:00001e18       ___isa_available           10046e18     LIBCMT:cpu_disp.obj
 0003:00001e1c       ___favor                   10046e1c     LIBCMT:cpu_disp.obj
 0003:00001e24       __aenvptr                  10046e24     LIBCMT:dllcrt0.obj
 0003:00001e28       __wenvptr                  10046e28     LIBCMT:dllcrt0.obj
 0003:00001e2c       ?_pnhHeap@@3P6AHI@ZA       10046e2c     LIBCMT:handler.obj
 0003:00001e30       ___app_type                10046e30     LIBCMT:crt0msg.obj
 0003:00002460       __newmode                  10047460     LIBCMT:_newmode.obj
 0003:00002464       __crtheap                  10047464     LIBCMT:heapinit.obj
 0003:00002468       ___pInvalidArgHandler      10047468     LIBCMT:invarg.obj
 0003:0000246c       __stdbuf                   1004746c     LIBCMT:_sftbuf.obj
 0003:000025c8       __maxwait                  100475c8     LIBCMT:crtheap.obj
 0003:000025cc       ?__pInconsistency@@3P6AXXZA 100475cc     LIBCMT:hooks.obj
 0003:000025d0       ___pPurecall               100475d0     LIBCMT:inithelp.obj
 0003:000025ec       ___mbcodepage              100475ec     LIBCMT:mbctype.obj
 0003:000025f0       ___ismbcodepage            100475f0     LIBCMT:mbctype.obj
 0003:000025f4       ___mbulinfo                100475f4     LIBCMT:mbctype.obj
 0003:00002600       ___mblocalename            10047600     LIBCMT:mbctype.obj
 0003:00002608       ___pioinfo                 10047608     LIBCMT:ioinit.obj
 0003:00002708       ___error_mode              10047708     LIBCMT:errmode.obj
 0003:00002828       __outputformat             10047828     LIBCMT:outputformat.obj
 0003:00002830       __commode                  10047830     LIBCMT:ncommode.obj
 0003:00002834       ___lconv_static_null       10047834     LIBCMT:lconv.obj
 0003:00002838       ___lconv_static_W_null     10047838     LIBCMT:lconv.obj
 0003:0000283c       ___locale_changed          1004783c     LIBCMT:wsetloca.obj
 0003:00002840       __fmode                    10047840     LIBCMT:txtmode.obj
 0003:00002860       _CANAC2_2_receiveindex_mb3 10047860     <common>
 0003:00005934       _CANAC2_2_receivemaxindex_mb3 1004a934     <common>
 0003:00005940       _CANAC2_2_sendindex_mb3    1004a940     <common>
 0003:00005c60       _CANAC2_2_sendmaxindex_mb3 1004ac60     <common>
 0003:00005c80       _CANAC2_1_receiveindex_mb3 1004ac80     <common>
 0003:00005fa0       _CANAC2_1_receivemaxindex_mb3 1004afa0     <common>
 0003:00005fc0       _CANAC2_1_sendindex_mb3    1004afc0     <common>
 0003:000062e0       _CANAC2_1_sendmaxindex_mb3 1004b2e0     <common>
 0003:00006300       _CANAC2_2_receive_mb3      1004b300     <common>
 0003:00006620       _CANAC2_2_send_mb3         1004b620     <common>
 0003:00006940       _CANAC2_1_receive_mb3      1004b940     <common>
 0003:00006c60       _CANAC2_1_send_mb3         1004bc60     <common>
 0003:00006f80       _CANAC2_2_receiveindex_mb2 1004bf80     <common>
 0003:000072a0       _CANAC2_2_receivemaxindex_mb2 1004c2a0     <common>
 0003:000072c0       _CANAC2_2_sendindex_mb2    1004c2c0     <common>
 0003:000075e0       _CANAC2_2_sendmaxindex_mb2 1004c5e0     <common>
 0003:00007600       _CANAC2_1_receiveindex_mb2 1004c600     <common>
 0003:00007920       _CANAC2_1_receivemaxindex_mb2 1004c920     <common>
 0003:00007940       _CANAC2_1_sendindex_mb2    1004c940     <common>
 0003:00007c60       _CANAC2_1_sendmaxindex_mb2 1004cc60     <common>
 0003:00007c80       _CANAC2_2_receive_mb2      1004cc80     <common>
 0003:00007fa0       _CANAC2_2_send_mb2         1004cfa0     <common>
 0003:000082c0       _CANAC2_1_receive_mb2      1004d2c0     <common>
 0003:000085e0       _CANAC2_1_send_mb2         1004d5e0     <common>
 0003:00008900       _CANAC2_2_receiveindex_mb1 1004d900     <common>
 0003:00008c20       _CANAC2_2_receivemaxindex_mb1 1004dc20     <common>
 0003:00008c40       _CANAC2_2_sendindex_mb1    1004dc40     <common>
 0003:00008f60       _CANAC2_2_sendmaxindex_mb1 1004df60     <common>
 0003:00008f80       _CANAC2_1_receiveindex_mb1 1004df80     <common>
 0003:000092a0       _CANAC2_1_receivemaxindex_mb1 1004e2a0     <common>
 0003:000092c0       _CANAC2_1_sendindex_mb1    1004e2c0     <common>
 0003:000095e0       _CANAC2_1_sendmaxindex_mb1 1004e5e0     <common>
 0003:00009600       _CANAC2_2_receive_mb1      1004e600     <common>
 0003:00009920       _CANAC2_2_send_mb1         1004e920     <common>
 0003:00009c40       _CANAC2_1_receive_mb1      1004ec40     <common>
 0003:00009f60       _CANAC2_1_send_mb1         1004ef60     <common>
 0003:0000a280       _CANAC2_2_receiveindex     1004f280     <common>
 0003:0000a5a0       _CANAC2_2_receivemaxindex  1004f5a0     <common>
 0003:0000a5c0       _CANAC2_2_sendindex        1004f5c0     <common>
 0003:0000a8e0       _CANAC2_2_sendmaxindex     1004f8e0     <common>
 0003:0000a900       _CANAC2_1_receiveindex     1004f900     <common>
 0003:0000ac20       _CANAC2_1_receivemaxindex  1004fc20     <common>
 0003:0000ac40       _CANAC2_1_sendindex        1004fc40     <common>
 0003:0000af60       _CANAC2_1_sendmaxindex     1004ff60     <common>
 0003:0000af80       _CANAC2_2_receive          1004ff80     <common>
 0003:0000b2a0       _CANAC2_2_send             100502a0     <common>
 0003:0000b5c0       _CANAC2_1_receive          100505c0     <common>
 0003:0000b8e0       _CANAC2_1_send             100508e0     <common>
 0003:0000bc00       _siepowercan_can_object_buffer_port2 10050c00     <common>
 0003:0000fc20       _siepowercan_can_object_buffer_port1 10054c20     <common>
 0003:00013c20       _rtNaNF                    10058c20     <common>
 0003:00013c34       _rtMinusInfF               10058c34     <common>
 0003:00013c38       _rtInfF                    10058c38     <common>
 0003:00013c40       _rtNaN                     10058c40     <common>
 0003:00013c48       _rtMinusInf                10058c48     <common>
 0003:00013c50       _rtInf                     10058c50     <common>
 0003:00013c60       _rx_target_M_              10058c60     <common>
 0003:00013f58       _rx_target_DW              10058f58     <common>
 0003:00013f60       _rx_target_B               10058f60     <common>
 0003:00013fb8       _xpceaddEvent              10058fb8     <common>
 0003:00014008       _xpceDeRegisterISR         10059008     <common>
 0003:0001400c       _xpceRegisterISR           1005900c     <common>
 0003:00014010       _xpcIsModelInit            10059010     <common>
 0003:00014014       _xpcGetElapsedTime         10059014     <common>
 0003:00014018       _xpcBusyWait               10059018     <common>
 0003:0001401c       _xpcFreePhysicalMemory     1005901c     <common>
 0003:00014020       _xpcAllocPhysicalMemory    10059020     <common>
 0003:00014024       _xpcReserveMemoryRegion    10059024     <common>
 0003:00014028       _xpcOutpB                  10059028     <common>
 0003:0001402c       _xpcOutpW                  1005902c     <common>
 0003:00014030       _xpcOutpDW                 10059030     <common>
 0003:00014034       _xpcInpB                   10059034     <common>
 0003:00014038       _xpcInpW                   10059038     <common>
 0003:0001403c       _xpcInpDW                  1005903c     <common>
 0003:00014040       _slTestRegAssessment       10059040     <common>
 0003:00014044       _slTestTerminate           10059044     <common>
 0003:00014048       _slTestEvalOnFail          10059048     <common>
 0003:0001404c       _slTestLogAssessments      1005904c     <common>
 0003:00014050       _slTestInitialize          10059050     <common>
 0003:00014054       _unRegisterPTPTimeRead     10059054     <common>
 0003:00014058       _registerPTPTimeRead       10059058     <common>
 0003:0001405c       _slrteGetCurrentStepSize   1005905c     <common>
 0003:00014060       _slrteSetStepSizeDelta     10059060     <common>
 0003:00014064       _xpceGetIntTimerGranularityNS 10059064     <common>
 0003:00014068       _sendToAsyncQueueTgtAppSvc 10059068     <common>
 0003:0001406c       _terminateToAsyncQueueTgtAppSvc 1005906c     <common>
 0003:00014070       _startToAsyncQueueTgtAppSvc 10059070     <common>
 0003:00014074       _getStatusFlags            10059074     <common>
 0003:00014078       _getCommService            10059078     <common>
 0003:0001407c       _getMemoryService          1005907c     <common>
 0003:00014080       _StreamVideo               10059080     <common>
 0003:00014084       _StopVideoDisplay          10059084     <common>
 0003:00014088       _StartVideoDisplay         10059088     <common>
 0003:0001408c       _DestroyVideoDisplay       1005908c     <common>
 0003:00014090       _CreateVideoDisplay        10059090     <common>
 0003:00014094       _ConvertUImage             10059094     <common>
 0003:00014098       _StopVideo                 10059098     <common>
 0003:0001409c       _ReadFrameBuffer           1005909c     <common>
 0003:000140a0       _StartVideo                100590a0     <common>
 0003:000140a4       _GetVideoConfigs           100590a4     <common>
 0003:000140a8       _FindUsbVideoDevice        100590a8     <common>
 0003:000140ac       _xpceDeleteSemaphore       100590ac     <common>
 0003:000140b0       _xpceSignalSemaphore       100590b0     <common>
 0003:000140b4       _xpceWaitSemaphore         100590b4     <common>
 0003:000140b8       _xpceCreateSemaphore       100590b8     <common>
 0003:000140bc       _TBGiveSpinFast            100590bc     <common>
 0003:000140c0       _TBTakeSpinFast            100590c0     <common>
 0003:000140c4       _TBDeleteSpin              100590c4     <common>
 0003:000140c8       _TBCreateSpin              100590c8     <common>
 0003:000140cc       _xpceScopeAcqOK            100590cc     <common>
 0003:000140d0       _rl32eRestartAcquisition   100590d0     <common>
 0003:000140d4       _rl32eSetTargetScopeSigFt  100590d4     <common>
 0003:000140d8       _rl32eSetTargetScope       100590d8     <common>
 0003:000140dc       _xpceFSScopeSet            100590dc     <common>
 0003:000140e0       _rl32eSetScope             100590e0     <common>
 0003:000140e4       _rl32eAddSignal            100590e4     <common>
 0003:000140e8       _rl32eGetSignalNo          100590e8     <common>
 0003:000140ec       _rl32eDefScope             100590ec     <common>
 0003:000140f0       _rl32eScopeExists          100590f0     <common>
 0003:000140f4       _xpceUDPClose              100590f4     <common>
 0003:000140f8       _xpceUDPReceive            100590f8     <common>
 0003:000140fc       _xpceUDPSend               100590fc     <common>
 0003:00014100       _xpceUDPOpenReceive        10059100     <common>
 0003:00014104       _xpceUDPOpenSend           10059104     <common>
 0003:00014108       _rl32eSendBlock            10059108     <common>
 0003:0001410c       _rl32eLineStatus           1005910c     <common>
 0003:00014110       _rl32eReceiveBufferCount   10059110     <common>
 0003:00014114       _rl32eReceiveChar          10059114     <common>
 0003:00014118       _rl32eSendChar             10059118     <common>
 0003:0001411c       _rl32eCloseCOMPort         1005911c     <common>
 0003:00014120       _rl32eInitCOMPort          10059120     <common>
 0003:00014124       _xpceGetParamDims          10059124     <common>
 0003:00014128       _xpceGetParameter          10059128     <common>
 0003:0001412c       _xpceSetParameter          1005912c     <common>
 0003:00014130       _xpceGetSignalValue        10059130     <common>
 0003:00014134       _xpceAssignPCIInterrupt    10059134     <common>
 0003:00014138       _rl32eGetPCIInfoAtSlot     10059138     <common>
 0003:0001413c       _rl32eGetPCIInfo           1005913c     <common>
 0003:00014140       _rl32eShowPCIInfo          10059140     <common>
 0003:00014144       _rl32eShowPCIDev           10059144     <common>
 0003:00014148       _xpceGetTET                10059148     <common>
 0003:0001414c       _xpceFTSubtract            1005914c     <common>
 0003:00014150       _xpceFTAdd                 10059150     <common>
 0003:00014154       _xpceFTReadTime            10059154     <common>
 0003:00014158       ___unguarded_readlc_active 10059158     <common>
 0003:00014168       ___setlc_active            10059168     <common>
 0003:0001416c       __nhandle                  1005916c     <common>
 0003:00014180       _encodedKERNEL32Functions  10059180     <common>
 0003:00014228       __debugger_hook_dummy      10059228     <common>
 0003:00014234       __pDestructExceptionObject 10059234     <common>
 0003:00014240       __acmdln                   10059240     <common>
 0003:00014260       __bufin                    10059260     <common>
 0003:0001559c       ___piob                    1005a59c     <common>
 0003:000155a0       __nstream                  1005a5a0     <common>
 0003:000155a4       ___dyn_tls_init_callback   1005a5a4     <common>
 0003:000155b4       ___onexitend               1005a5b4     <common>
 0003:000155b8       ___onexitbegin             1005a5b8     <common>
 0003:000155bc       ___mbctype_initialized     1005a5bc     <common>
 0003:000155c0       ___env_initialized         1005a5c0     <common>
 0004:00000000       __imp__GetModuleHandleA@4  1005b000     kernel32:KERNEL32.dll
 0004:00000004       __imp__GetProcAddress@8    1005b004     kernel32:KERNEL32.dll
 0004:00000008       __imp__HeapAlloc@12        1005b008     kernel32:KERNEL32.dll
 0004:0000000c       __imp__IsDebuggerPresent@0 1005b00c     kernel32:KERNEL32.dll
 0004:00000010       __imp__IsProcessorFeaturePresent@4 1005b010     kernel32:KERNEL32.dll
 0004:00000014       __imp__EncodePointer@4     1005b014     kernel32:KERNEL32.dll
 0004:00000018       __imp__DecodePointer@4     1005b018     kernel32:KERNEL32.dll
 0004:0000001c       __imp__GetLastError@0      1005b01c     kernel32:KERNEL32.dll
 0004:00000020       __imp__ExitProcess@4       1005b020     kernel32:KERNEL32.dll
 0004:00000024       __imp__GetModuleHandleExW@12 1005b024     kernel32:KERNEL32.dll
 0004:00000028       __imp__AreFileApisANSI@0   1005b028     kernel32:KERNEL32.dll
 0004:0000002c       __imp__MultiByteToWideChar@24 1005b02c     kernel32:KERNEL32.dll
 0004:00000030       __imp__WideCharToMultiByte@32 1005b030     kernel32:KERNEL32.dll
 0004:00000034       __imp__HeapFree@12         1005b034     kernel32:KERNEL32.dll
 0004:00000038       __imp__HeapReAlloc@16      1005b038     kernel32:KERNEL32.dll
 0004:0000003c       __imp__EnterCriticalSection@4 1005b03c     kernel32:KERNEL32.dll
 0004:00000040       __imp__LeaveCriticalSection@4 1005b040     kernel32:KERNEL32.dll
 0004:00000044       __imp__GetStdHandle@4      1005b044     kernel32:KERNEL32.dll
 0004:00000048       __imp__GetFileType@4       1005b048     kernel32:KERNEL32.dll
 0004:0000004c       __imp__GetModuleFileNameW@12 1005b04c     kernel32:KERNEL32.dll
 0004:00000050       __imp__WriteConsoleW@20    1005b050     kernel32:KERNEL32.dll
 0004:00000054       __imp__GetCommandLineA@0   1005b054     kernel32:KERNEL32.dll
 0004:00000058       __imp__GetCurrentThreadId@0 1005b058     kernel32:KERNEL32.dll
 0004:0000005c       __imp__WriteFile@20        1005b05c     kernel32:KERNEL32.dll
 0004:00000060       __imp__GetProcessHeap@0    1005b060     kernel32:KERNEL32.dll
 0004:00000064       __imp__UnhandledExceptionFilter@4 1005b064     kernel32:KERNEL32.dll
 0004:00000068       __imp__SetUnhandledExceptionFilter@4 1005b068     kernel32:KERNEL32.dll
 0004:0000006c       __imp__SetLastError@4      1005b06c     kernel32:KERNEL32.dll
 0004:00000070       __imp__InitializeCriticalSectionAndSpinCount@8 1005b070     kernel32:KERNEL32.dll
 0004:00000074       __imp__CreateEventW@16     1005b074     kernel32:KERNEL32.dll
 0004:00000078       __imp__Sleep@4             1005b078     kernel32:KERNEL32.dll
 0004:0000007c       __imp__GetCurrentProcess@0 1005b07c     kernel32:KERNEL32.dll
 0004:00000080       __imp__TerminateProcess@8  1005b080     kernel32:KERNEL32.dll
 0004:00000084       __imp__TlsAlloc@0          1005b084     kernel32:KERNEL32.dll
 0004:00000088       __imp__TlsGetValue@4       1005b088     kernel32:KERNEL32.dll
 0004:0000008c       __imp__TlsSetValue@8       1005b08c     kernel32:KERNEL32.dll
 0004:00000090       __imp__TlsFree@4           1005b090     kernel32:KERNEL32.dll
 0004:00000094       __imp__GetStartupInfoW@4   1005b094     kernel32:KERNEL32.dll
 0004:00000098       __imp__GetTickCount@0      1005b098     kernel32:KERNEL32.dll
 0004:0000009c       __imp__GetModuleHandleW@4  1005b09c     kernel32:KERNEL32.dll
 0004:000000a0       __imp__CreateSemaphoreW@16 1005b0a0     kernel32:KERNEL32.dll
 0004:000000a4       __imp__DeleteCriticalSection@4 1005b0a4     kernel32:KERNEL32.dll
 0004:000000a8       __imp__FatalAppExitA@8     1005b0a8     kernel32:KERNEL32.dll
 0004:000000ac       __imp__SetConsoleCtrlHandler@8 1005b0ac     kernel32:KERNEL32.dll
 0004:000000b0       __imp__FreeLibrary@4       1005b0b0     kernel32:KERNEL32.dll
 0004:000000b4       __imp__LoadLibraryExW@12   1005b0b4     kernel32:KERNEL32.dll
 0004:000000b8       __imp__IsValidCodePage@4   1005b0b8     kernel32:KERNEL32.dll
 0004:000000bc       __imp__GetACP@0            1005b0bc     kernel32:KERNEL32.dll
 0004:000000c0       __imp__GetOEMCP@0          1005b0c0     kernel32:KERNEL32.dll
 0004:000000c4       __imp__GetCPInfo@8         1005b0c4     kernel32:KERNEL32.dll
 0004:000000c8       __imp__CloseHandle@4       1005b0c8     kernel32:KERNEL32.dll
 0004:000000cc       __imp__RtlUnwind@16        1005b0cc     kernel32:KERNEL32.dll
 0004:000000d0       __imp__ReadFile@20         1005b0d0     kernel32:KERNEL32.dll
 0004:000000d4       __imp__GetConsoleMode@8    1005b0d4     kernel32:KERNEL32.dll
 0004:000000d8       __imp__ReadConsoleW@20     1005b0d8     kernel32:KERNEL32.dll
 0004:000000dc       __imp__GetConsoleCP@0      1005b0dc     kernel32:KERNEL32.dll
 0004:000000e0       __imp__DeleteFileW@4       1005b0e0     kernel32:KERNEL32.dll
 0004:000000e4       __imp__SetFilePointerEx@20 1005b0e4     kernel32:KERNEL32.dll
 0004:000000e8       __imp__RaiseException@16   1005b0e8     kernel32:KERNEL32.dll
 0004:000000ec       __imp__OutputDebugStringW@4 1005b0ec     kernel32:KERNEL32.dll
 0004:000000f0       __imp__GetCurrentThread@0  1005b0f0     kernel32:KERNEL32.dll
 0004:000000f4       __imp__GetModuleFileNameA@12 1005b0f4     kernel32:KERNEL32.dll
 0004:000000f8       __imp__QueryPerformanceCounter@4 1005b0f8     kernel32:KERNEL32.dll
 0004:000000fc       __imp__GetCurrentProcessId@0 1005b0fc     kernel32:KERNEL32.dll
 0004:00000100       __imp__GetSystemTimeAsFileTime@4 1005b100     kernel32:KERNEL32.dll
 0004:00000104       __imp__GetEnvironmentStringsW@0 1005b104     kernel32:KERNEL32.dll
 0004:00000108       __imp__FreeEnvironmentStringsW@4 1005b108     kernel32:KERNEL32.dll
 0004:0000010c       __imp__HeapSize@12         1005b10c     kernel32:KERNEL32.dll
 0004:00000110       __imp__GetDateFormatW@24   1005b110     kernel32:KERNEL32.dll
 0004:00000114       __imp__GetTimeFormatW@24   1005b114     kernel32:KERNEL32.dll
 0004:00000118       __imp__CompareStringW@24   1005b118     kernel32:KERNEL32.dll
 0004:0000011c       __imp__LCMapStringW@24     1005b11c     kernel32:KERNEL32.dll
 0004:00000120       __imp__GetLocaleInfoW@16   1005b120     kernel32:KERNEL32.dll
 0004:00000124       __imp__IsValidLocale@8     1005b124     kernel32:KERNEL32.dll
 0004:00000128       __imp__GetUserDefaultLCID@0 1005b128     kernel32:KERNEL32.dll
 0004:0000012c       __imp__EnumSystemLocalesW@8 1005b12c     kernel32:KERNEL32.dll
 0004:00000130       __imp__GetStringTypeW@16   1005b130     kernel32:KERNEL32.dll
 0004:00000134       __imp__FlushFileBuffers@4  1005b134     kernel32:KERNEL32.dll
 0004:00000138       __imp__SetStdHandle@8      1005b138     kernel32:KERNEL32.dll
 0004:0000013c       __imp__CreateFileW@28      1005b13c     kernel32:KERNEL32.dll
 0004:00000140       __imp__SetEndOfFile@4      1005b140     kernel32:KERNEL32.dll
 0004:00000144       \177KERNEL32_NULL_THUNK_DATA 1005b144     kernel32:KERNEL32.dll
 0004:000001b0       __IMPORT_DESCRIPTOR_KERNEL32 1005b1b0     kernel32:KERNEL32.dll
 0004:000001c4       __NULL_IMPORT_DESCRIPTOR   1005b1c4     kernel32:KERNEL32.dll

 entry point at        0001:0000ec83

