 CenterLimit_xpc

 Timestamp is 5863f99a (Wed Dec 28 12:42:50 2016)

 Preferred load address is 10000000

 Start         Length     Name                   Class
 0001:00000000 0003c764H .text$mn                CODE
 0002:00000000 00000104H .CRT$XCA                DATA
 0002:00000104 00000104H .CRT$XCZ                DATA
 0002:00000208 00000104H .CRT$XIA                DATA
 0002:0000030c 00000113H .CRT$XIC                DATA
 0002:00000420 00000104H .CRT$XIZ                DATA
 0002:00000524 00000104H .CRT$XPA                DATA
 0002:00000628 00000109H .CRT$XPX                DATA
 0002:00000734 00000104H .CRT$XPXA               DATA
 0002:00000838 00000104H .CRT$XPZ                DATA
 0002:0000093c 00000104H .CRT$XTA                DATA
 0002:00000a40 00000104H .CRT$XTZ                DATA
 0002:00000b50 0000a400H .rdata                  DATA
 0002:0000af50 000001a8H .rdata$debug            DATA
 0002:0000b100 0000010eH .rdata$sxdata           DATA
 0002:0000b210 00000104H .rtc$IAA                DATA
 0002:0000b314 00000104H .rtc$IZZ                DATA
 0002:0000b418 00000104H .rtc$TAA                DATA
 0002:0000b51c 00000104H .rtc$TZZ                DATA
 0002:0000b620 00000991H .xdata$x                DATA
 0002:0000bfc0 00000218H .edata                  DATA
 0003:00000000 000022c9H .data                   DATA
 0003:000022e0 000164a4H .bss                    DATA
 0004:00000000 000001b0H .idata$5                DATA
 0004:000001b0 00000014H .idata$2                DATA
 0004:000001c4 00000014H .idata$3                DATA
 0004:000001d8 000001b0H .idata$4                DATA
 0004:00000388 0000076bH .idata$6                DATA

  Address         Publics by Value              Rva+Base       Lib:Object

 0000:00000000       ___guard_flags             00000000     <absolute>
 0000:00000000       ___guard_fids_table        00000000     <absolute>
 0000:00000000       ___guard_fids_count        00000000     <absolute>
 0000:00000000       __except_list              00000000     <absolute>
 0000:00000003       ___safe_se_handler_count   00000003     <absolute>
 0000:00000000       ___ImageBase               10000000     <linker-defined>
 0001:00000320       _CenterLimit               10001320 f   CenterLimit.obj
 0001:00001d10       _MdlInitialize             10002d10 f   CenterLimit.obj
 0001:00001d20       _MdlInitializeSampleTimes  10002d20 f   CenterLimit.obj
 0001:00001d30       _MdlInitializeSizes        10002d30 f   CenterLimit.obj
 0001:00001d40       _MdlOutputs                10002d40 f   CenterLimit.obj
 0001:00001d50       _MdlStart                  10002d50 f   CenterLimit.obj
 0001:00001d60       _MdlTerminate              10002d60 f   CenterLimit.obj
 0001:00001d70       _MdlUpdate                 10002d70 f   CenterLimit.obj
 0001:00001e00       _CenterLimit_GetCAPIStaticMap 10002e00 f   CenterLimit_capi.obj
 0001:00001e10       _CenterLimit_InitializeDataMapInfo 10002e10 f   CenterLimit_capi.obj
 0001:00001ea0       _TgtConnBackgroundTask     10002ea0 f   CenterLimit_tgtconn.obj
 0001:00001eb0       _TgtConnInit               10002eb0 f   CenterLimit_tgtconn.obj
 0001:00001ed0       _TgtConnPostStep           10002ed0 f   CenterLimit_tgtconn.obj
 0001:00001ee0       _TgtConnPreStep            10002ee0 f   CenterLimit_tgtconn.obj
 0001:00001ef0       _TgtConnTerm               10002ef0 f   CenterLimit_tgtconn.obj
 0001:00001f00       _rtGetInf                  10002f00 f   rtGetInf.obj
 0001:00001f30       _rtGetInfF                 10002f30 f   rtGetInf.obj
 0001:00001f50       _rtGetMinusInf             10002f50 f   rtGetInf.obj
 0001:00001f80       _rtGetMinusInfF            10002f80 f   rtGetInf.obj
 0001:00001fa0       _rtGetNaN                  10002fa0 f   rtGetNaN.obj
 0001:00001fd0       _rtGetNaNF                 10002fd0 f   rtGetNaN.obj
 0001:00002900       _rt_CreateLogVar           10003900 f   rt_logging.obj
 0001:00002990       _rt_CreateLogVarWithConvert 10003990 f   rt_logging.obj
 0001:00003310       _rt_CreateStructLogVar     10004310 f   rt_logging.obj
 0001:00004080       _rt_GetMxIdFromDTypeId     10005080 f   rt_logging.obj
 0001:000040b0       _rt_GetMxIdFromDTypeIdForRSim 100050b0 f   rt_logging.obj
 0001:000069f0       _rt_StartDataLogging       100079f0 f   rt_logging.obj
 0001:00006eb0       _rt_StartDataLoggingWithStartTime 10007eb0 f   rt_logging.obj
 0001:00007810       _rt_StopDataLogging        10008810 f   rt_logging.obj
 0001:00007830       _rt_StopDataLoggingImpl    10008830 f   rt_logging.obj
 0001:00007b50       _rt_UpdateLogVar           10008b50 f   rt_logging.obj
 0001:00008f10       _rt_UpdateStructLogVar     10009f10 f   rt_logging.obj
 0001:00008fa0       _rt_UpdateTXXFYLogVars     10009fa0 f   rt_logging.obj
 0001:000092e0       _rt_UpdateTXYLogVars       1000a2e0 f   rt_logging.obj
 0001:00009530       _rt_CleanUpForStateLogWithMMI 1000a530 f   rt_logging_mmi.obj
 0001:00009640       _rt_FillStateSigInfoFromMMI 1000a640 f   rt_logging_mmi.obj
 0001:000099f0       _rt_mxCreateCharMatrixFromStrings 1000a9f0 f   rt_matrx.obj
 0001:00009b40       _rt_mxCreateDoubleMatrix   1000ab40 f   rt_matrx.obj
 0001:00009ba0       _rt_mxCreateNumericArray   1000aba0 f   rt_matrx.obj
 0001:00009c20       _rt_mxCreateString         1000ac20 f   rt_matrx.obj
 0001:00009cb0       _rt_mxDuplicateArray       1000acb0 f   rt_matrx.obj
 0001:00009d10       _rt_mxGetDimensions        1000ad10 f   rt_matrx.obj
 0001:00009d50       _rt_mxGetEps               1000ad50 f   rt_matrx.obj
 0001:00009d60       _rt_mxGetString            1000ad60 f   rt_matrx.obj
 0001:00009de0       _rtIsInf                   1000ade0 f   rt_nonfinite.obj
 0001:00009e20       _rtIsInfF                  1000ae20 f   rt_nonfinite.obj
 0001:00009e60       _rtIsNaN                   1000ae60 f   rt_nonfinite.obj
 0001:00009e80       _rtIsNaNF                  1000ae80 f   rt_nonfinite.obj
 0001:00009ea0       _rt_InitInfAndNaN          1000aea0 f   rt_nonfinite.obj
 0001:00009f00       _rtPrintfNoOp              1000af00 f   rt_printf.obj
 0001:00009f10       _rtwCAPI_CountSysRan       1000af10 f   rtw_modelmap_utils.obj
 0001:00009fb0       _rtwCAPI_EncodePath        1000afb0 f   rtw_modelmap_utils.obj
 0001:0000a0a0       _rtwCAPI_FillSysRan        1000b0a0 f   rtw_modelmap_utils.obj
 0001:0000a190       _rtwCAPI_FreeFullPaths     1000b190 f   rtw_modelmap_utils.obj
 0001:0000a220       _rtwCAPI_GetFullStateBlockPath 1000b220 f   rtw_modelmap_utils.obj
 0001:0000a3d0       _rtwCAPI_GetNumContStateRecords 1000b3d0 f   rtw_modelmap_utils.obj
 0001:0000a490       _rtwCAPI_GetNumSigLogRecords 1000b490 f   rtw_modelmap_utils.obj
 0001:0000a4e0       _rtwCAPI_GetNumSigLogRecordsForRTWLogging 1000b4e0 f   rtw_modelmap_utils.obj
 0001:0000a570       _rtwCAPI_GetNumStateRecords 1000b570 f   rtw_modelmap_utils.obj
 0001:0000a5c0       _rtwCAPI_GetNumStateRecordsForRTWLogging 1000b5c0 f   rtw_modelmap_utils.obj
 0001:0000a650       _rtwCAPI_GetSigAddrFromMap 1000b650 f   rtw_modelmap_utils.obj
 0001:0000a710       _rtwCAPI_GetSigLogRecordInfo 1000b710 f   rtw_modelmap_utils.obj
 0001:0000ab40       _rtwCAPI_GetStateRecordInfo 1000bb40 f   rtw_modelmap_utils.obj
 0001:0000aff0       _rtwCAPI_GetStateWidth     1000bff0 f   rtw_modelmap_utils.obj
 0001:0000b050       _rtwCAPI_HasStates         1000c050 f   rtw_modelmap_utils.obj
 0001:0000b0c0       _rtwCAPI_UpdateFullPaths   1000c0c0 f   rtw_modelmap_utils.obj
 0001:0000b2a0       _CenterLimit_ChangeStepSize 1000c2a0 f   xpctarget.obj
 0001:0000b2f0       _DllMain@12                1000c2f0 f   xpctarget.obj
 0001:0000b300       _SLRTSetErrorStatus        1000c300 f   xpctarget.obj
 0001:0000b320       _changeStepSize            1000c320 f   xpctarget.obj
 0001:0000b370       _getDLMVersion             1000c370 f   xpctarget.obj
 0001:0000b380       _getRefMdlPath             1000c380 f   xpctarget.obj
 0001:0000b400       _getRefMdlSignalNumber     1000c400 f   xpctarget.obj
 0001:0000b4b0       _getrlmdlinfo              1000c4b0 f   xpctarget.obj
 0001:0000b690       _updateDiscreteEvents      1000c690 f   xpctarget.obj
 0001:0000b6a0       _getNumRef                 1000c6a0 f   appmappingData.obj
 0001:0000baa0       _dacbpcidda0x12            1000caa0 f   dacbpcidda0x12.obj
 0001:0000c640       _dipci8255                 1000d640 f   dipci8255.obj
 0001:0000d1e0       _dopci8255                 1000e1e0 f   dopci8255.obj
 0001:0000e0f0       _GetPCIDeviceFull          1000f0f0 f   xpcruntime:xpcimports.obj
 0001:0000e120       _ShowPCIDevice             1000f120 f   xpcruntime:xpcimports.obj
 0001:0000e790       _xpcGetPciConfigAtSlot     1000f790 f   xpcruntime:xpcimports.obj
 0001:0000ea10       _xpcInitProcs              1000fa10 f   xpcruntime:xpcimports.obj
 0001:0000f570       _xpceuploadevent           10010570 f   xpcruntime:xpcimports.obj
 0001:0000f571       __heap_alloc               10010571 f i LIBCMT:malloc.obj
 0001:0000f5ae       _malloc                    100105ae f   LIBCMT:malloc.obj
 0001:0000f640       _memset                    10010640 f   LIBCMT:memset.obj
 0001:0000f6d0       __fpmath                   100106d0 f   LIBCMT:fpinit.obj
 0001:0000f6e7       ___setfflag                100106e7 f   LIBCMT:fpinit.obj
 0001:0000f6fa       __cfltcvt_init             100106fa f   LIBCMT:fpinit.obj
 0001:0000f75a       ___raise_securityfailure   1001075a f   LIBCMT:gs_report.obj
 0001:0000f797       ___report_gsfailure        10010797 f   LIBCMT:gs_report.obj
 0001:0000f892       ___report_rangecheckfailure 10010892 f   LIBCMT:gs_report.obj
 0001:0000f89e       ___report_securityfailure  1001089e f   LIBCMT:gs_report.obj
 0001:0000f96e       ___report_securityfailureEx 1001096e f   LIBCMT:gs_report.obj
 0001:0000fa84       ___copy_path_to_wide_string 10010a84 f   LIBCMT:crt0dat.obj
 0001:0000fb36       ___copy_to_char            10010b36 f   LIBCMT:crt0dat.obj
 0001:0000fbeb       ___crtCorExitProcess       10010beb f   LIBCMT:crt0dat.obj
 0001:0000fc1f       ___crtExitProcess          10010c1f f   LIBCMT:crt0dat.obj
 0001:0000fc35       ___freeCrtMemory           10010c35 f   LIBCMT:crt0dat.obj
 0001:0000fd42       __amsg_exit                10010d42 f   LIBCMT:crt0dat.obj
 0001:0000fd5e       __c_exit                   10010d5e f   LIBCMT:crt0dat.obj
 0001:0000fd6d       __cexit                    10010d6d f   LIBCMT:crt0dat.obj
 0001:0000fd7c       __cinit                    10010d7c f   LIBCMT:crt0dat.obj
 0001:0000fe00       __exit                     10010e00 f   LIBCMT:crt0dat.obj
 0001:0000fe14       __exit_app                 10010e14 f   LIBCMT:crt0dat.obj
 0001:0000fe22       __get_pgmptr               10010e22 f   LIBCMT:crt0dat.obj
 0001:0000fe51       __get_wpgmptr              10010e51 f   LIBCMT:crt0dat.obj
 0001:0000fe80       __init_pointers            10010e80 f   LIBCMT:crt0dat.obj
 0001:0000feee       __initterm_e               10010eee f   LIBCMT:crt0dat.obj
 0001:0000ff10       __lockexit                 10010f10 f   LIBCMT:crt0dat.obj
 0001:0000ff19       __unlockexit               10010f19 f   LIBCMT:crt0dat.obj
 0001:00010051       _exit                      10011051 f   LIBCMT:crt0dat.obj
 0001:00010065       _calloc                    10011065 f   LIBCMT:calloc.obj
 0001:000100a5       _free                      100110a5 f   LIBCMT:free.obj
 0001:000100dd       _realloc                   100110dd f   LIBCMT:realloc.obj
 0001:00010190       _memmove                   10011190 f   LIBCMT:memmove.obj
 0001:000107e0       _strchr                    100117e0 f   LIBCMT:strchr.obj
 0001:0001084e       ___from_strstr_to_strchr   1001184e     LIBCMT:strchr.obj
 0001:00010910       _strncat                   10011910 f   LIBCMT:strncat.obj
 0001:00010a50       _strncpy                   10011a50 f   LIBCMT:strncpy.obj
 0001:00010b74       ___initstdio               10011b74 f   LIBCMT:_file.obj
 0001:00010be7       ___endstdio                10011be7 f   LIBCMT:_file.obj
 0001:00010c0e       ___iob_func                10011c0e f   LIBCMT:_file.obj
 0001:00010c14       __lock_file                10011c14 f   LIBCMT:_file.obj
 0001:00010c53       __lock_file2               10011c53 f   LIBCMT:_file.obj
 0001:00010c83       __unlock_file              10011c83 f   LIBCMT:_file.obj
 0001:00010cbd       __unlock_file2             10011cbd f   LIBCMT:_file.obj
 0001:00010cea       __fclose_nolock            10011cea f   LIBCMT:fclose.obj
 0001:00010d56       _fclose                    10011d56 f   LIBCMT:fclose.obj
 0001:00010dcd       __fsopen                   10011dcd f   LIBCMT:fopen.obj
 0001:00010e91       _fopen                     10011e91 f   LIBCMT:fopen.obj
 0001:00010ea6       _fopen_s                   10011ea6 f   LIBCMT:fopen.obj
 0001:00010eeb       __fprintf_l                10011eeb f   LIBCMT:fprintf.obj
 0001:00010f05       __fprintf_p                10011f05 f   LIBCMT:fprintf.obj
 0001:00010f1e       __fprintf_p_l              10011f1e f   LIBCMT:fprintf.obj
 0001:00010f38       __fprintf_s_l              10011f38 f   LIBCMT:fprintf.obj
 0001:00010f52       _fprintf                   10011f52 f   LIBCMT:fprintf.obj
 0001:00011064       _fprintf_s                 10012064 f   LIBCMT:fprintf.obj
 0001:0001107d       __fread_nolock             1001207d f   LIBCMT:fread.obj
 0001:00011098       __fread_nolock_s           10012098 f   LIBCMT:fread.obj
 0001:0001125d       _fread                     1001225d f   LIBCMT:fread.obj
 0001:00011278       _fread_s                   10012278 f   LIBCMT:fread.obj
 0001:00011309       __fwrite_nolock            10012309 f   LIBCMT:fwrite.obj
 0001:00011462       _fwrite                    10012462 f   LIBCMT:fwrite.obj
 0001:000114e4       __get_printf_count_output  100124e4 f   LIBCMT:printf.obj
 0001:000114f9       __printf_l                 100124f9 f   LIBCMT:printf.obj
 0001:00011510       __printf_p                 10012510 f   LIBCMT:printf.obj
 0001:00011526       __printf_p_l               10012526 f   LIBCMT:printf.obj
 0001:0001153d       __printf_s_l               1001253d f   LIBCMT:printf.obj
 0001:00011554       __set_printf_count_output  10012554 f   LIBCMT:printf.obj
 0001:0001157c       _printf                    1001257c f   LIBCMT:printf.obj
 0001:0001162b       _printf_s                  1001262b f   LIBCMT:printf.obj
 0001:00011641       __unlink                   10012641 f   LIBCMT:unlink.obj
 0001:0001164a       _remove                    1001264a f   LIBCMT:unlink.obj
 0001:0001168c       _rewind                    1001268c f   LIBCMT:rewind.obj
 0001:0001174b       __scprintf                 1001274b f   LIBCMT:sprintf.obj
 0001:0001175e       __scprintf_l               1001275e f   LIBCMT:sprintf.obj
 0001:00011775       __scprintf_p               10012775 f   LIBCMT:sprintf.obj
 0001:00011788       __scprintf_p_l             10012788 f   LIBCMT:sprintf.obj
 0001:0001179f       __snprintf_s               1001279f f   LIBCMT:sprintf.obj
 0001:000117be       __snprintf_s_l             100127be f   LIBCMT:sprintf.obj
 0001:000117de       __sprintf_l                100127de f   LIBCMT:sprintf.obj
 0001:000117f8       __sprintf_p                100127f8 f   LIBCMT:sprintf.obj
 0001:00011814       __sprintf_p_l              10012814 f   LIBCMT:sprintf.obj
 0001:00011831       __sprintf_s_l              10012831 f   LIBCMT:sprintf.obj
 0001:0001184e       _sprintf                   1001284e f   LIBCMT:sprintf.obj
 0001:000118d2       _sprintf_s                 100128d2 f   LIBCMT:sprintf.obj
 0001:000118ee       _ldexp                     100128ee f   LIBCMT:ldexp.obj
 0001:00011ada       @__security_check_cookie@4 10012ada f   LIBCMT:secchk.obj
 0001:00011af0       __ftoui3                   10012af0 f   LIBCMT:ftol3.obj
 0001:00011aff       __ftoul3                   10012aff f   LIBCMT:ftol3.obj
 0001:00011b0e       __ftol3                    10012b0e f   LIBCMT:ftol3.obj
 0001:00011b1b       __ftol3_NaN                10012b1b f   LIBCMT:ftol3.obj
 0001:00011b33       __ftol3_work               10012b33 f   LIBCMT:ftol3.obj
 0001:00011bb9       __ftol3_common             10012bb9 f   LIBCMT:ftol3.obj
 0001:00011c7b       __ftol3_arg_error          10012c7b f   LIBCMT:ftol3.obj
 0001:00011c8d       __ftol3_except             10012c8d f   LIBCMT:ftol3.obj
 0001:00011ccf       __dtoui3                   10012ccf f   LIBCMT:ftol3.obj
 0001:00011cde       __dtoul3                   10012cde f   LIBCMT:ftol3.obj
 0001:00011ced       __dtol3                    10012ced f   LIBCMT:ftol3.obj
 0001:00011cfa       __dtol3_NaN                10012cfa f   LIBCMT:ftol3.obj
 0001:00011d17       __dtol3_work               10012d17 f   LIBCMT:ftol3.obj
 0001:00011dfc       __ultod3                   10012dfc f   LIBCMT:ftol3.obj
 0001:00011e8d       __ltod3                    10012e8d f   LIBCMT:ftol3.obj
 0001:00011ec0       _memcpy                    10012ec0 f   LIBCMT:memcpy.obj
 0001:00012504       ___isa_available_init      10013504 f   LIBCMT:cpu_disp.obj
 0001:0001267d       __invoke_watson_if_error   1001367d f i LIBCMT:wassert.obj
 0001:0001269d       __wassert                  1001369d f   LIBCMT:wassert.obj
 0001:00012d41       __CRT_INIT@12              10013d41 f   LIBCMT:dllcrt0.obj
 0001:00012eb3       __DllMainCRTStartup@12     10013eb3 f   LIBCMT:dllcrt0.obj
 0001:00012fe4       ___DllXcptFilter           10013fe4 f   LIBCMT:dllcrt0.obj
 0001:00013009       ?_query_new_handler@@YAP6AHI@ZXZ 10014009 f   LIBCMT:handler.obj
 0001:00013016       ?_set_new_handler@@YAP6AHI@ZH@Z 10014016 f   LIBCMT:handler.obj
 0001:0001301f       ?_set_new_handler@@YAP6AHI@ZP6AHI@Z@Z 1001401f f   LIBCMT:handler.obj
 0001:00013054       __callnewh                 10014054 f   LIBCMT:handler.obj
 0001:0001307a       __initp_heap_handler       1001407a f   LIBCMT:handler.obj
 0001:00013087       __FF_MSGBANNER             10014087 f   LIBCMT:crt0msg.obj
 0001:000130c0       __GET_RTERRMSG             100140c0 f   LIBCMT:crt0msg.obj
 0001:000130e4       __NMSG_WRITE               100140e4 f   LIBCMT:crt0msg.obj
 0001:000132a1       ___doserrno                100142a1 f   LIBCMT:dosmap.obj
 0001:000132b4       __dosmaperr                100142b4 f   LIBCMT:dosmap.obj
 0001:000132d5       __errno                    100142d5 f   LIBCMT:dosmap.obj
 0001:000132e8       __get_doserrno             100142e8 f   LIBCMT:dosmap.obj
 0001:0001330b       __get_errno                1001430b f   LIBCMT:dosmap.obj
 0001:0001332e       __get_errno_from_oserr     1001432e f   LIBCMT:dosmap.obj
 0001:0001336f       __set_doserrno             1001436f f   LIBCMT:dosmap.obj
 0001:0001338e       __set_errno                1001438e f   LIBCMT:dosmap.obj
 0001:000133ad       __get_heap_handle          100143ad f   LIBCMT:heapinit.obj
 0001:000133b3       __heap_init                100143b3 f   LIBCMT:heapinit.obj
 0001:000133c8       __heap_term                100143c8 f   LIBCMT:heapinit.obj
 0001:000133d0       __VEC_memset               100143d0 f   LIBCMT:p4_memset.obj
 0001:00013498       ??0_LocaleUpdate@@QAE@PAUlocaleinfo_struct@@@Z 10014498 f i LIBCMT:cvt.obj
 0001:00013520       ??1_LocaleUpdate@@QAE@XZ   10014520 f i LIBCMT:cvt.obj
 0001:0001352e       ?GetLocaleT@_LocaleUpdate@@QAEPAUlocaleinfo_struct@@XZ 1001452e f i LIBCMT:cvt.obj
 0001:00013531       ?strrchr@@YAPADPADH@Z      10014531 f i LIBCMT:cvt.obj
 0001:0001353a       __cfltcvt                  1001453a f   LIBCMT:cvt.obj
 0001:0001355b       __cfltcvt_l                1001455b f   LIBCMT:cvt.obj
 0001:000135e1       __cftoa                    100145e1 f   LIBCMT:cvt.obj
 0001:000135ff       __cftoa_l                  100145ff f   LIBCMT:cvt.obj
 0001:0001395b       __cftoe                    1001495b f   LIBCMT:cvt.obj
 0001:00013aca       __cftoe_l                  10014aca f   LIBCMT:cvt.obj
 0001:00013b98       __cftof                    10014b98 f   LIBCMT:cvt.obj
 0001:00013c9f       __cftof_l                  10014c9f f   LIBCMT:cvt.obj
 0001:00013d60       __cftog                    10014d60 f   LIBCMT:cvt.obj
 0001:00013d7e       __cftog_l                  10014d7e f   LIBCMT:cvt.obj
 0001:00013e7d       __cropzeros                10014e7d f   LIBCMT:cvt.obj
 0001:00013e8e       __cropzeros_l              10014e8e f   LIBCMT:cvt.obj
 0001:00013f0e       __fassign                  10014f0e f   LIBCMT:cvt.obj
 0001:00013f26       __fassign_l                10014f26 f   LIBCMT:cvt.obj
 0001:00013f68       __forcdecpt                10014f68 f   LIBCMT:cvt.obj
 0001:00013f79       __forcdecpt_l              10014f79 f   LIBCMT:cvt.obj
 0001:00013fed       __positive                 10014fed f   LIBCMT:cvt.obj
 0001:0001402f       __setdefaultprecision      1001502f f   LIBCMT:fp8.obj
 0001:00014056       __initp_misc_cfltcvt_tab   10015056 f   LIBCMT:cmiscdat.obj
 0001:00014075       __crt_debugger_hook        10015075 f   LIBCMT:dbghook.obj
 0001:000140aa       ___crtCloseThreadpoolTimer 100150aa f   LIBCMT:winapisupp.obj
 0001:000140c1       ___crtCloseThreadpoolWait  100150c1 f   LIBCMT:winapisupp.obj
 0001:000140d8       ___crtCreateEventExW       100150d8 f   LIBCMT:winapisupp.obj
 0001:00014113       ___crtCreateSemaphoreExW   10015113 f   LIBCMT:winapisupp.obj
 0001:0001414d       ___crtCreateSymbolicLinkW  1001514d f   LIBCMT:winapisupp.obj
 0001:00014176       ___crtCreateThreadpoolTimer 10015176 f   LIBCMT:winapisupp.obj
 0001:00014197       ___crtCreateThreadpoolWait 10015197 f   LIBCMT:winapisupp.obj
 0001:000141b8       ___crtFlsAlloc             100151b8 f   LIBCMT:winapisupp.obj
 0001:000141d6       ___crtFlsFree              100151d6 f   LIBCMT:winapisupp.obj
 0001:000141f5       ___crtFlsGetValue          100151f5 f   LIBCMT:winapisupp.obj
 0001:00014214       ___crtFlsSetValue          10015214 f   LIBCMT:winapisupp.obj
 0001:00014236       ___crtFlushProcessWriteBuffers 10015236 f   LIBCMT:winapisupp.obj
 0001:00014246       ___crtFreeLibraryWhenCallbackReturns 10015246 f   LIBCMT:winapisupp.obj
 0001:00014260       ___crtGetCurrentProcessorNumber 10015260 f   LIBCMT:winapisupp.obj
 0001:00014272       ___crtGetFileInformationByHandleEx 10015272 f   LIBCMT:winapisupp.obj
 0001:0001429e       ___crtGetLogicalProcessorInformation 1001529e f   LIBCMT:winapisupp.obj
 0001:000142c4       ___crtGetShowWindowMode    100152c4 f   LIBCMT:winapisupp.obj
 0001:000142e7       ___crtGetTickCount64       100152e7 f   LIBCMT:winapisupp.obj
 0001:000142ff       ___crtInitializeCriticalSectionEx 100152ff f   LIBCMT:winapisupp.obj
 0001:0001432d       ___crtIsPackagedApp        1001532d f   LIBCMT:winapisupp.obj
 0001:0001436d       ___crtLoadWinApiPointers   1001536d f   LIBCMT:winapisupp.obj
 0001:000145f8       ___crtSetFileInformationByHandle 100155f8 f   LIBCMT:winapisupp.obj
 0001:00014624       ___crtSetThreadStackGuarantee 10015624 f   LIBCMT:winapisupp.obj
 0001:0001463f       ___crtSetThreadpoolTimer   1001563f f   LIBCMT:winapisupp.obj
 0001:0001465f       ___crtSetThreadpoolWait    1001565f f   LIBCMT:winapisupp.obj
 0001:0001467c       ___crtSetUnhandledExceptionFilter 1001567c f   LIBCMT:winapisupp.obj
 0001:0001468a       ___crtSleep                1001568a f   LIBCMT:winapisupp.obj
 0001:00014698       ___crtTerminateProcess     10015698 f   LIBCMT:winapisupp.obj
 0001:000146ad       ___crtUnhandledException   100156ad f   LIBCMT:winapisupp.obj
 0001:000146c3       ___crtWaitForThreadpoolTimerCallbacks 100156c3 f   LIBCMT:winapisupp.obj
 0001:000146dd       ?_invalid_parameter@@YAXPBG00II@Z 100156dd f   LIBCMT:invarg.obj
 0001:000146e2       ?_invoke_watson@@YAXPBG00II@Z 100156e2 f   LIBCMT:invarg.obj
 0001:000146fa       __call_reportfault         100156fa f   LIBCMT:invarg.obj
 0001:0001481f       __get_invalid_parameter_handler 1001581f f   LIBCMT:invarg.obj
 0001:0001482c       __initp_misc_invarg        1001582c f   LIBCMT:invarg.obj
 0001:00014839       __invalid_parameter        10015839 f   LIBCMT:invarg.obj
 0001:00014864       __invalid_parameter_noinfo 10015864 f   LIBCMT:invarg.obj
 0001:00014874       __invalid_parameter_noinfo_noreturn 10015874 f   LIBCMT:invarg.obj
 0001:0001488f       __invoke_watson            1001588f f   LIBCMT:invarg.obj
 0001:000148ba       __set_invalid_parameter_handler 100158ba f   LIBCMT:invarg.obj
 0001:000148df       __RTC_Initialize           100158df f   LIBCMT:initsect.obj
 0001:000148ff       __RTC_Terminate            100158ff f   LIBCMT:initsect.obj
 0001:0001491f       __lock                     1001591f f   LIBCMT:mlock.obj
 0001:00014953       __lockerr_exit             10015953 f   LIBCMT:mlock.obj
 0001:00014973       __mtdeletelocks            10015973 f   LIBCMT:mlock.obj
 0001:000149c7       __mtinitlocknum            100159c7 f   LIBCMT:mlock.obj
 0001:00014a70       __mtinitlocks              10015a70 f   LIBCMT:mlock.obj
 0001:00014aa9       __unlock                   10015aa9 f   LIBCMT:mlock.obj
 0001:00014ac0       __FindPESection            10015ac0 f   LIBCMT:pesect.obj
 0001:00014b10       __IsNonwritableInCurrentImage 10015b10 f   LIBCMT:pesect.obj
 0001:00014bd0       __ValidateImageBase        10015bd0 f   LIBCMT:pesect.obj
 0001:00014c01       ___onexitinit              10015c01 f   LIBCMT:onexit.obj
 0001:00014c30       __onexit                   10015c30 f   LIBCMT:onexit.obj
 0001:00014d2c       _atexit                    10015d2c f   LIBCMT:onexit.obj
 0001:00014d41       __calloc_crt               10015d41 f   LIBCMT:crtheap.obj
 0001:00014d89       __malloc_crt               10015d89 f   LIBCMT:crtheap.obj
 0001:00014dd0       __realloc_crt              10015dd0 f   LIBCMT:crtheap.obj
 0001:00014e1a       __recalloc_crt             10015e1a f   LIBCMT:crtheap.obj
 0001:00014e68       __set_malloc_crt_max_wait  10015e68 f   LIBCMT:crtheap.obj
 0001:00014e7b       _wait_a_bit                10015e7b f i LIBCMT:crtheap.obj
 0001:00014e9f       ?_inconsistency@@YAXXZ     10015e9f f   LIBCMT:hooks.obj
 0001:00014ed7       ?terminate@@YAXXZ          10015ed7 f   LIBCMT:hooks.obj
 0001:00014f0b       ?unexpected@@YAXXZ         10015f0b f   LIBCMT:hooks.obj
 0001:00014f1e       __initp_eh_hooks           10015f1e f   LIBCMT:hooks.obj
 0001:00014f2f       ___getlocaleinfo           10015f2f f   LIBCMT:inithelp.obj
 0001:00015108       __initp_misc_purevirt      10016108 f   LIBCMT:inithelp.obj
 0001:00015115       ___fpecode                 10016115 f   LIBCMT:winsig.obj
 0001:0001511e       ___get_sigabrt             1001611e f   LIBCMT:winsig.obj
 0001:0001512b       ___pxcptinfoptrs           1001612b f   LIBCMT:winsig.obj
 0001:00015134       __initp_misc_winsig        10016134 f   LIBCMT:winsig.obj
 0001:000151f5       _raise                     100161f5 f   LIBCMT:winsig.obj
 0001:000153ea       _signal                    100163ea f   LIBCMT:winsig.obj
 0001:00015641       __initp_misc_rand_s        10016641 f   LIBCMT:rand_s.obj
 0001:0001564e       _rand_s                    1001664e f   LIBCMT:rand_s.obj
 0001:00015760       __SEH_prolog4              10016760 f   LIBCMT:sehprolg4.obj
 0001:000157a5       __SEH_epilog4              100167a5 f   LIBCMT:sehprolg4.obj
 0001:00015800       __except_handler4          10016800 f   LIBCMT:chandler4.obj
 0001:00015994       ___initmbctable            10016994 f   LIBCMT:mbctype.obj
 0001:00015c4b       ___updatetmbcinfo          10016c4b f   LIBCMT:mbctype.obj
 0001:00015cf1       __getmbcp                  10016cf1 f   LIBCMT:mbctype.obj
 0001:00015d22       __setmbcp                  10016d22 f   LIBCMT:mbctype.obj
 0001:00015eca       __setmbcp_nolock           10016eca f   LIBCMT:mbctype.obj
 0001:000160b5       __ftbuf                    100170b5 f   LIBCMT:_sftbuf.obj
 0001:000160e6       __stbuf                    100170e6 f   LIBCMT:_sftbuf.obj
 0001:0001618c       __calloc_impl              1001718c f   LIBCMT:calloc_impl.obj
 0001:00016206       __fcloseall                10017206 f   LIBCMT:closeall.obj
 0001:000162a3       __fflush_nolock            100172a3 f   LIBCMT:fflush.obj
 0001:000162e9       __flush                    100172e9 f   LIBCMT:fflush.obj
 0001:0001634d       __flushall                 1001734d f   LIBCMT:fflush.obj
 0001:00016356       _fflush                    10017356 f   LIBCMT:fflush.obj
 0001:00016493       __fileno                   10017493 f   LIBCMT:fileno.obj
 0001:000164b7       __close                    100174b7 f   LIBCMT:close.obj
 0001:00016592       __close_nolock             10017592 f   LIBCMT:close.obj
 0001:0001662c       __freebuf                  1001762c f   LIBCMT:_freebuf.obj
 0001:0001665c       __getstream                1001765c f   LIBCMT:stream.obj
 0001:0001677b       __openfile                 1001777b f   LIBCMT:_open.obj
 0001:00016a00       __local_unwind4            10017a00 f   LIBCMT:exsup4.obj
 0001:00016ad6       __seh_longjmp_unwind4@4    10017ad6 f   LIBCMT:exsup4.obj
 0001:00016af2       @_EH4_CallFilterFunc@8     10017af2 f   LIBCMT:exsup4.obj
 0001:00016b09       @_EH4_TransferToHandler@8  10017b09 f   LIBCMT:exsup4.obj
 0001:00016b22       @_EH4_GlobalUnwind2@8      10017b22 f   LIBCMT:exsup4.obj
 0001:00016b3b       @_EH4_LocalUnwind@16       10017b3b f   LIBCMT:exsup4.obj
 0001:00016b52       __vfprintf_l               10017b52 f   LIBCMT:vfprintf.obj
 0001:00016b70       __vfprintf_p               10017b70 f   LIBCMT:vfprintf.obj
 0001:00016b8d       __vfprintf_p_l             10017b8d f   LIBCMT:vfprintf.obj
 0001:00016bab       __vfprintf_s_l             10017bab f   LIBCMT:vfprintf.obj
 0001:00016bc9       _vfprintf                  10017bc9 f   LIBCMT:vfprintf.obj
 0001:00016be6       _vfprintf_helper           10017be6 f   LIBCMT:vfprintf.obj
 0001:00016cf7       _vfprintf_s                10017cf7 f   LIBCMT:vfprintf.obj
 0001:00016d14       __output_l                 10017d14 f   LIBCMT:output.obj
 0001:00017894       _get_int64_arg             10018894 f i LIBCMT:output.obj
 0001:000178a7       _get_int_arg               100188a7 f i LIBCMT:output.obj
 0001:000178b7       _get_short_arg             100188b7 f i LIBCMT:output.obj
 0001:000179b4       __ioinit                   100189b4 f   LIBCMT:ioinit.obj
 0001:00017c68       __ioterm                   10018c68 f   LIBCMT:ioinit.obj
 0001:00017cba       __filbuf                   10018cba f   LIBCMT:_filbuf.obj
 0001:00017ddb       _memcpy_s                  10018ddb f   LIBCMT:memcpy_s.obj
 0001:00017e5a       __read                     10018e5a f   LIBCMT:read.obj
 0001:00017f6e       __read_nolock              10018f6e f   LIBCMT:read.obj
 0001:000186ff       __flsbuf                   100196ff f   LIBCMT:_flsbuf.obj
 0001:0001884e       __write                    1001984e f   LIBCMT:write.obj
 0001:0001893d       __write_nolock             1001993d f   LIBCMT:write.obj
 0001:000191a2       __vprintf_l                1001a1a2 f   LIBCMT:vprintf.obj
 0001:000191bd       __vprintf_p                1001a1bd f   LIBCMT:vprintf.obj
 0001:000191d7       __vprintf_p_l              1001a1d7 f   LIBCMT:vprintf.obj
 0001:000191f2       __vprintf_s_l              1001a1f2 f   LIBCMT:vprintf.obj
 0001:0001920d       _vprintf                   1001a20d f   LIBCMT:vprintf.obj
 0001:00019227       _vprintf_helper            1001a227 f   LIBCMT:vprintf.obj
 0001:000192b4       _vprintf_s                 1001a2b4 f   LIBCMT:vprintf.obj
 0001:000192ce       __wremove                  1001a2ce f   LIBCMT:wunlink.obj
 0001:000192fc       __wunlink                  1001a2fc f   LIBCMT:wunlink.obj
 0001:00019305       __lseek                    1001a305 f   LIBCMT:lseek.obj
 0001:000193f4       __lseek_nolock             1001a3f4 f   LIBCMT:lseek.obj
 0001:0001949b       __vscprintf                1001a49b f   LIBCMT:vsprintf.obj
 0001:000194b5       __vscprintf_helper         1001a4b5 f   LIBCMT:vsprintf.obj
 0001:00019511       __vscprintf_l              1001a511 f   LIBCMT:vsprintf.obj
 0001:0001952c       __vscprintf_p              1001a52c f   LIBCMT:vsprintf.obj
 0001:00019546       __vscprintf_p_l            1001a546 f   LIBCMT:vsprintf.obj
 0001:00019561       __vsprintf_l               1001a561 f   LIBCMT:vsprintf.obj
 0001:000195e5       _vsprintf                  1001a5e5 f   LIBCMT:vsprintf.obj
 0001:000195fd       __vsnprintf_c              1001a5fd f   LIBCMT:vsnprnc.obj
 0001:00019624       __vsnprintf_c_l            1001a624 f   LIBCMT:vsnprnc.obj
 0001:0001964c       __vsnprintf_helper         1001a64c f   LIBCMT:vsnprnc.obj
 0001:00019716       __vsnprintf_s              1001a716 f   LIBCMT:vsnprnc.obj
 0001:00019734       __vsnprintf_s_l            1001a734 f   LIBCMT:vsnprnc.obj
 0001:00019834       __vsprintf_p               1001a834 f   LIBCMT:vsnprnc.obj
 0001:0001985b       __vsprintf_p_l             1001a85b f   LIBCMT:vsnprnc.obj
 0001:00019883       __vsprintf_s_l             1001a883 f   LIBCMT:vsnprnc.obj
 0001:000198f8       _vsprintf_s                1001a8f8 f   LIBCMT:vsnprnc.obj
 0001:00019913       __chgsign                  1001a913 f   LIBCMT:ieeemisc.obj
 0001:00019940       __chgsignf                 1001a940 f   LIBCMT:ieeemisc.obj
 0001:00019961       __copysign                 1001a961 f   LIBCMT:ieeemisc.obj
 0001:00019989       __copysignf                1001a989 f   LIBCMT:ieeemisc.obj
 0001:000199a5       __finite                   1001a9a5 f   LIBCMT:ieeemisc.obj
 0001:000199bd       __fpclass                  1001a9bd f   LIBCMT:ieeemisc.obj
 0001:00019a59       __isnan                    1001aa59 f   LIBCMT:ieeemisc.obj
 0001:00019a8c       __logb                     1001aa8c f   LIBCMT:ieeemisc.obj
 0001:00019b6d       __nextafter                1001ab6d f   LIBCMT:ieeemisc.obj
 0001:00019e0d       __scalb                    1001ae0d f   LIBCMT:ieeemisc.obj
 0001:00019e25       __add_exp                  1001ae25 f   LIBCMT:util.obj
 0001:00019e54       __decomp                   1001ae54 f   LIBCMT:util.obj
 0001:00019f26       __get_exp                  1001af26 f   LIBCMT:util.obj
 0001:00019f3f       __set_bexp                 1001af3f f   LIBCMT:util.obj
 0001:00019f68       __set_exp                  1001af68 f   LIBCMT:util.obj
 0001:00019f97       __sptype                   1001af97 f   LIBCMT:util.obj
 0001:00019ff2       __errcode                  1001aff2 f   LIBCMT:fpexcept.obj
 0001:0001a024       __except1                  1001b024 f   LIBCMT:fpexcept.obj
 0001:0001a0ec       __except2                  1001b0ec f   LIBCMT:fpexcept.obj
 0001:0001a1ec       __handle_exc               1001b1ec f   LIBCMT:fpexcept.obj
 0001:0001a3ca       __handle_qnan1             1001b3ca f   LIBCMT:fpexcept.obj
 0001:0001a41a       __handle_qnan2             1001b41a f   LIBCMT:fpexcept.obj
 0001:0001a47a       __raise_exc                1001b47a f   LIBCMT:fpexcept.obj
 0001:0001a49b       __raise_exc_ex             1001b49b f   LIBCMT:fpexcept.obj
 0001:0001a780       __raise_excf               1001b780 f   LIBCMT:fpexcept.obj
 0001:0001a7a1       __set_errno_from_matherr   1001b7a1 f   LIBCMT:fpexcept.obj
 0001:0001a7ce       __umatherr                 1001b7ce f   LIBCMT:fpexcept.obj
 0001:0001a86e       ___clrfp_sse2              1001b86e f   LIBCMT:fpctrl.obj
 0001:0001a88f       ___ctrlfp_sse2             1001b88f f   LIBCMT:fpctrl.obj
 0001:0001a8c8       ___fclrf_sse2              1001b8c8 f   LIBCMT:fpctrl.obj
 0001:0001a8e5       ___get_fpsr_sse2           1001b8e5 f   LIBCMT:fpctrl.obj
 0001:0001a901       ___set_fpsr_sse2           1001b901 f   LIBCMT:fpctrl.obj
 0001:0001a977       ___set_statfp_sse2         1001b977 f   LIBCMT:fpctrl.obj
 0001:0001a990       ___statfp_sse2             1001b990 f   LIBCMT:fpctrl.obj
 0001:0001a9a5       __clrfp                    1001b9a5 f   LIBCMT:fpctrl.obj
 0001:0001a9b6       __ctrlfp                   1001b9b6 f   LIBCMT:fpctrl.obj
 0001:0001a9e1       __set_statfp               1001b9e1 f   LIBCMT:fpctrl.obj
 0001:0001aa39       __statfp                   1001ba39 f   LIBCMT:fpctrl.obj
 0001:0001aa49       _wcscat_s                  1001ba49 f   LIBCMT:wcscat_s.obj
 0001:0001aab5       _wcscpy_s                  1001bab5 f   LIBCMT:wcscpy_s.obj
 0001:0001ab11       _wcslen                    1001bb11 f   LIBCMT:wcslen.obj
 0001:0001ab2a       _wcsncat_s                 1001bb2a f   LIBCMT:wcsncat_s.obj
 0001:0001abf8       __set_abort_behavior       1001bbf8 f   LIBCMT:abort.obj
 0001:0001ac17       _abort                     1001bc17 f   LIBCMT:abort.obj
 0001:0001ac5a       ___set_app_type            1001bc5a f   LIBCMT:errmode.obj
 0001:0001ac67       __set_error_mode           1001bc67 f   LIBCMT:errmode.obj
 0001:0001adc3       __i64tow_s                 1001bdc3 f   LIBCMT:xtows.obj
 0001:0001adf4       __itow_s                   1001bdf4 f   LIBCMT:xtows.obj
 0001:0001ae1d       __ltow_s                   1001be1d f   LIBCMT:xtows.obj
 0001:0001ae47       __ui64tow_s                1001be47 f   LIBCMT:xtows.obj
 0001:0001ae62       __ultow_s                  1001be62 f   LIBCMT:xtows.obj
 0001:0001af6d       _setvbuf                   1001bf6d f   LIBCMT:setvbuf.obj
 0001:0001b073       __fwprintf_l               1001c073 f   LIBCMT:fwprintf.obj
 0001:0001b08d       __fwprintf_p               1001c08d f   LIBCMT:fwprintf.obj
 0001:0001b0a6       __fwprintf_p_l             1001c0a6 f   LIBCMT:fwprintf.obj
 0001:0001b0c0       __fwprintf_s_l             1001c0c0 f   LIBCMT:fwprintf.obj
 0001:0001b0da       _fwprintf                  1001c0da f   LIBCMT:fwprintf.obj
 0001:0001b16e       _fwprintf_s                1001c16e f   LIBCMT:fwprintf.obj
 0001:0001b187       __vsnwprintf_s             1001c187 f   LIBCMT:vswprnc.obj
 0001:0001b1a5       __vsnwprintf_s_l           1001c1a5 f   LIBCMT:vswprnc.obj
 0001:0001b2a9       __vswprintf_c              1001c2a9 f   LIBCMT:vswprnc.obj
 0001:0001b2d0       __vswprintf_c_l            1001c2d0 f   LIBCMT:vswprnc.obj
 0001:0001b2f8       __vswprintf_helper         1001c2f8 f   LIBCMT:vswprnc.obj
 0001:0001b3f3       __vswprintf_p              1001c3f3 f   LIBCMT:vswprnc.obj
 0001:0001b41a       __vswprintf_p_l            1001c41a f   LIBCMT:vswprnc.obj
 0001:0001b442       __vswprintf_s_l            1001c442 f   LIBCMT:vswprnc.obj
 0001:0001b4b9       _vswprintf_s               1001c4b9 f   LIBCMT:vswprnc.obj
 0001:0001b4d4       ___crtMessageBoxW          1001c4d4 f   LIBCMT:crtmboxw.obj
 0001:0001b6ba       ___crtMessageBoxWaitThreadW@4 1001c6ba f   LIBCMT:crtmboxw.obj
 0001:0001b6d8       __XcptFilter               1001c6d8 f   LIBCMT:winxfltr.obj
 0001:0001b833       ___CppXcptFilter           1001c833 f   LIBCMT:winxfltr.obj
 0001:0001b885       ___get_flsindex            1001c885 f   LIBCMT:tidtable.obj
 0001:0001b88b       ___threadhandle            1001c88b f   LIBCMT:tidtable.obj
 0001:0001b891       ___threadid                1001c891 f   LIBCMT:tidtable.obj
 0001:0001b897       __freefls@4                1001c897 f   LIBCMT:tidtable.obj
 0001:0001b9cc       __freeptd                  1001c9cc f   LIBCMT:tidtable.obj
 0001:0001ba02       __getptd                   1001ca02 f   LIBCMT:tidtable.obj
 0001:0001ba1a       __getptd_noexit            1001ca1a f   LIBCMT:tidtable.obj
 0001:0001ba89       __initptd                  1001ca89 f   LIBCMT:tidtable.obj
 0001:0001bb3c       __mtinit                   1001cb3c f   LIBCMT:tidtable.obj
 0001:0001bbb2       __mtterm                   1001cbb2 f   LIBCMT:tidtable.obj
 0001:0001bbcf       __set_pgmptr               1001cbcf f i LIBCMT:stdargv.obj
 0001:0001bbdc       __setargv                  1001cbdc f   LIBCMT:stdargv.obj
 0001:0001be0b       __setenvp                  1001ce0b f   LIBCMT:stdenvp.obj
 0001:0001beec       ___security_init_cookie    1001ceec f   LIBCMT:gs_support.obj
 0001:0001bf88       ___crtGetEnvironmentStringsA 1001cf88 f   LIBCMT:a_env.obj
 0001:0001c020       _strlen                    1001d020 f   LIBCMT:strlen.obj
 0001:0001c0ab       _wcsncpy_s                 1001d0ab f   LIBCMT:wcsncpy_s.obj
 0001:0001c169       ___addlocaleref            1001d169 f   LIBCMT:localref.obj
 0001:0001c1fe       ___freetlocinfo            1001d1fe f   LIBCMT:localref.obj
 0001:0001c358       ___removelocaleref         1001d358 f   LIBCMT:localref.obj
 0001:0001c3f8       ___updatetlocinfo          1001d3f8 f   LIBCMT:localref.obj
 0001:0001c478       __updatetlocinfoEx_nolock  1001d478 f   LIBCMT:localref.obj
 0001:0001c4c3       ___isascii                 1001d4c3 f i LIBCMT:_ctype.obj
 0001:0001c4d3       ___iscsym                  1001d4d3 f i LIBCMT:_ctype.obj
 0001:0001c4f3       ___iscsymf                 1001d4f3 f i LIBCMT:_ctype.obj
 0001:0001c510       ___toascii                 1001d510 f i LIBCMT:_ctype.obj
 0001:0001c51b       __isalnum_l                1001d51b f i LIBCMT:_ctype.obj
 0001:0001c573       __isalpha_l                1001d573 f i LIBCMT:_ctype.obj
 0001:0001c5cb       __isblank_l                1001d5cb f i LIBCMT:_ctype.obj
 0001:0001c625       __iscntrl_l                1001d625 f i LIBCMT:_ctype.obj
 0001:0001c677       __iscsym_l                 1001d677 f i LIBCMT:_ctype.obj
 0001:0001c698       __iscsymf_l                1001d698 f i LIBCMT:_ctype.obj
 0001:0001c6b9       __isdigit_l                1001d6b9 f i LIBCMT:_ctype.obj
 0001:0001c70b       __isgraph_l                1001d70b f i LIBCMT:_ctype.obj
 0001:0001c763       __islower_l                1001d763 f i LIBCMT:_ctype.obj
 0001:0001c7b5       __isprint_l                1001d7b5 f i LIBCMT:_ctype.obj
 0001:0001c80d       __ispunct_l                1001d80d f i LIBCMT:_ctype.obj
 0001:0001c85f       __isspace_l                1001d85f f i LIBCMT:_ctype.obj
 0001:0001c8b1       __isupper_l                1001d8b1 f i LIBCMT:_ctype.obj
 0001:0001c903       __isxdigit_l               1001d903 f i LIBCMT:_ctype.obj
 0001:0001c95b       _isalnum                   1001d95b f i LIBCMT:_ctype.obj
 0001:0001c988       _isalpha                   1001d988 f i LIBCMT:_ctype.obj
 0001:0001c9b5       _isblank                   1001d9b5 f i LIBCMT:_ctype.obj
 0001:0001c9ea       _iscntrl                   1001d9ea f i LIBCMT:_ctype.obj
 0001:0001ca15       _isdigit                   1001da15 f i LIBCMT:_ctype.obj
 0001:0001ca40       _isgraph                   1001da40 f i LIBCMT:_ctype.obj
 0001:0001ca6d       _islower                   1001da6d f i LIBCMT:_ctype.obj
 0001:0001ca98       _isprint                   1001da98 f i LIBCMT:_ctype.obj
 0001:0001cac5       _ispunct                   1001dac5 f i LIBCMT:_ctype.obj
 0001:0001caf0       _isspace                   1001daf0 f i LIBCMT:_ctype.obj
 0001:0001cb1b       _isupper                   1001db1b f i LIBCMT:_ctype.obj
 0001:0001cb46       _isxdigit                  1001db46 f i LIBCMT:_ctype.obj
 0001:0001cb73       __tolower                  1001db73 f   LIBCMT:tolower.obj
 0001:0001cb7e       __tolower_l                1001db7e f   LIBCMT:tolower.obj
 0001:0001ccc1       _tolower                   1001dcc1 f   LIBCMT:tolower.obj
 0001:0001cced       _strcpy_s                  1001dced f   LIBCMT:strcpy_s.obj
 0001:0001cd50       _strrchr                   1001dd50 f   LIBCMT:strrchr.obj
 0001:0001ce87       __fptostr                  1001de87 f   LIBCMT:_fptostr.obj
 0001:0001cf37       ___crt_atoflt_l            1001df37 f   LIBCMT:atodbl.obj
 0001:0001cfdb       __atodbl                   1001dfdb f   LIBCMT:atodbl.obj
 0001:0001cff0       __atodbl_l                 1001dff0 f   LIBCMT:atodbl.obj
 0001:0001d07e       __atoflt                   1001e07e f   LIBCMT:atodbl.obj
 0001:0001d093       __atoflt_l                 1001e093 f   LIBCMT:atodbl.obj
 0001:0001d0ab       __atoldbl                  1001e0ab f   LIBCMT:atodbl.obj
 0001:0001d0c0       __atoldbl_l                1001e0c0 f   LIBCMT:atodbl.obj
 0001:0001d14f       ___dtold                   1001e14f f   LIBCMT:cfout.obj
 0001:0001d217       __fltout2                  1001e217 f   LIBCMT:cfout.obj
 0001:0001d2b0       __alldvrm                  1001e2b0 f   LIBCMT:lldvrm.obj
 0001:0001d390       __aullshr                  1001e390 f   LIBCMT:ullshr.obj
 0001:0001d3af       __get_output_format        1001e3af f   LIBCMT:outputformat.obj
 0001:0001d3b5       __set_output_format        1001e3b5 f   LIBCMT:outputformat.obj
 0001:0001d3e7       __controlfp_s              1001e3e7 f   LIBCMT:contrlfp.obj
 0001:0001d444       __fptrap                   1001e444 f   LIBCMT:crt0fp.obj
 0001:0001d44d       __msize                    1001e44d f   LIBCMT:msize.obj
 0001:0001d47e       __recalloc                 1001e47e f   LIBCMT:recalloc.obj
 0001:0001d4e7       _strncpy_s                 1001e4e7 f   LIBCMT:strncpy_s.obj
 0001:0001d66f       __MallocaIsSizeInRange     1001e66f f i LIBCMT:a_loc.obj
 0001:0001d680       __MarkAllocaS              1001e680 f i LIBCMT:a_loc.obj
 0001:0001d694       ___crtGetLocaleInfoA       1001e694 f   LIBCMT:a_loc.obj
 0001:0001d6ce       __freea                    1001e6ce f i LIBCMT:a_loc.obj
 0001:0001d6ec       _GetTableIndexFromLcid     1001e6ec f   LIBCMT:winapinls.obj
 0001:0001d721       _GetTableIndexFromLocaleName 1001e721 f   LIBCMT:winapinls.obj
 0001:0001d76f       ___crtCompareStringEx      1001e76f f   LIBCMT:winapinls.obj
 0001:0001d7bb       ___crtDownlevelLCIDToLocaleName 1001e7bb f   LIBCMT:winapinls.obj
 0001:0001d837       ___crtDownlevelLocaleNameToLCID 1001e837 f   LIBCMT:winapinls.obj
 0001:0001d875       ___crtEnumSystemLocalesEx  1001e875 f   LIBCMT:winapinls.obj
 0001:0001d8b2       ___crtGetDateFormatEx      1001e8b2 f   LIBCMT:winapinls.obj
 0001:0001d8fb       ___crtGetLocaleInfoEx      1001e8fb f   LIBCMT:winapinls.obj
 0001:0001d92a       ___crtGetTimeFormatEx      1001e92a f   LIBCMT:winapinls.obj
 0001:0001d95f       ___crtGetUserDefaultLocaleName 1001e95f f   LIBCMT:winapinls.obj
 0001:0001d98a       ___crtIsValidLocaleName    1001e98a f   LIBCMT:winapinls.obj
 0001:0001d9b5       ___crtLCMapStringEx        1001e9b5 f   LIBCMT:winapinls.obj
 0001:0001da01       ___wcsnicmp_ascii          1001ea01 f   LIBCMT:winapinls.obj
 0001:0001dc93       ___crtLCMapStringA         1001ec93 f   LIBCMT:a_map.obj
 0001:0001ddd1       ___crtGetStringTypeA       1001edd1 f   LIBCMT:a_str.obj
 0001:0001de11       __isatty                   1001ee11 f   LIBCMT:isatty.obj
 0001:0001de65       __commit                   1001ee65 f   LIBCMT:commit.obj
 0001:0001df4e       ___lock_fhandle            1001ef4e f   LIBCMT:osfinfo.obj
 0001:0001dfdc       __alloc_osfhnd             1001efdc f   LIBCMT:osfinfo.obj
 0001:0001e185       __free_osfhnd              1001f185 f   LIBCMT:osfinfo.obj
 0001:0001e20b       __get_osfhandle            1001f20b f   LIBCMT:osfinfo.obj
 0001:0001e272       __open_osfhandle           1001f272 f   LIBCMT:osfinfo.obj
 0001:0001e388       __set_osfhnd               1001f388 f   LIBCMT:osfinfo.obj
 0001:0001e40a       __unlock_fhandle           1001f40a f   LIBCMT:osfinfo.obj
 0001:0001e430       __open                     1001f430 f   LIBCMT:open.obj
 0001:0001e4e0       __sopen                    1001f4e0 f   LIBCMT:open.obj
 0001:0001e513       __sopen_helper             1001f513 f   LIBCMT:open.obj
 0001:0001e5dc       __sopen_nolock             1001f5dc f   LIBCMT:open.obj
 0001:0001e62a       __sopen_s                  1001f62a f   LIBCMT:open.obj
 0001:0001e648       __mbsnbcmp                 1001f648 f   LIBCMT:mbsnbcmp.obj
 0001:0001e660       __mbsnbcmp_l               1001f660 f   LIBCMT:mbsnbcmp.obj
 0001:0001e777       __mbsnbicmp                1001f777 f   LIBCMT:mbsnbicm.obj
 0001:0001e78f       __mbsnbicmp_l              1001f78f f   LIBCMT:mbsnbicm.obj
 0001:0001e950       __global_unwind2           1001f950 f   LIBCMT:exsup.obj
 0001:0001e9b5       __local_unwind2            1001f9b5 f   LIBCMT:exsup.obj
 0001:0001ea39       __abnormal_termination     1001fa39 f   LIBCMT:exsup.obj
 0001:0001ea5c       __NLG_Notify1              1001fa5c f   LIBCMT:exsup.obj
 0001:0001ea65       __NLG_Notify               1001fa65 f   LIBCMT:exsup.obj
 0001:0001ea7c       __NLG_Dispatch             1001fa7c     LIBCMT:exsup.obj
 0001:0001ea7c       __NLG_Dispatch2            1001fa7c     LIBCMT:exsup.obj
 0001:0001ea84       __NLG_Call                 1001fa84 f   LIBCMT:exsup.obj
 0001:0001ea86       __NLG_Return2              1001fa86     LIBCMT:exsup.obj
 0001:0001ea87       __output_s_l               1001fa87 f   LIBCMT:outputs.obj
 0001:0001f70f       __output_p_l               1002070f f   LIBCMT:outputp.obj
 0001:00020a47       __validate_param_reuseA    10021a47 f   LIBCMT:outputp.obj
 0001:00020b7d       _get_crtdouble_arg         10021b7d f i LIBCMT:outputp.obj
 0001:00020c7c       ___iswcsym                 10021c7c f i LIBCMT:_wctype.obj
 0001:00020ca0       ___iswcsymf                10021ca0 f i LIBCMT:_wctype.obj
 0001:00020cc4       __isleadbyte_l             10021cc4 f i LIBCMT:_wctype.obj
 0001:00020cfe       __iswalnum_l               10021cfe f i LIBCMT:_wctype.obj
 0001:00020d12       __iswalpha_l               10021d12 f i LIBCMT:_wctype.obj
 0001:00020d26       __iswblank_l               10021d26 f i LIBCMT:_wctype.obj
 0001:00020d41       __iswcntrl_l               10021d41 f i LIBCMT:_wctype.obj
 0001:00020d52       __iswcsym_l                10021d52 f i LIBCMT:_wctype.obj
 0001:00020d76       __iswcsymf_l               10021d76 f i LIBCMT:_wctype.obj
 0001:00020d9a       __iswdigit_l               10021d9a f i LIBCMT:_wctype.obj
 0001:00020dab       __iswgraph_l               10021dab f i LIBCMT:_wctype.obj
 0001:00020dbf       __iswlower_l               10021dbf f i LIBCMT:_wctype.obj
 0001:00020dd0       __iswprint_l               10021dd0 f i LIBCMT:_wctype.obj
 0001:00020de4       __iswpunct_l               10021de4 f i LIBCMT:_wctype.obj
 0001:00020df5       __iswspace_l               10021df5 f i LIBCMT:_wctype.obj
 0001:00020e06       __iswupper_l               10021e06 f i LIBCMT:_wctype.obj
 0001:00020e17       __iswxdigit_l              10021e17 f i LIBCMT:_wctype.obj
 0001:00020e2b       _isleadbyte                10021e2b f i LIBCMT:_wctype.obj
 0001:00020e3c       _iswalnum                  10021e3c f i LIBCMT:_wctype.obj
 0001:00020e50       _iswalpha                  10021e50 f i LIBCMT:_wctype.obj
 0001:00020e64       _iswascii                  10021e64 f i LIBCMT:_wctype.obj
 0001:00020e76       _iswblank                  10021e76 f i LIBCMT:_wctype.obj
 0001:00020e91       _iswcntrl                  10021e91 f i LIBCMT:_wctype.obj
 0001:00020ea2       _iswdigit                  10021ea2 f i LIBCMT:_wctype.obj
 0001:00020eb3       _iswgraph                  10021eb3 f i LIBCMT:_wctype.obj
 0001:00020ec7       _iswlower                  10021ec7 f i LIBCMT:_wctype.obj
 0001:00020ed8       _iswprint                  10021ed8 f i LIBCMT:_wctype.obj
 0001:00020eec       _iswpunct                  10021eec f i LIBCMT:_wctype.obj
 0001:00020efd       _iswspace                  10021efd f i LIBCMT:_wctype.obj
 0001:00020f0e       _iswupper                  10021f0e f i LIBCMT:_wctype.obj
 0001:00020f1f       _iswxdigit                 10021f1f f i LIBCMT:_wctype.obj
 0001:00020f33       __wctomb_l                 10021f33 f   LIBCMT:wctomb.obj
 0001:00020f82       __wctomb_s_l               10021f82 f   LIBCMT:wctomb.obj
 0001:000210a6       _wctomb                    100220a6 f   LIBCMT:wctomb.obj
 0001:000210d9       _wctomb_s                  100220d9 f   LIBCMT:wctomb.obj
 0001:00021100       __aulldvrm                 10022100 f   LIBCMT:ulldvrm.obj
 0001:00021195       __getbuf                   10022195 f   LIBCMT:_getbuf.obj
 0001:000211db       __lseeki64                 100221db f   LIBCMT:lseeki64.obj
 0001:000212d7       __lseeki64_nolock          100222d7 f   LIBCMT:lseeki64.obj
 0001:0002134a       __mbtowc_l                 1002234a f   LIBCMT:mbtowc.obj
 0001:0002143f       _mbtowc                    1002243f f   LIBCMT:mbtowc.obj
 0001:00021457       __putwch                   10022457 f   LIBCMT:putwch.obj
 0001:000214a3       __putwch_nolock            100224a3 f   LIBCMT:putwch.obj
 0001:000214f0       __alloca_probe             100224f0 f   LIBCMT:chkstk.obj
 0001:000214f0       __chkstk                   100224f0 f   LIBCMT:chkstk.obj
 0001:0002151b       __matherr                  1002251b f   LIBCMT:matherr.obj
 0001:0002151e       __vfwprintf_l              1002251e f   LIBCMT:vfwprint.obj
 0001:0002153c       __vfwprintf_p              1002253c f   LIBCMT:vfwprint.obj
 0001:00021559       __vfwprintf_p_l            10022559 f   LIBCMT:vfwprint.obj
 0001:00021577       __vfwprintf_s_l            10022577 f   LIBCMT:vfwprint.obj
 0001:00021595       _vfwprintf                 10022595 f   LIBCMT:vfwprint.obj
 0001:000215b2       _vfwprintf_helper          100225b2 f   LIBCMT:vfwprint.obj
 0001:00021645       _vfwprintf_s               10022645 f   LIBCMT:vfwprint.obj
 0001:00021662       __woutput_l                10022662 f   LIBCMT:woutput.obj
 0001:00022341       __woutput_s_l              10023341 f   LIBCMT:woutputs.obj
 0001:00023058       __validate_param_reuseW    10024058 f   LIBCMT:woutputp.obj
 0001:000231d0       __woutput_p_l              100241d0 f   LIBCMT:woutputp.obj
 0001:000245f9       __ismbbalnum               100255f9 f   LIBCMT:ismbbyte.obj
 0001:00024612       __ismbbalnum_l             10025612 f   LIBCMT:ismbbyte.obj
 0001:0002462c       __ismbbalpha               1002562c f   LIBCMT:ismbbyte.obj
 0001:00024645       __ismbbalpha_l             10025645 f   LIBCMT:ismbbyte.obj
 0001:0002465f       __ismbbblank               1002565f f   LIBCMT:ismbbyte.obj
 0001:00024680       __ismbbblank_l             10025680 f   LIBCMT:ismbbyte.obj
 0001:000246a2       __ismbbgraph               100256a2 f   LIBCMT:ismbbyte.obj
 0001:000246bb       __ismbbgraph_l             100256bb f   LIBCMT:ismbbyte.obj
 0001:000246d5       __ismbbkalnum              100256d5 f   LIBCMT:ismbbyte.obj
 0001:000246eb       __ismbbkalnum_l            100256eb f   LIBCMT:ismbbyte.obj
 0001:00024702       __ismbbkana                10025702 f   LIBCMT:ismbbyte.obj
 0001:00024713       __ismbbkana_l              10025713 f   LIBCMT:ismbbyte.obj
 0001:0002475f       __ismbbkprint              1002575f f   LIBCMT:ismbbyte.obj
 0001:00024775       __ismbbkprint_l            10025775 f   LIBCMT:ismbbyte.obj
 0001:0002478c       __ismbbkpunct              1002578c f   LIBCMT:ismbbyte.obj
 0001:000247a2       __ismbbkpunct_l            100257a2 f   LIBCMT:ismbbyte.obj
 0001:000247b9       __ismbblead                100257b9 f   LIBCMT:ismbbyte.obj
 0001:000247cf       __ismbblead_l              100257cf f   LIBCMT:ismbbyte.obj
 0001:000247e6       __ismbbprint               100257e6 f   LIBCMT:ismbbyte.obj
 0001:000247ff       __ismbbprint_l             100257ff f   LIBCMT:ismbbyte.obj
 0001:00024819       __ismbbpunct               10025819 f   LIBCMT:ismbbyte.obj
 0001:0002482f       __ismbbpunct_l             1002582f f   LIBCMT:ismbbyte.obj
 0001:00024846       __ismbbtrail               10025846 f   LIBCMT:ismbbyte.obj
 0001:0002485c       __ismbbtrail_l             1002585c f   LIBCMT:ismbbyte.obj
 0001:00024873       ___free_lconv_mon          10025873 f   LIBCMT:initmon.obj
 0001:0002496f       ___init_monetary           1002596f f   LIBCMT:initmon.obj
 0001:00024d48       ___free_lconv_num          10025d48 f   LIBCMT:initnum.obj
 0001:00024daf       ___init_numeric            10025daf f   LIBCMT:initnum.obj
 0001:00024fed       ___free_lc_time            10025fed f   LIBCMT:inittime.obj
 0001:0002536d       ___init_time               1002636d f   LIBCMT:inittime.obj
 0001:00025bdc       _localeconv                10026bdc f   LIBCMT:lconv.obj
 0001:00025c02       __isctype                  10026c02 f   LIBCMT:isctype.obj
 0001:00025c31       __isctype_l                10026c31 f   LIBCMT:isctype.obj
 0001:00025ce2       ___init_dummy              10026ce2 f   LIBCMT:wsetloca.obj
 0001:00025ce5       __locterm                  10026ce5 f   LIBCMT:wsetloca.obj
 0001:00025d37       ____setlc_active_func      10026d37 f   LIBCMT:wsetloca.obj
 0001:00025d3d       ____unguarded_readlc_active_add_func 10026d3d f   LIBCMT:wsetloca.obj
 0001:00025d43       ___copy_locale_name        10026d43 f   LIBCMT:wsetloca.obj
 0001:00025da7       ___create_locale           10026da7 f   LIBCMT:wsetloca.obj
 0001:00025db0       ___free_locale             10026db0 f   LIBCMT:wsetloca.obj
 0001:00025db5       ___get_current_locale      10026db5 f   LIBCMT:wsetloca.obj
 0001:00025dba       ___lc_lctowcs              10026dba f   LIBCMT:wsetloca.obj
 0001:00025e28       ___lc_wcstolc              10026e28 f   LIBCMT:wsetloca.obj
 0001:00025f54       __configthreadlocale       10026f54 f   LIBCMT:wsetloca.obj
 0001:00025fda       __create_locale            10026fda f   LIBCMT:wsetloca.obj
 0001:0002603c       __expandlocale             1002703c f   LIBCMT:wsetloca.obj
 0001:00026333       __free_locale              10027333 f   LIBCMT:wsetloca.obj
 0001:000263ea       __get_current_locale       100273ea f   LIBCMT:wsetloca.obj
 0001:00026499       __wcreate_locale           10027499 f   LIBCMT:wsetloca.obj
 0001:00026570       __wcscats                  10027570 f   LIBCMT:wsetloca.obj
 0001:000265af       __wsetlocale               100275af f   LIBCMT:wsetloca.obj
 0001:00026ef1       __CopyMan                  10027ef1 f i LIBCMT:intrncvt.obj
 0001:00026f0e       __FillZeroMan              10027f0e f i LIBCMT:intrncvt.obj
 0001:00026f1d       __IncMan                   10027f1d f i LIBCMT:intrncvt.obj
 0001:00026f7f       __IsZeroMan                10027f7f f i LIBCMT:intrncvt.obj
 0001:00026f9c       __RoundMan                 10027f9c f i LIBCMT:intrncvt.obj
 0001:0002709d       __ShrMan                   1002809d f i LIBCMT:intrncvt.obj
 0001:0002712b       __ZeroTail                 1002812b f i LIBCMT:intrncvt.obj
 0001:00027173       ___addl                    10028173 f i LIBCMT:intrncvt.obj
 0001:00027197       __ld12cvt                  10028197 f i LIBCMT:intrncvt.obj
 0001:00027702       __ld12tod                  10028702 f   LIBCMT:intrncvt.obj
 0001:00027c74       __ld12tof                  10028c74 f   LIBCMT:intrncvt.obj
 0001:000281e6       __ld12told                 100291e6 f   LIBCMT:intrncvt.obj
 0001:000282b5       ___STRINGTOLD_L            100292b5 f   LIBCMT:strgtold.obj
 0001:00028310       ___ld12mul                 10029310 f i LIBCMT:strgtold.obj
 0001:000285dc       ___multtenpow12            100295dc f i LIBCMT:strgtold.obj
 0001:0002892f       ___shl_12                  1002992f f i LIBCMT:strgtold.obj
 0001:00028960       ___shr_12                  10029960 f i LIBCMT:strgtold.obj
 0001:00028990       ___strgtold12_l            10029990 f   LIBCMT:strgtold.obj
 0001:00029138       _$I10_OUTPUT               1002a138 f   LIBCMT:x10fout.obj
 0001:00029b0c       ___add_12                  1002ab0c f i LIBCMT:x10fout.obj
 0001:00029b7e       ___pctype_func             1002ab7e f   LIBCMT:ctype.obj
 0001:00029ba7       ___pwctype_func            1002aba7 f   LIBCMT:ctype.obj
 0001:00029ce7       ___control87_2             1002ace7 f   LIBCMT:ieee87.obj
 0001:0002a35b       __clearfp                  1002b35b f   LIBCMT:ieee87.obj
 0001:0002a43b       __control87                1002b43b f i LIBCMT:ieee87.obj
 0001:0002a73d       __controlfp                1002b73d f   LIBCMT:ieee87.obj
 0001:0002aa48       __fpreset                  1002ba48 f   LIBCMT:ieee87.obj
 0001:0002ab15       __set_controlfp            1002bb15 f   LIBCMT:ieee87.obj
 0001:0002ab88       __statusfp                 1002bb88 f   LIBCMT:ieee87.obj
 0001:0002ac22       __statusfp2                1002bc22 f   LIBCMT:ieee87.obj
 0001:0002ac90       __alloca_probe_16          1002bc90 f   LIBCMT:alloca16.obj
 0001:0002aca6       __alloca_probe_8           1002bca6     LIBCMT:alloca16.obj
 0001:0002acbc       _wcsnlen                   1002bcbc f   LIBCMT:wcslen_s.obj
 0001:0002ad63       __wopen                    1002bd63 f   LIBCMT:wopen.obj
 0001:0002ae13       __wsopen                   1002be13 f   LIBCMT:wopen.obj
 0001:0002ae46       __wsopen_helper            1002be46 f   LIBCMT:wopen.obj
 0001:0002af0f       __wsopen_nolock            1002bf0f f   LIBCMT:wopen.obj
 0001:0002b662       __wsopen_s                 1002c662 f   LIBCMT:wopen.obj
 0001:0002b680       _strncmp                   1002c680 f   LIBCMT:strncmp.obj
 0001:0002b6f8       __strnicmp                 1002c6f8 f   LIBCMT:strnicmp.obj
 0001:0002b763       __strnicmp_l               1002c763 f   LIBCMT:strnicmp.obj
 0001:0002ba3a       __strtol_l                 1002ca3a f   LIBCMT:strtol.obj
 0001:0002ba55       __strtoul_l                1002ca55 f   LIBCMT:strtol.obj
 0001:0002ba70       _strtol                    1002ca70 f   LIBCMT:strtol.obj
 0001:0002ba9a       _strtoul                   1002ca9a f   LIBCMT:strtol.obj
 0001:0002bac4       __iswctype_l               1002cac4 f   LIBCMT:iswctype.obj
 0001:0002bad6       _is_wctype                 1002cad6 f   LIBCMT:iswctype.obj
 0001:0002badf       _iswctype                  1002cadf f   LIBCMT:iswctype.obj
 0001:0002bb35       ____lc_codepage_func       1002cb35 f   LIBCMT:initctyp.obj
 0001:0002bb5b       ____lc_collate_cp_func     1002cb5b f   LIBCMT:initctyp.obj
 0001:0002bb81       ____lc_locale_name_func    1002cb81 f   LIBCMT:initctyp.obj
 0001:0002bba9       ____mb_cur_max_func        1002cba9 f   LIBCMT:initctyp.obj
 0001:0002bbcf       ____mb_cur_max_l_func      1002cbcf f   LIBCMT:initctyp.obj
 0001:0002bbe6       ___init_ctype              1002cbe6 f   LIBCMT:initctyp.obj
 0001:0002bf7e       ___termconout              1002cf7e f   LIBCMT:initcon.obj
 0001:0002bf95       ___initconout              1002cf95 f   LIBCMT:initcon.obj
 0001:0002bfb4       __fputwc_nolock            1002cfb4 f   LIBCMT:fputwc.obj
 0001:0002c13a       _fputwc                    1002d13a f   LIBCMT:fputwc.obj
 0001:0002c1b1       _putwc                     1002d1b1 f   LIBCMT:fputwc.obj
 0001:0002c39b       __wcstol_l                 1002d39b f   LIBCMT:wcstol.obj
 0001:0002c3b3       __wcstoul_l                1002d3b3 f   LIBCMT:wcstol.obj
 0001:0002c3cb       _wcstol                    1002d3cb f   LIBCMT:wcstol.obj
 0001:0002c3e3       _wcstoul                   1002d3e3 f   LIBCMT:wcstol.obj
 0001:0002c3fb       ___init_collate            1002d3fb f   LIBCMT:initcoll.obj
 0001:0002c51b       _memcmp                    1002d51b f   LIBCMT:memcmp.obj
 0001:0002f42f       _wcscmp                    1003042f f   LIBCMT:wcscmp.obj
 0001:0002f46d       _wcscspn                   1003046d f   LIBCMT:wcscspn.obj
 0001:0002f4b8       _wcsncmp                   100304b8 f   LIBCMT:wcsncmp.obj
 0001:0002f4ee       _wcspbrk                   100304ee f   LIBCMT:wcspbrk.obj
 0001:0002faf2       ___get_qualified_locale    10030af2 f   LIBCMT:getqloc.obj
 0001:00030362       ___get_qualified_locale_downlevel 10031362 f   LIBCMT:getqloc_downlevel.obj
 0001:0003057e       ___mtold12                 1003157e f   LIBCMT:mantold.obj
 0001:0003075e       __chsize                   1003175e f   LIBCMT:chsize.obj
 0001:00030778       __chsize_nolock            10031778 f   LIBCMT:chsize.obj
 0001:0003092e       __chsize_s                 1003192e f   LIBCMT:chsize.obj
 0001:00030a1c       __get_fmode                10031a1c f   LIBCMT:setmode.obj
 0001:00030a46       __set_fmode                10031a46 f   LIBCMT:setmode.obj
 0001:00030a81       __setmode                  10031a81 f   LIBCMT:setmode.obj
 0001:00030b86       __setmode_nolock           10031b86 f   LIBCMT:setmode.obj
 0001:00030c60       ___ascii_strnicmp          10031c60 f   LIBCMT:_strnicm.obj
 0001:00030cc1       __flswbuf                  10031cc1 f   LIBCMT:_flswbuf.obj
 0001:00030e23       __wchartodigit             10031e23 f   LIBCMT:wchtodig.obj
 0001:00030fc2       __wtoi                     10031fc2 f   LIBCMT:wtox.obj
 0001:00030fcb       __wtoi64                   10031fcb f   LIBCMT:wtox.obj
 0001:00030fdf       __wtoi64_l                 10031fdf f   LIBCMT:wtox.obj
 0001:00030ff6       __wtoi_l                   10031ff6 f   LIBCMT:wtox.obj
 0001:00030fff       __wtol                     10031fff f   LIBCMT:wtox.obj
 0001:00031013       __wtol_l                   10032013 f   LIBCMT:wtox.obj
 0001:0003102a       __wtoll                    1003202a f   LIBCMT:wtox.obj
 0001:0003103e       __wtoll_l                  1003203e f   LIBCMT:wtox.obj
 0001:00031055       _wcschr                    10032055 f   LIBCMT:wcschr.obj
 0001:00031103       __wcsicmp                  10032103 f   LIBCMT:wcsicmp.obj
 0001:00031196       __wcsicmp_l                10032196 f   LIBCMT:wcsicmp.obj
 0001:00031271       __wcsnicmp                 10032271 f   LIBCMT:wcsnicmp.obj
 0001:00031327       __wcsnicmp_l               10032327 f   LIBCMT:wcsnicmp.obj
 0001:000316f0       __wcstof_l                 100326f0 f   LIBCMT:wcstoq.obj
 0001:000317a3       __wcstoi64                 100327a3 f   LIBCMT:wcstoq.obj
 0001:000317cd       __wcstoi64_l               100327cd f   LIBCMT:wcstoq.obj
 0001:000317e8       __wcstoimax_l              100327e8 f   LIBCMT:wcstoq.obj
 0001:000317f1       __wcstold_l                100327f1 f   LIBCMT:wcstoq.obj
 0001:000317fa       __wcstoll_l                100327fa f   LIBCMT:wcstoq.obj
 0001:00031803       __wcstoui64                10032803 f   LIBCMT:wcstoq.obj
 0001:0003182d       __wcstoui64_l              1003282d f   LIBCMT:wcstoq.obj
 0001:00031848       __wcstoull_l               10032848 f   LIBCMT:wcstoq.obj
 0001:00031851       __wcstoumax_l              10032851 f   LIBCMT:wcstoq.obj
 0001:0003185a       _wcstof                    1003285a f   LIBCMT:wcstoq.obj
 0001:0003186f       _wcstoimax                 1003286f f   LIBCMT:wcstoq.obj
 0001:00031878       _wcstold                   10032878 f   LIBCMT:wcstoq.obj
 0001:00031881       _wcstoll                   10032881 f   LIBCMT:wcstoq.obj
 0001:0003188a       _wcstoull                  1003288a f   LIBCMT:wcstoq.obj
 0001:00031893       _wcstoumax                 10032893 f   LIBCMT:wcstoq.obj
 0001:0003189c       __towlower_l               1003289c f   LIBCMT:towlower.obj
 0001:0003194d       _towlower                  1003294d f   LIBCMT:towlower.obj
 0001:0003195e       __wcstod_l                 1003295e f   LIBCMT:wcstod.obj
 0001:00031a59       _wcstod                    10032a59 f   LIBCMT:wcstod.obj
 0001:00031a70       __allmul                   10032a70 f   LIBCMT:llmul.obj
 0001:00031aa4       ___crtLCMapStringW         10032aa4 f   LIBCMT:w_map.obj
 0001:00031ad3       __wfltin2                  10032ad3 f   LIBCMT:wcfin.obj
 0001:00031b80       ___WSTRINGTOLD_L           10032b80 f   LIBCMT:wstrgtold.obj
 0001:00031bdb       ___wstrgtold12_l           10032bdb f   LIBCMT:wstrgtold.obj
 0001:0003242c       _GetModuleHandleA@4        1003342c f   kernel32:KERNEL32.dll
 0001:00032432       _GetProcAddress@8          10033432 f   kernel32:KERNEL32.dll
 0001:00032438       _HeapAlloc@12              10033438 f   kernel32:KERNEL32.dll
 0001:0003243e       _IsDebuggerPresent@0       1003343e f   kernel32:KERNEL32.dll
 0001:00032444       _IsProcessorFeaturePresent@4 10033444 f   kernel32:KERNEL32.dll
 0001:0003244a       _EncodePointer@4           1003344a f   kernel32:KERNEL32.dll
 0001:00032450       _DecodePointer@4           10033450 f   kernel32:KERNEL32.dll
 0001:00032456       _GetLastError@0            10033456 f   kernel32:KERNEL32.dll
 0001:0003245c       _ExitProcess@4             1003345c f   kernel32:KERNEL32.dll
 0001:00032462       _GetModuleHandleExW@12     10033462 f   kernel32:KERNEL32.dll
 0001:00032468       _AreFileApisANSI@0         10033468 f   kernel32:KERNEL32.dll
 0001:0003246e       _MultiByteToWideChar@24    1003346e f   kernel32:KERNEL32.dll
 0001:00032474       _WideCharToMultiByte@32    10033474 f   kernel32:KERNEL32.dll
 0001:0003247a       _HeapFree@12               1003347a f   kernel32:KERNEL32.dll
 0001:00032480       _HeapReAlloc@16            10033480 f   kernel32:KERNEL32.dll
 0001:00032486       _EnterCriticalSection@4    10033486 f   kernel32:KERNEL32.dll
 0001:0003248c       _LeaveCriticalSection@4    1003348c f   kernel32:KERNEL32.dll
 0001:00032492       _GetStdHandle@4            10033492 f   kernel32:KERNEL32.dll
 0001:00032498       _GetFileType@4             10033498 f   kernel32:KERNEL32.dll
 0001:0003249e       _GetModuleFileNameW@12     1003349e f   kernel32:KERNEL32.dll
 0001:000324a4       _WriteConsoleW@20          100334a4 f   kernel32:KERNEL32.dll
 0001:000324aa       _GetCommandLineA@0         100334aa f   kernel32:KERNEL32.dll
 0001:000324b0       _GetCurrentThreadId@0      100334b0 f   kernel32:KERNEL32.dll
 0001:000324b6       _WriteFile@20              100334b6 f   kernel32:KERNEL32.dll
 0001:000324bc       _GetProcessHeap@0          100334bc f   kernel32:KERNEL32.dll
 0001:000324c2       _UnhandledExceptionFilter@4 100334c2 f   kernel32:KERNEL32.dll
 0001:000324c8       _SetUnhandledExceptionFilter@4 100334c8 f   kernel32:KERNEL32.dll
 0001:000324ce       _SetLastError@4            100334ce f   kernel32:KERNEL32.dll
 0001:000324d4       _InitializeCriticalSectionAndSpinCount@8 100334d4 f   kernel32:KERNEL32.dll
 0001:000324da       _CreateEventW@16           100334da f   kernel32:KERNEL32.dll
 0001:000324e0       _Sleep@4                   100334e0 f   kernel32:KERNEL32.dll
 0001:000324e6       _GetCurrentProcess@0       100334e6 f   kernel32:KERNEL32.dll
 0001:000324ec       _TerminateProcess@8        100334ec f   kernel32:KERNEL32.dll
 0001:000324f2       _TlsAlloc@0                100334f2 f   kernel32:KERNEL32.dll
 0001:000324f8       _TlsGetValue@4             100334f8 f   kernel32:KERNEL32.dll
 0001:000324fe       _TlsSetValue@8             100334fe f   kernel32:KERNEL32.dll
 0001:00032504       _TlsFree@4                 10033504 f   kernel32:KERNEL32.dll
 0001:0003250a       _GetStartupInfoW@4         1003350a f   kernel32:KERNEL32.dll
 0001:00032510       _GetTickCount@0            10033510 f   kernel32:KERNEL32.dll
 0001:00032516       _GetModuleHandleW@4        10033516 f   kernel32:KERNEL32.dll
 0001:0003251c       _CreateSemaphoreW@16       1003351c f   kernel32:KERNEL32.dll
 0001:00032522       _DeleteCriticalSection@4   10033522 f   kernel32:KERNEL32.dll
 0001:00032528       _FatalAppExitA@8           10033528 f   kernel32:KERNEL32.dll
 0001:0003252e       _SetConsoleCtrlHandler@8   1003352e f   kernel32:KERNEL32.dll
 0001:00032534       _FreeLibrary@4             10033534 f   kernel32:KERNEL32.dll
 0001:0003253a       _LoadLibraryExW@12         1003353a f   kernel32:KERNEL32.dll
 0001:00032540       _IsValidCodePage@4         10033540 f   kernel32:KERNEL32.dll
 0001:00032546       _GetACP@0                  10033546 f   kernel32:KERNEL32.dll
 0001:0003254c       _GetOEMCP@0                1003354c f   kernel32:KERNEL32.dll
 0001:00032552       _GetCPInfo@8               10033552 f   kernel32:KERNEL32.dll
 0001:00032558       _CloseHandle@4             10033558 f   kernel32:KERNEL32.dll
 0001:0003255e       _RtlUnwind@16              1003355e f   kernel32:KERNEL32.dll
 0001:00032564       _ReadFile@20               10033564 f   kernel32:KERNEL32.dll
 0001:0003256a       _GetConsoleMode@8          1003356a f   kernel32:KERNEL32.dll
 0001:00032570       _ReadConsoleW@20           10033570 f   kernel32:KERNEL32.dll
 0001:00032576       _GetConsoleCP@0            10033576 f   kernel32:KERNEL32.dll
 0001:0003257c       _DeleteFileW@4             1003357c f   kernel32:KERNEL32.dll
 0001:00032582       _SetFilePointerEx@20       10033582 f   kernel32:KERNEL32.dll
 0001:00032588       _RaiseException@16         10033588 f   kernel32:KERNEL32.dll
 0001:0003258e       _OutputDebugStringW@4      1003358e f   kernel32:KERNEL32.dll
 0001:00032594       _GetCurrentThread@0        10033594 f   kernel32:KERNEL32.dll
 0001:0003259a       _GetModuleFileNameA@12     1003359a f   kernel32:KERNEL32.dll
 0001:000325a0       _QueryPerformanceCounter@4 100335a0 f   kernel32:KERNEL32.dll
 0001:000325a6       _GetCurrentProcessId@0     100335a6 f   kernel32:KERNEL32.dll
 0001:000325ac       _GetSystemTimeAsFileTime@4 100335ac f   kernel32:KERNEL32.dll
 0001:000325b2       _GetEnvironmentStringsW@0  100335b2 f   kernel32:KERNEL32.dll
 0001:000325b8       _FreeEnvironmentStringsW@4 100335b8 f   kernel32:KERNEL32.dll
 0001:000325be       _HeapSize@12               100335be f   kernel32:KERNEL32.dll
 0001:000325c4       _GetDateFormatW@24         100335c4 f   kernel32:KERNEL32.dll
 0001:000325ca       _GetTimeFormatW@24         100335ca f   kernel32:KERNEL32.dll
 0001:000325d0       _CompareStringW@24         100335d0 f   kernel32:KERNEL32.dll
 0001:000325d6       _LCMapStringW@24           100335d6 f   kernel32:KERNEL32.dll
 0001:000325dc       _GetLocaleInfoW@16         100335dc f   kernel32:KERNEL32.dll
 0001:000325e2       _IsValidLocale@8           100335e2 f   kernel32:KERNEL32.dll
 0001:000325e8       _GetUserDefaultLCID@0      100335e8 f   kernel32:KERNEL32.dll
 0001:000325ee       _EnumSystemLocalesW@8      100335ee f   kernel32:KERNEL32.dll
 0001:000325f4       _GetStringTypeW@16         100335f4 f   kernel32:KERNEL32.dll
 0001:000325fa       _FlushFileBuffers@4        100335fa f   kernel32:KERNEL32.dll
 0001:00032600       _SetStdHandle@8            10033600 f   kernel32:KERNEL32.dll
 0001:00032606       _CreateFileW@28            10033606 f   kernel32:KERNEL32.dll
 0001:0003260c       _SetEndOfFile@4            1003360c f   kernel32:KERNEL32.dll
 0002:00000000       ___xc_a                    1003e000     LIBCMT:crt0init.obj
 0002:00000104       ___xc_z                    1003e104     LIBCMT:crt0init.obj
 0002:00000208       ___xi_a                    1003e208     LIBCMT:crt0init.obj
 0002:00000420       ___xi_z                    1003e420     LIBCMT:crt0init.obj
 0002:00000524       ___xp_a                    1003e524     LIBCMT:crt0init.obj
 0002:00000838       ___xp_z                    1003e838     LIBCMT:crt0init.obj
 0002:0000093c       ___xt_a                    1003e93c     LIBCMT:crt0init.obj
 0002:00000a40       ___xt_z                    1003ea40     LIBCMT:crt0init.obj
 0002:00000b88       _CenterLimit_M             1003eb88     CenterLimit.obj
 0002:00000b8c       ??_C@_0BC@OJJPBDHH@FixedStepDiscrete?$AA@ 1003eb8c     CenterLimit.obj
 0002:00000ba4       ??_C@_04EPKDLPPB@tout?$AA@ 1003eba4     CenterLimit.obj
 0002:00000baa       ??_C@_00CNPNBAHC@?$AA@     1003ebaa     CenterLimit.obj
 0002:00000bac       ??_C@_03HBFGMJOD@rt_?$AA@  1003ebac     CenterLimit.obj
 0002:00000bb0       ??_C@_0O@GDKFENNN@PCI?9DDA08?512?5?$AA@ 1003ebb0     CenterLimit.obj
 0002:00000bc0       ??_C@_0BK@IFAICGOA@CenterLimit?1PCI?9DDA08?512?5?$AA@ 1003ebc0     CenterLimit.obj
 0002:00000be0       ??_C@_0P@MGKGOBE@PCI?9DDA08?512?53?$AA@ 1003ebe0     CenterLimit.obj
 0002:00000bf4       ??_C@_0BL@FEOEIPGO@CenterLimit?1PCI?9DDA08?512?53?$AA@ 1003ebf4     CenterLimit.obj
 0002:00000c14       ??_C@_0BA@JMMFBLBP@PCI?9DDA?508?512?51?$AA@ 1003ec14     CenterLimit.obj
 0002:00000c28       ??_C@_0BM@CMENANNM@CenterLimit?1PCI?9DDA?508?512?51?$AA@ 1003ec28     CenterLimit.obj
 0002:00000c4c       ??_C@_0P@BFHBFPFF@PCI?9DDA08?512?52?$AA@ 1003ec4c     CenterLimit.obj
 0002:00000c60       ??_C@_0BL@ENPPLOCP@CenterLimit?1PCI?9DDA08?512?52?$AA@ 1003ec60     CenterLimit.obj
 0002:00000c80       ??_C@_0BA@KOPDHJJN@PCI?9DDA?508?512?53?$AA@ 1003ec80     CenterLimit.obj
 0002:00000c94       ??_C@_0BM@BOHLGPFO@CenterLimit?1PCI?9DDA?508?512?53?$AA@ 1003ec94     CenterLimit.obj
 0002:00000cb8       ??_C@_0P@DOFMAMJG@PCI?9DDA08?512?51?$AA@ 1003ecb8     CenterLimit.obj
 0002:00000ccc       ??_C@_0BL@GGNCONOM@CenterLimit?1PCI?9DDA08?512?51?$AA@ 1003eccc     CenterLimit.obj
 0002:00000cec       ??_C@_0BA@OBLCOPFK@PCI?9DDA?508?512?54?$AA@ 1003ecec     CenterLimit.obj
 0002:00000d00       ??_C@_0BM@FBDKPJJJ@CenterLimit?1PCI?9DDA?508?512?54?$AA@ 1003ed00     CenterLimit.obj
 0002:00000d28       __real@3f50624dd2f1a9fc    1003ed28     CenterLimit.obj
 0002:00000d38       __real@41f0000000000000    1003ed38     CenterLimit.obj
 0002:00000d48       __real@bff0000000000000    1003ed48     CenterLimit.obj
 0002:00000d60       __xmm@00000000000000003f50624dd2f1a9fc 1003ed60     CenterLimit.obj
 0002:00000d80       __xmm@000000cc000000040000000800000001 1003ed80     CenterLimit.obj
 0002:00000da0       __xmm@41f00000000000000000000000000000 1003eda0     CenterLimit.obj
 0002:000014f0       ??_C@_08CHMPKCOC@Constant?$AA@ 1003f4f0     CenterLimit_capi.obj
 0002:000014fc       ??_C@_05LPIJGKJ@Value?$AA@ 1003f4fc     CenterLimit_capi.obj
 0002:00001504       ??_C@_02KKFPAPOP@P1?$AA@   1003f504     CenterLimit_capi.obj
 0002:00001508       ??_C@_02IBHCFMCM@P2?$AA@   1003f508     CenterLimit_capi.obj
 0002:0000150c       ??_C@_02JIGJGNGN@P3?$AA@   1003f50c     CenterLimit_capi.obj
 0002:00001510       ??_C@_02NHCIPLKK@P4?$AA@   1003f510     CenterLimit_capi.obj
 0002:00001514       ??_C@_02MODDMKOL@P5?$AA@   1003f514     CenterLimit_capi.obj
 0002:00001518       ??_C@_02OFBOJJCI@P6?$AA@   1003f518     CenterLimit_capi.obj
 0002:0000151c       ??_C@_02PMAFKIGJ@P7?$AA@   1003f51c     CenterLimit_capi.obj
 0002:00001520       ??_C@_02HLJNLEKG@P8?$AA@   1003f520     CenterLimit_capi.obj
 0002:00001524       ??_C@_02GCIGIFOH@P9?$AA@   1003f524     CenterLimit_capi.obj
 0002:00001528       ??_C@_03OPFJJGBF@P10?$AA@  1003f528     CenterLimit_capi.obj
 0002:0000152c       ??_C@_06BNJCAIGJ@double?$AA@ 1003f52c     CenterLimit_capi.obj
 0002:00001534       ??_C@_06CNMIJIPB@real_T?$AA@ 1003f534     CenterLimit_capi.obj
 0002:0000153c       ??_C@_05KNFBNCOH@float?$AA@ 1003f53c     CenterLimit_capi.obj
 0002:00001544       ??_C@_0CJ@GGPBKPNK@Could?5not?5start?5ToAsyncQueue?5app@ 1003f544     CenterLimit_tgtconn.obj
 0002:00001dd8       ??_C@_0DJ@FHKINPLE@Unexpected?5itemKind?5?$DN?5DATA_ITEM?5@ 1003fdd8     rt_logging.obj
 0002:00001e1c       ??_C@_0DA@IEHFPFCJ@Unexpected?5itemKind?$DN?$CFd?5in?5rt_Pro@ 1003fe1c     rt_logging.obj
 0002:00001e58       ??_C@_0DA@IFLHJPBO@Unexpected?5itemKind?$DN?$CFd?5in?5rt_Pro@ 1003fe58     rt_logging.obj
 0002:00001e94       ??_C@_0DA@IAPIIJJL@Unexpected?5itemKind?$DN?$CFd?5in?5rt_Pro@ 1003fe94     rt_logging.obj
 0002:00001ed0       ??_C@_0BE@LCIGPJIG@MATLAB?55?40?5MAT?9file?$AA@ 1003fed0     rt_logging.obj
 0002:00001ee8       ??_C@_0FB@PCJEAJIB@?$CK?$CK?$CK?5Log?5variable?5?$CFs?5has?5wrapped?5@ 1003fee8     rt_logging.obj
 0002:00001f50       ??_C@_0MG@NKMLMOGF@?$CK?$CK?$CK?5To?5avoid?5wrapping?0?5explicitl@ 1003ff50     rt_logging.obj
 0002:00002040       ??_C@_0N@IPAEOLLP@_rtw_tmw?4tmw?$AA@ 10040040     rt_logging.obj
 0002:00002050       ??_C@_04HDOCAJNK@?$CFs?$CFs?$AA@ 10040050     rt_logging.obj
 0002:00002058       ??_C@_03ELIABIOC@w?$CLb?$AA@ 10040058     rt_logging.obj
 0002:0000205c       ??_C@_0BF@JPILDDFA@?$CK?$CK?$CK?5Error?5opening?5?$CFs?$AA@ 1004005c     rt_logging.obj
 0002:00002078       ??_C@_0BK@EEMDELA@unable?5to?5open?5data?5file?6?$AA@ 10040078     rt_logging.obj
 0002:00002098       ??_C@_04CGFJFPFD@none?$AA@ 10040098     rt_logging.obj
 0002:000020a0       ??_C@_0EE@LCGFPNON@?$CK?$CK?$CK?5Error?5creating?5signals?5struc@ 100400a0     rt_logging.obj
 0002:000020f4       ??_C@_0CE@NHECEDMK@?$CK?$CK?$CK?5Error?5creating?5log?5variable?5@ 100400f4     rt_logging.obj
 0002:00002120       ??_C@_0DB@IOCGKAGH@?$CK?$CK?$CK?5Errors?5occurred?5when?5startin@ 10040120     rt_logging.obj
 0002:0000215c       ??_C@_0BO@BBLOGEBK@?$CK?$CK?$CK?5Memory?5allocation?5error?4?6?$AA@ 1004015c     rt_logging.obj
 0002:00002180       ??_C@_0N@LGFBAGEL@?5?$CIreal?5part?$CJ?$AA@ 10040180     rt_logging.obj
 0002:00002190       ??_C@_0KH@CGNMHNFE@?5?5?5?5varName?5?5?5?5?5?5?5?5?5?5?$DN?5?$CFs?$CFs?6?5?5?5?5@ 10040190     rt_logging.obj
 0002:00002258       ??_C@_0LE@OALKKEFM@?5?5?5?5varName?5?5?5?5?5?5?5?5?5?5?$DN?5?$CFs?5?$CIcompl@ 10040258     rt_logging.obj
 0002:00002330       ??_C@_0KF@JDDLEOKO@?5?5?5?5varName?5?5?5?5?5?5?5?5?5?5?$DN?5?$CFs?6?5?5?5?5nR@ 10040330     rt_logging.obj
 0002:000023f8       ??_C@_0DP@HPDMIOFM@?$CK?$CK?$CK?5Using?5a?5default?5buffer?5of?5si@ 100403f8     rt_logging.obj
 0002:00002448       ??_C@_0KE@JEFOLKNF@?6?$CK?$CK?$CK?5Memory?5required?5to?5log?5vari@ 10040448     rt_logging.obj
 0002:00002510       ??_C@_0JP@DKLMHCBI@?$CK?$CK?$CK?5Details?3?6?5?5?5?5?5?5?5varName?5?5?5?5?5@ 10040510     rt_logging.obj
 0002:000025d0       ??_C@_0CM@CAMILBED@?$CK?$CK?$CK?5Error?5allocating?5memory?5for?5@ 100405d0     rt_logging.obj
 0002:00002604       ??_C@_0DF@BBCNMOPM@?$CK?$CK?$CK?5Error?5allocating?5memory?5for?5@ 10040604     rt_logging.obj
 0002:00002648       ??_C@_0JP@DBCLPCCI@?$CK?$CK?$CK?5Details?3?6?5?5?5?5?5?5?5varName?5?5?5?5?5@ 10040648     rt_logging.obj
 0002:00002708       ??_C@_0FK@DPGAOBGA@?$CK?$CK?$CK?5Error?5allocating?5memory?5for?5@ 10040708     rt_logging.obj
 0002:00002774       ??_C@_0BI@GGDNPHLJ@?$CK?$CK?$CK?5Error?5writing?5to?5?$CFs?$AA@ 10040774     rt_logging.obj
 0002:00002790       ??_C@_0CB@IBGJGELG@?$CK?$CK?$CK?5Error?5writing?5?$CFs?5due?5to?3?5?$CFs?6@ 10040790     rt_logging.obj
 0002:000027b8       ??_C@_0CN@FLMCHCPB@?$CK?$CK?$CK?5Error?5writing?5log?5variable?5?$CF@ 100407b8     rt_logging.obj
 0002:000027f0       ??_C@_0DH@GAJCNOJP@?$CK?$CK?$CK?5Error?5writing?5structure?5log?5@ 100407f0     rt_logging.obj
 0002:00002834       ??_C@_0BD@POEALECL@?$CK?$CK?5created?5?$CFs?5?$CK?$CK?6?6?$AA@ 10040834     rt_logging.obj
 0002:00002850       __real@0000000000000000    10040850     rt_logging.obj
 0002:00002860       __real@3ff0000000000000    10040860     rt_logging.obj
 0002:00002870       __real@4020000000000000    10040870     rt_logging.obj
 0002:00002880       __real@41dfffffffc00000    10040880     rt_logging.obj
 0002:00002890       __real@41efffffffe00000    10040890     rt_logging.obj
 0002:000028a0       __real@4330000000000000    100408a0     rt_logging.obj
 0002:000028b0       __real@8000000000000000    100408b0     rt_logging.obj
 0002:000028c0       __real@bfbf9add3afd2773    100408c0     rt_logging.obj
 0002:000028d0       __real@c000000000000000    100408d0     rt_logging.obj
 0002:000028e0       __xmm@20202020202020202020202020202020 100408e0     rt_logging.obj
 0002:00002910       __real@3cb0000000000000    10040910     rt_matrx.obj
 0002:00002920       __real@3fe0000000000000    10040920     rt_matrx.obj
 0002:0000292c       ??_C@_0BI@INNPNFJN@Memory?5Allocation?5Error?$AA@ 1004092c     rtw_modelmap_utils.obj
 0002:00002948       ??_C@_1HC@OAPLBLFC@?$AAC?$AA?3?$AA?2?$AAP?$AAR?$AAO?$AAG?$AAR?$AAA?$AA?$HO?$AA1?$AA?2?$AAM?$AAA?$AAT?$AAL?$AAA?$AAB?$AA?2?$AAR?$AA2?$AA0?$AA1?$AA6?$AAa?$AA?2?$AAr?$AAt?$AAw?$AA?2?$AAc?$AA?2@ 10040948     rtw_modelmap_utils.obj
 0002:000029d0       ??_C@_1CI@OEAJCJND@?$AAj?$AA?5?$AA?$DN?$AA?$DN?$AA?5?$AAe?$AAn?$AAc?$AAo?$AAd?$AAe?$AAd?$AAP?$AAa?$AAt?$AAh?$AAL?$AAe?$AAn?$AA?$AA@ 100409d0     rtw_modelmap_utils.obj
 0002:00002a00       ??_C@_1DC@NFAOIFKB@?$AAe?$AAn?$AAc?$AAo?$AAd?$AAe?$AAd?$AAP?$AAa?$AAt?$AAh?$AA?$FL?$AAj?$AA?9?$AA1?$AA?$FN?$AA?5?$AA?$DN?$AA?$DN?$AA?5?$AA?8?$AA?2?$AA0?$AA?8?$AA?$AA@ 10040a00     rtw_modelmap_utils.obj
 0002:00002a3c       ??_C@_1DI@FLNJGPEE@?$AAs?$AAi?$AAg?$AAC?$AAo?$AAm?$AAp?$AAl?$AAe?$AAx?$AAi?$AAt?$AAy?$AA?$FL?$AA?$CK?$AAs?$AAi?$AAg?$AAI?$AAd?$AAx?$AA?$FN?$AA?5?$AA?$CB?$AA?$DN?$AA?5?$AA1?$AA?$AA@ 10040a3c     rtw_modelmap_utils.obj
 0002:00002a80       ??_C@_1KI@OFELMGBG@?$AA?$CI?$AA?$CI?$AA?$CI?$AAd?$AAa?$AAt?$AAa?$AAT?$AAy?$AAp?$AAe?$AAM?$AAa?$AAp?$AA?$CJ?$AA?$FL?$AA?$CI?$AA?$CI?$AA?$CI?$AAs?$AAt?$AAa?$AAt?$AAe?$AAs?$AA?$CJ?$AA?$FL?$AA?$CI?$AAi?$AA?$CJ?$AA?$FN?$AA?4@ 10040a80     rtw_modelmap_utils.obj
 0002:00002b4c       ??_C@_1DA@ILCMPHNE@?$AAf?$AAu?$AAl?$AAl?$AAP?$AAa?$AAt?$AAh?$AA?5?$AA?$CB?$AA?$DN?$AA?5?$AA?$CI?$AA?$CI?$AAv?$AAo?$AAi?$AAd?$AA?5?$AA?$CK?$AA?$CJ?$AA0?$AA?$CJ?$AA?$AA@ 10040b4c     rtw_modelmap_utils.obj
 0002:00002b88       ??_C@_1CI@OEPPFCCA@?$AAp?$AAa?$AAt?$AAh?$AA?5?$AA?$CB?$AA?$DN?$AA?5?$AA?$CI?$AA?$CI?$AAv?$AAo?$AAi?$AAd?$AA?5?$AA?$CK?$AA?$CJ?$AA0?$AA?$CJ?$AA?$AA@ 10040b88     rtw_modelmap_utils.obj
 0002:00002bb8       ??_C@_1FK@GLJIMFHB@?$AA?$CI?$AA?$CI?$AAm?$AAm?$AAi?$AA?$CJ?$AA?9?$AA?$DO?$AAI?$AAn?$AAs?$AAt?$AAa?$AAn?$AAc?$AAe?$AAM?$AAa?$AAp?$AA?4?$AAf?$AAu?$AAl?$AAl?$AAP?$AAa?$AAt?$AAh?$AA?$CJ?$AA?5?$AA?$DN?$AA?$DN@ 10040bb8     rtw_modelmap_utils.obj
 0002:00002c24       ??_C@_1DG@HPCJGNCE@?$AAm?$AAm?$AAi?$AAP?$AAa?$AAt?$AAh?$AA?$FL?$AAp?$AAa?$AAt?$AAh?$AAL?$AAe?$AAn?$AA?9?$AA1?$AA?$FN?$AA?5?$AA?$DN?$AA?$DN?$AA?5?$AA?8?$AA?2?$AA0?$AA?8?$AA?$AA@ 10040c24     rtw_modelmap_utils.obj
 0002:00002c64       ??_C@_1DM@DBAOGGOO@?$AAm?$AAm?$AAi?$AAP?$AAa?$AAt?$AAh?$AA?$FL?$AAm?$AAm?$AAi?$AAP?$AAa?$AAt?$AAh?$AAL?$AAe?$AAn?$AA?9?$AA1?$AA?$FN?$AA?5?$AA?$DN?$AA?$DN?$AA?5?$AA?8?$AA?2?$AA0?$AA?8?$AA?$AA@ 10040c64     rtw_modelmap_utils.obj
 0002:00002cac       ??_C@_1DC@LHIAKAFE@?$AAb?$AAl?$AAo?$AAc?$AAk?$AAP?$AAa?$AAt?$AAh?$AA?5?$AA?$CB?$AA?$DN?$AA?5?$AA?$CI?$AA?$CI?$AAv?$AAo?$AAi?$AAd?$AA?5?$AA?$CK?$AA?$CJ?$AA0?$AA?$CJ?$AA?$AA@ 10040cac     rtw_modelmap_utils.obj
 0002:00002ce8       ??_C@_1GI@KIEJKPGC@?$AAf?$AAu?$AAl?$AAl?$AAS?$AAt?$AAa?$AAt?$AAe?$AAB?$AAl?$AAo?$AAc?$AAk?$AAP?$AAa?$AAt?$AAh?$AA?$FL?$AAf?$AAu?$AAl?$AAl?$AAS?$AAt?$AAa?$AAt?$AAe?$AAB?$AAl?$AAo?$AAc@ 10040ce8     rtw_modelmap_utils.obj
 0002:00002d68       ??_C@_1EE@DNPIBJHC@?$AA?$CI?$AA?$CI?$AAd?$AAi?$AAm?$AAM?$AAa?$AAp?$AA?$CJ?$AA?$FL?$AA?$CI?$AAm?$AAa?$AAp?$AAI?$AAd?$AAx?$AA?$CJ?$AA?$FN?$AA?4?$AAn?$AAu?$AAm?$AAD?$AAi?$AAm?$AAs?$AA?$CJ?$AA?5?$AA?$DN?$AA?$DN?$AA?5@ 10040d68     rtw_modelmap_utils.obj
 0002:00002dbc       ??_C@_06JFOKFOED@CSTATE?$AA@ 10040dbc     rtw_modelmap_utils.obj
 0002:00002dc4       ??_C@_06FAENGAMN@DSTATE?$AA@ 10040dc4     rtw_modelmap_utils.obj
 0002:00002dcc       ??_C@_1BI@LEBJNOGG@?$AAc?$AAs?$AAv?$AAI?$AAd?$AAx?$AA?5?$AA?$DO?$AA?$DN?$AA?5?$AA0?$AA?$AA@ 10040dcc     rtw_modelmap_utils.obj
 0002:00002de8       ??_C@_1BA@KDMGHCHP@?$AAT?$AAI?$AAD?$AA?$DN?$AA?$DN?$AA?9?$AA1?$AA?$AA@ 10040de8     rtw_modelmap_utils.obj
 0002:00002dfc       ??_C@_1DM@DHGKBPCE@?$AAs?$AAi?$AAg?$AAP?$AAa?$AAt?$AAh?$AA?$FL?$AAs?$AAi?$AAg?$AAP?$AAa?$AAt?$AAh?$AAL?$AAe?$AAn?$AA?9?$AA1?$AA?$FN?$AA?5?$AA?$DN?$AA?$DN?$AA?5?$AA?8?$AA?2?$AA0?$AA?8?$AA?$AA@ 10040dfc     rtw_modelmap_utils.obj
 0002:00002e44       _serialfifoground          10040e44     xpc_datatype_ground.obj
 0002:00002e50       _bcmsg1553ground           10040e50     xpc_datatype_ground.obj
 0002:00002e60       _bcstatground              10040e60     xpc_datatype_ground.obj
 0002:00002e78       _bmmsg1553ground           10040e78     xpc_datatype_ground.obj
 0002:00002e98       ??_C@_0M@EKGIBDIF@CenterLimit?$AA@ 10040e98     xpctarget.obj
 0002:00002ea8       _ptsetfilename             10040ea8     xpctarget.obj
 0002:00002eac       _xmlfile                   10040eac     xpctarget.obj
 0002:00002eb4       ??_C@_0L@CHBJKKFC@xpceSetVar?$AA@ 10040eb4     xpctarget.obj
 0002:00002ec4       ??_C@_03ICACBPID@6?44?$AA@ 10040ec4     xpctarget.obj
 0002:00002ec8       __real@3fb999999999999a    10040ec8     xpctarget.obj
 0002:00002ed8       __real@408f400000000000    10040ed8     xpctarget.obj
 0002:00002ee8       _CenterLimit_BIOMAP        10040ee8     appmappingData.obj
 0002:00002f24       _CenterLimit_LBLMAP        10040f24     appmappingData.obj
 0002:00002f60       _CenterLimit_SIDMAP        10040f60     appmappingData.obj
 0002:00002f9c       _CenterLimit_SBIO          10040f9c     appmappingData.obj
 0002:00002fb0       _CenterLimit_SLBL          10040fb0     appmappingData.obj
 0002:00002fc4       _CenterLimit_dtmap         10040fc4     appmappingData.obj
 0002:00002fd0       _CenterLimit_PTIDSMAP      10040fd0     appmappingData.obj
 0002:000031c8       _CenterLimit_PTNAMESMAP    100411c8     appmappingData.obj
 0002:000033c0       _CenterLimit_SPTMAP        100413c0     appmappingData.obj
 0002:000034c0       _appInfo                   100414c0     appmappingData.obj
 0002:00003648       ??_C@_0ED@LKHIFFLC@Wrong?5number?5of?5input?5arguments?5@ 10041648     dacbpcidda0x12.obj
 0002:00003698       ??_C@_0BA@MBPMNBMJ@CB?5PCI?9DDA02?112?$AA@ 10041698     dacbpcidda0x12.obj
 0002:000036ac       ??_C@_0BA@EOLMCEGJ@CB?5PCI?9DDA04?112?$AA@ 100416ac     dacbpcidda0x12.obj
 0002:000036c0       ??_C@_0BA@ILEMMJGI@CB?5PCI?9DDA08?112?$AA@ 100416c0     dacbpcidda0x12.obj
 0002:000036d4       ??_C@_0BA@KFJABEMN@CB?5PCI?9DDA02?116?$AA@ 100416d4     dacbpcidda0x12.obj
 0002:000036e8       ??_C@_0BA@CKNAOBGN@CB?5PCI?9DDA04?116?$AA@ 100416e8     dacbpcidda0x12.obj
 0002:000036fc       ??_C@_0BA@OPCAAMGM@CB?5PCI?9DDA08?116?$AA@ 100416fc     dacbpcidda0x12.obj
 0002:00003710       ??_C@_0BB@IGAELBME@CB?5PCIM?9DDA06?116?$AA@ 10041710     dacbpcidda0x12.obj
 0002:00003724       ??_C@_0BD@IPMBHKCA@CB?5PCIM?9DAS1602?116?$AA@ 10041724     dacbpcidda0x12.obj
 0002:0000373c       ??_C@_0BG@EPCOHGPO@?$CFs?3?5board?5not?5present?$AA@ 1004173c     dacbpcidda0x12.obj
 0002:00003758       ??_C@_0CI@NFFNBHJA@?$CFs?5?$CIbus?5?$CFd?0?5slot?5?$CFd?$CJ?3?5board?5not?5@ 10041758     dacbpcidda0x12.obj
 0002:00003788       __real@3ee4f8b588e368f1    10041788     dacbpcidda0x12.obj
 0002:00003798       __real@4004000000000000    10041798     dacbpcidda0x12.obj
 0002:000037a8       __real@4014000000000000    100417a8     dacbpcidda0x12.obj
 0002:000037b8       __real@4024000000000000    100417b8     dacbpcidda0x12.obj
 0002:000037c8       __real@4034000000000000    100417c8     dacbpcidda0x12.obj
 0002:000037d8       __real@40b0000000000000    100417d8     dacbpcidda0x12.obj
 0002:000037e8       __real@40f0000000000000    100417e8     dacbpcidda0x12.obj
 0002:000037f4       ??_C@_0BC@JCHLEIED@MC?5PCI?9DAS1602?116?$AA@ 100417f4     dipci8255.obj
 0002:0000380c       ??_C@_0P@KEALKDG@MC?5PCI?9DAS1200?$AA@ 1004180c     dipci8255.obj
 0002:00003820       ??_C@_0BC@EFMBBGCC@MC?5PCI?9DAS1200?1JR?$AA@ 10041820     dipci8255.obj
 0002:00003838       ??_C@_0O@PCCBFPNG@MC?5PCI?9DIO48H?$AA@ 10041838     dipci8255.obj
 0002:00003848       ??_C@_0BA@FIIFPMIK@MC?5PCI?9DDA02?112?$AA@ 10041848     dipci8255.obj
 0002:0000385c       ??_C@_0BA@NHMFAJCK@MC?5PCI?9DDA04?112?$AA@ 1004185c     dipci8255.obj
 0002:00003870       ??_C@_0BA@BCDFOECL@MC?5PCI?9DDA08?112?$AA@ 10041870     dipci8255.obj
 0002:00003884       ??_C@_0O@NOFAPJGO@MC?5PCI?9DIO24H?$AA@ 10041884     dipci8255.obj
 0002:00003894       ??_C@_0O@KNFKKAB@MC?5PCI?9DIO96H?$AA@ 10041894     dipci8255.obj
 0002:000038a4       ??_C@_0N@JDGAGCEP@MC?5PCI?9DIO24?$AA@ 100418a4     dipci8255.obj
 0002:000038b4       ??_C@_0BC@PGBHINEH@MC?5PCI?9DAS1602?112?$AA@ 100418b4     dipci8255.obj
 0002:000038cc       ??_C@_0M@DJFFBOOL@NI?5PCI?96503?$AA@ 100418cc     dipci8255.obj
 0002:000038dc       ??_C@_0O@CJHADKHB@NI?5PCI?9DIO?996?$AA@ 100418dc     dipci8255.obj
 0002:000038ec       ??_C@_0M@PLHAOKFN@NI?5PXI?96508?$AA@ 100418ec     dipci8255.obj
 0002:000038fc       ??_C@_0N@NMILOOOH@NI?5PCI?96025E?$AA@ 100418fc     dipci8255.obj
 0002:0000390c       ??_C@_0BA@LFAJKKBP@MC?5PCI?9DUAL?9AC5?$AA@ 1004190c     dipci8255.obj
 0002:00003920       ??_C@_0BA@DMOJDJIO@MC?5PCI?9DDA02?116?$AA@ 10041920     dipci8255.obj
 0002:00003934       ??_C@_0BA@LDKJMMCO@MC?5PCI?9DDA04?116?$AA@ 10041934     dipci8255.obj
 0002:00003948       ??_C@_0BA@HGFJCBCP@MC?5PCI?9DDA08?116?$AA@ 10041948     dipci8255.obj
 0002:0000395c       ??_C@_0BB@GJEINIMD@MC?5PCIM?9DDA06?116?$AA@ 1004195c     dipci8255.obj
 0002:00003970       ??_C@_0BD@PEOONKFH@MC?5PCIM?9DAS1602?116?$AA@ 10041970     dipci8255.obj
 0002:00003988       ??_C@_0N@KNADOPCM@MC?5PCI?9DIO96?$AA@ 10041988     dipci8255.obj
 0002:00003998       ??_C@_0P@LJFCEDPM@MC?5PCI?9DAS1001?$AA@ 10041998     dipci8255.obj
 0002:000039ac       ??_C@_0P@JCHPBADP@MC?5PCI?9DAS1002?$AA@ 100419ac     dipci8255.obj
 0002:000039c0       ??_C@_0BI@IHCNPKCM@No?5?$CFs?5at?5bus?5?$CFd?5slot?5?$CFd?$AA@ 100419c0     dipci8255.obj
 0002:000039dc       ??_C@_0BC@MPAJBIJ@CB?5PCI?9DAS1602?116?$AA@ 100419dc     dopci8255.obj
 0002:000039f4       ??_C@_0P@HKDMEDDF@CB?5PCI?9DAS1200?$AA@ 100419f4     dopci8255.obj
 0002:00003a08       ??_C@_0BC@NLEKMPOI@CB?5PCI?9DAS1200?1JR?$AA@ 10041a08     dopci8255.obj
 0002:00003a20       ??_C@_0O@OECMNDND@CB?5PCI?9DIO48H?$AA@ 10041a20     dopci8255.obj
 0002:00003a30       ??_C@_0O@MIFNHFGL@CB?5PCI?9DIO24H?$AA@ 10041a30     dopci8255.obj
 0002:00003a40       ??_C@_0O@BMNICGAE@CB?5PCI?9DIO96H?$AA@ 10041a40     dopci8255.obj
 0002:00003a50       ??_C@_0N@PCCDCCJA@CB?5PCI?9DIO24?$AA@ 10041a50     dopci8255.obj
 0002:00003a60       ??_C@_0BC@GIJMFEIN@CB?5PCI?9DAS1602?112?$AA@ 10041a60     dopci8255.obj
 0002:00003a78       ??_C@_0BA@CMHAIHFM@CB?5PCI?9DUAL?9AC5?$AA@ 10041a78     dopci8255.obj
 0002:00003a8c       ??_C@_0N@MMEAKPPD@CB?5PCI?9DIO96?$AA@ 10041a8c     dopci8255.obj
 0002:00003a9c       ??_C@_0BE@MDOBOAKD@CB?5?$CIMC?$CJ?5PCI?9DAS1001?$AA@ 10041a9c     dopci8255.obj
 0002:00003ab4       ??_C@_0BE@OIMMLDGA@CB?5?$CIMC?$CJ?5PCI?9DAS1002?$AA@ 10041ab4     dopci8255.obj
 0002:00003acc       ??_C@_0CJ@MHHCOHM@Board?5base?5address?5came?5up?50?0?5ca@ 10041acc     dopci8255.obj
 0002:00003b00       ??_C@_0CC@DMFKNLL@VendorId?5?$DN?50x?$CFx?0?5DeviceId?5?$DN?50x?$CFx@ 10041b00     xpcruntime:xpcimports.obj
 0002:00003b24       ??_C@_0DH@OHCBLNMG@Subsystem?5Device?5ID?5?$DN?50x?$CFx?6Subsy@ 10041b24     xpcruntime:xpcimports.obj
 0002:00003b5c       ??_C@_0BD@MMMMEFCM@Class?5Code?5?$DN?50x?$CFx?6?$AA@ 10041b5c     xpcruntime:xpcimports.obj
 0002:00003b70       ??_C@_0BE@OLDDDNHM@InterruptLine?5?$DN?5?$CFd?6?$AA@ 10041b70     xpcruntime:xpcimports.obj
 0002:00003b84       ??_C@_0BF@OLKLEKBD@bus?5?$DN?5?$CFd?0?5slot?5?$DN?5?$CFd?6?$AA@ 10041b84     xpcruntime:xpcimports.obj
 0002:00003b9c       ??_C@_0CE@DGLLGDFH@?5?5?5?5Phys?5?5?5Virtual?5?5?5Length?5IO?1M@ 10041b9c     xpcruntime:xpcimports.obj
 0002:00003bc0       ??_C@_0BI@FEOPLEMG@?$CF08x?5?$CF08x?5?$CF08x?5?5?5?5?5?5?$CFc?6?$AA@ 10041bc0     xpcruntime:xpcimports.obj
 0002:00003bd8       ??_C@_0BB@BNNCEDPC@rl32eScopeExists?$AA@ 10041bd8     xpcruntime:xpcimports.obj
 0002:00003bec       ??_C@_0BM@FJBFEGFG@rl32eScopeExists?5not?5found?6?$AA@ 10041bec     xpcruntime:xpcimports.obj
 0002:00003c08       ??_C@_0O@BNNGKJEA@rl32eDefScope?$AA@ 10041c08     xpcruntime:xpcimports.obj
 0002:00003c18       ??_C@_0BJ@CDNOENKA@rl32eDefScope?5not?5found?6?$AA@ 10041c18     xpcruntime:xpcimports.obj
 0002:00003c34       ??_C@_0P@CKNKILDP@rl32eAddSignal?$AA@ 10041c34     xpcruntime:xpcimports.obj
 0002:00003c44       ??_C@_0BK@GMJAJBAI@rl32eAddSignal?5not?5found?6?$AA@ 10041c44     xpcruntime:xpcimports.obj
 0002:00003c60       ??_C@_0BB@LDMIHGCE@rl32eGetSignalNo?$AA@ 10041c60     xpcruntime:xpcimports.obj
 0002:00003c74       ??_C@_0BM@LGAMBAID@rl32eGetSignalNo?5not?5found?6?$AA@ 10041c74     xpcruntime:xpcimports.obj
 0002:00003c90       ??_C@_0O@CFDGALBP@rl32eSetScope?$AA@ 10041c90     xpcruntime:xpcimports.obj
 0002:00003ca0       ??_C@_0BJ@JCLHHIN@rl32eSetScope?5not?5found?6?$AA@ 10041ca0     xpcruntime:xpcimports.obj
 0002:00003cbc       ??_C@_0P@IKMCBMHH@xpceFSScopeSet?$AA@ 10041cbc     xpcruntime:xpcimports.obj
 0002:00003ccc       ??_C@_0BK@JODJPNNH@xpceFSScopeSet?5not?5found?6?$AA@ 10041ccc     xpcruntime:xpcimports.obj
 0002:00003ce8       ??_C@_0BE@DLACEEJM@rl32eSetTargetScope?$AA@ 10041ce8     xpcruntime:xpcimports.obj
 0002:00003cfc       ??_C@_0BP@JCHFMKPJ@rl32eSetTargetScope?5not?5found?6?$AA@ 10041cfc     xpcruntime:xpcimports.obj
 0002:00003d1c       ??_C@_0BJ@LIDLNDHC@rl32eSetTargetScopeSigFt?$AA@ 10041d1c     xpcruntime:xpcimports.obj
 0002:00003d38       ??_C@_0CE@JLGHCFHI@rl32eSetTargetScopeSigFt?5not?5fou@ 10041d38     xpcruntime:xpcimports.obj
 0002:00003d5c       ??_C@_0BI@JAPOIDNG@rl32eRestartAcquisition?$AA@ 10041d5c     xpcruntime:xpcimports.obj
 0002:00003d74       ??_C@_0CD@LLBEFFBO@rl32eRestartAcquisition?5not?5foun@ 10041d74     xpcruntime:xpcimports.obj
 0002:00003d98       ??_C@_0P@IEIIADJB@xpceScopeAcqOK?$AA@ 10041d98     xpcruntime:xpcimports.obj
 0002:00003da8       ??_C@_0BK@NJCKNFPN@xpceScopeAcqOK?5not?5found?6?$AA@ 10041da8     xpcruntime:xpcimports.obj
 0002:00003dc4       ??_C@_0BA@IJINKAHF@xpceRegisterISR?$AA@ 10041dc4     xpcruntime:xpcimports.obj
 0002:00003dd4       ??_C@_0BL@NNDLOEJE@xpceRegisterISR?5not?5found?6?$AA@ 10041dd4     xpcruntime:xpcimports.obj
 0002:00003df0       ??_C@_0BC@NLBADGKF@xpceDeRegisterISR?$AA@ 10041df0     xpcruntime:xpcimports.obj
 0002:00003e04       ??_C@_0BN@DCAIKFFD@xpceDeRegisterISR?5not?5found?6?$AA@ 10041e04     xpcruntime:xpcimports.obj
 0002:00003e24       ??_C@_0P@CPGPNKEB@xpceFTReadTime?$AA@ 10041e24     xpcruntime:xpcimports.obj
 0002:00003e34       ??_C@_0BK@NMABIODN@xpceFTReadTime?5not?5found?6?$AA@ 10041e34     xpcruntime:xpcimports.obj
 0002:00003e50       ??_C@_09PHNHCHFH@xpceFTAdd?$AA@ 10041e50     xpcruntime:xpcimports.obj
 0002:00003e5c       ??_C@_0BF@FJLEIILA@xpceFTAdd?5not?5found?6?$AA@ 10041e5c     xpcruntime:xpcimports.obj
 0002:00003e74       ??_C@_0P@KEODBLHO@xpceFTSubtract?$AA@ 10041e74     xpcruntime:xpcimports.obj
 0002:00003e84       ??_C@_0BK@HONODOKP@xpceFTSubtract?5not?5found?6?$AA@ 10041e84     xpcruntime:xpcimports.obj
 0002:00003ea0       ??_C@_07JPMEPILD@xpcInpB?$AA@ 10041ea0     xpcruntime:xpcimports.obj
 0002:00003ea8       ??_C@_0BD@PGABEJOL@xpcInpB?5not?5found?6?$AA@ 10041ea8     xpcruntime:xpcimports.obj
 0002:00003ebc       ??_C@_07KIHBBOKH@xpcInpW?$AA@ 10041ebc     xpcruntime:xpcimports.obj
 0002:00003ec4       ??_C@_0BD@FPCJFMCC@xpcInpW?5not?5found?6?$AA@ 10041ec4     xpcruntime:xpcimports.obj
 0002:00003ed8       ??_C@_08KDIAJBOP@xpcInpDW?$AA@ 10041ed8     xpcruntime:xpcimports.obj
 0002:00003ee4       ??_C@_0BE@PIELDNIL@xpcInpDW?5not?5found?6?$AA@ 10041ee4     xpcruntime:xpcimports.obj
 0002:00003ef8       ??_C@_08PJFMOIGO@xpcOutpB?$AA@ 10041ef8     xpcruntime:xpcimports.obj
 0002:00003f04       ??_C@_0BE@HCKNCEKF@xpcOutpB?5not?5found?6?$AA@ 10041f04     xpcruntime:xpcimports.obj
 0002:00003f18       ??_C@_08MOOJAOHK@xpcOutpW?$AA@ 10041f18     xpcruntime:xpcimports.obj
 0002:00003f24       ??_C@_0BE@NLIFDBGM@xpcOutpW?5not?5found?6?$AA@ 10041f24     xpcruntime:xpcimports.obj
 0002:00003f38       ??_C@_09FLIEKHJG@xpcOutpDW?$AA@ 10041f38     xpcruntime:xpcimports.obj
 0002:00003f44       ??_C@_0BF@GJKLPNHB@xpcOutpDW?5not?5found?6?$AA@ 10041f44     xpcruntime:xpcimports.obj
 0002:00003f5c       ??_C@_0BH@EHOLELHH@xpcReserveMemoryRegion?$AA@ 10041f5c     xpcruntime:xpcimports.obj
 0002:00003f74       ??_C@_0CC@KAAAGPI@xpcReserveMemoryRegion?5not?5found@ 10041f74     xpcruntime:xpcimports.obj
 0002:00003f98       ??_C@_0BA@JGPMHGAF@rl32eShowPCIDev?$AA@ 10041f98     xpcruntime:xpcimports.obj
 0002:00003fa8       ??_C@_0BL@DDFFLNHI@rl32eShowPCIDev?5not?5found?6?$AA@ 10041fa8     xpcruntime:xpcimports.obj
 0002:00003fc4       ??_C@_0BB@KBCOJPFB@rl32eShowPCIInfo?$AA@ 10041fc4     xpcruntime:xpcimports.obj
 0002:00003fd8       ??_C@_0BM@IFDMAGLO@rl32eShowPCIInfo?5not?5found?6?$AA@ 10041fd8     xpcruntime:xpcimports.obj
 0002:00003ff4       ??_C@_0BA@BGPAADB@rl32eGetPCIInfo?$AA@ 10041ff4     xpcruntime:xpcimports.obj
 0002:00004004       ??_C@_0BL@IGOMLDCK@rl32eGetPCIInfo?5not?5found?6?$AA@ 10042004     xpcruntime:xpcimports.obj
 0002:00004020       ??_C@_0BG@NJPFKFDP@rl32eGetPCIInfoAtSlot?$AA@ 10042020     xpcruntime:xpcimports.obj
 0002:00004038       ??_C@_0CB@BBKIPMLA@rl32eGetPCIInfoAtSlot?5not?5found?6@ 10042038     xpcruntime:xpcimports.obj
 0002:0000405c       ??_C@_0BH@OKBOPNFG@xpceAssignPCIInterrupt?$AA@ 1004205c     xpcruntime:xpcimports.obj
 0002:00004074       ??_C@_0CC@CDNDNJBJ@xpceAssignPCIInterrupt?5not?5found@ 10042074     xpcruntime:xpcimports.obj
 0002:00004098       ??_C@_0BB@FCHHFAAH@rl32eInitCOMPort?$AA@ 10042098     xpcruntime:xpcimports.obj
 0002:000040ac       ??_C@_0BM@DDJGKAHB@rl32eInitCOMPort?5not?5found?6?$AA@ 100420ac     xpcruntime:xpcimports.obj
 0002:000040c8       ??_C@_0BC@CHEEFCP@rl32eCloseCOMPort?$AA@ 100420c8     xpcruntime:xpcimports.obj
 0002:000040dc       ??_C@_0BN@KCOFELEM@rl32eCloseCOMPort?5not?5found?6?$AA@ 100420dc     xpcruntime:xpcimports.obj
 0002:000040fc       ??_C@_0O@LLJGKFOG@rl32eSendChar?$AA@ 100420fc     xpcruntime:xpcimports.obj
 0002:0000410c       ??_C@_0BJ@JCJKDACJ@rl32eSendChar?5not?5found?6?$AA@ 1004210c     xpcruntime:xpcimports.obj
 0002:00004128       ??_C@_0BB@OMFKCOEK@rl32eReceiveChar?$AA@ 10042128     xpcruntime:xpcimports.obj
 0002:0000413c       ??_C@_0BM@HGAIOAND@rl32eReceiveChar?5not?5found?6?$AA@ 1004213c     xpcruntime:xpcimports.obj
 0002:00004158       ??_C@_0BI@PKEJFHMJ@rl32eReceiveBufferCount?$AA@ 10042158     xpcruntime:xpcimports.obj
 0002:00004170       ??_C@_0CD@LNMOFLAH@rl32eReceiveBufferCount?5not?5foun@ 10042170     xpcruntime:xpcimports.obj
 0002:00004194       ??_C@_0BA@CFIJOJPK@rl32eLineStatus?$AA@ 10042194     xpcruntime:xpcimports.obj
 0002:000041a4       ??_C@_0BL@PLIDKKGI@rl32eLineStatus?5not?5found?6?$AA@ 100421a4     xpcruntime:xpcimports.obj
 0002:000041c0       ??_C@_0P@MDMKIJF@rl32eSendBlock?$AA@ 100421c0     xpcruntime:xpcimports.obj
 0002:000041d0       ??_C@_0BK@KNBNFIKH@rl32eSendBlock?5not?5found?6?$AA@ 100421d0     xpcruntime:xpcimports.obj
 0002:000041ec       ??_C@_0BD@PCKOKHO@xpceGetSignalValue?$AA@ 100421ec     xpcruntime:xpcimports.obj
 0002:00004200       ??_C@_0BO@GCBDJHMB@xpceGetSignalValue?5not?5found?6?$AA@ 10042200     xpcruntime:xpcimports.obj
 0002:00004220       ??_C@_0BB@BJONJAGA@xpceSetParameter?$AA@ 10042220     xpcruntime:xpcimports.obj
 0002:00004234       ??_C@_0BM@BJIKDLHA@xpceSetParameter?5not?5found?6?$AA@ 10042234     xpcruntime:xpcimports.obj
 0002:00004250       ??_C@_0BB@GNFDFMCM@xpceGetParameter?$AA@ 10042250     xpcruntime:xpcimports.obj
 0002:00004264       ??_C@_0BM@POHNKBC@xpceGetParameter?5not?5found?6?$AA@ 10042264     xpcruntime:xpcimports.obj
 0002:00004280       ??_C@_0BB@CEIJLFCD@xpceGetParamDims?$AA@ 10042280     xpcruntime:xpcimports.obj
 0002:00004294       ??_C@_0BM@OABDBKAO@xpceGetParamDims?5not?5found?6?$AA@ 10042294     xpcruntime:xpcimports.obj
 0002:000042b0       ??_C@_0L@OCBLLHBM@xpceGetTET?$AA@ 100422b0     xpcruntime:xpcimports.obj
 0002:000042bc       ??_C@_0BG@HNOFBOB@xpceGetTET?5not?5found?6?$AA@ 100422bc     xpcruntime:xpcimports.obj
 0002:000042d4       ??_C@_0BA@FHMIOKFL@xpceUDPOpenSend?$AA@ 100422d4     xpcruntime:xpcimports.obj
 0002:000042e4       ??_C@_0BL@HNLPFEK@xpceUDPOpenSend?5not?5found?6?$AA@ 100422e4     xpcruntime:xpcimports.obj
 0002:00004300       ??_C@_0BD@BCELJJJL@xpceUDPOpenReceive?$AA@ 10042300     xpcruntime:xpcimports.obj
 0002:00004314       ??_C@_0BO@IFKJBHKC@xpceUDPOpenReceive?5not?5found?6?$AA@ 10042314     xpcruntime:xpcimports.obj
 0002:00004334       ??_C@_0M@OFPFLJGN@xpceUDPSend?$AA@ 10042334     xpcruntime:xpcimports.obj
 0002:00004340       ??_C@_0BH@NOIKLPAB@xpceUDPSend?5not?5found?6?$AA@ 10042340     xpcruntime:xpcimports.obj
 0002:00004358       ??_C@_0P@PLFDECIN@xpceUDPReceive?$AA@ 10042358     xpcruntime:xpcimports.obj
 0002:00004368       ??_C@_0BK@OPJMLDLH@xpceUDPReceive?5not?5found?6?$AA@ 10042368     xpcruntime:xpcimports.obj
 0002:00004384       ??_C@_0N@IEHPMFME@xpceUDPClose?$AA@ 10042384     xpcruntime:xpcimports.obj
 0002:00004394       ??_C@_0BI@FHPFHECO@xpceUDPClose?5not?5found?6?$AA@ 10042394     xpcruntime:xpcimports.obj
 0002:000043ac       ??_C@_0P@OKGNGAGH@xpcIsModelInit?$AA@ 100423ac     xpcruntime:xpcimports.obj
 0002:000043bc       ??_C@_0BK@DHEMLBIM@xpcIsModelInit?5not?5found?6?$AA@ 100423bc     xpcruntime:xpcimports.obj
 0002:000043d8       ??_C@_0BH@KJJLCAOJ@xpcAllocPhysicalMemory?$AA@ 100423d8     xpcruntime:xpcimports.obj
 0002:000043f0       ??_C@_0CC@MOJPNHKL@xpcAllocPhysicalMemory?5not?5found@ 100423f0     xpcruntime:xpcimports.obj
 0002:00004414       ??_C@_0BG@CBNPGAEL@xpcFreePhysicalMemory?$AA@ 10042414     xpcruntime:xpcimports.obj
 0002:0000442c       ??_C@_0CB@PKJEBPOG@xpcFreePhysicalMemory?5not?5found?6@ 1004242c     xpcruntime:xpcimports.obj
 0002:00004450       ??_C@_0BC@JGKNLICL@xpcGetElapsedTime?$AA@ 10042450     xpcruntime:xpcimports.obj
 0002:00004464       ??_C@_0BN@OEOAHCIO@xpcGetElapsedTime?5not?5found?6?$AA@ 10042464     xpcruntime:xpcimports.obj
 0002:00004484       ??_C@_0M@ICBLMODA@xpcBusyWait?$AA@ 10042484     xpcruntime:xpcimports.obj
 0002:00004490       ??_C@_0BH@FBOPECBI@xpcBusyWait?5not?5found?6?$AA@ 10042490     xpcruntime:xpcimports.obj
 0002:000044a8       ??_C@_0N@LKKJEKKA@TBCreateSpin?$AA@ 100424a8     xpcruntime:xpcimports.obj
 0002:000044b8       ??_C@_0BI@FHKMLKOE@TBCreateSpin?5not?5found?6?$AA@ 100424b8     xpcruntime:xpcimports.obj
 0002:000044d0       ??_C@_0N@HOAJHNBD@TBDeleteSpin?$AA@ 100424d0     xpcruntime:xpcimports.obj
 0002:000044e0       ??_C@_0BI@BKCPAAG@TBDeleteSpin?5not?5found?6?$AA@ 100424e0     xpcruntime:xpcimports.obj
 0002:000044f8       ??_C@_0P@DAHDDBJG@TBTakeSpinFast?$AA@ 100424f8     xpcruntime:xpcimports.obj
 0002:00004508       ??_C@_0BK@NKAIBHGB@TBTakeSpinFast?5not?5found?6?$AA@ 10042508     xpcruntime:xpcimports.obj
 0002:00004524       ??_C@_0P@FKNAAELA@TBGiveSpinFast?$AA@ 10042524     xpcruntime:xpcimports.obj
 0002:00004534       ??_C@_0BK@KGPJBJND@TBGiveSpinFast?5not?5found?6?$AA@ 10042534     xpcruntime:xpcimports.obj
 0002:00004550       ??_C@_0BE@IIGBFDHK@xpceCreateSemaphore?$AA@ 10042550     xpcruntime:xpcimports.obj
 0002:00004564       ??_C@_0BP@KFBAFFKJ@xpceCreateSemaphore?5not?5found?6?$AA@ 10042564     xpcruntime:xpcimports.obj
 0002:00004584       ??_C@_0BC@IFNIONKJ@xpceWaitSemaphore?$AA@ 10042584     xpcruntime:xpcimports.obj
 0002:00004598       ??_C@_0BN@NMFAADIO@xpceWaitSemaphore?5not?5found?6?$AA@ 10042598     xpcruntime:xpcimports.obj
 0002:000045b8       ??_C@_0BE@NNDIOBKE@xpceSignalSemaphore?$AA@ 100425b8     xpcruntime:xpcimports.obj
 0002:000045cc       ??_C@_0BP@LBANMHJP@xpceSignalSemaphore?5not?5found?6?$AA@ 100425cc     xpcruntime:xpcimports.obj
 0002:000045ec       ??_C@_0BE@MEBEKOIM@xpceDeleteSemaphore?$AA@ 100425ec     xpcruntime:xpcimports.obj
 0002:00004600       ??_C@_0BP@OFNCKOJH@xpceDeleteSemaphore?5not?5found?6?$AA@ 10042600     xpcruntime:xpcimports.obj
 0002:00004620       ??_C@_0BD@MFNDMBOF@FindUsbVideoDevice?$AA@ 10042620     xpcruntime:xpcimports.obj
 0002:00004634       ??_C@_0BO@POKLDHMI@FindUsbVideoDevice?5not?5found?6?$AA@ 10042634     xpcruntime:xpcimports.obj
 0002:00004654       ??_C@_0BA@PLPAPNAB@GetVideoConfigs?$AA@ 10042654     xpcruntime:xpcimports.obj
 0002:00004664       ??_C@_0BL@DALDHKHC@GetVideoConfigs?5not?5found?6?$AA@ 10042664     xpcruntime:xpcimports.obj
 0002:00004680       ??_C@_0L@GBAEMHMH@StartVideo?$AA@ 10042680     xpcruntime:xpcimports.obj
 0002:0000468c       ??_C@_0BG@HDCELEBP@StartVideo?5not?5found?6?$AA@ 1004268c     xpcruntime:xpcimports.obj
 0002:000046a4       ??_C@_0BA@FDNPOCLN@ReadFrameBuffer?$AA@ 100426a4     xpcruntime:xpcimports.obj
 0002:000046b4       ??_C@_0BL@JHGHPNBI@ReadFrameBuffer?5not?5found?6?$AA@ 100426b4     xpcruntime:xpcimports.obj
 0002:000046d0       ??_C@_09FAHCLKAG@StopVideo?$AA@ 100426d0     xpcruntime:xpcimports.obj
 0002:000046dc       ??_C@_0BF@NKGKKADL@StopVideo?5not?5found?6?$AA@ 100426dc     xpcruntime:xpcimports.obj
 0002:000046f4       ??_C@_0O@MCPKDLLL@ConvertUImage?$AA@ 100426f4     xpcruntime:xpcimports.obj
 0002:00004704       ??_C@_0BJ@PHJKOAFL@ConvertUImage?5not?5found?6?$AA@ 10042704     xpcruntime:xpcimports.obj
 0002:00004720       ??_C@_0BD@NKCBPBJJ@CreateVideoDisplay?$AA@ 10042720     xpcruntime:xpcimports.obj
 0002:00004734       ??_C@_0BO@HPPLLNFP@CreateVideoDisplay?5not?5found?6?$AA@ 10042734     xpcruntime:xpcimports.obj
 0002:00004754       ??_C@_0BE@KJCKGPHA@DestroyVideoDisplay?$AA@ 10042754     xpcruntime:xpcimports.obj
 0002:00004768       ??_C@_0BP@FMGLJAIJ@DestroyVideoDisplay?5not?5found?6?$AA@ 10042768     xpcruntime:xpcimports.obj
 0002:00004788       ??_C@_0BC@HCMIMIDN@StartVideoDisplay?$AA@ 10042788     xpcruntime:xpcimports.obj
 0002:0000479c       ??_C@_0BN@EFIEBGOO@StartVideoDisplay?5not?5found?6?$AA@ 1004279c     xpcruntime:xpcimports.obj
 0002:000047bc       ??_C@_0BB@JBBLMILG@StopVideoDisplay?$AA@ 100427bc     xpcruntime:xpcimports.obj
 0002:000047d0       ??_C@_0BM@DBJBPLEL@StopVideoDisplay?5not?5found?6?$AA@ 100427d0     xpcruntime:xpcimports.obj
 0002:000047ec       ??_C@_0M@MFJEGMHC@StreamVideo?$AA@ 100427ec     xpcruntime:xpcimports.obj
 0002:000047f8       ??_C@_0BH@OINCDMLA@StreamVideo?5not?5found?6?$AA@ 100427f8     xpcruntime:xpcimports.obj
 0002:00004810       ??_C@_0N@IGGLCIGE@xpceaddEvent?$AA@ 10042810     xpcruntime:xpcimports.obj
 0002:00004820       ??_C@_0BI@NHJNFMKH@xpceaddEvent?5not?5found?6?$AA@ 10042820     xpcruntime:xpcimports.obj
 0002:00004838       ??_C@_0BB@LCMHHHFN@getMemoryService?$AA@ 10042838     xpcruntime:xpcimports.obj
 0002:0000484c       ??_C@_0BM@MPLCNIIE@getMemoryService?5not?5found?6?$AA@ 1004284c     xpcruntime:xpcimports.obj
 0002:00004868       ??_C@_0P@KIKONDKK@getCommService?$AA@ 10042868     xpcruntime:xpcimports.obj
 0002:00004878       ??_C@_0BK@NCECBKNM@getCommService?5not?5found?6?$AA@ 10042878     xpcruntime:xpcimports.obj
 0002:00004894       ??_C@_0P@GDLHFECE@getStatusFlags?$AA@ 10042894     xpcruntime:xpcimports.obj
 0002:000048a4       ??_C@_0BK@NEKDLJHG@getStatusFlags?5not?5found?6?$AA@ 100428a4     xpcruntime:xpcimports.obj
 0002:000048c0       ??_C@_0BL@CDFCLKOL@startToAsyncQueueTgtAppSvc?$AA@ 100428c0     xpcruntime:xpcimports.obj
 0002:000048dc       ??_C@_0CG@JGOFFKEL@startToAsyncQueueTgtAppSvc?5not?5f@ 100428dc     xpcruntime:xpcimports.obj
 0002:00004904       ??_C@_0BP@IJNGPPPE@terminateToAsyncQueueTgtAppSvc?$AA@ 10042904     xpcruntime:xpcimports.obj
 0002:00004924       ??_C@_0CK@NDEMAMKF@terminateToAsyncQueueTgtAppSvc?5n@ 10042924     xpcruntime:xpcimports.obj
 0002:00004950       ??_C@_0BK@IDACEHAO@sendToAsyncQueueTgtAppSvc?$AA@ 10042950     xpcruntime:xpcimports.obj
 0002:0000496c       ??_C@_0CF@PNCKPEHN@sendToAsyncQueueTgtAppSvc?5not?5fo@ 1004296c     xpcruntime:xpcimports.obj
 0002:00004994       ??_C@_0BN@HJOHIFOM@xpceGetIntTimerGranularityNS?$AA@ 10042994     xpcruntime:xpcimports.obj
 0002:000049b4       ??_C@_0CI@OADDPMKB@xpceGetIntTimerGranularityNS?5not@ 100429b4     xpcruntime:xpcimports.obj
 0002:000049dc       ??_C@_0BG@CCHICKPN@slrteSetStepSizeDelta?$AA@ 100429dc     xpcruntime:xpcimports.obj
 0002:000049f4       ??_C@_0CB@MKHINEIJ@slrteSetStepSizeDelta?5not?5found?6@ 100429f4     xpcruntime:xpcimports.obj
 0002:00004a18       ??_C@_0BI@CLNBLDKJ@slrteGetCurrentStepSize?$AA@ 10042a18     xpcruntime:xpcimports.obj
 0002:00004a30       ??_C@_0CD@GIOJPGJA@slrteGetCurrentStepSize?5not?5foun@ 10042a30     xpcruntime:xpcimports.obj
 0002:00004a54       ??_C@_0BE@FCLCBOC@registerPTPTimeRead?$AA@ 10042a54     xpcruntime:xpcimports.obj
 0002:00004a68       ??_C@_0BP@LHPKAJIP@registerPTPTimeRead?5not?5found?6?$AA@ 10042a68     xpcruntime:xpcimports.obj
 0002:00004a88       ??_C@_0BG@KIGCDDJI@unRegisterPTPTimeRead?$AA@ 10042a88     xpcruntime:xpcimports.obj
 0002:00004aa0       ??_C@_0CB@MLFFBFCM@unRegisterPTPTimeRead?5not?5found?6@ 10042aa0     xpcruntime:xpcimports.obj
 0002:00004ac4       ??_C@_0BB@IPMDDBHK@slTestInitialize?$AA@ 10042ac4     xpcruntime:xpcimports.obj
 0002:00004ad8       ??_C@_0BM@LAJFCCJH@slTestInitialize?5not?5found?6?$AA@ 10042ad8     xpcruntime:xpcimports.obj
 0002:00004af4       ??_C@_0BF@OOMPMEBC@slTestLogAssessments?$AA@ 10042af4     xpcruntime:xpcimports.obj
 0002:00004b0c       ??_C@_0CA@FGJCEBAG@slTestLogAssessments?5not?5found?6?$AA@ 10042b0c     xpcruntime:xpcimports.obj
 0002:00004b2c       ??_C@_0BB@HJHKONHO@slTestEvalOnFail?$AA@ 10042b2c     xpcruntime:xpcimports.obj
 0002:00004b40       ??_C@_0BM@JIKCFFNJ@slTestEvalOnFail?5not?5found?6?$AA@ 10042b40     xpcruntime:xpcimports.obj
 0002:00004b5c       ??_C@_0BA@LBHLABFP@slTestTerminate?$AA@ 10042b5c     xpcruntime:xpcimports.obj
 0002:00004b6c       ??_C@_0BL@EMFGKAPA@slTestTerminate?5not?5found?6?$AA@ 10042b6c     xpcruntime:xpcimports.obj
 0002:00004b88       ??_C@_0BE@JPNPBBEO@slTestRegAssessment?$AA@ 10042b88     xpcruntime:xpcimports.obj
 0002:00004b9c       ??_C@_0BP@FBDEJJJH@slTestRegAssessment?5not?5found?6?$AA@ 10042b9c     xpcruntime:xpcimports.obj
 0002:00004bbc       __FPinit                   10042bbc     LIBCMT:fpinit.obj
 0002:00004bc8       ??_C@_1BI@BGOHAHKC@?$AAm?$AAs?$AAc?$AAo?$AAr?$AAe?$AAe?$AA?4?$AAd?$AAl?$AAl?$AA?$AA@ 10042bc8     LIBCMT:crt0dat.obj
 0002:00004be0       ??_C@_0P@MIGLKIOC@CorExitProcess?$AA@ 10042be0     LIBCMT:crt0dat.obj
 0002:00004c74       ??_C@_17LGKOMLJ@?$AA?4?$AA?4?$AA?4?$AA?$AA@ 10042c74     LIBCMT:wassert.obj
 0002:00004c7c       ??_C@_13LBAGMAIH@?$AA?6?$AA?$AA@ 10042c7c     LIBCMT:wassert.obj
 0002:00004c80       ??_C@_15IABLJNFO@?$AA?6?$AA?6?$AA?$AA@ 10042c80     LIBCMT:wassert.obj
 0002:00004c88       ??_C@_1CE@OJBNHDMO@?$AAA?$AAs?$AAs?$AAe?$AAr?$AAt?$AAi?$AAo?$AAn?$AA?5?$AAf?$AAa?$AAi?$AAl?$AAe?$AAd?$AA?$CB?$AA?$AA@ 10042c88     LIBCMT:wassert.obj
 0002:00004cac       ??_C@_1BE@PHKBBGE@?$AAP?$AAr?$AAo?$AAg?$AAr?$AAa?$AAm?$AA?3?$AA?5?$AA?$AA@ 10042cac     LIBCMT:wassert.obj
 0002:00004cc0       ??_C@_1CO@EAEJAADC@?$AA?$DM?$AAp?$AAr?$AAo?$AAg?$AAr?$AAa?$AAm?$AA?5?$AAn?$AAa?$AAm?$AAe?$AA?5?$AAu?$AAn?$AAk?$AAn?$AAo?$AAw?$AAn?$AA?$DO?$AA?$AA@ 10042cc0     LIBCMT:wassert.obj
 0002:00004cf0       ??_C@_1O@HEMHKNDC@?$AAF?$AAi?$AAl?$AAe?$AA?3?$AA?5?$AA?$AA@ 10042cf0     LIBCMT:wassert.obj
 0002:00004d00       ??_C@_1O@KCAFKHJE@?$AAL?$AAi?$AAn?$AAe?$AA?3?$AA?5?$AA?$AA@ 10042d00     LIBCMT:wassert.obj
 0002:00004d10       ??_C@_1BK@PEDCIPMA@?$AAE?$AAx?$AAp?$AAr?$AAe?$AAs?$AAs?$AAi?$AAo?$AAn?$AA?3?$AA?5?$AA?$AA@ 10042d10     LIBCMT:wassert.obj
 0002:00004d30       ??_C@_1OA@EGMLFBHJ@?$AAF?$AAo?$AAr?$AA?5?$AAi?$AAn?$AAf?$AAo?$AAr?$AAm?$AAa?$AAt?$AAi?$AAo?$AAn?$AA?5?$AAo?$AAn?$AA?5?$AAh?$AAo?$AAw?$AA?5?$AAy?$AAo?$AAu?$AAr?$AA?5?$AAp?$AAr?$AAo?$AAg@ 10042d30     LIBCMT:wassert.obj
 0002:00004e10       ??_C@_1HK@POCJMFGK@?$AA?$CI?$AAP?$AAr?$AAe?$AAs?$AAs?$AA?5?$AAR?$AAe?$AAt?$AAr?$AAy?$AA?5?$AAt?$AAo?$AA?5?$AAd?$AAe?$AAb?$AAu?$AAg?$AA?5?$AAt?$AAh?$AAe?$AA?5?$AAa?$AAp?$AAp?$AAl?$AAi?$AAc@ 10042e10     LIBCMT:wassert.obj
 0002:00004e90       ??_C@_1EK@MBDPDCGA@?$AAM?$AAi?$AAc?$AAr?$AAo?$AAs?$AAo?$AAf?$AAt?$AA?5?$AAV?$AAi?$AAs?$AAu?$AAa?$AAl?$AA?5?$AAC?$AA?$CL?$AA?$CL?$AA?5?$AAR?$AAu?$AAn?$AAt?$AAi?$AAm?$AAe?$AA?5?$AAL?$AAi?$AAb@ 10042e90     LIBCMT:wassert.obj
 0002:00004edc       __pDefaultRawDllMain       10042edc     LIBCMT:dllcrt0.obj
 0002:00004edc       __pRawDllMain              10042edc     LIBCMT:dllcrt0.obj
 0002:00004ee0       ?ProcessDetach@NativeDll@<CrtImplementationDetails>@@0IB 10042ee0     LIBCMT:handler.obj
 0002:00004ee4       ?ProcessAttach@NativeDll@<CrtImplementationDetails>@@0IB 10042ee4     LIBCMT:handler.obj
 0002:00004ee8       ?ThreadAttach@NativeDll@<CrtImplementationDetails>@@0IB 10042ee8     LIBCMT:handler.obj
 0002:00004eec       ?ThreadDetach@NativeDll@<CrtImplementationDetails>@@0IB 10042eec     LIBCMT:handler.obj
 0002:00004ef0       ?ProcessVerifier@NativeDll@<CrtImplementationDetails>@@0IB 10042ef0     LIBCMT:handler.obj
 0002:00004fb0       ??_C@_1FK@PGACCAFB@?$AAR?$AA6?$AA0?$AA0?$AA2?$AA?$AN?$AA?6?$AA?9?$AA?5?$AAf?$AAl?$AAo?$AAa?$AAt?$AAi?$AAn?$AAg?$AA?5?$AAp?$AAo?$AAi?$AAn?$AAt?$AA?5?$AAs?$AAu?$AAp?$AAp?$AAo?$AAr?$AAt?$AA?5@ 10042fb0     LIBCMT:crt0msg.obj
 0002:00005010       ??_C@_1FE@LLNEDJMD@?$AAR?$AA6?$AA0?$AA0?$AA8?$AA?$AN?$AA?6?$AA?9?$AA?5?$AAn?$AAo?$AAt?$AA?5?$AAe?$AAn?$AAo?$AAu?$AAg?$AAh?$AA?5?$AAs?$AAp?$AAa?$AAc?$AAe?$AA?5?$AAf?$AAo?$AAr?$AA?5?$AAa?$AAr@ 10043010     LIBCMT:crt0msg.obj
 0002:00005068       ??_C@_1FI@HONFMGBI@?$AAR?$AA6?$AA0?$AA0?$AA9?$AA?$AN?$AA?6?$AA?9?$AA?5?$AAn?$AAo?$AAt?$AA?5?$AAe?$AAn?$AAo?$AAu?$AAg?$AAh?$AA?5?$AAs?$AAp?$AAa?$AAc?$AAe?$AA?5?$AAf?$AAo?$AAr?$AA?5?$AAe?$AAn@ 10043068     LIBCMT:crt0msg.obj
 0002:000050c0       ??_C@_1EG@BEHAGFJD@?$AAR?$AA6?$AA0?$AA1?$AA0?$AA?$AN?$AA?6?$AA?9?$AA?5?$AAa?$AAb?$AAo?$AAr?$AAt?$AA?$CI?$AA?$CJ?$AA?5?$AAh?$AAa?$AAs?$AA?5?$AAb?$AAe?$AAe?$AAn?$AA?5?$AAc?$AAa?$AAl?$AAl?$AAe?$AAd@ 100430c0     LIBCMT:crt0msg.obj
 0002:00005108       ??_C@_1FI@LOGNIKDM@?$AAR?$AA6?$AA0?$AA1?$AA6?$AA?$AN?$AA?6?$AA?9?$AA?5?$AAn?$AAo?$AAt?$AA?5?$AAe?$AAn?$AAo?$AAu?$AAg?$AAh?$AA?5?$AAs?$AAp?$AAa?$AAc?$AAe?$AA?5?$AAf?$AAo?$AAr?$AA?5?$AAt?$AAh@ 10043108     LIBCMT:crt0msg.obj
 0002:00005160       ??_C@_1FK@BEOGODMC@?$AAR?$AA6?$AA0?$AA1?$AA7?$AA?$AN?$AA?6?$AA?9?$AA?5?$AAu?$AAn?$AAe?$AAx?$AAp?$AAe?$AAc?$AAt?$AAe?$AAd?$AA?5?$AAm?$AAu?$AAl?$AAt?$AAi?$AAt?$AAh?$AAr?$AAe?$AAa?$AAd?$AA?5@ 10043160     LIBCMT:crt0msg.obj
 0002:000051c0       ??_C@_1EC@JIBHAOPH@?$AAR?$AA6?$AA0?$AA1?$AA8?$AA?$AN?$AA?6?$AA?9?$AA?5?$AAu?$AAn?$AAe?$AAx?$AAp?$AAe?$AAc?$AAt?$AAe?$AAd?$AA?5?$AAh?$AAe?$AAa?$AAp?$AA?5?$AAe?$AAr?$AAr?$AAo?$AAr?$AA?$AN?$AA?6@ 100431c0     LIBCMT:crt0msg.obj
 0002:00005208       ??_C@_1FC@ECHBIFBC@?$AAR?$AA6?$AA0?$AA1?$AA9?$AA?$AN?$AA?6?$AA?9?$AA?5?$AAu?$AAn?$AAa?$AAb?$AAl?$AAe?$AA?5?$AAt?$AAo?$AA?5?$AAo?$AAp?$AAe?$AAn?$AA?5?$AAc?$AAo?$AAn?$AAs?$AAo?$AAl?$AAe?$AA?5@ 10043208     LIBCMT:crt0msg.obj
 0002:00005260       ??_C@_1GK@FHCKBEFA@?$AAR?$AA6?$AA0?$AA2?$AA4?$AA?$AN?$AA?6?$AA?9?$AA?5?$AAn?$AAo?$AAt?$AA?5?$AAe?$AAn?$AAo?$AAu?$AAg?$AAh?$AA?5?$AAs?$AAp?$AAa?$AAc?$AAe?$AA?5?$AAf?$AAo?$AAr?$AA?5?$AA_?$AAo@ 10043260     LIBCMT:crt0msg.obj
 0002:000052d0       ??_C@_1EM@MAADIHMB@?$AAR?$AA6?$AA0?$AA2?$AA5?$AA?$AN?$AA?6?$AA?9?$AA?5?$AAp?$AAu?$AAr?$AAe?$AA?5?$AAv?$AAi?$AAr?$AAt?$AAu?$AAa?$AAl?$AA?5?$AAf?$AAu?$AAn?$AAc?$AAt?$AAi?$AAo?$AAn?$AA?5?$AAc@ 100432d0     LIBCMT:crt0msg.obj
 0002:00005320       ??_C@_1GK@MCAAGJMO@?$AAR?$AA6?$AA0?$AA2?$AA6?$AA?$AN?$AA?6?$AA?9?$AA?5?$AAn?$AAo?$AAt?$AA?5?$AAe?$AAn?$AAo?$AAu?$AAg?$AAh?$AA?5?$AAs?$AAp?$AAa?$AAc?$AAe?$AA?5?$AAf?$AAo?$AAr?$AA?5?$AAs?$AAt@ 10043320     LIBCMT:crt0msg.obj
 0002:00005390       ??_C@_1GK@MFGOKLAG@?$AAR?$AA6?$AA0?$AA2?$AA7?$AA?$AN?$AA?6?$AA?9?$AA?5?$AAn?$AAo?$AAt?$AA?5?$AAe?$AAn?$AAo?$AAu?$AAg?$AAh?$AA?5?$AAs?$AAp?$AAa?$AAc?$AAe?$AA?5?$AAf?$AAo?$AAr?$AA?5?$AAl?$AAo@ 10043390     LIBCMT:crt0msg.obj
 0002:00005400       ??_C@_1EK@HHFLMAOL@?$AAR?$AA6?$AA0?$AA2?$AA8?$AA?$AN?$AA?6?$AA?9?$AA?5?$AAu?$AAn?$AAa?$AAb?$AAl?$AAe?$AA?5?$AAt?$AAo?$AA?5?$AAi?$AAn?$AAi?$AAt?$AAi?$AAa?$AAl?$AAi?$AAz?$AAe?$AA?5?$AAh?$AAe@ 10043400     LIBCMT:crt0msg.obj
 0002:0000544c       ??_C@_1DO@BMFCDCD@?$AAR?$AA6?$AA0?$AA3?$AA0?$AA?$AN?$AA?6?$AA?9?$AA?5?$AAC?$AAR?$AAT?$AA?5?$AAn?$AAo?$AAt?$AA?5?$AAi?$AAn?$AAi?$AAt?$AAi?$AAa?$AAl?$AAi?$AAz?$AAe?$AAd?$AA?$AN?$AA?6?$AA?$AA@ 1004344c     LIBCMT:crt0msg.obj
 0002:00005490       ??_C@_1MG@ENCOOIDF@?$AAR?$AA6?$AA0?$AA3?$AA1?$AA?$AN?$AA?6?$AA?9?$AA?5?$AAA?$AAt?$AAt?$AAe?$AAm?$AAp?$AAt?$AA?5?$AAt?$AAo?$AA?5?$AAi?$AAn?$AAi?$AAt?$AAi?$AAa?$AAl?$AAi?$AAz?$AAe?$AA?5?$AAt@ 10043490     LIBCMT:crt0msg.obj
 0002:00005558       ??_C@_1GG@GOPILAJP@?$AAR?$AA6?$AA0?$AA3?$AA2?$AA?$AN?$AA?6?$AA?9?$AA?5?$AAn?$AAo?$AAt?$AA?5?$AAe?$AAn?$AAo?$AAu?$AAg?$AAh?$AA?5?$AAs?$AAp?$AAa?$AAc?$AAe?$AA?5?$AAf?$AAo?$AAr?$AA?5?$AAl?$AAo@ 10043558     LIBCMT:crt0msg.obj
 0002:000055c0       ??_C@_1BOO@KGEDBGAJ@?$AAR?$AA6?$AA0?$AA3?$AA3?$AA?$AN?$AA?6?$AA?9?$AA?5?$AAA?$AAt?$AAt?$AAe?$AAm?$AAp?$AAt?$AA?5?$AAt?$AAo?$AA?5?$AAu?$AAs?$AAe?$AA?5?$AAM?$AAS?$AAI?$AAL?$AA?5?$AAc?$AAo?$AAd@ 100435c0     LIBCMT:crt0msg.obj
 0002:000057b0       ??_C@_1GG@MKFPEKFO@?$AAR?$AA6?$AA0?$AA3?$AA4?$AA?$AN?$AA?6?$AA?9?$AA?5?$AAi?$AAn?$AAc?$AAo?$AAn?$AAs?$AAi?$AAs?$AAt?$AAe?$AAn?$AAt?$AA?5?$AAo?$AAn?$AAe?$AAx?$AAi?$AAt?$AA?5?$AAb?$AAe?$AAg@ 100437b0     LIBCMT:crt0msg.obj
 0002:00005818       ??_C@_1BO@BFCDCGC@?$AAD?$AAO?$AAM?$AAA?$AAI?$AAN?$AA?5?$AAe?$AAr?$AAr?$AAo?$AAr?$AA?$AN?$AA?6?$AA?$AA@ 10043818     LIBCMT:crt0msg.obj
 0002:00005838       ??_C@_1BK@KMOMNAAI@?$AAS?$AAI?$AAN?$AAG?$AA?5?$AAe?$AAr?$AAr?$AAo?$AAr?$AA?$AN?$AA?6?$AA?$AA@ 10043838     LIBCMT:crt0msg.obj
 0002:00005854       ??_C@_1BM@JBBEPPHI@?$AAT?$AAL?$AAO?$AAS?$AAS?$AA?5?$AAe?$AAr?$AAr?$AAo?$AAr?$AA?$AN?$AA?6?$AA?$AA@ 10043854     LIBCMT:crt0msg.obj
 0002:00005870       ??_C@_15JNBOKNOG@?$AA?$AN?$AA?6?$AA?$AA@ 10043870     LIBCMT:crt0msg.obj
 0002:00005878       ??_C@_1BO@BKOMIGKJ@?$AAr?$AAu?$AAn?$AAt?$AAi?$AAm?$AAe?$AA?5?$AAe?$AAr?$AAr?$AAo?$AAr?$AA?5?$AA?$AA@ 10043878     LIBCMT:crt0msg.obj
 0002:00005898       ??_C@_1DE@JNGNBFGO@?$AAR?$AAu?$AAn?$AAt?$AAi?$AAm?$AAe?$AA?5?$AAE?$AAr?$AAr?$AAo?$AAr?$AA?$CB?$AA?6?$AA?6?$AAP?$AAr?$AAo?$AAg?$AAr?$AAa?$AAm?$AA?3?$AA?5?$AA?$AA@ 10043898     LIBCMT:crt0msg.obj
 0002:000058cc       ??_C@_05KLBDPFGC@e?$CL000?$AA@ 100438cc     LIBCMT:cvt.obj
 0002:000058d4       ??_C@_1BK@MGMFAEKH@?$AAk?$AAe?$AAr?$AAn?$AAe?$AAl?$AA3?$AA2?$AA?4?$AAd?$AAl?$AAl?$AA?$AA@ 100438d4     LIBCMT:winapisupp.obj
 0002:000058f0       ??_C@_08KNHFBNJ@FlsAlloc?$AA@ 100438f0     LIBCMT:winapisupp.obj
 0002:000058fc       ??_C@_07PEJMOBNF@FlsFree?$AA@ 100438fc     LIBCMT:winapisupp.obj
 0002:00005904       ??_C@_0M@GDNOONDI@FlsGetValue?$AA@ 10043904     LIBCMT:winapisupp.obj
 0002:00005910       ??_C@_0M@JCPCPOEF@FlsSetValue?$AA@ 10043910     LIBCMT:winapisupp.obj
 0002:0000591c       ??_C@_0BM@HCFOFFN@InitializeCriticalSectionEx?$AA@ 1004391c     LIBCMT:winapisupp.obj
 0002:00005938       ??_C@_0P@DLHPPCNH@CreateEventExW?$AA@ 10043938     LIBCMT:winapisupp.obj
 0002:00005948       ??_C@_0BD@KIEEOEEH@CreateSemaphoreExW?$AA@ 10043948     LIBCMT:winapisupp.obj
 0002:0000595c       ??_C@_0BI@BKLFFAPO@SetThreadStackGuarantee?$AA@ 1004395c     LIBCMT:winapisupp.obj
 0002:00005974       ??_C@_0BG@OGFAJCKC@CreateThreadpoolTimer?$AA@ 10043974     LIBCMT:winapisupp.obj
 0002:0000598c       ??_C@_0BD@LPLEMMDI@SetThreadpoolTimer?$AA@ 1004398c     LIBCMT:winapisupp.obj
 0002:000059a0       ??_C@_0CA@FMNJENH@WaitForThreadpoolTimerCallbacks?$AA@ 100439a0     LIBCMT:winapisupp.obj
 0002:000059c0       ??_C@_0BF@DCFCCNOC@CloseThreadpoolTimer?$AA@ 100439c0     LIBCMT:winapisupp.obj
 0002:000059d8       ??_C@_0BF@FLABGKKM@CreateThreadpoolWait?$AA@ 100439d8     LIBCMT:winapisupp.obj
 0002:000059f0       ??_C@_0BC@MGCOHNA@SetThreadpoolWait?$AA@ 100439f0     LIBCMT:winapisupp.obj
 0002:00005a04       ??_C@_0BE@OCIOMIMP@CloseThreadpoolWait?$AA@ 10043a04     LIBCMT:winapisupp.obj
 0002:00005a18       ??_C@_0BJ@LKGHFHBO@FlushProcessWriteBuffers?$AA@ 10043a18     LIBCMT:winapisupp.obj
 0002:00005a34       ??_C@_0BP@KALKKPMO@FreeLibraryWhenCallbackReturns?$AA@ 10043a34     LIBCMT:winapisupp.obj
 0002:00005a54       ??_C@_0BK@DFNBACLA@GetCurrentProcessorNumber?$AA@ 10043a54     LIBCMT:winapisupp.obj
 0002:00005a70       ??_C@_0BP@KHGALBC@GetLogicalProcessorInformation?$AA@ 10043a70     LIBCMT:winapisupp.obj
 0002:00005a90       ??_C@_0BE@FKKLLFLM@CreateSymbolicLinkW?$AA@ 10043a90     LIBCMT:winapisupp.obj
 0002:00005aa4       ??_C@_0BJ@OHNKDLIJ@SetDefaultDllDirectories?$AA@ 10043aa4     LIBCMT:winapisupp.obj
 0002:00005ac0       ??_C@_0BE@LJANKFHF@EnumSystemLocalesEx?$AA@ 10043ac0     LIBCMT:winapisupp.obj
 0002:00005ad4       ??_C@_0BA@IHGNDAEB@CompareStringEx?$AA@ 10043ad4     LIBCMT:winapisupp.obj
 0002:00005ae4       ??_C@_0BA@EPCJIIPD@GetDateFormatEx?$AA@ 10043ae4     LIBCMT:winapisupp.obj
 0002:00005af4       ??_C@_0BA@ONOKGCMP@GetLocaleInfoEx?$AA@ 10043af4     LIBCMT:winapisupp.obj
 0002:00005b04       ??_C@_0BA@CIJJKCJJ@GetTimeFormatEx?$AA@ 10043b04     LIBCMT:winapisupp.obj
 0002:00005b14       ??_C@_0BJ@PBCCBIPI@GetUserDefaultLocaleName?$AA@ 10043b14     LIBCMT:winapisupp.obj
 0002:00005b30       ??_C@_0BC@CELBKLLA@IsValidLocaleName?$AA@ 10043b30     LIBCMT:winapisupp.obj
 0002:00005b44       ??_C@_0O@KKBNKAPF@LCMapStringEx?$AA@ 10043b44     LIBCMT:winapisupp.obj
 0002:00005b54       ??_C@_0BE@JOGNEJCI@GetCurrentPackageId?$AA@ 10043b54     LIBCMT:winapisupp.obj
 0002:00005b68       ??_C@_0P@CDHHOHKP@GetTickCount64?$AA@ 10043b68     LIBCMT:winapisupp.obj
 0002:00005b78       ??_C@_0BO@KPCLFDJJ@GetFileInformationByHandleExW?$AA@ 10043b78     LIBCMT:winapisupp.obj
 0002:00005b98       ??_C@_0BM@MHIDLABK@SetFileInformationByHandleW?$AA@ 10043b98     LIBCMT:winapisupp.obj
 0002:00005bb4       ??_C@_1BK@GAEMIDIL@?$AAA?$AAD?$AAV?$AAA?$AAP?$AAI?$AA3?$AA2?$AA?4?$AAD?$AAL?$AAL?$AA?$AA@ 10043bb4     LIBCMT:rand_s.obj
 0002:00005bd0       ??_C@_0BC@JEAENNKH@SystemFunction036?$AA@ 10043bd0     LIBCMT:rand_s.obj
 0002:00005bf4       ??_C@_1M@HPNHIDJI@?$AAj?$AAa?$AA?9?$AAJ?$AAP?$AA?$AA@ 10043bf4     LIBCMT:mbctype.obj
 0002:00005c00       ??_C@_1M@BIBDDEMK@?$AAz?$AAh?$AA?9?$AAC?$AAN?$AA?$AA@ 10043c00     LIBCMT:mbctype.obj
 0002:00005c0c       ??_C@_1M@JLOOOEGK@?$AAk?$AAo?$AA?9?$AAK?$AAR?$AA?$AA@ 10043c0c     LIBCMT:mbctype.obj
 0002:00005c18       ??_C@_1M@CLNBBOPM@?$AAz?$AAh?$AA?9?$AAT?$AAW?$AA?$AA@ 10043c18     LIBCMT:mbctype.obj
 0002:00005c44       ??_C@_06OJHGLDPL@?$CInull?$CJ?$AA@ 10043c44     LIBCMT:output.obj
 0002:00005c4c       ??_C@_1O@CEDCILHN@?$AA?$CI?$AAn?$AAu?$AAl?$AAl?$AA?$CJ?$AA?$AA@ 10043c4c     LIBCMT:output.obj
 0002:00005c60       ___lookuptable             10043c60     LIBCMT:output.obj
 0002:00005cbc       ??_C@_04FJHINJAO@tanh?$AA@ 10043cbc     LIBCMT:fpexcept.obj
 0002:00005cc4       ??_C@_04FIHNOPOL@asin?$AA@ 10043cc4     LIBCMT:fpexcept.obj
 0002:00005ccc       ??_C@_04PDIFKINK@acos?$AA@ 10043ccc     LIBCMT:fpexcept.obj
 0002:00005cd4       ??_C@_04MLLJIGOK@atan?$AA@ 10043cd4     LIBCMT:fpexcept.obj
 0002:00005cdc       ??_C@_05KNGEOGJB@atan2?$AA@ 10043cdc     LIBCMT:fpexcept.obj
 0002:00005ce4       ??_C@_04EIAKFFMI@sqrt?$AA@ 10043ce4     LIBCMT:fpexcept.obj
 0002:00005cec       ??_C@_03BLEJJJBH@sin?$AA@  10043cec     LIBCMT:fpexcept.obj
 0002:00005cf0       ??_C@_03LALBNOCG@cos?$AA@  10043cf0     LIBCMT:fpexcept.obj
 0002:00005cf4       ??_C@_03IIINPABG@tan?$AA@  10043cf4     LIBCMT:fpexcept.obj
 0002:00005cf8       ??_C@_04GFPJNGEK@ceil?$AA@ 10043cf8     LIBCMT:fpexcept.obj
 0002:00005d00       ??_C@_05PBJFFIGL@floor?$AA@ 10043d00     LIBCMT:fpexcept.obj
 0002:00005d08       ??_C@_04ODHECPBC@fabs?$AA@ 10043d08     LIBCMT:fpexcept.obj
 0002:00005d10       ??_C@_04EHEDPDJG@modf?$AA@ 10043d10     LIBCMT:fpexcept.obj
 0002:00005d18       ??_C@_05CEJMAHNP@ldexp?$AA@ 10043d18     LIBCMT:fpexcept.obj
 0002:00005d20       ??_C@_05KBKMEMPO@_cabs?$AA@ 10043d20     LIBCMT:fpexcept.obj
 0002:00005d28       ??_C@_06MEIMCGCF@_hypot?$AA@ 10043d28     LIBCMT:fpexcept.obj
 0002:00005d30       ??_C@_04KEPJIHGP@fmod?$AA@ 10043d30     LIBCMT:fpexcept.obj
 0002:00005d38       ??_C@_05GKKHEGJL@frexp?$AA@ 10043d38     LIBCMT:fpexcept.obj
 0002:00005d40       ??_C@_03MJLDFKDL@_y0?$AA@  10043d40     LIBCMT:fpexcept.obj
 0002:00005d44       ??_C@_03NAKIGLHK@_y1?$AA@  10043d44     LIBCMT:fpexcept.obj
 0002:00005d48       ??_C@_03ONILCKOB@_yn?$AA@  10043d48     LIBCMT:fpexcept.obj
 0002:00005d4c       ??_C@_05JGDBENOH@_logb?$AA@ 10043d4c     LIBCMT:fpexcept.obj
 0002:00005d54       ??_C@_0L@KDOEJCKC@_nextafter?$AA@ 10043d54     LIBCMT:fpexcept.obj
 0002:00005d60       ??_C@_03KHJOGHMM@exp?$AA@  10043d60     LIBCMT:fpexcept.obj
 0002:00005d64       ??_C@_03JGHBODFD@pow?$AA@  10043d64     LIBCMT:fpexcept.obj
 0002:00005d68       ??_C@_03MGHMBJCF@log?$AA@  10043d68     LIBCMT:fpexcept.obj
 0002:00005d6c       ??_C@_05HGHHAHAP@log10?$AA@ 10043d6c     LIBCMT:fpexcept.obj
 0002:00005d74       ??_C@_04COOMCNPB@sinh?$AA@ 10043d74     LIBCMT:fpexcept.obj
 0002:00005d7c       ??_C@_04HPJJNFIM@cosh?$AA@ 10043d7c     LIBCMT:fpexcept.obj
 0002:00005d84       ??_C@_1BG@GOEBHBDC@?$AAU?$AAS?$AAE?$AAR?$AA3?$AA2?$AA?4?$AAD?$AAL?$AAL?$AA?$AA@ 10043d84     LIBCMT:crtmboxw.obj
 0002:00005d9c       ??_C@_0M@DLDCCGNP@MessageBoxW?$AA@ 10043d9c     LIBCMT:crtmboxw.obj
 0002:00005da8       ??_C@_0BA@HNOPNCHB@GetActiveWindow?$AA@ 10043da8     LIBCMT:crtmboxw.obj
 0002:00005db8       ??_C@_0BD@HHGDFDBJ@GetLastActivePopup?$AA@ 10043db8     LIBCMT:crtmboxw.obj
 0002:00005dcc       ??_C@_0BK@DEKFELLI@GetUserObjectInformationW?$AA@ 10043dcc     LIBCMT:crtmboxw.obj
 0002:00005de8       ??_C@_0BI@DFKBFLJE@GetProcessWindowStation?$AA@ 10043de8     LIBCMT:crtmboxw.obj
 0002:00005e00       __XcptActTab               10043e00     LIBCMT:winxfltr.obj
 0002:00005e90       __XcptActTabCount          10043e90     LIBCMT:winxfltr.obj
 0002:00005e94       __XcptActTabSize           10043e94     LIBCMT:winxfltr.obj
 0002:00005e98       __First_FPE_Indx           10043e98     LIBCMT:winxfltr.obj
 0002:00005e9c       __Num_FPE                  10043e9c     LIBCMT:winxfltr.obj
 0002:00005ea0       ??_C@_03KOEHGMDN@Sun?$AA@  10043ea0     LIBCMT:nlsdata.obj
 0002:00005ea4       ??_C@_03PDAGKDH@Mon?$AA@   10043ea4     LIBCMT:nlsdata.obj
 0002:00005ea8       ??_C@_03NAGEINEP@Tue?$AA@  10043ea8     LIBCMT:nlsdata.obj
 0002:00005eac       ??_C@_03MHOMLAJA@Wed?$AA@  10043eac     LIBCMT:nlsdata.obj
 0002:00005eb0       ??_C@_03IOFIKPDN@Thu?$AA@  10043eb0     LIBCMT:nlsdata.obj
 0002:00005eb4       ??_C@_03IDIOELNC@Fri?$AA@  10043eb4     LIBCMT:nlsdata.obj
 0002:00005eb8       ??_C@_03FEFJNEK@Sat?$AA@   10043eb8     LIBCMT:nlsdata.obj
 0002:00005ebc       ??_C@_06OOPIFAJ@Sunday?$AA@ 10043ebc     LIBCMT:nlsdata.obj
 0002:00005ec4       ??_C@_06JLEDEDGH@Monday?$AA@ 10043ec4     LIBCMT:nlsdata.obj
 0002:00005ecc       ??_C@_07BAAGCFCM@Tuesday?$AA@ 10043ecc     LIBCMT:nlsdata.obj
 0002:00005ed4       ??_C@_09DLIGFAKA@Wednesday?$AA@ 10043ed4     LIBCMT:nlsdata.obj
 0002:00005ee0       ??_C@_08HACCIKIA@Thursday?$AA@ 10043ee0     LIBCMT:nlsdata.obj
 0002:00005eec       ??_C@_06JECMNKMI@Friday?$AA@ 10043eec     LIBCMT:nlsdata.obj
 0002:00005ef4       ??_C@_08INBOOONO@Saturday?$AA@ 10043ef4     LIBCMT:nlsdata.obj
 0002:00005f00       ??_C@_03JIHJHPIE@Jan?$AA@  10043f00     LIBCMT:nlsdata.obj
 0002:00005f04       ??_C@_03HJBDCHOM@Feb?$AA@  10043f04     LIBCMT:nlsdata.obj
 0002:00005f08       ??_C@_03ODNJBKGA@Mar?$AA@  10043f08     LIBCMT:nlsdata.obj
 0002:00005f0c       ??_C@_03LEOLGMJP@Apr?$AA@  10043f0c     LIBCMT:nlsdata.obj
 0002:00005f10       ??_C@_03CNMDKL@May?$AA@    10043f10     LIBCMT:nlsdata.obj
 0002:00005f14       ??_C@_03IDFGHECI@Jun?$AA@  10043f14     LIBCMT:nlsdata.obj
 0002:00005f18       ??_C@_03LBGABGKK@Jul?$AA@  10043f18     LIBCMT:nlsdata.obj
 0002:00005f1c       ??_C@_03IFJFEIGA@Aug?$AA@  10043f1c     LIBCMT:nlsdata.obj
 0002:00005f20       ??_C@_03GGCAPAJC@Sep?$AA@  10043f20     LIBCMT:nlsdata.obj
 0002:00005f24       ??_C@_03BMAOKBAD@Oct?$AA@  10043f24     LIBCMT:nlsdata.obj
 0002:00005f28       ??_C@_03JPJOFNIA@Nov?$AA@  10043f28     LIBCMT:nlsdata.obj
 0002:00005f2c       ??_C@_03MKABNOCG@Dec?$AA@  10043f2c     LIBCMT:nlsdata.obj
 0002:00005f30       ??_C@_07CGJPFGJA@January?$AA@ 10043f30     LIBCMT:nlsdata.obj
 0002:00005f38       ??_C@_08GNJGEPFN@February?$AA@ 10043f38     LIBCMT:nlsdata.obj
 0002:00005f44       ??_C@_05HPCKOFNC@March?$AA@ 10043f44     LIBCMT:nlsdata.obj
 0002:00005f4c       ??_C@_05DMJDNLEJ@April?$AA@ 10043f4c     LIBCMT:nlsdata.obj
 0002:00005f54       ??_C@_04CNLMGBGM@June?$AA@ 10043f54     LIBCMT:nlsdata.obj
 0002:00005f5c       ??_C@_04MIEPOIFP@July?$AA@ 10043f5c     LIBCMT:nlsdata.obj
 0002:00005f64       ??_C@_06LBBHFDDG@August?$AA@ 10043f64     LIBCMT:nlsdata.obj
 0002:00005f6c       ??_C@_09BHHEALKD@September?$AA@ 10043f6c     LIBCMT:nlsdata.obj
 0002:00005f78       ??_C@_07JJNFCEND@October?$AA@ 10043f78     LIBCMT:nlsdata.obj
 0002:00005f80       ??_C@_08HCHEGEOA@November?$AA@ 10043f80     LIBCMT:nlsdata.obj
 0002:00005f8c       ??_C@_08EDHMEBNP@December?$AA@ 10043f8c     LIBCMT:nlsdata.obj
 0002:00005f98       ??_C@_02DEDBPAFC@AM?$AA@   10043f98     LIBCMT:nlsdata.obj
 0002:00005f9c       ??_C@_02CJNFDJBF@PM?$AA@   10043f9c     LIBCMT:nlsdata.obj
 0002:00005fa0       ??_C@_08BPBNCDIB@MM?1dd?1yy?$AA@ 10043fa0     LIBCMT:nlsdata.obj
 0002:00005fac       ??_C@_0BE@CKGJFCPC@dddd?0?5MMMM?5dd?0?5yyyy?$AA@ 10043fac     LIBCMT:nlsdata.obj
 0002:00005fc0       ??_C@_08JCCMCCIL@HH?3mm?3ss?$AA@ 10043fc0     LIBCMT:nlsdata.obj
 0002:00005fcc       ??_C@_17MBGCMIPB@?$AAS?$AAu?$AAn?$AA?$AA@ 10043fcc     LIBCMT:nlsdata.obj
 0002:00005fd4       ??_C@_17KBOMKBF@?$AAM?$AAo?$AAn?$AA?$AA@ 10043fd4     LIBCMT:nlsdata.obj
 0002:00005fdc       ??_C@_17BMKGEGOJ@?$AAT?$AAu?$AAe?$AA?$AA@ 10043fdc     LIBCMT:nlsdata.obj
 0002:00005fe4       ??_C@_17CJEDCEPE@?$AAW?$AAe?$AAd?$AA?$AA@ 10043fe4     LIBCMT:nlsdata.obj
 0002:00005fec       ??_C@_17PDPHAADD@?$AAT?$AAh?$AAu?$AA?$AA@ 10043fec     LIBCMT:nlsdata.obj
 0002:00005ff4       ??_C@_17HFOLPPLP@?$AAF?$AAr?$AAi?$AA?$AA@ 10043ff4     LIBCMT:nlsdata.obj
 0002:00005ffc       ??_C@_17GGIBDPIH@?$AAS?$AAa?$AAt?$AA?$AA@ 10043ffc     LIBCMT:nlsdata.obj
 0002:00006004       ??_C@_1O@IHNHDHPB@?$AAS?$AAu?$AAn?$AAd?$AAa?$AAy?$AA?$AA@ 10044004     LIBCMT:nlsdata.obj
 0002:00006014       ??_C@_1O@MMNBFLIA@?$AAM?$AAo?$AAn?$AAd?$AAa?$AAy?$AA?$AA@ 10044014     LIBCMT:nlsdata.obj
 0002:00006024       ??_C@_1BA@ENFBFFEK@?$AAT?$AAu?$AAe?$AAs?$AAd?$AAa?$AAy?$AA?$AA@ 10044024     LIBCMT:nlsdata.obj
 0002:00006034       ??_C@_1BE@EBOGMDOH@?$AAW?$AAe?$AAd?$AAn?$AAe?$AAs?$AAd?$AAa?$AAy?$AA?$AA@ 10044034     LIBCMT:nlsdata.obj
 0002:00006048       ??_C@_1BC@HHMNLIHE@?$AAT?$AAh?$AAu?$AAr?$AAs?$AAd?$AAa?$AAy?$AA?$AA@ 10044048     LIBCMT:nlsdata.obj
 0002:0000605c       ??_C@_1O@PDICJHAG@?$AAF?$AAr?$AAi?$AAd?$AAa?$AAy?$AA?$AA@ 1004405c     LIBCMT:nlsdata.obj
 0002:0000606c       ??_C@_1BC@ENMNNPAJ@?$AAS?$AAa?$AAt?$AAu?$AAr?$AAd?$AAa?$AAy?$AA?$AA@ 1004406c     LIBCMT:nlsdata.obj
 0002:00006080       ??_C@_17DKNBKCHM@?$AAJ?$AAa?$AAn?$AA?$AA@ 10044080     LIBCMT:nlsdata.obj
 0002:00006088       ??_C@_17LMDJEKJN@?$AAF?$AAe?$AAb?$AA?$AA@ 10044088     LIBCMT:nlsdata.obj
 0002:00006090       ??_C@_17CKNLEDEC@?$AAM?$AAa?$AAr?$AA?$AA@ 10044090     LIBCMT:nlsdata.obj
 0002:00006098       ??_C@_17LFPOIHDD@?$AAA?$AAp?$AAr?$AA?$AA@ 10044098     LIBCMT:nlsdata.obj
 0002:000060a0       ??_C@_17PNNKMEED@?$AAM?$AAa?$AAy?$AA?$AA@ 100440a0     LIBCMT:nlsdata.obj
 0002:000060a8       ??_C@_17KCJGOCPB@?$AAJ?$AAu?$AAn?$AA?$AA@ 100440a8     LIBCMT:nlsdata.obj
 0002:000060b0       ??_C@_17IJPCKHK@?$AAJ?$AAu?$AAl?$AA?$AA@ 100440b0     LIBCMT:nlsdata.obj
 0002:000060b8       ??_C@_17ICPELBCN@?$AAA?$AAu?$AAg?$AA?$AA@ 100440b8     LIBCMT:nlsdata.obj
 0002:000060c0       ??_C@_17HCHCOKMG@?$AAS?$AAe?$AAp?$AA?$AA@ 100440c0     LIBCMT:nlsdata.obj
 0002:000060c8       ??_C@_17FNLKOI@?$AAO?$AAc?$AAt?$AA?$AA@ 100440c8     LIBCMT:nlsdata.obj
 0002:000060d0       ??_C@_17BBDMLCIG@?$AAN?$AAo?$AAv?$AA?$AA@ 100440d0     LIBCMT:nlsdata.obj
 0002:000060d8       ??_C@_17EGKACKIF@?$AAD?$AAe?$AAc?$AA?$AA@ 100440d8     LIBCMT:nlsdata.obj
 0002:000060e0       ??_C@_1BA@EFMEIEBA@?$AAJ?$AAa?$AAn?$AAu?$AAa?$AAr?$AAy?$AA?$AA@ 100440e0     LIBCMT:nlsdata.obj
 0002:000060f0       ??_C@_1BC@JGDDFFAM@?$AAF?$AAe?$AAb?$AAr?$AAu?$AAa?$AAr?$AAy?$AA?$AA@ 100440f0     LIBCMT:nlsdata.obj
 0002:00006104       ??_C@_1M@IKEENEDF@?$AAM?$AAa?$AAr?$AAc?$AAh?$AA?$AA@ 10044104     LIBCMT:nlsdata.obj
 0002:00006110       ??_C@_1M@GJNLMHFD@?$AAA?$AAp?$AAr?$AAi?$AAl?$AA?$AA@ 10044110     LIBCMT:nlsdata.obj
 0002:0000611c       ??_C@_19EPFLPGAP@?$AAJ?$AAu?$AAn?$AAe?$AA?$AA@ 1004411c     LIBCMT:nlsdata.obj
 0002:00006128       ??_C@_19BIFMLPCD@?$AAJ?$AAu?$AAl?$AAy?$AA?$AA@ 10044128     LIBCMT:nlsdata.obj
 0002:00006134       ??_C@_1O@PAHLKOAC@?$AAA?$AAu?$AAg?$AAu?$AAs?$AAt?$AA?$AA@ 10044134     LIBCMT:nlsdata.obj
 0002:00006144       ??_C@_1BE@DKAAMBJL@?$AAS?$AAe?$AAp?$AAt?$AAe?$AAm?$AAb?$AAe?$AAr?$AA?$AA@ 10044144     LIBCMT:nlsdata.obj
 0002:00006158       ??_C@_1BA@EPANDLNG@?$AAO?$AAc?$AAt?$AAo?$AAb?$AAe?$AAr?$AA?$AA@ 10044158     LIBCMT:nlsdata.obj
 0002:00006168       ??_C@_1BC@BGLIFPF@?$AAN?$AAo?$AAv?$AAe?$AAm?$AAb?$AAe?$AAr?$AA?$AA@ 10044168     LIBCMT:nlsdata.obj
 0002:0000617c       ??_C@_1BC@FEMKIFH@?$AAD?$AAe?$AAc?$AAe?$AAm?$AAb?$AAe?$AAr?$AA?$AA@ 1004417c     LIBCMT:nlsdata.obj
 0002:00006190       ??_C@_15ODEHAHHF@?$AAA?$AAM?$AA?$AA@ 10044190     LIBCMT:nlsdata.obj
 0002:00006198       ??_C@_15CLMNNGEL@?$AAP?$AAM?$AA?$AA@ 10044198     LIBCMT:nlsdata.obj
 0002:000061a0       ??_C@_1BC@IEBCMHCM@?$AAM?$AAM?$AA?1?$AAd?$AAd?$AA?1?$AAy?$AAy?$AA?$AA@ 100441a0     LIBCMT:nlsdata.obj
 0002:000061b4       ??_C@_1CI@KNAKOEBC@?$AAd?$AAd?$AAd?$AAd?$AA?0?$AA?5?$AAM?$AAM?$AAM?$AAM?$AA?5?$AAd?$AAd?$AA?0?$AA?5?$AAy?$AAy?$AAy?$AAy?$AA?$AA@ 100441b4     LIBCMT:nlsdata.obj
 0002:000061dc       ??_C@_1BC@GDGBMEMK@?$AAH?$AAH?$AA?3?$AAm?$AAm?$AA?3?$AAs?$AAs?$AA?$AA@ 100441dc     LIBCMT:nlsdata.obj
 0002:000061f0       ??_C@_1M@BMHNFIME@?$AAe?$AAn?$AA?9?$AAU?$AAS?$AA?$AA@ 100441f0     LIBCMT:nlsdata.obj
 0002:00006200       _LcidToLocaleNameTable     10044200     LIBCMT:winapinls.obj
 0002:00006920       _LocaleNameToIndexTable    10044920     LIBCMT:winapinls.obj
 0002:00007040       ??_C@_15EMKDOKLE@?$AAa?$AAr?$AA?$AA@ 10045040     LIBCMT:winapinls.obj
 0002:00007048       ??_C@_15KNPADPLH@?$AAb?$AAg?$AA?$AA@ 10045048     LIBCMT:winapinls.obj
 0002:00007050       ??_C@_15EDMHLDMO@?$AAc?$AAa?$AA?$AA@ 10045050     LIBCMT:winapinls.obj
 0002:00007058       ??_C@_1O@BPEAJADD@?$AAz?$AAh?$AA?9?$AAC?$AAH?$AAS?$AA?$AA@ 10045058     LIBCMT:winapinls.obj
 0002:00007068       ??_C@_15LJNHCMNK@?$AAc?$AAs?$AA?$AA@ 10045068     LIBCMT:winapinls.obj
 0002:00007070       ??_C@_15FOMCIDHG@?$AAd?$AAa?$AA?$AA@ 10045070     LIBCMT:winapinls.obj
 0002:00007078       ??_C@_15NBKABECB@?$AAd?$AAe?$AA?$AA@ 10045078     LIBCMT:winapinls.obj
 0002:00007080       ??_C@_15GHPEIIAO@?$AAe?$AAl?$AA?$AA@ 10045080     LIBCMT:winapinls.obj
 0002:00007088       ??_C@_15MNPNEAIF@?$AAe?$AAn?$AA?$AA@ 10045088     LIBCMT:winapinls.obj
 0002:00007090       ??_C@_15GPIOMPMH@?$AAe?$AAs?$AA?$AA@ 10045090     LIBCMT:winapinls.obj
 0002:00007098       ??_C@_15NGLOAKJC@?$AAf?$AAi?$AA?$AA@ 10045098     LIBCMT:winapinls.obj
 0002:000070a0       ??_C@_15FBKGNKAM@?$AAf?$AAr?$AA?$AA@ 100450a0     LIBCMT:winapinls.obj
 0002:000070a8       ??_C@_15KGGCNEFK@?$AAh?$AAe?$AA?$AA@ 100450a8     LIBCMT:winapinls.obj
 0002:000070b0       ??_C@_15PGHLIDMF@?$AAh?$AAu?$AA?$AA@ 100450b0     LIBCMT:winapinls.obj
 0002:000070b8       ??_C@_15BIEMAPLM@?$AAi?$AAs?$AA?$AA@ 100450b8     LIBCMT:winapinls.obj
 0002:000070c0       ??_C@_15IFJLDHAF@?$AAi?$AAt?$AA?$AA@ 100450c0     LIBCMT:winapinls.obj
 0002:000070c8       ??_C@_15GEMIOCAG@?$AAj?$AAa?$AA?$AA@ 100450c8     LIBCMT:winapinls.obj
 0002:000070d0       ??_C@_15EPELEGJA@?$AAk?$AAo?$AA?$AA@ 100450d0     LIBCMT:winapinls.obj
 0002:000070d8       ??_C@_15NDDHIMN@?$AAn?$AAl?$AA?$AA@ 100450d8     LIBCMT:winapinls.obj
 0002:000070e0       ??_C@_15BPIGNHCD@?$AAn?$AAo?$AA?$AA@ 100450e0     LIBCMT:winapinls.obj
 0002:000070e8       ??_C@_15DEOPBLCG@?$AAp?$AAl?$AA?$AA@ 100450e8     LIBCMT:winapinls.obj
 0002:000070f0       ??_C@_15KBECGEFG@?$AAp?$AAt?$AA?$AA@ 100450f0     LIBCMT:winapinls.obj
 0002:000070f8       ??_C@_15GLJCBFMD@?$AAr?$AAo?$AA?$AA@ 100450f8     LIBCMT:winapinls.obj
 0002:00007100       ??_C@_15FEDGKCDI@?$AAr?$AAu?$AA?$AA@ 10045100     LIBCMT:winapinls.obj
 0002:00007108       ??_C@_15GLKMLLHM@?$AAh?$AAr?$AA?$AA@ 10045108     LIBCMT:winapinls.obj
 0002:00007110       ??_C@_15CPKMFBDB@?$AAs?$AAk?$AA?$AA@ 10045110     LIBCMT:winapinls.obj
 0002:00007118       ??_C@_15BAAIOGMK@?$AAs?$AAq?$AA?$AA@ 10045118     LIBCMT:winapinls.obj
 0002:00007120       ??_C@_15INNPNOHD@?$AAs?$AAv?$AA?$AA@ 10045120     LIBCMT:winapinls.obj
 0002:00007128       ??_C@_15CABMMOGH@?$AAt?$AAh?$AA?$AA@ 10045128     LIBCMT:winapinls.obj
 0002:00007130       ??_C@_15BPLIHJJM@?$AAt?$AAr?$AA?$AA@ 10045130     LIBCMT:winapinls.obj
 0002:00007138       ??_C@_15NEOEKKDJ@?$AAu?$AAr?$AA?$AA@ 10045138     LIBCMT:winapinls.obj
 0002:00007140       ??_C@_15NFICGAJK@?$AAi?$AAd?$AA?$AA@ 10045140     LIBCMT:winapinls.obj
 0002:00007148       ??_C@_15PJPFLCCM@?$AAu?$AAk?$AA?$AA@ 10045148     LIBCMT:winapinls.obj
 0002:00007150       ??_C@_15HPJPHDM@?$AAb?$AAe?$AA?$AA@ 10045150     LIBCMT:winapinls.obj
 0002:00007158       ??_C@_15LCHLGJII@?$AAs?$AAl?$AA?$AA@ 10045158     LIBCMT:winapinls.obj
 0002:00007160       ??_C@_15PCFJPHHO@?$AAe?$AAt?$AA?$AA@ 10045160     LIBCMT:winapinls.obj
 0002:00007168       ??_C@_15HPFPGODN@?$AAl?$AAv?$AA?$AA@ 10045168     LIBCMT:winapinls.obj
 0002:00007170       ??_C@_15NFFGKGLG@?$AAl?$AAt?$AA?$AA@ 10045170     LIBCMT:winapinls.obj
 0002:00007178       ??_C@_15BDAKCCHN@?$AAf?$AAa?$AA?$AA@ 10045178     LIBCMT:winapinls.obj
 0002:00007180       ??_C@_15NFGIAIAJ@?$AAv?$AAi?$AA?$AA@ 10045180     LIBCMT:winapinls.obj
 0002:00007188       ??_C@_15LMKNDMHN@?$AAh?$AAy?$AA?$AA@ 10045188     LIBCMT:winapinls.obj
 0002:00007190       ??_C@_15IJBHMCFL@?$AAa?$AAz?$AA?$AA@ 10045190     LIBCMT:winapinls.obj
 0002:00007198       ??_C@_15EKOFJABL@?$AAe?$AAu?$AA?$AA@ 10045198     LIBCMT:winapinls.obj
 0002:000071a0       ??_C@_15BGHADCNK@?$AAm?$AAk?$AA?$AA@ 100451a0     LIBCMT:winapinls.obj
 0002:000071a8       ??_C@_15JDNICKHM@?$AAa?$AAf?$AA?$AA@ 100451a8     LIBCMT:winapinls.obj
 0002:000071b0       ??_C@_15KPJEDBKD@?$AAk?$AAa?$AA?$AA@ 100451b0     LIBCMT:winapinls.obj
 0002:000071b8       ??_C@_15PDNFFFEO@?$AAf?$AAo?$AA?$AA@ 100451b8     LIBCMT:winapinls.obj
 0002:000071c0       ??_C@_15OMLEGLOC@?$AAh?$AAi?$AA?$AA@ 100451c0     LIBCMT:winapinls.obj
 0002:000071c8       ??_C@_15IDNNENKK@?$AAm?$AAs?$AA?$AA@ 100451c8     LIBCMT:winapinls.obj
 0002:000071d0       ??_C@_15MACJNBMH@?$AAk?$AAk?$AA?$AA@ 100451d0     LIBCMT:winapinls.obj
 0002:000071d8       ??_C@_15DKDJEOND@?$AAk?$AAy?$AA?$AA@ 100451d8     LIBCMT:winapinls.obj
 0002:000071e0       ??_C@_15DFGDLJBG@?$AAs?$AAw?$AA?$AA@ 100451e0     LIBCMT:winapinls.obj
 0002:000071e8       ??_C@_15BBFAICNG@?$AAu?$AAz?$AA?$AA@ 100451e8     LIBCMT:winapinls.obj
 0002:000071f0       ??_C@_15DKNDCGEA@?$AAt?$AAt?$AA?$AA@ 100451f0     LIBCMT:winapinls.obj
 0002:000071f8       ??_C@_15MGIFMDPL@?$AAp?$AAa?$AA?$AA@ 100451f8     LIBCMT:winapinls.obj
 0002:00007200       ??_C@_15HCNDBBA@?$AAg?$AAu?$AA?$AA@ 10045200     LIBCMT:winapinls.obj
 0002:00007208       ??_C@_15FNBEIBON@?$AAt?$AAa?$AA?$AA@ 10045208     LIBCMT:winapinls.obj
 0002:00007210       ??_C@_15NCHGBGLK@?$AAt?$AAe?$AA?$AA@ 10045210     LIBCMT:winapinls.obj
 0002:00007218       ??_C@_15PHPHCBPF@?$AAk?$AAn?$AA?$AA@ 10045218     LIBCMT:winapinls.obj
 0002:00007220       ??_C@_15DLGBCKMP@?$AAm?$AAr?$AA?$AA@ 10045220     LIBCMT:winapinls.obj
 0002:00007228       ??_C@_15EABBLBFF@?$AAs?$AAa?$AA?$AA@ 10045228     LIBCMT:winapinls.obj
 0002:00007230       ??_C@_15CBKOMCOI@?$AAm?$AAn?$AA?$AA@ 10045230     LIBCMT:winapinls.obj
 0002:00007238       ??_C@_15CKDMCJAF@?$AAg?$AAl?$AA?$AA@ 10045238     LIBCMT:winapinls.obj
 0002:00007240       ??_C@_17CNJFBPG@?$AAk?$AAo?$AAk?$AA?$AA@ 10045240     LIBCMT:winapinls.obj
 0002:00007248       ??_C@_17FFBJICPL@?$AAs?$AAy?$AAr?$AA?$AA@ 10045248     LIBCMT:winapinls.obj
 0002:00007250       ??_C@_17KPNDCPAF@?$AAd?$AAi?$AAv?$AA?$AA@ 10045250     LIBCMT:winapinls.obj
 0002:00007258       ??_C@_11LOCGONAA@?$AA?$AA@ 10045258     LIBCMT:winapinls.obj
 0002:0000725c       ??_C@_1M@OKAHONE@?$AAa?$AAr?$AA?9?$AAS?$AAA?$AA?$AA@ 1004525c     LIBCMT:winapinls.obj
 0002:00007268       ??_C@_1M@FFFIGIGK@?$AAb?$AAg?$AA?9?$AAB?$AAG?$AA?$AA@ 10045268     LIBCMT:winapinls.obj
 0002:00007274       ??_C@_1M@BJNKEDC@?$AAc?$AAa?$AA?9?$AAE?$AAS?$AA?$AA@ 10045274     LIBCMT:winapinls.obj
 0002:00007280       ??_C@_1M@IJJHFJHA@?$AAc?$AAs?$AA?9?$AAC?$AAZ?$AA?$AA@ 10045280     LIBCMT:winapinls.obj
 0002:0000728c       ??_C@_1M@CLPEOBGI@?$AAd?$AAa?$AA?9?$AAD?$AAK?$AA?$AA@ 1004528c     LIBCMT:winapinls.obj
 0002:00007298       ??_C@_1M@MCMADGCB@?$AAd?$AAe?$AA?9?$AAD?$AAE?$AA?$AA@ 10045298     LIBCMT:winapinls.obj
 0002:000072a4       ??_C@_1M@OOCKEMAM@?$AAe?$AAl?$AA?9?$AAG?$AAR?$AA?$AA@ 100452a4     LIBCMT:winapinls.obj
 0002:000072b0       ??_C@_1M@DDNJFGID@?$AAf?$AAi?$AA?9?$AAF?$AAI?$AA?$AA@ 100452b0     LIBCMT:winapinls.obj
 0002:000072bc       ??_C@_1M@GLIPPMAC@?$AAf?$AAr?$AA?9?$AAF?$AAR?$AA?$AA@ 100452bc     LIBCMT:winapinls.obj
 0002:000072c8       ??_C@_1M@GFMCHPE@?$AAh?$AAe?$AA?9?$AAI?$AAL?$AA?$AA@ 100452c8     LIBCMT:winapinls.obj
 0002:000072d4       ??_C@_1M@MHLPGNKM@?$AAh?$AAu?$AA?9?$AAH?$AAU?$AA?$AA@ 100452d4     LIBCMT:winapinls.obj
 0002:000072e0       ??_C@_1M@LPDDNNPN@?$AAi?$AAs?$AA?9?$AAI?$AAS?$AA?$AA@ 100452e0     LIBCMT:winapinls.obj
 0002:000072ec       ??_C@_1M@MADIPODN@?$AAi?$AAt?$AA?9?$AAI?$AAT?$AA?$AA@ 100452ec     LIBCMT:winapinls.obj
 0002:000072f8       ??_C@_1M@IHBJJGG@?$AAn?$AAl?$AA?9?$AAN?$AAL?$AA?$AA@ 100452f8     LIBCMT:winapinls.obj
 0002:00007304       ??_C@_1M@EANAGDL@?$AAn?$AAb?$AA?9?$AAN?$AAO?$AA?$AA@ 10045304     LIBCMT:winapinls.obj
 0002:00007310       ??_C@_1M@NEIEMEGP@?$AAp?$AAl?$AA?9?$AAP?$AAL?$AA?$AA@ 10045310     LIBCMT:winapinls.obj
 0002:0000731c       ??_C@_1M@BOCFIGEP@?$AAp?$AAt?$AA?9?$AAB?$AAR?$AA?$AA@ 1004531c     LIBCMT:winapinls.obj
 0002:00007328       ??_C@_1M@IMPFOPBG@?$AAr?$AAo?$AA?9?$AAR?$AAO?$AA?$AA@ 10045328     LIBCMT:winapinls.obj
 0002:00007334       ??_C@_1M@IDNNEJMM@?$AAr?$AAu?$AA?9?$AAR?$AAU?$AA?$AA@ 10045334     LIBCMT:winapinls.obj
 0002:00007340       ??_C@_1M@LILEEOGM@?$AAh?$AAr?$AA?9?$AAH?$AAR?$AA?$AA@ 10045340     LIBCMT:winapinls.obj
 0002:0000734c       ??_C@_1M@FKIFEHPB@?$AAs?$AAk?$AA?9?$AAS?$AAK?$AA?$AA@ 1004534c     LIBCMT:winapinls.obj
 0002:00007358       ??_C@_1M@LJMAMNPJ@?$AAs?$AAq?$AA?9?$AAA?$AAL?$AA?$AA@ 10045358     LIBCMT:winapinls.obj
 0002:00007364       ??_C@_1M@GIAKDKJK@?$AAs?$AAv?$AA?9?$AAS?$AAE?$AA?$AA@ 10045364     LIBCMT:winapinls.obj
 0002:00007370       ??_C@_1M@MKJKIKCL@?$AAt?$AAh?$AA?9?$AAT?$AAH?$AA?$AA@ 10045370     LIBCMT:winapinls.obj
 0002:0000737c       ??_C@_1M@MFLCCMPB@?$AAt?$AAr?$AA?9?$AAT?$AAR?$AA?$AA@ 1004537c     LIBCMT:winapinls.obj
 0002:00007388       ??_C@_1M@OIJHDKJN@?$AAu?$AAr?$AA?9?$AAP?$AAK?$AA?$AA@ 10045388     LIBCMT:winapinls.obj
 0002:00007394       ??_C@_1M@LHIPCIEK@?$AAi?$AAd?$AA?9?$AAI?$AAD?$AA?$AA@ 10045394     LIBCMT:winapinls.obj
 0002:000073a0       ??_C@_1M@MFMOBGI@?$AAu?$AAk?$AA?9?$AAU?$AAA?$AA?$AA@ 100453a0     LIBCMT:winapinls.obj
 0002:000073ac       ??_C@_1M@OBGLJIPL@?$AAb?$AAe?$AA?9?$AAB?$AAY?$AA?$AA@ 100453ac     LIBCMT:winapinls.obj
 0002:000073b8       ??_C@_1M@BCFAJEAD@?$AAs?$AAl?$AA?9?$AAS?$AAI?$AA?$AA@ 100453b8     LIBCMT:winapinls.obj
 0002:000073c4       ??_C@_1M@FKFFEDDN@?$AAe?$AAt?$AA?9?$AAE?$AAE?$AA?$AA@ 100453c4     LIBCMT:winapinls.obj
 0002:000073d0       ??_C@_1M@KGKKAACI@?$AAl?$AAv?$AA?9?$AAL?$AAV?$AA?$AA@ 100453d0     LIBCMT:winapinls.obj
 0002:000073dc       ??_C@_1M@IFGBIJO@?$AAl?$AAt?$AA?9?$AAL?$AAT?$AA?$AA@ 100453dc     LIBCMT:winapinls.obj
 0002:000073e8       ??_C@_1M@FGEAHEDM@?$AAf?$AAa?$AA?9?$AAI?$AAR?$AA?$AA@ 100453e8     LIBCMT:winapinls.obj
 0002:000073f4       ??_C@_1M@KBMAIBFN@?$AAv?$AAi?$AA?9?$AAV?$AAN?$AA?$AA@ 100453f4     LIBCMT:winapinls.obj
 0002:00007400       ??_C@_1M@GPCBKDJK@?$AAh?$AAy?$AA?9?$AAA?$AAM?$AA?$AA@ 10045400     LIBCMT:winapinls.obj
 0002:0000740c       ??_C@_1BG@BECMDDJB@?$AAa?$AAz?$AA?9?$AAA?$AAZ?$AA?9?$AAL?$AAa?$AAt?$AAn?$AA?$AA@ 1004540c     LIBCMT:winapinls.obj
 0002:00007424       ??_C@_1M@MAOFCAEA@?$AAe?$AAu?$AA?9?$AAE?$AAS?$AA?$AA@ 10045424     LIBCMT:winapinls.obj
 0002:00007430       ??_C@_1M@IGHABKPI@?$AAm?$AAk?$AA?9?$AAM?$AAK?$AA?$AA@ 10045430     LIBCMT:winapinls.obj
 0002:0000743c       ??_C@_1M@IAIGNEJG@?$AAt?$AAn?$AA?9?$AAZ?$AAA?$AA?$AA@ 1004543c     LIBCMT:winapinls.obj
 0002:00007448       ??_C@_1M@IIJCOJFA@?$AAx?$AAh?$AA?9?$AAZ?$AAA?$AA?$AA@ 10045448     LIBCMT:winapinls.obj
 0002:00007454       ??_C@_1M@LGPJHNJH@?$AAz?$AAu?$AA?9?$AAZ?$AAA?$AA?$AA@ 10045454     LIBCMT:winapinls.obj
 0002:00007460       ??_C@_1M@HOKAOIO@?$AAa?$AAf?$AA?9?$AAZ?$AAA?$AA?$AA@ 10045460     LIBCMT:winapinls.obj
 0002:0000746c       ??_C@_1M@DPCLHLIE@?$AAk?$AAa?$AA?9?$AAG?$AAE?$AA?$AA@ 1004546c     LIBCMT:winapinls.obj
 0002:00007478       ??_C@_1M@BLKMHJBI@?$AAf?$AAo?$AA?9?$AAF?$AAO?$AA?$AA@ 10045478     LIBCMT:winapinls.obj
 0002:00007484       ??_C@_1M@LGGJAPPB@?$AAh?$AAi?$AA?9?$AAI?$AAN?$AA?$AA@ 10045484     LIBCMT:winapinls.obj
 0002:00007490       ??_C@_1M@FIKPIHFE@?$AAm?$AAt?$AA?9?$AAM?$AAT?$AA?$AA@ 10045490     LIBCMT:winapinls.obj
 0002:0000749c       ??_C@_1M@HEGGPBFA@?$AAs?$AAe?$AA?9?$AAN?$AAO?$AA?$AA@ 1004549c     LIBCMT:winapinls.obj
 0002:000074a8       ??_C@_1M@EIBJEEPA@?$AAm?$AAs?$AA?9?$AAM?$AAY?$AA?$AA@ 100454a8     LIBCMT:winapinls.obj
 0002:000074b4       ??_C@_1M@FHLBGMPP@?$AAk?$AAk?$AA?9?$AAK?$AAZ?$AA?$AA@ 100454b4     LIBCMT:winapinls.obj
 0002:000074c0       ??_C@_1M@NGJJLCGI@?$AAk?$AAy?$AA?9?$AAK?$AAG?$AA?$AA@ 100454c0     LIBCMT:winapinls.obj
 0002:000074cc       ??_C@_1M@GIENNBFC@?$AAs?$AAw?$AA?9?$AAK?$AAE?$AA?$AA@ 100454cc     LIBCMT:winapinls.obj
 0002:000074d8       ??_C@_1BG@NDGMJIMJ@?$AAu?$AAz?$AA?9?$AAU?$AAZ?$AA?9?$AAL?$AAa?$AAt?$AAn?$AA?$AA@ 100454d8     LIBCMT:winapinls.obj
 0002:000074f0       ??_C@_1M@IDCCIHBC@?$AAt?$AAt?$AA?9?$AAR?$AAU?$AA?$AA@ 100454f0     LIBCMT:winapinls.obj
 0002:000074fc       ??_C@_1M@LOICPMOJ@?$AAb?$AAn?$AA?9?$AAI?$AAN?$AA?$AA@ 100454fc     LIBCMT:winapinls.obj
 0002:00007508       ??_C@_1M@KPKKNEAH@?$AAp?$AAa?$AA?9?$AAI?$AAN?$AA?$AA@ 10045508     LIBCMT:winapinls.obj
 0002:00007514       ??_C@_1M@PJGPPBOG@?$AAg?$AAu?$AA?9?$AAI?$AAN?$AA?$AA@ 10045514     LIBCMT:winapinls.obj
 0002:00007520       ??_C@_1M@KMKMOPHI@?$AAt?$AAa?$AA?9?$AAI?$AAN?$AA?$AA@ 10045520     LIBCMT:winapinls.obj
 0002:0000752c       ??_C@_1M@KFEHEPAC@?$AAt?$AAe?$AA?9?$AAI?$AAN?$AA?$AA@ 1004552c     LIBCMT:winapinls.obj
 0002:00007538       ??_C@_1M@CDCLMGHI@?$AAk?$AAn?$AA?9?$AAI?$AAN?$AA?$AA@ 10045538     LIBCMT:winapinls.obj
 0002:00007544       ??_C@_1M@MIODLDKF@?$AAm?$AAl?$AA?9?$AAI?$AAN?$AA?$AA@ 10045544     LIBCMT:winapinls.obj
 0002:00007550       ??_C@_1M@PBIEACPO@?$AAm?$AAr?$AA?9?$AAI?$AAN?$AA?$AA@ 10045550     LIBCMT:winapinls.obj
 0002:0000755c       ??_C@_1M@NIDEAGPH@?$AAs?$AAa?$AA?9?$AAI?$AAN?$AA?$AA@ 1004555c     LIBCMT:winapinls.obj
 0002:00007568       ??_C@_1M@FHIHCBIO@?$AAm?$AAn?$AA?9?$AAM?$AAN?$AA?$AA@ 10045568     LIBCMT:winapinls.obj
 0002:00007574       ??_C@_1M@JAIJPENP@?$AAc?$AAy?$AA?9?$AAG?$AAB?$AA?$AA@ 10045574     LIBCMT:winapinls.obj
 0002:00007580       ??_C@_1M@PHGFBEPN@?$AAg?$AAl?$AA?9?$AAE?$AAS?$AA?$AA@ 10045580     LIBCMT:winapinls.obj
 0002:0000758c       ??_C@_1O@KPIPDNCP@?$AAk?$AAo?$AAk?$AA?9?$AAI?$AAN?$AA?$AA@ 1004558c     LIBCMT:winapinls.obj
 0002:0000759c       ??_C@_1O@KNHJLDJA@?$AAs?$AAy?$AAr?$AA?9?$AAS?$AAY?$AA?$AA@ 1004559c     LIBCMT:winapinls.obj
 0002:000075ac       ??_C@_1O@MKEKBLAH@?$AAd?$AAi?$AAv?$AA?9?$AAM?$AAV?$AA?$AA@ 100455ac     LIBCMT:winapinls.obj
 0002:000075bc       ??_C@_1O@OHDCKDDF@?$AAq?$AAu?$AAz?$AA?9?$AAB?$AAO?$AA?$AA@ 100455bc     LIBCMT:winapinls.obj
 0002:000075cc       ??_C@_1M@LEPJNLFD@?$AAn?$AAs?$AA?9?$AAZ?$AAA?$AA?$AA@ 100455cc     LIBCMT:winapinls.obj
 0002:000075d8       ??_C@_1M@OMLEIIJB@?$AAm?$AAi?$AA?9?$AAN?$AAZ?$AA?$AA@ 100455d8     LIBCMT:winapinls.obj
 0002:000075e4       ??_C@_1M@PMPEAILG@?$AAa?$AAr?$AA?9?$AAI?$AAQ?$AA?$AA@ 100455e4     LIBCMT:winapinls.obj
 0002:000075f0       ??_C@_1M@CNKPNOEE@?$AAd?$AAe?$AA?9?$AAC?$AAH?$AA?$AA@ 100455f0     LIBCMT:winapinls.obj
 0002:000075fc       ??_C@_1M@LKMGMLKO@?$AAe?$AAn?$AA?9?$AAG?$AAB?$AA?$AA@ 100455fc     LIBCMT:winapinls.obj
 0002:00007608       ??_C@_1M@PGKJFFGL@?$AAe?$AAs?$AA?9?$AAM?$AAX?$AA?$AA@ 10045608     LIBCMT:winapinls.obj
 0002:00007614       ??_C@_1M@DNNANBDC@?$AAf?$AAr?$AA?9?$AAB?$AAE?$AA?$AA@ 10045614     LIBCMT:winapinls.obj
 0002:00007620       ??_C@_1M@HLGMDFHM@?$AAi?$AAt?$AA?9?$AAC?$AAH?$AA?$AA@ 10045620     LIBCMT:winapinls.obj
 0002:0000762c       ??_C@_1M@CLLBGJH@?$AAn?$AAl?$AA?9?$AAB?$AAE?$AA?$AA@ 1004562c     LIBCMT:winapinls.obj
 0002:00007638       ??_C@_1M@BODBOGLF@?$AAn?$AAn?$AA?9?$AAN?$AAO?$AA?$AA@ 10045638     LIBCMT:winapinls.obj
 0002:00007644       ??_C@_1M@HFFAHKAD@?$AAp?$AAt?$AA?9?$AAP?$AAT?$AA?$AA@ 10045644     LIBCMT:winapinls.obj
 0002:00007650       ??_C@_1BG@LNOAKHIE@?$AAs?$AAr?$AA?9?$AAS?$AAP?$AA?9?$AAL?$AAa?$AAt?$AAn?$AA?$AA@ 10045650     LIBCMT:winapinls.obj
 0002:00007668       ??_C@_1M@HBMHBGAK@?$AAs?$AAv?$AA?9?$AAF?$AAI?$AA?$AA@ 10045668     LIBCMT:winapinls.obj
 0002:00007674       ??_C@_1BG@DGCJGJBE@?$AAa?$AAz?$AA?9?$AAA?$AAZ?$AA?9?$AAC?$AAy?$AAr?$AAl?$AA?$AA@ 10045674     LIBCMT:winapinls.obj
 0002:0000768c       ??_C@_1M@KEJDAAHB@?$AAs?$AAe?$AA?9?$AAS?$AAE?$AA?$AA@ 1004568c     LIBCMT:winapinls.obj
 0002:00007698       ??_C@_1M@HEIBJJAD@?$AAm?$AAs?$AA?9?$AAB?$AAN?$AA?$AA@ 10045698     LIBCMT:winapinls.obj
 0002:000076a4       ??_C@_1BG@PBGJMCEM@?$AAu?$AAz?$AA?9?$AAU?$AAZ?$AA?9?$AAC?$AAy?$AAr?$AAl?$AA?$AA@ 100456a4     LIBCMT:winapinls.obj
 0002:000076bc       ??_C@_1O@LAOBCMDF@?$AAq?$AAu?$AAz?$AA?9?$AAE?$AAC?$AA?$AA@ 100456bc     LIBCMT:winapinls.obj
 0002:000076cc       ??_C@_1M@POEEMAIO@?$AAa?$AAr?$AA?9?$AAE?$AAG?$AA?$AA@ 100456cc     LIBCMT:winapinls.obj
 0002:000076d8       ??_C@_1M@EFAKDEDL@?$AAz?$AAh?$AA?9?$AAH?$AAK?$AA?$AA@ 100456d8     LIBCMT:winapinls.obj
 0002:000076e4       ??_C@_1M@HKKIJHGI@?$AAd?$AAe?$AA?9?$AAA?$AAT?$AA?$AA@ 100456e4     LIBCMT:winapinls.obj
 0002:000076f0       ??_C@_1M@KBFBEHJF@?$AAe?$AAn?$AA?9?$AAA?$AAU?$AA?$AA@ 100456f0     LIBCMT:winapinls.obj
 0002:000076fc       ??_C@_1M@MNPLFAAH@?$AAe?$AAs?$AA?9?$AAE?$AAS?$AA?$AA@ 100456fc     LIBCMT:winapinls.obj
 0002:00007708       ??_C@_1M@HJOOJFMA@?$AAf?$AAr?$AA?9?$AAC?$AAA?$AA?$AA@ 10045708     LIBCMT:winapinls.obj
 0002:00007714       ??_C@_1BG@JPOFPNAB@?$AAs?$AAr?$AA?9?$AAS?$AAP?$AA?9?$AAC?$AAy?$AAr?$AAl?$AA?$AA@ 10045714     LIBCMT:winapinls.obj
 0002:0000772c       ??_C@_1M@LNFOCMOB@?$AAs?$AAe?$AA?9?$AAF?$AAI?$AA?$AA@ 1004572c     LIBCMT:winapinls.obj
 0002:00007738       ??_C@_1O@MGJBOAMB@?$AAq?$AAu?$AAz?$AA?9?$AAP?$AAE?$AA?$AA@ 10045738     LIBCMT:winapinls.obj
 0002:00007748       ??_C@_1M@GJINLBOK@?$AAa?$AAr?$AA?9?$AAL?$AAY?$AA?$AA@ 10045748     LIBCMT:winapinls.obj
 0002:00007754       ??_C@_1M@GGMNHJNL@?$AAz?$AAh?$AA?9?$AAS?$AAG?$AA?$AA@ 10045754     LIBCMT:winapinls.obj
 0002:00007760       ??_C@_1M@HOIKODND@?$AAd?$AAe?$AA?9?$AAL?$AAU?$AA?$AA@ 10045760     LIBCMT:winapinls.obj
 0002:0000776c       ??_C@_1M@DDOCCGFG@?$AAe?$AAn?$AA?9?$AAC?$AAA?$AA?$AA@ 1004576c     LIBCMT:winapinls.obj
 0002:00007778       ??_C@_1M@BNOEMJLF@?$AAe?$AAs?$AA?9?$AAG?$AAT?$AA?$AA@ 10045778     LIBCMT:winapinls.obj
 0002:00007784       ??_C@_1M@EOGNKEK@?$AAf?$AAr?$AA?9?$AAC?$AAH?$AA?$AA@ 10045784     LIBCMT:winapinls.obj
 0002:00007790       ??_C@_1M@FLIDJFHL@?$AAh?$AAr?$AA?9?$AAB?$AAA?$AA?$AA@ 10045790     LIBCMT:winapinls.obj
 0002:0000779c       ??_C@_1O@FMCELNAJ@?$AAs?$AAm?$AAj?$AA?9?$AAN?$AAO?$AA?$AA@ 1004579c     LIBCMT:winapinls.obj
 0002:000077ac       ??_C@_1M@JHGLJMGJ@?$AAa?$AAr?$AA?9?$AAD?$AAZ?$AA?$AA@ 100457ac     LIBCMT:winapinls.obj
 0002:000077b8       ??_C@_1M@JKKFDCNP@?$AAz?$AAh?$AA?9?$AAM?$AAO?$AA?$AA@ 100457b8     LIBCMT:winapinls.obj
 0002:000077c4       ??_C@_1M@GEEFALPE@?$AAd?$AAe?$AA?9?$AAL?$AAI?$AA?$AA@ 100457c4     LIBCMT:winapinls.obj
 0002:000077d0       ??_C@_1M@IGEOFBG@?$AAe?$AAn?$AA?9?$AAN?$AAZ?$AA?$AA@ 100457d0     LIBCMT:winapinls.obj
 0002:000077dc       ??_C@_1M@KDBONEHP@?$AAe?$AAs?$AA?9?$AAC?$AAR?$AA?$AA@ 100457dc     LIBCMT:winapinls.obj
 0002:000077e8       ??_C@_1M@FHMDOHNN@?$AAf?$AAr?$AA?9?$AAL?$AAU?$AA?$AA@ 100457e8     LIBCMT:winapinls.obj
 0002:000077f4       ??_C@_1BG@NFKKMAFG@?$AAb?$AAs?$AA?9?$AAB?$AAA?$AA?9?$AAL?$AAa?$AAt?$AAn?$AA?$AA@ 100457f4     LIBCMT:winapinls.obj
 0002:0000780c       ??_C@_1O@IMNBEMCI@?$AAs?$AAm?$AAj?$AA?9?$AAS?$AAE?$AA?$AA@ 1004580c     LIBCMT:winapinls.obj
 0002:0000781c       ??_C@_1M@DHHMBNDP@?$AAa?$AAr?$AA?9?$AAM?$AAA?$AA?$AA@ 1004581c     LIBCMT:winapinls.obj
 0002:00007828       ??_C@_1M@BNBLJCGH@?$AAe?$AAn?$AA?9?$AAI?$AAE?$AA?$AA@ 10045828     LIBCMT:winapinls.obj
 0002:00007834       ??_C@_1M@GEPAFMDL@?$AAe?$AAs?$AA?9?$AAP?$AAA?$AA?$AA@ 10045834     LIBCMT:winapinls.obj
 0002:00007840       ??_C@_1M@OJONDMDL@?$AAf?$AAr?$AA?9?$AAM?$AAC?$AA?$AA@ 10045840     LIBCMT:winapinls.obj
 0002:0000784c       ??_C@_1BG@OBCNFJB@?$AAs?$AAr?$AA?9?$AAB?$AAA?$AA?9?$AAL?$AAa?$AAt?$AAn?$AA?$AA@ 1004584c     LIBCMT:winapinls.obj
 0002:00007864       ??_C@_1O@KEMEEGPO@?$AAs?$AAm?$AAa?$AA?9?$AAN?$AAO?$AA?$AA@ 10045864     LIBCMT:winapinls.obj
 0002:00007874       ??_C@_1M@ELMGFODK@?$AAa?$AAr?$AA?9?$AAT?$AAN?$AA?$AA@ 10045874     LIBCMT:winapinls.obj
 0002:00007880       ??_C@_1M@BHDLHFAF@?$AAe?$AAn?$AA?9?$AAZ?$AAA?$AA?$AA@ 10045880     LIBCMT:winapinls.obj
 0002:0000788c       ??_C@_1M@BMGIGLIF@?$AAe?$AAs?$AA?9?$AAD?$AAO?$AA?$AA@ 1004588c     LIBCMT:winapinls.obj
 0002:00007898       ??_C@_1BG@CMBHIPBE@?$AAs?$AAr?$AA?9?$AAB?$AAA?$AA?9?$AAC?$AAy?$AAr?$AAl?$AA?$AA@ 10045898     LIBCMT:winapinls.obj
 0002:000078b0       ??_C@_1O@HEDBLHNP@?$AAs?$AAm?$AAa?$AA?9?$AAS?$AAE?$AA?$AA@ 100458b0     LIBCMT:winapinls.obj
 0002:000078c0       ??_C@_1M@DAGCADIM@?$AAa?$AAr?$AA?9?$AAO?$AAM?$AA?$AA@ 100458c0     LIBCMT:winapinls.obj
 0002:000078cc       ??_C@_1M@FODLMICG@?$AAe?$AAn?$AA?9?$AAJ?$AAM?$AA?$AA@ 100458cc     LIBCMT:winapinls.obj
 0002:000078d8       ??_C@_1M@DNMLCIHB@?$AAe?$AAs?$AA?9?$AAV?$AAE?$AA?$AA@ 100458d8     LIBCMT:winapinls.obj
 0002:000078e4       ??_C@_1O@EOKHMKJK@?$AAs?$AAm?$AAs?$AA?9?$AAF?$AAI?$AA?$AA@ 100458e4     LIBCMT:winapinls.obj
 0002:000078f4       ??_C@_1M@CAFJMKOF@?$AAa?$AAr?$AA?9?$AAY?$AAE?$AA?$AA@ 100458f4     LIBCMT:winapinls.obj
 0002:00007900       ??_C@_1M@CBFHIJLI@?$AAe?$AAn?$AA?9?$AAC?$AAB?$AA?$AA@ 10045900     LIBCMT:winapinls.obj
 0002:0000790c       ??_C@_1M@BGNFLDN@?$AAe?$AAs?$AA?9?$AAC?$AAO?$AA?$AA@ 1004590c     LIBCMT:winapinls.obj
 0002:00007918       ??_C@_1O@JMPHMAMC@?$AAs?$AAm?$AAn?$AA?9?$AAF?$AAI?$AA?$AA@ 10045918     LIBCMT:winapinls.obj
 0002:00007928       ??_C@_1M@JLANABKE@?$AAa?$AAr?$AA?9?$AAS?$AAY?$AA?$AA@ 10045928     LIBCMT:winapinls.obj
 0002:00007934       ??_C@_1M@HPKGCFGN@?$AAe?$AAn?$AA?9?$AAB?$AAZ?$AA?$AA@ 10045934     LIBCMT:winapinls.obj
 0002:00007940       ??_C@_1M@OLJCMLGM@?$AAe?$AAs?$AA?9?$AAP?$AAE?$AA?$AA@ 10045940     LIBCMT:winapinls.obj
 0002:0000794c       ??_C@_1M@MKKGFKLE@?$AAa?$AAr?$AA?9?$AAJ?$AAO?$AA?$AA@ 1004594c     LIBCMT:winapinls.obj
 0002:00007958       ??_C@_1M@EKPGLDNI@?$AAe?$AAn?$AA?9?$AAT?$AAT?$AA?$AA@ 10045958     LIBCMT:winapinls.obj
 0002:00007964       ??_C@_1M@OONGHFHE@?$AAe?$AAs?$AA?9?$AAA?$AAR?$AA?$AA@ 10045964     LIBCMT:winapinls.obj
 0002:00007970       ??_C@_1M@OOJFGBHE@?$AAa?$AAr?$AA?9?$AAL?$AAB?$AA?$AA@ 10045970     LIBCMT:winapinls.obj
 0002:0000797c       ??_C@_1M@GCEJHNEG@?$AAe?$AAn?$AA?9?$AAZ?$AAW?$AA?$AA@ 1004597c     LIBCMT:winapinls.obj
 0002:00007988       ??_C@_1M@JNOCAHJI@?$AAe?$AAs?$AA?9?$AAE?$AAC?$AA?$AA@ 10045988     LIBCMT:winapinls.obj
 0002:00007994       ??_C@_1M@JEFHPGGB@?$AAa?$AAr?$AA?9?$AAK?$AAW?$AA?$AA@ 10045994     LIBCMT:winapinls.obj
 0002:000079a0       ??_C@_1M@MLKIBJOJ@?$AAe?$AAn?$AA?9?$AAP?$AAH?$AA?$AA@ 100459a0     LIBCMT:winapinls.obj
 0002:000079ac       ??_C@_1M@BDNIPEND@?$AAe?$AAs?$AA?9?$AAC?$AAL?$AA?$AA@ 100459ac     LIBCMT:winapinls.obj
 0002:000079b8       ??_C@_1M@MPNMEKBD@?$AAa?$AAr?$AA?9?$AAA?$AAE?$AA?$AA@ 100459b8     LIBCMT:winapinls.obj
 0002:000079c4       ??_C@_1M@KBJALCPI@?$AAe?$AAs?$AA?9?$AAU?$AAY?$AA?$AA@ 100459c4     LIBCMT:winapinls.obj
 0002:000079d0       ??_C@_1M@LLCCOAGA@?$AAa?$AAr?$AA?9?$AAB?$AAH?$AA?$AA@ 100459d0     LIBCMT:winapinls.obj
 0002:000079dc       ??_C@_1M@PBFNCDEL@?$AAe?$AAs?$AA?9?$AAP?$AAY?$AA?$AA@ 100459dc     LIBCMT:winapinls.obj
 0002:000079e8       ??_C@_1M@EDGINPNP@?$AAa?$AAr?$AA?9?$AAQ?$AAA?$AA?$AA@ 100459e8     LIBCMT:winapinls.obj
 0002:000079f4       ??_C@_1M@MKDBIIJI@?$AAe?$AAs?$AA?9?$AAB?$AAO?$AA?$AA@ 100459f4     LIBCMT:winapinls.obj
 0002:00007a00       ??_C@_1M@CPKKEBLD@?$AAe?$AAs?$AA?9?$AAS?$AAV?$AA?$AA@ 10045a00     LIBCMT:winapinls.obj
 0002:00007a0c       ??_C@_1M@NDBGMMJL@?$AAe?$AAs?$AA?9?$AAH?$AAN?$AA?$AA@ 10045a0c     LIBCMT:winapinls.obj
 0002:00007a18       ??_C@_1M@JIJIBHDP@?$AAe?$AAs?$AA?9?$AAN?$AAI?$AA?$AA@ 10045a18     LIBCMT:winapinls.obj
 0002:00007a24       ??_C@_1M@CGFMKEEK@?$AAe?$AAs?$AA?9?$AAP?$AAR?$AA?$AA@ 10045a24     LIBCMT:winapinls.obj
 0002:00007a30       ??_C@_1O@ICJHKIIK@?$AAz?$AAh?$AA?9?$AAC?$AAH?$AAT?$AA?$AA@ 10045a30     LIBCMT:winapinls.obj
 0002:00007a40       ??_C@_15CLNEJCE@?$AAs?$AAr?$AA?$AA@ 10045a40     LIBCMT:winapinls.obj
 0002:00007a48       ??_C@_1M@KAHEKEIG@?$AAa?$AAf?$AA?9?$AAz?$AAa?$AA?$AA@ 10045a48     LIBCMT:winapinls.obj
 0002:00007a54       ??_C@_1M@GIECOABL@?$AAa?$AAr?$AA?9?$AAa?$AAe?$AA?$AA@ 10045a54     LIBCMT:winapinls.obj
 0002:00007a60       ??_C@_1M@BMLMEKGI@?$AAa?$AAr?$AA?9?$AAb?$AAh?$AA?$AA@ 10045a60     LIBCMT:winapinls.obj
 0002:00007a6c       ??_C@_1M@DAPFDGGB@?$AAa?$AAr?$AA?9?$AAd?$AAz?$AA?$AA@ 10045a6c     LIBCMT:winapinls.obj
 0002:00007a78       ??_C@_1M@FJNKGKIG@?$AAa?$AAr?$AA?9?$AAe?$AAg?$AA?$AA@ 10045a78     LIBCMT:winapinls.obj
 0002:00007a84       ??_C@_1M@FLGKKCLO@?$AAa?$AAr?$AA?9?$AAi?$AAq?$AA?$AA@ 10045a84     LIBCMT:winapinls.obj
 0002:00007a90       ??_C@_1M@GNDIPALM@?$AAa?$AAr?$AA?9?$AAj?$AAo?$AA?$AA@ 10045a90     LIBCMT:winapinls.obj
 0002:00007a9c       ??_C@_1M@DDMJFMGJ@?$AAa?$AAr?$AA?9?$AAk?$AAw?$AA?$AA@ 10045a9c     LIBCMT:winapinls.obj
 0002:00007aa8       ??_C@_1M@EJALMLHM@?$AAa?$AAr?$AA?9?$AAl?$AAb?$AA?$AA@ 10045aa8     LIBCMT:winapinls.obj
 0002:00007ab4       ??_C@_1M@MOBDBLOC@?$AAa?$AAr?$AA?9?$AAl?$AAy?$AA?$AA@ 10045ab4     LIBCMT:winapinls.obj
 0002:00007ac0       ??_C@_1M@JAOCLHDH@?$AAa?$AAr?$AA?9?$AAm?$AAa?$AA?$AA@ 10045ac0     LIBCMT:winapinls.obj
 0002:00007acc       ??_C@_1M@JHPMKJIE@?$AAa?$AAr?$AA?9?$AAo?$AAm?$AA?$AA@ 10045acc     LIBCMT:winapinls.obj
 0002:00007ad8       ??_C@_1M@OEPGHFNH@?$AAa?$AAr?$AA?9?$AAq?$AAa?$AA?$AA@ 10045ad8     LIBCMT:winapinls.obj
 0002:00007ae4       ??_C@_1M@KJDONENM@?$AAa?$AAr?$AA?9?$AAs?$AAa?$AA?$AA@ 10045ae4     LIBCMT:winapinls.obj
 0002:00007af0       ??_C@_1M@DMJDKLKM@?$AAa?$AAr?$AA?9?$AAs?$AAy?$AA?$AA@ 10045af0     LIBCMT:winapinls.obj
 0002:00007afc       ??_C@_1M@OMFIPEDC@?$AAa?$AAr?$AA?9?$AAt?$AAn?$AA?$AA@ 10045afc     LIBCMT:winapinls.obj
 0002:00007b08       ??_C@_1M@IHMHGAON@?$AAa?$AAr?$AA?9?$AAy?$AAe?$AA?$AA@ 10045b08     LIBCMT:winapinls.obj
 0002:00007b14       ??_C@_1BG@KDCPGJGB@?$AAa?$AAz?$AA?9?$AAa?$AAz?$AA?9?$AAc?$AAy?$AAr?$AAl?$AA?$AA@ 10045b14     LIBCMT:winapinls.obj
 0002:00007b2c       ??_C@_1BG@IBCKDDOE@?$AAa?$AAz?$AA?9?$AAa?$AAz?$AA?9?$AAl?$AAa?$AAt?$AAn?$AA?$AA@ 10045b2c     LIBCMT:winapinls.obj
 0002:00007b44       ??_C@_1M@EGPFDCPD@?$AAb?$AAe?$AA?9?$AAb?$AAy?$AA?$AA@ 10045b44     LIBCMT:winapinls.obj
 0002:00007b50       ??_C@_1M@PCMGMCGC@?$AAb?$AAg?$AA?9?$AAb?$AAg?$AA?$AA@ 10045b50     LIBCMT:winapinls.obj
 0002:00007b5c       ??_C@_1M@BJBMFGOB@?$AAb?$AAn?$AA?9?$AAi?$AAn?$AA?$AA@ 10045b5c     LIBCMT:winapinls.obj
 0002:00007b68       ??_C@_1BG@EAKMMACD@?$AAb?$AAs?$AA?9?$AAb?$AAa?$AA?9?$AAl?$AAa?$AAt?$AAn?$AA?$AA@ 10045b68     LIBCMT:winapinls.obj
 0002:00007b80       ??_C@_1M@KGADAODK@?$AAc?$AAa?$AA?9?$AAe?$AAs?$AA?$AA@ 10045b80     LIBCMT:winapinls.obj
 0002:00007b8c       ??_C@_1M@COAJPDHI@?$AAc?$AAs?$AA?9?$AAc?$AAz?$AA?$AA@ 10045b8c     LIBCMT:winapinls.obj
 0002:00007b98       ??_C@_1M@DHBHFONH@?$AAc?$AAy?$AA?9?$AAg?$AAb?$AA?$AA@ 10045b98     LIBCMT:winapinls.obj
 0002:00007ba4       ??_C@_1M@IMGKELGA@?$AAd?$AAa?$AA?9?$AAd?$AAk?$AA?$AA@ 10045ba4     LIBCMT:winapinls.obj
 0002:00007bb0       ??_C@_1M@NNDGDNGA@?$AAd?$AAe?$AA?9?$AAa?$AAt?$AA?$AA@ 10045bb0     LIBCMT:winapinls.obj
 0002:00007bbc       ??_C@_1M@IKDBHEEM@?$AAd?$AAe?$AA?9?$AAc?$AAh?$AA?$AA@ 10045bbc     LIBCMT:winapinls.obj
 0002:00007bc8       ??_C@_1M@GFFOJMCJ@?$AAd?$AAe?$AA?9?$AAd?$AAe?$AA?$AA@ 10045bc8     LIBCMT:winapinls.obj
 0002:00007bd4       ??_C@_1M@MDNLKBPM@?$AAd?$AAe?$AA?9?$AAl?$AAi?$AA?$AA@ 10045bd4     LIBCMT:winapinls.obj
 0002:00007be0       ??_C@_1M@NJBEEJNL@?$AAd?$AAe?$AA?9?$AAl?$AAu?$AA?$AA@ 10045be0     LIBCMT:winapinls.obj
 0002:00007bec       ??_C@_1O@GNNELBAP@?$AAd?$AAi?$AAv?$AA?9?$AAm?$AAv?$AA?$AA@ 10045bec     LIBCMT:winapinls.obj
 0002:00007bfc       ??_C@_1M@EJLEOGAE@?$AAe?$AAl?$AA?9?$AAg?$AAr?$AA?$AA@ 10045bfc     LIBCMT:winapinls.obj
 0002:00007c08       ??_C@_1M@GMPONJN@?$AAe?$AAn?$AA?9?$AAa?$AAu?$AA?$AA@ 10045c08     LIBCMT:winapinls.obj
 0002:00007c14       ??_C@_1M@NIDIIPGF@?$AAe?$AAn?$AA?9?$AAb?$AAz?$AA?$AA@ 10045c14     LIBCMT:winapinls.obj
 0002:00007c20       ??_C@_1M@JEHMIMFO@?$AAe?$AAn?$AA?9?$AAc?$AAa?$AA?$AA@ 10045c20     LIBCMT:winapinls.obj
 0002:00007c2c       ??_C@_1M@IGMJCDLA@?$AAe?$AAn?$AA?9?$AAc?$AAb?$AA?$AA@ 10045c2c     LIBCMT:winapinls.obj
 0002:00007c38       ??_C@_1M@BNFIGBKG@?$AAe?$AAn?$AA?9?$AAg?$AAb?$AA?$AA@ 10045c38     LIBCMT:winapinls.obj
 0002:00007c44       ??_C@_1M@LKIFDIGP@?$AAe?$AAn?$AA?9?$AAi?$AAe?$AA?$AA@ 10045c44     LIBCMT:winapinls.obj
 0002:00007c50       ??_C@_1M@PJKFGCCO@?$AAe?$AAn?$AA?9?$AAj?$AAm?$AA?$AA@ 10045c50     LIBCMT:winapinls.obj
 0002:00007c5c       ??_C@_1M@KPPKEPBO@?$AAe?$AAn?$AA?9?$AAn?$AAz?$AA?$AA@ 10045c5c     LIBCMT:winapinls.obj
 0002:00007c68       ??_C@_1M@GMDGLDOB@?$AAe?$AAn?$AA?9?$AAp?$AAh?$AA?$AA@ 10045c68     LIBCMT:winapinls.obj
 0002:00007c74       ??_C@_1M@ONGIBJNA@?$AAe?$AAn?$AA?9?$AAt?$AAt?$AA?$AA@ 10045c74     LIBCMT:winapinls.obj
 0002:00007c80       ??_C@_1M@LLODPCMM@?$AAe?$AAn?$AA?9?$AAu?$AAs?$AA?$AA@ 10045c80     LIBCMT:winapinls.obj
 0002:00007c8c       ??_C@_1M@LAKFNPAN@?$AAe?$AAn?$AA?9?$AAz?$AAa?$AA?$AA@ 10045c8c     LIBCMT:winapinls.obj
 0002:00007c98       ??_C@_1M@MFNHNHEO@?$AAe?$AAn?$AA?9?$AAz?$AAw?$AA?$AA@ 10045c98     LIBCMT:winapinls.obj
 0002:00007ca4       ??_C@_1M@EJEINPHM@?$AAe?$AAs?$AA?9?$AAa?$AAr?$AA?$AA@ 10045ca4     LIBCMT:winapinls.obj
 0002:00007cb0       ??_C@_1M@GNKPCCJA@?$AAe?$AAs?$AA?9?$AAb?$AAo?$AA?$AA@ 10045cb0     LIBCMT:winapinls.obj
 0002:00007cbc       ??_C@_1M@LEEGFONL@?$AAe?$AAs?$AA?9?$AAc?$AAl?$AA?$AA@ 10045cbc     LIBCMT:winapinls.obj
 0002:00007cc8       ??_C@_1M@KGPDPBDF@?$AAe?$AAs?$AA?9?$AAc?$AAo?$AA?$AA@ 10045cc8     LIBCMT:winapinls.obj
 0002:00007cd4       ??_C@_1M@EIAHOHH@?$AAe?$AAs?$AA?9?$AAc?$AAr?$AA?$AA@ 10045cd4     LIBCMT:winapinls.obj
 0002:00007ce0       ??_C@_1M@LLPGMBIN@?$AAe?$AAs?$AA?9?$AAd?$AAo?$AA?$AA@ 10045ce0     LIBCMT:winapinls.obj
 0002:00007cec       ??_C@_1M@DKHMKNJA@?$AAe?$AAs?$AA?9?$AAe?$AAc?$AA?$AA@ 10045cec     LIBCMT:winapinls.obj
 0002:00007cf8       ??_C@_1M@GKGFPKAP@?$AAe?$AAs?$AA?9?$AAe?$AAs?$AA?$AA@ 10045cf8     LIBCMT:winapinls.obj
 0002:00007d04       ??_C@_1M@LKHKGDLN@?$AAe?$AAs?$AA?9?$AAg?$AAt?$AA?$AA@ 10045d04     LIBCMT:winapinls.obj
 0002:00007d10       ??_C@_1M@HEIIGGJD@?$AAe?$AAs?$AA?9?$AAh?$AAn?$AA?$AA@ 10045d10     LIBCMT:winapinls.obj
 0002:00007d1c       ??_C@_1M@FBDHPPGD@?$AAe?$AAs?$AA?9?$AAm?$AAx?$AA?$AA@ 10045d1c     LIBCMT:winapinls.obj
 0002:00007d28       ??_C@_1M@DPAGLNDH@?$AAe?$AAs?$AA?9?$AAn?$AAi?$AA?$AA@ 10045d28     LIBCMT:winapinls.obj
 0002:00007d34       ??_C@_1M@MDGOPGDD@?$AAe?$AAs?$AA?9?$AAp?$AAa?$AA?$AA@ 10045d34     LIBCMT:winapinls.obj
 0002:00007d40       ??_C@_1M@EMAMGBGE@?$AAe?$AAs?$AA?9?$AAp?$AAe?$AA?$AA@ 10045d40     LIBCMT:winapinls.obj
 0002:00007d4c       ??_C@_1M@IBMCAOEC@?$AAe?$AAs?$AA?9?$AAp?$AAr?$AA?$AA@ 10045d4c     LIBCMT:winapinls.obj
 0002:00007d58       ??_C@_1M@FGMDIJED@?$AAe?$AAs?$AA?9?$AAp?$AAy?$AA?$AA@ 10045d58     LIBCMT:winapinls.obj
 0002:00007d64       ??_C@_1M@IIDEOLLL@?$AAe?$AAs?$AA?9?$AAs?$AAv?$AA?$AA@ 10045d64     LIBCMT:winapinls.obj
 0002:00007d70       ??_C@_1M@GAOBIPA@?$AAe?$AAs?$AA?9?$AAu?$AAy?$AA?$AA@ 10045d70     LIBCMT:winapinls.obj
 0002:00007d7c       ??_C@_1M@JKFFICHJ@?$AAe?$AAs?$AA?9?$AAv?$AAe?$AA?$AA@ 10045d7c     LIBCMT:winapinls.obj
 0002:00007d88       ??_C@_1M@PNMLOJDF@?$AAe?$AAt?$AA?9?$AAe?$AAe?$AA?$AA@ 10045d88     LIBCMT:winapinls.obj
 0002:00007d94       ??_C@_1M@GHHLIKEI@?$AAe?$AAu?$AA?9?$AAe?$AAs?$AA?$AA@ 10045d94     LIBCMT:winapinls.obj
 0002:00007da0       ??_C@_1M@PBNONODE@?$AAf?$AAa?$AA?9?$AAi?$AAr?$AA?$AA@ 10045da0     LIBCMT:winapinls.obj
 0002:00007dac       ??_C@_1M@JEEHPMIL@?$AAf?$AAi?$AA?9?$AAf?$AAi?$AA?$AA@ 10045dac     LIBCMT:winapinls.obj
 0002:00007db8       ??_C@_1M@LMDCNDBA@?$AAf?$AAo?$AA?9?$AAf?$AAo?$AA?$AA@ 10045db8     LIBCMT:winapinls.obj
 0002:00007dc4       ??_C@_1M@JKEOHLDK@?$AAf?$AAr?$AA?9?$AAb?$AAe?$AA?$AA@ 10045dc4     LIBCMT:winapinls.obj
 0002:00007dd0       ??_C@_1M@NOHADPMI@?$AAf?$AAr?$AA?9?$AAc?$AAa?$AA?$AA@ 10045dd0     LIBCMT:winapinls.obj
 0002:00007ddc       ??_C@_1M@KDHIHAEC@?$AAf?$AAr?$AA?9?$AAc?$AAh?$AA?$AA@ 10045ddc     LIBCMT:winapinls.obj
 0002:00007de8       ??_C@_1M@MMBBFGAK@?$AAf?$AAr?$AA?9?$AAf?$AAr?$AA?$AA@ 10045de8     LIBCMT:winapinls.obj
 0002:00007df4       ??_C@_1M@PAFNENNF@?$AAf?$AAr?$AA?9?$AAl?$AAu?$AA?$AA@ 10045df4     LIBCMT:winapinls.obj
 0002:00007e00       ??_C@_1M@EOHDJGDD@?$AAf?$AAr?$AA?9?$AAm?$AAc?$AA?$AA@ 10045e00     LIBCMT:winapinls.obj
 0002:00007e0c       ??_C@_1M@FAPLLOPF@?$AAg?$AAl?$AA?9?$AAe?$AAs?$AA?$AA@ 10045e0c     LIBCMT:winapinls.obj
 0002:00007e18       ??_C@_1M@FOPBFLOO@?$AAg?$AAu?$AA?9?$AAi?$AAn?$AA?$AA@ 10045e18     LIBCMT:winapinls.obj
 0002:00007e24       ??_C@_1M@KBMCINPM@?$AAh?$AAe?$AA?9?$AAi?$AAl?$AA?$AA@ 10045e24     LIBCMT:winapinls.obj
 0002:00007e30       ??_C@_1M@BBPHKFPJ@?$AAh?$AAi?$AA?9?$AAi?$AAn?$AA?$AA@ 10045e30     LIBCMT:winapinls.obj
 0002:00007e3c       ??_C@_1M@PMBNDPHD@?$AAh?$AAr?$AA?9?$AAb?$AAa?$AA?$AA@ 10045e3c     LIBCMT:winapinls.obj
 0002:00007e48       ??_C@_1M@BPCKOEGE@?$AAh?$AAr?$AA?9?$AAh?$AAr?$AA?$AA@ 10045e48     LIBCMT:winapinls.obj
 0002:00007e54       ??_C@_1M@GACBMHKE@?$AAh?$AAu?$AA?9?$AAh?$AAu?$AA?$AA@ 10045e54     LIBCMT:winapinls.obj
 0002:00007e60       ??_C@_1M@MILPAJJC@?$AAh?$AAy?$AA?9?$AAa?$AAm?$AA?$AA@ 10045e60     LIBCMT:winapinls.obj
 0002:00007e6c       ??_C@_1M@BABBICEC@?$AAi?$AAd?$AA?9?$AAi?$AAd?$AA?$AA@ 10045e6c     LIBCMT:winapinls.obj
 0002:00007e78       ??_C@_1M@BIKNHHPF@?$AAi?$AAs?$AA?9?$AAi?$AAs?$AA?$AA@ 10045e78     LIBCMT:winapinls.obj
 0002:00007e84       ??_C@_1M@NMPCJPHE@?$AAi?$AAt?$AA?9?$AAc?$AAh?$AA?$AA@ 10045e84     LIBCMT:winapinls.obj
 0002:00007e90       ??_C@_1M@GHKGFEDF@?$AAi?$AAt?$AA?9?$AAi?$AAt?$AA?$AA@ 10045e90     LIBCMT:winapinls.obj
 0002:00007e9c       ??_C@_1M@NIEJCJJA@?$AAj?$AAa?$AA?9?$AAj?$AAp?$AA?$AA@ 10045e9c     LIBCMT:winapinls.obj
 0002:00007ea8       ??_C@_1M@JILFNBIM@?$AAk?$AAa?$AA?9?$AAg?$AAe?$AA?$AA@ 10045ea8     LIBCMT:winapinls.obj
 0002:00007eb4       ??_C@_1M@PACPMGPH@?$AAk?$AAk?$AA?9?$AAk?$AAz?$AA?$AA@ 10045eb4     LIBCMT:winapinls.obj
 0002:00007ec0       ??_C@_1M@IELFGMHA@?$AAk?$AAn?$AA?9?$AAi?$AAn?$AA?$AA@ 10045ec0     LIBCMT:winapinls.obj
 0002:00007ecc       ??_C@_1O@IBBJHCH@?$AAk?$AAo?$AAk?$AA?9?$AAi?$AAn?$AA?$AA@ 10045ecc     LIBCMT:winapinls.obj
 0002:00007edc       ??_C@_1M@DMHAEOGC@?$AAk?$AAo?$AA?9?$AAk?$AAr?$AA?$AA@ 10045edc     LIBCMT:winapinls.obj
 0002:00007ee8       ??_C@_1M@HBAHBIGA@?$AAk?$AAy?$AA?9?$AAk?$AAg?$AA?$AA@ 10045ee8     LIBCMT:winapinls.obj
 0002:00007ef4       ??_C@_1M@KPMILCJG@?$AAl?$AAt?$AA?9?$AAl?$AAt?$AA?$AA@ 10045ef4     LIBCMT:winapinls.obj
 0002:00007f00       ??_C@_1M@BDEKKCA@?$AAl?$AAv?$AA?9?$AAl?$AAv?$AA?$AA@ 10045f00     LIBCMT:winapinls.obj
 0002:00007f0c       ??_C@_1M@ELCKCCJJ@?$AAm?$AAi?$AA?9?$AAn?$AAz?$AA?$AA@ 10045f0c     LIBCMT:winapinls.obj
 0002:00007f18       ??_C@_1M@CBOOLAPA@?$AAm?$AAk?$AA?9?$AAm?$AAk?$AA?$AA@ 10045f18     LIBCMT:winapinls.obj
 0002:00007f24       ??_C@_1M@GPHNBJKN@?$AAm?$AAl?$AA?9?$AAi?$AAn?$AA?$AA@ 10045f24     LIBCMT:winapinls.obj
 0002:00007f30       ??_C@_1M@PABJILIG@?$AAm?$AAn?$AA?9?$AAm?$AAn?$AA?$AA@ 10045f30     LIBCMT:winapinls.obj
 0002:00007f3c       ??_C@_1M@FGBKKIPG@?$AAm?$AAr?$AA?9?$AAi?$AAn?$AA?$AA@ 10045f3c     LIBCMT:winapinls.obj
 0002:00007f48       ??_C@_1M@NDBPDDAL@?$AAm?$AAs?$AA?9?$AAb?$AAn?$AA?$AA@ 10045f48     LIBCMT:winapinls.obj
 0002:00007f54       ??_C@_1M@OPIHOOPI@?$AAm?$AAs?$AA?9?$AAm?$AAy?$AA?$AA@ 10045f54     LIBCMT:winapinls.obj
 0002:00007f60       ??_C@_1M@PPDBCNFM@?$AAm?$AAt?$AA?9?$AAm?$AAt?$AA?$AA@ 10045f60     LIBCMT:winapinls.obj
 0002:00007f6c       ??_C@_1M@KDJDKMDD@?$AAn?$AAb?$AA?9?$AAn?$AAo?$AA?$AA@ 10045f6c     LIBCMT:winapinls.obj
 0002:00007f78       ??_C@_1M@KFCFLMJP@?$AAn?$AAl?$AA?9?$AAb?$AAe?$AA?$AA@ 10045f78     LIBCMT:winapinls.obj
 0002:00007f84       ??_C@_1M@KPOPDDGO@?$AAn?$AAl?$AA?9?$AAn?$AAl?$AA?$AA@ 10045f84     LIBCMT:winapinls.obj
 0002:00007f90       ??_C@_1M@LJKPEMLN@?$AAn?$AAn?$AA?9?$AAn?$AAo?$AA?$AA@ 10045f90     LIBCMT:winapinls.obj
 0002:00007f9c       ??_C@_1M@BDGHHBFL@?$AAn?$AAs?$AA?9?$AAz?$AAa?$AA?$AA@ 10045f9c     LIBCMT:winapinls.obj
 0002:00007fa8       ??_C@_1M@IDEHOAP@?$AAp?$AAa?$AA?9?$AAi?$AAn?$AA?$AA@ 10045fa8     LIBCMT:winapinls.obj
 0002:00007fb4       ??_C@_1M@HDBKGOGH@?$AAp?$AAl?$AA?9?$AAp?$AAl?$AA?$AA@ 10045fb4     LIBCMT:winapinls.obj
 0002:00007fc0       ??_C@_1M@LJLLCMEH@?$AAp?$AAt?$AA?9?$AAb?$AAr?$AA?$AA@ 10045fc0     LIBCMT:winapinls.obj
 0002:00007fcc       ??_C@_1M@NCMONAAL@?$AAp?$AAt?$AA?9?$AAp?$AAt?$AA?$AA@ 10045fcc     LIBCMT:winapinls.obj
 0002:00007fd8       ??_C@_1O@EAKMAJDN@?$AAq?$AAu?$AAz?$AA?9?$AAb?$AAo?$AA?$AA@ 10045fd8     LIBCMT:winapinls.obj
 0002:00007fe8       ??_C@_1O@BHHPIGDN@?$AAq?$AAu?$AAz?$AA?9?$AAe?$AAc?$AA?$AA@ 10045fe8     LIBCMT:winapinls.obj
 0002:00007ff8       ??_C@_1O@GBAPEKMJ@?$AAq?$AAu?$AAz?$AA?9?$AAp?$AAe?$AA?$AA@ 10045ff8     LIBCMT:winapinls.obj
 0002:00008008       ??_C@_1M@CLGLEFBO@?$AAr?$AAo?$AA?9?$AAr?$AAo?$AA?$AA@ 10046008     LIBCMT:winapinls.obj
 0002:00008014       ??_C@_1M@CEEDODME@?$AAr?$AAu?$AA?9?$AAr?$AAu?$AA?$AA@ 10046014     LIBCMT:winapinls.obj
 0002:00008020       ??_C@_1M@HPKKKMPP@?$AAs?$AAa?$AA?9?$AAi?$AAn?$AA?$AA@ 10046020     LIBCMT:winapinls.obj
 0002:0000802c       ??_C@_1M@BKMAIGOJ@?$AAs?$AAe?$AA?9?$AAf?$AAi?$AA?$AA@ 1004602c     LIBCMT:winapinls.obj
 0002:00008038       ??_C@_1M@NDPIFLFI@?$AAs?$AAe?$AA?9?$AAn?$AAo?$AA?$AA@ 10046038     LIBCMT:winapinls.obj
 0002:00008044       ??_C@_1M@DANKKHJ@?$AAs?$AAe?$AA?9?$AAs?$AAe?$AA?$AA@ 10046044     LIBCMT:winapinls.obj
 0002:00008050       ??_C@_1M@PNBLONPJ@?$AAs?$AAk?$AA?9?$AAs?$AAk?$AA?$AA@ 10046050     LIBCMT:winapinls.obj
 0002:0000805c       ??_C@_1M@LFMODOAL@?$AAs?$AAl?$AA?9?$AAs?$AAi?$AA?$AA@ 1004605c     LIBCMT:winapinls.obj
 0002:00008068       ??_C@_1O@DFKOMPG@?$AAs?$AAm?$AAa?$AA?9?$AAn?$AAo?$AA?$AA@ 10046068     LIBCMT:winapinls.obj
 0002:00008078       ??_C@_1O@NDKPBNNH@?$AAs?$AAm?$AAa?$AA?9?$AAs?$AAe?$AA?$AA@ 10046078     LIBCMT:winapinls.obj
 0002:00008088       ??_C@_1O@PLLKBHAB@?$AAs?$AAm?$AAj?$AA?9?$AAn?$AAo?$AA?$AA@ 10046088     LIBCMT:winapinls.obj
 0002:00008098       ??_C@_1O@CLEPOGCA@?$AAs?$AAm?$AAj?$AA?9?$AAs?$AAe?$AA?$AA@ 10046098     LIBCMT:winapinls.obj
 0002:000080a8       ??_C@_1O@DLGJGKMK@?$AAs?$AAm?$AAn?$AA?9?$AAf?$AAi?$AA?$AA@ 100460a8     LIBCMT:winapinls.obj
 0002:000080b8       ??_C@_1O@OJDJGAJC@?$AAs?$AAm?$AAs?$AA?9?$AAf?$AAi?$AA?$AA@ 100460b8     LIBCMT:winapinls.obj
 0002:000080c8       ??_C@_1M@BOFOGHPB@?$AAs?$AAq?$AA?9?$AAa?$AAl?$AA?$AA@ 100460c8     LIBCMT:winapinls.obj
 0002:000080d4       ??_C@_1BG@LJBBIPGB@?$AAs?$AAr?$AA?9?$AAb?$AAa?$AA?9?$AAc?$AAy?$AAr?$AAl?$AA?$AA@ 100460d4     LIBCMT:winapinls.obj
 0002:000080ec       ??_C@_1BG@JLBENFOE@?$AAs?$AAr?$AA?9?$AAb?$AAa?$AA?9?$AAl?$AAa?$AAt?$AAn?$AA?$AA@ 100460ec     LIBCMT:winapinls.obj
 0002:00008104       ??_C@_1BG@KODPNHE@?$AAs?$AAr?$AA?9?$AAs?$AAp?$AA?9?$AAc?$AAy?$AAr?$AAl?$AA?$AA@ 10046104     LIBCMT:winapinls.obj
 0002:0000811c       ??_C@_1BG@CIOGKHPB@?$AAs?$AAr?$AA?9?$AAs?$AAp?$AA?9?$AAl?$AAa?$AAt?$AAn?$AA?$AA@ 1004611c     LIBCMT:winapinls.obj
 0002:00008134       ??_C@_1M@NGFJLMAC@?$AAs?$AAv?$AA?9?$AAf?$AAi?$AA?$AA@ 10046134     LIBCMT:winapinls.obj
 0002:00008140       ??_C@_1M@MPJEJAJC@?$AAs?$AAv?$AA?9?$AAs?$AAe?$AA?$AA@ 10046140     LIBCMT:winapinls.obj
 0002:0000814c       ??_C@_1M@MPNDHLFK@?$AAs?$AAw?$AA?9?$AAk?$AAe?$AA?$AA@ 1004614c     LIBCMT:winapinls.obj
 0002:00008158       ??_C@_1O@KOHBJJI@?$AAs?$AAy?$AAr?$AA?9?$AAs?$AAy?$AA?$AA@ 10046158     LIBCMT:winapinls.obj
 0002:00008168       ??_C@_1M@LDCEFHA@?$AAt?$AAa?$AA?9?$AAi?$AAn?$AA?$AA@ 10046168     LIBCMT:winapinls.obj
 0002:00008174       ??_C@_1M@CNJOFAK@?$AAt?$AAe?$AA?9?$AAi?$AAn?$AA?$AA@ 10046174     LIBCMT:winapinls.obj
 0002:00008180       ??_C@_1M@GNAECACD@?$AAt?$AAh?$AA?9?$AAt?$AAh?$AA?$AA@ 10046180     LIBCMT:winapinls.obj
 0002:0000818c       ??_C@_1M@CHBIHOJO@?$AAt?$AAn?$AA?9?$AAz?$AAa?$AA?$AA@ 1004618c     LIBCMT:winapinls.obj
 0002:00008198       ??_C@_1M@GCCMIGPJ@?$AAt?$AAr?$AA?9?$AAt?$AAr?$AA?$AA@ 10046198     LIBCMT:winapinls.obj
 0002:000081a4       ??_C@_1M@CELMCNBK@?$AAt?$AAt?$AA?9?$AAr?$AAu?$AA?$AA@ 100461a4     LIBCMT:winapinls.obj
 0002:000081b0       ??_C@_1M@KLMCELGA@?$AAu?$AAk?$AA?9?$AAu?$AAa?$AA?$AA@ 100461b0     LIBCMT:winapinls.obj
 0002:000081bc       ??_C@_1M@EPAJJAJF@?$AAu?$AAr?$AA?9?$AAp?$AAk?$AA?$AA@ 100461bc     LIBCMT:winapinls.obj
 0002:000081c8       ??_C@_1BG@GEGPMCDJ@?$AAu?$AAz?$AA?9?$AAu?$AAz?$AA?9?$AAc?$AAy?$AAr?$AAl?$AA?$AA@ 100461c8     LIBCMT:winapinls.obj
 0002:000081e0       ??_C@_1BG@EGGKJILM@?$AAu?$AAz?$AA?9?$AAu?$AAz?$AA?9?$AAl?$AAa?$AAt?$AAn?$AA?$AA@ 100461e0     LIBCMT:winapinls.obj
 0002:000081f8       ??_C@_1M@GFOCLFF@?$AAv?$AAi?$AA?9?$AAv?$AAn?$AA?$AA@ 100461f8     LIBCMT:winapinls.obj
 0002:00008204       ??_C@_1M@CPAMEDFI@?$AAx?$AAh?$AA?9?$AAz?$AAa?$AA?$AA@ 10046204     LIBCMT:winapinls.obj
 0002:00008210       ??_C@_1O@EBKIFIGN@?$AAz?$AAh?$AA?9?$AAc?$AAh?$AAs?$AA?$AA@ 10046210     LIBCMT:winapinls.obj
 0002:00008220       ??_C@_1O@NMHPGANE@?$AAz?$AAh?$AA?9?$AAc?$AAh?$AAt?$AA?$AA@ 10046220     LIBCMT:winapinls.obj
 0002:00008230       ??_C@_1M@LPINJOMC@?$AAz?$AAh?$AA?9?$AAc?$AAn?$AA?$AA@ 10046230     LIBCMT:winapinls.obj
 0002:0000823c       ??_C@_1M@OCJEJODD@?$AAz?$AAh?$AA?9?$AAh?$AAk?$AA?$AA@ 1004623c     LIBCMT:winapinls.obj
 0002:00008248       ??_C@_1M@DNDLJINH@?$AAz?$AAh?$AA?9?$AAm?$AAo?$AA?$AA@ 10046248     LIBCMT:winapinls.obj
 0002:00008254       ??_C@_1M@MBFDNDND@?$AAz?$AAh?$AA?9?$AAs?$AAg?$AA?$AA@ 10046254     LIBCMT:winapinls.obj
 0002:00008260       ??_C@_1M@IMEPLEPE@?$AAz?$AAh?$AA?9?$AAt?$AAw?$AA?$AA@ 10046260     LIBCMT:winapinls.obj
 0002:0000826c       ??_C@_1M@BBGHNHJP@?$AAz?$AAu?$AA?9?$AAz?$AAa?$AA?$AA@ 1004626c     LIBCMT:winapinls.obj
 0002:00008278       ___lookuptable_s           10046278     LIBCMT:outputs.obj
 0002:000082d8       ___lc_category             100462d8     LIBCMT:wsetloca.obj
 0002:00008320       ??_C@_1O@GIFLHMA@?$AAL?$AAC?$AA_?$AAA?$AAL?$AAL?$AA?$AA@ 10046320     LIBCMT:wsetloca.obj
 0002:00008330       ??_C@_1BG@PPOMIBNJ@?$AAL?$AAC?$AA_?$AAC?$AAO?$AAL?$AAL?$AAA?$AAT?$AAE?$AA?$AA@ 10046330     LIBCMT:wsetloca.obj
 0002:00008348       ??_C@_1BC@FFJGAPJM@?$AAL?$AAC?$AA_?$AAC?$AAT?$AAY?$AAP?$AAE?$AA?$AA@ 10046348     LIBCMT:wsetloca.obj
 0002:0000835c       ??_C@_1BI@PCKFNJFB@?$AAL?$AAC?$AA_?$AAM?$AAO?$AAN?$AAE?$AAT?$AAA?$AAR?$AAY?$AA?$AA@ 1004635c     LIBCMT:wsetloca.obj
 0002:00008374       ??_C@_1BG@ENIEDKID@?$AAL?$AAC?$AA_?$AAN?$AAU?$AAM?$AAE?$AAR?$AAI?$AAC?$AA?$AA@ 10046374     LIBCMT:wsetloca.obj
 0002:0000838c       ??_C@_1BA@HAAOMIIG@?$AAL?$AAC?$AA_?$AAT?$AAI?$AAM?$AAE?$AA?$AA@ 1004638c     LIBCMT:wsetloca.obj
 0002:00008420       ??_C@_15NBPDDFIP@?$AA?$DN?$AA?$DL?$AA?$AA@ 10046420     LIBCMT:wsetloca.obj
 0002:00008428       ??_C@_13PJJBFPED@?$AA?$DL?$AA?$AA@ 10046428     LIBCMT:wsetloca.obj
 0002:0000842c       ??_C@_13NMPKAAJP@?$AA?$DN?$AA?$AA@ 1004642c     LIBCMT:wsetloca.obj
 0002:00008430       ??_C@_13FHBKNHDA@?$AAC?$AA?$AA@ 10046430     LIBCMT:wsetloca.obj
 0002:00008434       ??_C@_17MBJJLFDM@?$AA_?$AA?4?$AA?0?$AA?$AA@ 10046434     LIBCMT:wsetloca.obj
 0002:0000843c       ??_C@_13ENNFDPBH@?$AA_?$AA?$AA@ 1004643c     LIBCMT:wsetloca.obj
 0002:00008440       ??_C@_13JOFGPIOO@?$AA?4?$AA?$AA@ 10046440     LIBCMT:wsetloca.obj
 0002:00008444       ??_C@_06PGGFOGJG@1?$CDSNAN?$AA@ 10046444     LIBCMT:x10fout.obj
 0002:0000844c       ??_C@_05PHHOCPM@1?$CDIND?$AA@ 1004644c     LIBCMT:x10fout.obj
 0002:00008454       ??_C@_05DNEBIAHO@1?$CDINF?$AA@ 10046454     LIBCMT:x10fout.obj
 0002:0000845c       ??_C@_06IMKFLFPG@1?$CDQNAN?$AA@ 1004645c     LIBCMT:x10fout.obj
 0002:00008468       ___newctype                10046468     LIBCMT:ctype.obj
 0002:00008768       __wctype                   10046768     LIBCMT:ctype.obj
 0002:00008970       ___newclmap                10046970     LIBCMT:ctype.obj
 0002:00008af0       ___newcumap                10046af0     LIBCMT:ctype.obj
 0002:00008c70       ??_C@_0M@HHGEPIBF@CreateFile2?$AA@ 10046c70     LIBCMT:wopen.obj
 0002:00008c7c       ??_C@_1BA@BALFACEM@?$AAC?$AAO?$AAN?$AAO?$AAU?$AAT?$AA$?$AA?$AA@ 10046c7c     LIBCMT:initcon.obj
 0002:00008c90       ___rg_language             10046c90     LIBCMT:getqloc.obj
 0002:00008f9c       ??_C@_1BC@LLOKLNP@?$AAa?$AAm?$AAe?$AAr?$AAi?$AAc?$AAa?$AAn?$AA?$AA@ 10046f9c     LIBCMT:getqloc.obj
 0002:00008fb0       ??_C@_1CC@HEIGCDGG@?$AAa?$AAm?$AAe?$AAr?$AAi?$AAc?$AAa?$AAn?$AA?5?$AAe?$AAn?$AAg?$AAl?$AAi?$AAs?$AAh?$AA?$AA@ 10046fb0     LIBCMT:getqloc.obj
 0002:00008fd4       ??_C@_1CC@IHCNOMIN@?$AAa?$AAm?$AAe?$AAr?$AAi?$AAc?$AAa?$AAn?$AA?9?$AAe?$AAn?$AAg?$AAl?$AAi?$AAs?$AAh?$AA?$AA@ 10046fd4     LIBCMT:getqloc.obj
 0002:00008ff8       ??_C@_1BG@GKAGPCGG@?$AAa?$AAu?$AAs?$AAt?$AAr?$AAa?$AAl?$AAi?$AAa?$AAn?$AA?$AA@ 10046ff8     LIBCMT:getqloc.obj
 0002:00009010       ??_C@_1BA@GMENCENF@?$AAb?$AAe?$AAl?$AAg?$AAi?$AAa?$AAn?$AA?$AA@ 10047010     LIBCMT:getqloc.obj
 0002:00009020       ??_C@_1BC@PJMIIAAN@?$AAc?$AAa?$AAn?$AAa?$AAd?$AAi?$AAa?$AAn?$AA?$AA@ 10047020     LIBCMT:getqloc.obj
 0002:00009034       ??_C@_17NOIMNFBF@?$AAc?$AAh?$AAh?$AA?$AA@ 10047034     LIBCMT:getqloc.obj
 0002:0000903c       ??_C@_17GGDALCHA@?$AAc?$AAh?$AAi?$AA?$AA@ 1004703c     LIBCMT:getqloc.obj
 0002:00009044       ??_C@_1BA@NPNJKIBL@?$AAc?$AAh?$AAi?$AAn?$AAe?$AAs?$AAe?$AA?$AA@ 10047044     LIBCMT:getqloc.obj
 0002:00009054       ??_C@_1CC@DINBAMMJ@?$AAc?$AAh?$AAi?$AAn?$AAe?$AAs?$AAe?$AA?9?$AAh?$AAo?$AAn?$AAg?$AAk?$AAo?$AAn?$AAg?$AA?$AA@ 10047054     LIBCMT:getqloc.obj
 0002:00009078       ??_C@_1CG@IOBJPACO@?$AAc?$AAh?$AAi?$AAn?$AAe?$AAs?$AAe?$AA?9?$AAs?$AAi?$AAm?$AAp?$AAl?$AAi?$AAf?$AAi?$AAe?$AAd?$AA?$AA@ 10047078     LIBCMT:getqloc.obj
 0002:000090a0       ??_C@_1CE@GAJNDCKG@?$AAc?$AAh?$AAi?$AAn?$AAe?$AAs?$AAe?$AA?9?$AAs?$AAi?$AAn?$AAg?$AAa?$AAp?$AAo?$AAr?$AAe?$AA?$AA@ 100470a0     LIBCMT:getqloc.obj
 0002:000090c4       ??_C@_1CI@PAJPIOOD@?$AAc?$AAh?$AAi?$AAn?$AAe?$AAs?$AAe?$AA?9?$AAt?$AAr?$AAa?$AAd?$AAi?$AAt?$AAi?$AAo?$AAn?$AAa?$AAl?$AA?$AA@ 100470c4     LIBCMT:getqloc.obj
 0002:000090ec       ??_C@_1BM@NILJBMMD@?$AAd?$AAu?$AAt?$AAc?$AAh?$AA?9?$AAb?$AAe?$AAl?$AAg?$AAi?$AAa?$AAn?$AA?$AA@ 100470ec     LIBCMT:getqloc.obj
 0002:00009108       ??_C@_1CC@OOJPJNEJ@?$AAe?$AAn?$AAg?$AAl?$AAi?$AAs?$AAh?$AA?9?$AAa?$AAm?$AAe?$AAr?$AAi?$AAc?$AAa?$AAn?$AA?$AA@ 10047108     LIBCMT:getqloc.obj
 0002:0000912c       ??_C@_1BI@IOLFEEM@?$AAe?$AAn?$AAg?$AAl?$AAi?$AAs?$AAh?$AA?9?$AAa?$AAu?$AAs?$AA?$AA@ 1004712c     LIBCMT:getqloc.obj
 0002:00009144       ??_C@_1BO@HFFNLENJ@?$AAe?$AAn?$AAg?$AAl?$AAi?$AAs?$AAh?$AA?9?$AAb?$AAe?$AAl?$AAi?$AAz?$AAe?$AA?$AA@ 10047144     LIBCMT:getqloc.obj
 0002:00009164       ??_C@_1BI@HAPKJMPO@?$AAe?$AAn?$AAg?$AAl?$AAi?$AAs?$AAh?$AA?9?$AAc?$AAa?$AAn?$AA?$AA@ 10047164     LIBCMT:getqloc.obj
 0002:0000917c       ??_C@_1CE@HLNDMIOJ@?$AAe?$AAn?$AAg?$AAl?$AAi?$AAs?$AAh?$AA?9?$AAc?$AAa?$AAr?$AAi?$AAb?$AAb?$AAe?$AAa?$AAn?$AA?$AA@ 1004717c     LIBCMT:getqloc.obj
 0002:000091a0       ??_C@_1BI@LDHJHHAC@?$AAe?$AAn?$AAg?$AAl?$AAi?$AAs?$AAh?$AA?9?$AAi?$AAr?$AAe?$AA?$AA@ 100471a0     LIBCMT:getqloc.obj
 0002:000091b8       ??_C@_1CA@NJMMCFOC@?$AAe?$AAn?$AAg?$AAl?$AAi?$AAs?$AAh?$AA?9?$AAj?$AAa?$AAm?$AAa?$AAi?$AAc?$AAa?$AA?$AA@ 100471b8     LIBCMT:getqloc.obj
 0002:000091d8       ??_C@_1BG@BHJEBBGG@?$AAe?$AAn?$AAg?$AAl?$AAi?$AAs?$AAh?$AA?9?$AAn?$AAz?$AA?$AA@ 100471d8     LIBCMT:getqloc.obj
 0002:000091f0       ??_C@_1CK@FGOEJJCO@?$AAe?$AAn?$AAg?$AAl?$AAi?$AAs?$AAh?$AA?9?$AAs?$AAo?$AAu?$AAt?$AAh?$AA?5?$AAa?$AAf?$AAr?$AAi?$AAc?$AAa?$AA?$AA@ 100471f0     LIBCMT:getqloc.obj
 0002:0000921c       ??_C@_1DE@PDBJPCJ@?$AAe?$AAn?$AAg?$AAl?$AAi?$AAs?$AAh?$AA?9?$AAt?$AAr?$AAi?$AAn?$AAi?$AAd?$AAa?$AAd?$AA?5?$AAy?$AA?5?$AAt?$AAo?$AAb?$AAa?$AAg?$AAo?$AA?$AA@ 1004721c     LIBCMT:getqloc.obj
 0002:00009250       ??_C@_1BG@JGCANDME@?$AAe?$AAn?$AAg?$AAl?$AAi?$AAs?$AAh?$AA?9?$AAu?$AAk?$AA?$AA@ 10047250     LIBCMT:getqloc.obj
 0002:00009268       ??_C@_1BG@DINKMLE@?$AAe?$AAn?$AAg?$AAl?$AAi?$AAs?$AAh?$AA?9?$AAu?$AAs?$AA?$AA@ 10047268     LIBCMT:getqloc.obj
 0002:00009280       ??_C@_1BI@NMFDBHJE@?$AAe?$AAn?$AAg?$AAl?$AAi?$AAs?$AAh?$AA?9?$AAu?$AAs?$AAa?$AA?$AA@ 10047280     LIBCMT:getqloc.obj
 0002:00009298       ??_C@_1BO@OIHKJKII@?$AAf?$AAr?$AAe?$AAn?$AAc?$AAh?$AA?9?$AAb?$AAe?$AAl?$AAg?$AAi?$AAa?$AAn?$AA?$AA@ 10047298     LIBCMT:getqloc.obj
 0002:000092b8       ??_C@_1CA@NKAELJKI@?$AAf?$AAr?$AAe?$AAn?$AAc?$AAh?$AA?9?$AAc?$AAa?$AAn?$AAa?$AAd?$AAi?$AAa?$AAn?$AA?$AA@ 100472b8     LIBCMT:getqloc.obj
 0002:000092d8       ??_C@_1CE@MGKCNLGN@?$AAf?$AAr?$AAe?$AAn?$AAc?$AAh?$AA?9?$AAl?$AAu?$AAx?$AAe?$AAm?$AAb?$AAo?$AAu?$AAr?$AAg?$AA?$AA@ 100472d8     LIBCMT:getqloc.obj
 0002:000092fc       ??_C@_1BK@CEGEAILM@?$AAf?$AAr?$AAe?$AAn?$AAc?$AAh?$AA?9?$AAs?$AAw?$AAi?$AAs?$AAs?$AA?$AA@ 100472fc     LIBCMT:getqloc.obj
 0002:00009318       ??_C@_1CA@PAFKEOCC@?$AAg?$AAe?$AAr?$AAm?$AAa?$AAn?$AA?9?$AAa?$AAu?$AAs?$AAt?$AAr?$AAi?$AAa?$AAn?$AA?$AA@ 10047318     LIBCMT:getqloc.obj
 0002:00009338       ??_C@_1CI@HCFHGOFD@?$AAg?$AAe?$AAr?$AAm?$AAa?$AAn?$AA?9?$AAl?$AAi?$AAc?$AAh?$AAt?$AAe?$AAn?$AAs?$AAt?$AAe?$AAi?$AAn?$AA?$AA@ 10047338     LIBCMT:getqloc.obj
 0002:00009360       ??_C@_1CE@FEDDNPDG@?$AAg?$AAe?$AAr?$AAm?$AAa?$AAn?$AA?9?$AAl?$AAu?$AAx?$AAe?$AAm?$AAb?$AAo?$AAu?$AAr?$AAg?$AA?$AA@ 10047360     LIBCMT:getqloc.obj
 0002:00009384       ??_C@_1BK@LIMINNMN@?$AAg?$AAe?$AAr?$AAm?$AAa?$AAn?$AA?9?$AAs?$AAw?$AAi?$AAs?$AAs?$AA?$AA@ 10047384     LIBCMT:getqloc.obj
 0002:000093a0       ??_C@_1BM@LGMDBEPD@?$AAi?$AAr?$AAi?$AAs?$AAh?$AA?9?$AAe?$AAn?$AAg?$AAl?$AAi?$AAs?$AAh?$AA?$AA@ 100473a0     LIBCMT:getqloc.obj
 0002:000093bc       ??_C@_1BM@NNCFBAEE@?$AAi?$AAt?$AAa?$AAl?$AAi?$AAa?$AAn?$AA?9?$AAs?$AAw?$AAi?$AAs?$AAs?$AA?$AA@ 100473bc     LIBCMT:getqloc.obj
 0002:000093d8       ??_C@_1BE@FEDJNPIB@?$AAn?$AAo?$AAr?$AAw?$AAe?$AAg?$AAi?$AAa?$AAn?$AA?$AA@ 100473d8     LIBCMT:getqloc.obj
 0002:000093ec       ??_C@_1CC@CILKDEIE@?$AAn?$AAo?$AAr?$AAw?$AAe?$AAg?$AAi?$AAa?$AAn?$AA?9?$AAb?$AAo?$AAk?$AAm?$AAa?$AAl?$AA?$AA@ 100473ec     LIBCMT:getqloc.obj
 0002:00009410       ??_C@_1CE@DHMMHEPL@?$AAn?$AAo?$AAr?$AAw?$AAe?$AAg?$AAi?$AAa?$AAn?$AA?9?$AAn?$AAy?$AAn?$AAo?$AAr?$AAs?$AAk?$AA?$AA@ 10047410     LIBCMT:getqloc.obj
 0002:00009434       ??_C@_1CK@OPNMHECD@?$AAp?$AAo?$AAr?$AAt?$AAu?$AAg?$AAu?$AAe?$AAs?$AAe?$AA?9?$AAb?$AAr?$AAa?$AAz?$AAi?$AAl?$AAi?$AAa?$AAn?$AA?$AA@ 10047434     LIBCMT:getqloc.obj
 0002:00009460       ??_C@_1CE@KEEHCDB@?$AAs?$AAp?$AAa?$AAn?$AAi?$AAs?$AAh?$AA?9?$AAa?$AAr?$AAg?$AAe?$AAn?$AAt?$AAi?$AAn?$AAa?$AA?$AA@ 10047460     LIBCMT:getqloc.obj
 0002:00009484       ??_C@_1CA@GIAOLHJD@?$AAs?$AAp?$AAa?$AAn?$AAi?$AAs?$AAh?$AA?9?$AAb?$AAo?$AAl?$AAi?$AAv?$AAi?$AAa?$AA?$AA@ 10047484     LIBCMT:getqloc.obj
 0002:000094a4       ??_C@_1BM@OJNDFNPD@?$AAs?$AAp?$AAa?$AAn?$AAi?$AAs?$AAh?$AA?9?$AAc?$AAh?$AAi?$AAl?$AAe?$AA?$AA@ 100474a4     LIBCMT:getqloc.obj
 0002:000094c0       ??_C@_1CC@OCOLPALL@?$AAs?$AAp?$AAa?$AAn?$AAi?$AAs?$AAh?$AA?9?$AAc?$AAo?$AAl?$AAo?$AAm?$AAb?$AAi?$AAa?$AA?$AA@ 100474c0     LIBCMT:getqloc.obj
 0002:000094e4       ??_C@_1CG@BPOFMKBB@?$AAs?$AAp?$AAa?$AAn?$AAi?$AAs?$AAh?$AA?9?$AAc?$AAo?$AAs?$AAt?$AAa?$AA?5?$AAr?$AAi?$AAc?$AAa?$AA?$AA@ 100474e4     LIBCMT:getqloc.obj
 0002:0000950c       ??_C@_1DG@IGOBAPBB@?$AAs?$AAp?$AAa?$AAn?$AAi?$AAs?$AAh?$AA?9?$AAd?$AAo?$AAm?$AAi?$AAn?$AAi?$AAc?$AAa?$AAn?$AA?5?$AAr?$AAe?$AAp?$AAu?$AAb?$AAl?$AAi?$AAc?$AA?$AA@ 1004750c     LIBCMT:getqloc.obj
 0002:00009544       ??_C@_1CA@JHAPGEGI@?$AAs?$AAp?$AAa?$AAn?$AAi?$AAs?$AAh?$AA?9?$AAe?$AAc?$AAu?$AAa?$AAd?$AAo?$AAr?$AA?$AA@ 10047544     LIBCMT:getqloc.obj
 0002:00009564       ??_C@_1CI@LAPALJPP@?$AAs?$AAp?$AAa?$AAn?$AAi?$AAs?$AAh?$AA?9?$AAe?$AAl?$AA?5?$AAs?$AAa?$AAl?$AAv?$AAa?$AAd?$AAo?$AAr?$AA?$AA@ 10047564     LIBCMT:getqloc.obj
 0002:0000958c       ??_C@_1CE@PDGBOFOM@?$AAs?$AAp?$AAa?$AAn?$AAi?$AAs?$AAh?$AA?9?$AAg?$AAu?$AAa?$AAt?$AAe?$AAm?$AAa?$AAl?$AAa?$AA?$AA@ 1004758c     LIBCMT:getqloc.obj
 0002:000095b0       ??_C@_1CC@NBEBAODI@?$AAs?$AAp?$AAa?$AAn?$AAi?$AAs?$AAh?$AA?9?$AAh?$AAo?$AAn?$AAd?$AAu?$AAr?$AAa?$AAs?$AA?$AA@ 100475b0     LIBCMT:getqloc.obj
 0002:000095d4       ??_C@_1CA@LLKGHBMF@?$AAs?$AAp?$AAa?$AAn?$AAi?$AAs?$AAh?$AA?9?$AAm?$AAe?$AAx?$AAi?$AAc?$AAa?$AAn?$AA?$AA@ 100475d4     LIBCMT:getqloc.obj
 0002:000095f4       ??_C@_1BO@LKNDOIGD@?$AAs?$AAp?$AAa?$AAn?$AAi?$AAs?$AAh?$AA?9?$AAm?$AAo?$AAd?$AAe?$AAr?$AAn?$AA?$AA@ 100475f4     LIBCMT:getqloc.obj
 0002:00009614       ??_C@_1CE@NMDMOEEB@?$AAs?$AAp?$AAa?$AAn?$AAi?$AAs?$AAh?$AA?9?$AAn?$AAi?$AAc?$AAa?$AAr?$AAa?$AAg?$AAu?$AAa?$AA?$AA@ 10047614     LIBCMT:getqloc.obj
 0002:00009638       ??_C@_1BO@LLCBEJGB@?$AAs?$AAp?$AAa?$AAn?$AAi?$AAs?$AAh?$AA?9?$AAp?$AAa?$AAn?$AAa?$AAm?$AAa?$AA?$AA@ 10047638     LIBCMT:getqloc.obj
 0002:00009658       ??_C@_1CC@FKPGGIHO@?$AAs?$AAp?$AAa?$AAn?$AAi?$AAs?$AAh?$AA?9?$AAp?$AAa?$AAr?$AAa?$AAg?$AAu?$AAa?$AAy?$AA?$AA@ 10047658     LIBCMT:getqloc.obj
 0002:0000967c       ??_C@_1BK@CDEIHOOP@?$AAs?$AAp?$AAa?$AAn?$AAi?$AAs?$AAh?$AA?9?$AAp?$AAe?$AAr?$AAu?$AA?$AA@ 1004767c     LIBCMT:getqloc.obj
 0002:00009698       ??_C@_1CI@GAHAKKGP@?$AAs?$AAp?$AAa?$AAn?$AAi?$AAs?$AAh?$AA?9?$AAp?$AAu?$AAe?$AAr?$AAt?$AAo?$AA?5?$AAr?$AAi?$AAc?$AAo?$AA?$AA@ 10047698     LIBCMT:getqloc.obj
 0002:000096c0       ??_C@_1CA@NKJBCAGP@?$AAs?$AAp?$AAa?$AAn?$AAi?$AAs?$AAh?$AA?9?$AAu?$AAr?$AAu?$AAg?$AAu?$AAa?$AAy?$AA?$AA@ 100476c0     LIBCMT:getqloc.obj
 0002:000096e0       ??_C@_1CE@ODILCONM@?$AAs?$AAp?$AAa?$AAn?$AAi?$AAs?$AAh?$AA?9?$AAv?$AAe?$AAn?$AAe?$AAz?$AAu?$AAe?$AAl?$AAa?$AA?$AA@ 100476e0     LIBCMT:getqloc.obj
 0002:00009704       ??_C@_1CA@OBNMCGFO@?$AAs?$AAw?$AAe?$AAd?$AAi?$AAs?$AAh?$AA?9?$AAf?$AAi?$AAn?$AAl?$AAa?$AAn?$AAd?$AA?$AA@ 10047704     LIBCMT:getqloc.obj
 0002:00009724       ??_C@_1M@PIPDDPPI@?$AAs?$AAw?$AAi?$AAs?$AAs?$AA?$AA@ 10047724     LIBCMT:getqloc.obj
 0002:00009730       ??_C@_15GMFIMNFM@?$AAu?$AAs?$AA?$AA@ 10047730     LIBCMT:getqloc.obj
 0002:00009738       ??_C@_17HAEBFAGL@?$AAu?$AAs?$AAa?$AA?$AA@ 10047738     LIBCMT:getqloc.obj
 0002:00009740       ___rg_country              10047740     LIBCMT:getqloc.obj
 0002:00009854       ??_C@_1BA@DPFJEPHB@?$AAa?$AAm?$AAe?$AAr?$AAi?$AAc?$AAa?$AA?$AA@ 10047854     LIBCMT:getqloc.obj
 0002:00009864       ??_C@_1BA@ELOGGFK@?$AAb?$AAr?$AAi?$AAt?$AAa?$AAi?$AAn?$AA?$AA@ 10047864     LIBCMT:getqloc.obj
 0002:00009874       ??_C@_1M@GHBGIGDA@?$AAc?$AAh?$AAi?$AAn?$AAa?$AA?$AA@ 10047874     LIBCMT:getqloc.obj
 0002:00009880       ??_C@_1M@NCHEJOPO@?$AAc?$AAz?$AAe?$AAc?$AAh?$AA?$AA@ 10047880     LIBCMT:getqloc.obj
 0002:0000988c       ??_C@_1BA@BKPAPBLA@?$AAe?$AAn?$AAg?$AAl?$AAa?$AAn?$AAd?$AA?$AA@ 1004788c     LIBCMT:getqloc.obj
 0002:0000989c       ??_C@_1BM@HKBCKIPC@?$AAg?$AAr?$AAe?$AAa?$AAt?$AA?5?$AAb?$AAr?$AAi?$AAt?$AAa?$AAi?$AAn?$AA?$AA@ 1004789c     LIBCMT:getqloc.obj
 0002:000098b8       ??_C@_1BA@PPCHPGJB@?$AAh?$AAo?$AAl?$AAl?$AAa?$AAn?$AAd?$AA?$AA@ 100478b8     LIBCMT:getqloc.obj
 0002:000098c8       ??_C@_1BE@JBMPEGDG@?$AAh?$AAo?$AAn?$AAg?$AA?9?$AAk?$AAo?$AAn?$AAg?$AA?$AA@ 100478c8     LIBCMT:getqloc.obj
 0002:000098dc       ??_C@_1BI@KOELBBPJ@?$AAn?$AAe?$AAw?$AA?9?$AAz?$AAe?$AAa?$AAl?$AAa?$AAn?$AAd?$AA?$AA@ 100478dc     LIBCMT:getqloc.obj
 0002:000098f4       ??_C@_15HIEBHAIO@?$AAn?$AAz?$AA?$AA@ 100478f4     LIBCMT:getqloc.obj
 0002:000098fc       ??_C@_1BC@CHBCPFPI@?$AAp?$AAr?$AA?5?$AAc?$AAh?$AAi?$AAn?$AAa?$AA?$AA@ 100478fc     LIBCMT:getqloc.obj
 0002:00009910       ??_C@_1BC@JAOIIFKD@?$AAp?$AAr?$AA?9?$AAc?$AAh?$AAi?$AAn?$AAa?$AA?$AA@ 10047910     LIBCMT:getqloc.obj
 0002:00009924       ??_C@_1BI@BEHPPHKC@?$AAp?$AAu?$AAe?$AAr?$AAt?$AAo?$AA?9?$AAr?$AAi?$AAc?$AAo?$AA?$AA@ 10047924     LIBCMT:getqloc.obj
 0002:0000993c       ??_C@_1O@PAEOFKDI@?$AAs?$AAl?$AAo?$AAv?$AAa?$AAk?$AA?$AA@ 1004793c     LIBCMT:getqloc.obj
 0002:0000994c       ??_C@_1BK@FIHMCKAM@?$AAs?$AAo?$AAu?$AAt?$AAh?$AA?5?$AAa?$AAf?$AAr?$AAi?$AAc?$AAa?$AA?$AA@ 1004794c     LIBCMT:getqloc.obj
 0002:00009968       ??_C@_1BI@NAEOODKB@?$AAs?$AAo?$AAu?$AAt?$AAh?$AA?5?$AAk?$AAo?$AAr?$AAe?$AAa?$AA?$AA@ 10047968     LIBCMT:getqloc.obj
 0002:00009980       ??_C@_1BK@FBDGGIFF@?$AAs?$AAo?$AAu?$AAt?$AAh?$AA?9?$AAa?$AAf?$AAr?$AAi?$AAc?$AAa?$AA?$AA@ 10047980     LIBCMT:getqloc.obj
 0002:0000999c       ??_C@_1BI@GHLEJDPK@?$AAs?$AAo?$AAu?$AAt?$AAh?$AA?9?$AAk?$AAo?$AAr?$AAe?$AAa?$AA?$AA@ 1004799c     LIBCMT:getqloc.obj
 0002:000099b4       ??_C@_1CE@PLHLOMJF@?$AAt?$AAr?$AAi?$AAn?$AAi?$AAd?$AAa?$AAd?$AA?5?$AA?$CG?$AA?5?$AAt?$AAo?$AAb?$AAa?$AAg?$AAo?$AA?$AA@ 100479b4     LIBCMT:getqloc.obj
 0002:000099d8       ??_C@_1BO@MODIMHHI@?$AAu?$AAn?$AAi?$AAt?$AAe?$AAd?$AA?9?$AAk?$AAi?$AAn?$AAg?$AAd?$AAo?$AAm?$AA?$AA@ 100479d8     LIBCMT:getqloc.obj
 0002:000099f8       ??_C@_1BM@FFHJONBJ@?$AAu?$AAn?$AAi?$AAt?$AAe?$AAd?$AA?9?$AAs?$AAt?$AAa?$AAt?$AAe?$AAs?$AA?$AA@ 100479f8     LIBCMT:getqloc.obj
 0002:00009a14       ___rg_language_count       10047a14     LIBCMT:getqloc.obj
 0002:00009a18       ___rg_country_count        10047a18     LIBCMT:getqloc.obj
 0002:00009a1c       ??_C@_17DNCLJFIF@?$AAA?$AAC?$AAP?$AA?$AA@ 10047a1c     LIBCMT:getqloc.obj
 0002:00009a24       ??_C@_17CIKBIHLH@?$AAO?$AAC?$AAP?$AA?$AA@ 10047a24     LIBCMT:getqloc.obj
 0002:00009a2c       ___rglangidNotDefault      10047a2c     LIBCMT:getqloc_downlevel.obj
 0002:00009a40       __real@00000000            10047a40     LIBCMT:wcstoq.obj
 0002:00009a48       __load_config_used         10047a48     LIBCMT:loadcfg.obj
 0002:0000b100       ___safe_se_handler_table   10049100     <linker-defined>
 0002:0000b210       ___rtc_iaa                 10049210     LIBCMT:initsect.obj
 0002:0000b314       ___rtc_izz                 10049314     LIBCMT:initsect.obj
 0002:0000b418       ___rtc_taa                 10049418     LIBCMT:initsect.obj
 0002:0000b51c       ___rtc_tzz                 1004951c     LIBCMT:initsect.obj
 0003:000001c0       _CenterLimit_P             1004b1c0     CenterLimit_data.obj
 0003:00000970       _pci20041digout            1004b970     xpctarget.obj
 0003:00000974       _nipcdio24cnfg             1004b974     xpctarget.obj
 0003:00000978       _rtddm6604cnfg             1004b978     xpctarget.obj
 0003:00000a9c       _DefaultCOMIOBase          1004ba9c     xpcruntime:xpcimports.obj
 0003:00000aac       _DefaultCOMIRQ             1004baac     xpcruntime:xpcimports.obj
 0003:00000ac0       __fltused                  1004bac0     LIBCMT:fpinit.obj
 0003:00000ac4       __ldused                   1004bac4     LIBCMT:fpinit.obj
 0003:00000ad0       __iob                      1004bad0     LIBCMT:_file.obj
 0003:00000d50       ___isa_enabled             1004bd50     LIBCMT:cpu_disp.obj
 0003:00000d54       ___security_cookie         1004bd54     LIBCMT:gs_cookie.obj
 0003:00000d58       ___security_cookie_complement 1004bd58     LIBCMT:gs_cookie.obj
 0003:00000f30       __cfltcvt_tab              1004bf30     LIBCMT:cmiscdat.obj
 0003:00001080       __mbctype                  1004c080     LIBCMT:mbctype.obj
 0003:00001188       __mbcasemap                1004c188     LIBCMT:mbctype.obj
 0003:00001288       ___initialmbcinfo          1004c288     LIBCMT:mbctype.obj
 0003:000014ac       ___ptmbcinfo               1004c4ac     LIBCMT:mbctype.obj
 0003:000015a0       ___nullstring              1004c5a0     LIBCMT:output.obj
 0003:000015a4       ___wnullstring             1004c5a4     LIBCMT:output.obj
 0003:000015a8       ___badioinfo               1004c5a8     LIBCMT:ioinit.obj
 0003:000015e8       __lookuptrailbytes         1004c5e8     LIBCMT:read.obj
 0003:000016e8       __d_inf                    1004c6e8     LIBCMT:util.obj
 0003:000016f0       __d_ind                    1004c6f0     LIBCMT:util.obj
 0003:000016f8       __d_max                    1004c6f8     LIBCMT:util.obj
 0003:00001700       __d_min                    1004c700     LIBCMT:util.obj
 0003:00001708       __d_mzero                  1004c708     LIBCMT:util.obj
 0003:00001814       ___abort_behavior          1004c814     LIBCMT:abort.obj
 0003:00001818       ___flsindex                1004c818     LIBCMT:tidtable.obj
 0003:00001820       ___mb_cur_max              1004c820     LIBCMT:nlsdata.obj
 0003:00001824       ___wclocalestr             1004c824     LIBCMT:nlsdata.obj
 0003:00001828       ___lc_time_c               1004c828     LIBCMT:nlsdata.obj
 0003:0000198c       ___ptlocinfo               1004c98c     LIBCMT:nlsdata.obj
 0003:00001990       ___initiallocinfo          1004c990     LIBCMT:nlsdata.obj
 0003:00001a48       ___initiallocalestructinfo 1004ca48     LIBCMT:nlsdata.obj
 0003:00001a50       ___globallocalestatus      1004ca50     LIBCMT:glstatus.obj
 0003:00001a60       __NLG_Destination          1004ca60     LIBCMT:exsup.obj
 0003:00001a70       __matherr_flag             1004ca70     LIBCMT:matherr.obj
 0003:00001a78       ___lconv                   1004ca78     LIBCMT:lconv.obj
 0003:00001a7c       ___lconv_static_decimal    1004ca7c     LIBCMT:lconv.obj
 0003:00001a80       ___lconv_c                 1004ca80     LIBCMT:lconv.obj
 0003:00001ad0       ___lconv_static_W_decimal  1004cad0     LIBCMT:lconv.obj
 0003:00001b08       __pctype                   1004cb08     LIBCMT:ctype.obj
 0003:00001b0c       __pwctype                  1004cb0c     LIBCMT:ctype.obj
 0003:00001b10       __confh                    1004cb10     LIBCMT:initcon.obj
 0003:00001b18       __pow10pos                 1004cb18     LIBCMT:constpow.obj
 0003:00001c78       __pow10neg                 1004cc78     LIBCMT:constpow.obj
 0003:00001de0       __HUGE                     1004cde0     LIBCMT:huge.obj
 0003:0000233c       ___isa_available_default   1004d33c     rt_logging.obj
 0003:0000234c       _pci20098PortA             1004d34c     xpctarget.obj
 0003:00002350       _pci20098PortB             1004d350     xpctarget.obj
 0003:00002354       _siepowercan_firmware_initialized 1004d354     xpctarget.obj
 0003:00002358       _siepowercan_port1_configured 1004d358     xpctarget.obj
 0003:0000235c       _siepowercan_port2_configured 1004d35c     xpctarget.obj
 0003:00002360       _CANAC2_FIRMWARE_LOADED    1004d360     xpctarget.obj
 0003:00002364       _rs232ports                1004d364     xpctarget.obj
 0003:00002374       _NI_AT_MIO_16F_5_commreg2  1004d374     xpctarget.obj
 0003:00002378       _RTD_DM6430_init           1004d378     xpctarget.obj
 0003:0000237c       _RTD_DM6420_init           1004d37c     xpctarget.obj
 0003:00002380       _CANAC2_FIRMWARE_LOADED_mb1 1004d380     xpctarget.obj
 0003:00002384       _CANAC2_FIRMWARE_LOADED_mb2 1004d384     xpctarget.obj
 0003:00002388       _CANAC2_FIRMWARE_LOADED_mb3 1004d388     xpctarget.obj
 0003:0000238c       _xmlsize                   1004d38c     xpctarget.obj
 0003:0000274c       ___fastflag                1004d74c     LIBCMT:fpinit.obj
 0003:00002a70       __C_Exit_Done              1004da70     LIBCMT:crt0dat.obj
 0003:00002a74       ___argc                    1004da74     LIBCMT:crt0dat.obj
 0003:00002a78       ___argv                    1004da78     LIBCMT:crt0dat.obj
 0003:00002a7c       ___wargv                   1004da7c     LIBCMT:crt0dat.obj
 0003:00002a80       __environ                  1004da80     LIBCMT:crt0dat.obj
 0003:00002a84       __wenviron                 1004da84     LIBCMT:crt0dat.obj
 0003:00002a88       __pgmptr                   1004da88     LIBCMT:crt0dat.obj
 0003:00002a8c       __wpgmptr                  1004da8c     LIBCMT:crt0dat.obj
 0003:00002a90       __umaskval                 1004da90     LIBCMT:crt0dat.obj
 0003:00002a94       __exitflag                 1004da94     LIBCMT:crt0dat.obj
 0003:00002a98       __C_Termination_Done       1004da98     LIBCMT:crt0dat.obj
 0003:00002a9c       ___winitenv                1004da9c     LIBCMT:crt0dat.obj
 0003:00002aa0       ___initenv                 1004daa0     LIBCMT:crt0dat.obj
 0003:00002aa4       __cflush                   1004daa4     LIBCMT:_file.obj
 0003:00002aac       ___isa_available           1004daac     LIBCMT:cpu_disp.obj
 0003:00002ab0       ___favor                   1004dab0     LIBCMT:cpu_disp.obj
 0003:00002ab8       __aenvptr                  1004dab8     LIBCMT:dllcrt0.obj
 0003:00002abc       __wenvptr                  1004dabc     LIBCMT:dllcrt0.obj
 0003:00002ac0       ?_pnhHeap@@3P6AHI@ZA       1004dac0     LIBCMT:handler.obj
 0003:00002ac8       ___app_type                1004dac8     LIBCMT:crt0msg.obj
 0003:000030f8       __newmode                  1004e0f8     LIBCMT:_newmode.obj
 0003:000030fc       __crtheap                  1004e0fc     LIBCMT:heapinit.obj
 0003:00003100       ___pInvalidArgHandler      1004e100     LIBCMT:invarg.obj
 0003:00003258       __maxwait                  1004e258     LIBCMT:crtheap.obj
 0003:0000325c       ?__pInconsistency@@3P6AXXZA 1004e25c     LIBCMT:hooks.obj
 0003:00003260       ___pPurecall               1004e260     LIBCMT:inithelp.obj
 0003:0000327c       ___mbcodepage              1004e27c     LIBCMT:mbctype.obj
 0003:00003280       ___ismbcodepage            1004e280     LIBCMT:mbctype.obj
 0003:00003284       ___mbulinfo                1004e284     LIBCMT:mbctype.obj
 0003:00003290       ___mblocalename            1004e290     LIBCMT:mbctype.obj
 0003:00003298       __stdbuf                   1004e298     LIBCMT:_sftbuf.obj
 0003:000032a0       ___pioinfo                 1004e2a0     LIBCMT:ioinit.obj
 0003:000033a0       ___error_mode              1004e3a0     LIBCMT:errmode.obj
 0003:000034c0       __outputformat             1004e4c0     LIBCMT:outputformat.obj
 0003:000034c8       __commode                  1004e4c8     LIBCMT:ncommode.obj
 0003:000034cc       ___lconv_static_null       1004e4cc     LIBCMT:lconv.obj
 0003:000034d0       ___lconv_static_W_null     1004e4d0     LIBCMT:lconv.obj
 0003:000034d4       ___locale_changed          1004e4d4     LIBCMT:wsetloca.obj
 0003:000034d8       __fmode                    1004e4d8     LIBCMT:txtmode.obj
 0003:000034e0       _CANAC2_2_receiveindex_mb3 1004e4e0     <common>
 0003:000065b4       _CANAC2_2_receivemaxindex_mb3 100515b4     <common>
 0003:000065c0       _CANAC2_2_sendindex_mb3    100515c0     <common>
 0003:000068e0       _CANAC2_2_sendmaxindex_mb3 100518e0     <common>
 0003:00006900       _CANAC2_1_receiveindex_mb3 10051900     <common>
 0003:00006c20       _CANAC2_1_receivemaxindex_mb3 10051c20     <common>
 0003:00006c40       _CANAC2_1_sendindex_mb3    10051c40     <common>
 0003:00006f60       _CANAC2_1_sendmaxindex_mb3 10051f60     <common>
 0003:00006f80       _CANAC2_2_receive_mb3      10051f80     <common>
 0003:000072a0       _CANAC2_2_send_mb3         100522a0     <common>
 0003:000075c0       _CANAC2_1_receive_mb3      100525c0     <common>
 0003:000078e0       _CANAC2_1_send_mb3         100528e0     <common>
 0003:00007c00       _CANAC2_2_receiveindex_mb2 10052c00     <common>
 0003:00007f20       _CANAC2_2_receivemaxindex_mb2 10052f20     <common>
 0003:00007f40       _CANAC2_2_sendindex_mb2    10052f40     <common>
 0003:00008260       _CANAC2_2_sendmaxindex_mb2 10053260     <common>
 0003:00008280       _CANAC2_1_receiveindex_mb2 10053280     <common>
 0003:000085a0       _CANAC2_1_receivemaxindex_mb2 100535a0     <common>
 0003:000085c0       _CANAC2_1_sendindex_mb2    100535c0     <common>
 0003:000088e0       _CANAC2_1_sendmaxindex_mb2 100538e0     <common>
 0003:00008900       _CANAC2_2_receive_mb2      10053900     <common>
 0003:00008c20       _CANAC2_2_send_mb2         10053c20     <common>
 0003:00008f40       _CANAC2_1_receive_mb2      10053f40     <common>
 0003:00009260       _CANAC2_1_send_mb2         10054260     <common>
 0003:00009580       _CANAC2_2_receiveindex_mb1 10054580     <common>
 0003:000098a0       _CANAC2_2_receivemaxindex_mb1 100548a0     <common>
 0003:000098c0       _CANAC2_2_sendindex_mb1    100548c0     <common>
 0003:00009be0       _CANAC2_2_sendmaxindex_mb1 10054be0     <common>
 0003:00009c00       _CANAC2_1_receiveindex_mb1 10054c00     <common>
 0003:00009f20       _CANAC2_1_receivemaxindex_mb1 10054f20     <common>
 0003:00009f40       _CANAC2_1_sendindex_mb1    10054f40     <common>
 0003:0000a260       _CANAC2_1_sendmaxindex_mb1 10055260     <common>
 0003:0000a280       _CANAC2_2_receive_mb1      10055280     <common>
 0003:0000a5a0       _CANAC2_2_send_mb1         100555a0     <common>
 0003:0000a8c0       _CANAC2_1_receive_mb1      100558c0     <common>
 0003:0000abe0       _CANAC2_1_send_mb1         10055be0     <common>
 0003:0000af00       _CANAC2_2_receiveindex     10055f00     <common>
 0003:0000b220       _CANAC2_2_receivemaxindex  10056220     <common>
 0003:0000b240       _CANAC2_2_sendindex        10056240     <common>
 0003:0000b560       _CANAC2_2_sendmaxindex     10056560     <common>
 0003:0000b580       _CANAC2_1_receiveindex     10056580     <common>
 0003:0000b8a0       _CANAC2_1_receivemaxindex  100568a0     <common>
 0003:0000b8c0       _CANAC2_1_sendindex        100568c0     <common>
 0003:0000bbe0       _CANAC2_1_sendmaxindex     10056be0     <common>
 0003:0000bc00       _CANAC2_2_receive          10056c00     <common>
 0003:0000bf20       _CANAC2_2_send             10056f20     <common>
 0003:0000c240       _CANAC2_1_receive          10057240     <common>
 0003:0000c560       _CANAC2_1_send             10057560     <common>
 0003:0000c880       _siepowercan_can_object_buffer_port2 10057880     <common>
 0003:000108a0       _siepowercan_can_object_buffer_port1 1005b8a0     <common>
 0003:000148a0       _rtNaNF                    1005f8a0     <common>
 0003:000148b4       _rtMinusInfF               1005f8b4     <common>
 0003:000148b8       _rtInfF                    1005f8b8     <common>
 0003:000148c0       _rtNaN                     1005f8c0     <common>
 0003:000148c8       _rtMinusInf                1005f8c8     <common>
 0003:000148d0       _rtInf                     1005f8d0     <common>
 0003:000148e0       _CenterLimit_M_            1005f8e0     <common>
 0003:000170a0       _CenterLimit_DW            100620a0     <common>
 0003:00017160       _CenterLimit_B             10062160     <common>
 0003:00017180       _xpceaddEvent              10062180     <common>
 0003:000171d0       _xpceDeRegisterISR         100621d0     <common>
 0003:000171d4       _xpceRegisterISR           100621d4     <common>
 0003:000171d8       _xpcIsModelInit            100621d8     <common>
 0003:000171dc       _xpcGetElapsedTime         100621dc     <common>
 0003:000171e0       _xpcBusyWait               100621e0     <common>
 0003:000171e4       _xpcFreePhysicalMemory     100621e4     <common>
 0003:000171e8       _xpcAllocPhysicalMemory    100621e8     <common>
 0003:000171ec       _xpcReserveMemoryRegion    100621ec     <common>
 0003:000171f0       _xpcOutpB                  100621f0     <common>
 0003:000171f4       _xpcOutpW                  100621f4     <common>
 0003:000171f8       _xpcOutpDW                 100621f8     <common>
 0003:000171fc       _xpcInpB                   100621fc     <common>
 0003:00017200       _xpcInpW                   10062200     <common>
 0003:00017204       _xpcInpDW                  10062204     <common>
 0003:00017208       _slTestRegAssessment       10062208     <common>
 0003:0001720c       _slTestTerminate           1006220c     <common>
 0003:00017210       _slTestEvalOnFail          10062210     <common>
 0003:00017214       _slTestLogAssessments      10062214     <common>
 0003:00017218       _slTestInitialize          10062218     <common>
 0003:0001721c       _unRegisterPTPTimeRead     1006221c     <common>
 0003:00017220       _registerPTPTimeRead       10062220     <common>
 0003:00017224       _slrteGetCurrentStepSize   10062224     <common>
 0003:00017228       _slrteSetStepSizeDelta     10062228     <common>
 0003:0001722c       _xpceGetIntTimerGranularityNS 1006222c     <common>
 0003:00017230       _sendToAsyncQueueTgtAppSvc 10062230     <common>
 0003:00017234       _terminateToAsyncQueueTgtAppSvc 10062234     <common>
 0003:00017238       _startToAsyncQueueTgtAppSvc 10062238     <common>
 0003:0001723c       _getStatusFlags            1006223c     <common>
 0003:00017240       _getCommService            10062240     <common>
 0003:00017244       _getMemoryService          10062244     <common>
 0003:00017248       _StreamVideo               10062248     <common>
 0003:0001724c       _StopVideoDisplay          1006224c     <common>
 0003:00017250       _StartVideoDisplay         10062250     <common>
 0003:00017254       _DestroyVideoDisplay       10062254     <common>
 0003:00017258       _CreateVideoDisplay        10062258     <common>
 0003:0001725c       _ConvertUImage             1006225c     <common>
 0003:00017260       _StopVideo                 10062260     <common>
 0003:00017264       _ReadFrameBuffer           10062264     <common>
 0003:00017268       _StartVideo                10062268     <common>
 0003:0001726c       _GetVideoConfigs           1006226c     <common>
 0003:00017270       _FindUsbVideoDevice        10062270     <common>
 0003:00017274       _xpceDeleteSemaphore       10062274     <common>
 0003:00017278       _xpceSignalSemaphore       10062278     <common>
 0003:0001727c       _xpceWaitSemaphore         1006227c     <common>
 0003:00017280       _xpceCreateSemaphore       10062280     <common>
 0003:00017284       _TBGiveSpinFast            10062284     <common>
 0003:00017288       _TBTakeSpinFast            10062288     <common>
 0003:0001728c       _TBDeleteSpin              1006228c     <common>
 0003:00017290       _TBCreateSpin              10062290     <common>
 0003:00017294       _xpceScopeAcqOK            10062294     <common>
 0003:00017298       _rl32eRestartAcquisition   10062298     <common>
 0003:0001729c       _rl32eSetTargetScopeSigFt  1006229c     <common>
 0003:000172a0       _rl32eSetTargetScope       100622a0     <common>
 0003:000172a4       _xpceFSScopeSet            100622a4     <common>
 0003:000172a8       _rl32eSetScope             100622a8     <common>
 0003:000172ac       _rl32eAddSignal            100622ac     <common>
 0003:000172b0       _rl32eGetSignalNo          100622b0     <common>
 0003:000172b4       _rl32eDefScope             100622b4     <common>
 0003:000172b8       _rl32eScopeExists          100622b8     <common>
 0003:000172bc       _xpceUDPClose              100622bc     <common>
 0003:000172c0       _xpceUDPReceive            100622c0     <common>
 0003:000172c4       _xpceUDPSend               100622c4     <common>
 0003:000172c8       _xpceUDPOpenReceive        100622c8     <common>
 0003:000172cc       _xpceUDPOpenSend           100622cc     <common>
 0003:000172d0       _rl32eSendBlock            100622d0     <common>
 0003:000172d4       _rl32eLineStatus           100622d4     <common>
 0003:000172d8       _rl32eReceiveBufferCount   100622d8     <common>
 0003:000172dc       _rl32eReceiveChar          100622dc     <common>
 0003:000172e0       _rl32eSendChar             100622e0     <common>
 0003:000172e4       _rl32eCloseCOMPort         100622e4     <common>
 0003:000172e8       _rl32eInitCOMPort          100622e8     <common>
 0003:000172ec       _xpceGetParamDims          100622ec     <common>
 0003:000172f0       _xpceGetParameter          100622f0     <common>
 0003:000172f4       _xpceSetParameter          100622f4     <common>
 0003:000172f8       _xpceGetSignalValue        100622f8     <common>
 0003:000172fc       _xpceAssignPCIInterrupt    100622fc     <common>
 0003:00017300       _rl32eGetPCIInfoAtSlot     10062300     <common>
 0003:00017304       _rl32eGetPCIInfo           10062304     <common>
 0003:00017308       _rl32eShowPCIInfo          10062308     <common>
 0003:0001730c       _rl32eShowPCIDev           1006230c     <common>
 0003:00017310       _xpceGetTET                10062310     <common>
 0003:00017314       _xpceFTSubtract            10062314     <common>
 0003:00017318       _xpceFTAdd                 10062318     <common>
 0003:0001731c       _xpceFTReadTime            1006231c     <common>
 0003:00017320       ___unguarded_readlc_active 10062320     <common>
 0003:00017330       ___setlc_active            10062330     <common>
 0003:00017334       __nhandle                  10062334     <common>
 0003:00017340       __pDestructExceptionObject 10062340     <common>
 0003:00017360       _encodedKERNEL32Functions  10062360     <common>
 0003:00017408       __debugger_hook_dummy      10062408     <common>
 0003:00017414       __acmdln                   10062414     <common>
 0003:00017420       __bufin                    10062420     <common>
 0003:0001875c       ___piob                    1006375c     <common>
 0003:00018760       __nstream                  10063760     <common>
 0003:00018764       ___dyn_tls_init_callback   10063764     <common>
 0003:00018774       ___onexitend               10063774     <common>
 0003:00018778       ___onexitbegin             10063778     <common>
 0003:0001877c       ___mbctype_initialized     1006377c     <common>
 0003:00018780       ___env_initialized         10063780     <common>
 0004:00000000       __imp__GetModuleHandleA@4  10064000     kernel32:KERNEL32.dll
 0004:00000004       __imp__GetProcAddress@8    10064004     kernel32:KERNEL32.dll
 0004:00000008       __imp__HeapAlloc@12        10064008     kernel32:KERNEL32.dll
 0004:0000000c       __imp__IsDebuggerPresent@0 1006400c     kernel32:KERNEL32.dll
 0004:00000010       __imp__IsProcessorFeaturePresent@4 10064010     kernel32:KERNEL32.dll
 0004:00000014       __imp__EncodePointer@4     10064014     kernel32:KERNEL32.dll
 0004:00000018       __imp__DecodePointer@4     10064018     kernel32:KERNEL32.dll
 0004:0000001c       __imp__GetLastError@0      1006401c     kernel32:KERNEL32.dll
 0004:00000020       __imp__ExitProcess@4       10064020     kernel32:KERNEL32.dll
 0004:00000024       __imp__GetModuleHandleExW@12 10064024     kernel32:KERNEL32.dll
 0004:00000028       __imp__AreFileApisANSI@0   10064028     kernel32:KERNEL32.dll
 0004:0000002c       __imp__MultiByteToWideChar@24 1006402c     kernel32:KERNEL32.dll
 0004:00000030       __imp__WideCharToMultiByte@32 10064030     kernel32:KERNEL32.dll
 0004:00000034       __imp__HeapFree@12         10064034     kernel32:KERNEL32.dll
 0004:00000038       __imp__HeapReAlloc@16      10064038     kernel32:KERNEL32.dll
 0004:0000003c       __imp__EnterCriticalSection@4 1006403c     kernel32:KERNEL32.dll
 0004:00000040       __imp__LeaveCriticalSection@4 10064040     kernel32:KERNEL32.dll
 0004:00000044       __imp__GetStdHandle@4      10064044     kernel32:KERNEL32.dll
 0004:00000048       __imp__GetFileType@4       10064048     kernel32:KERNEL32.dll
 0004:0000004c       __imp__GetModuleFileNameW@12 1006404c     kernel32:KERNEL32.dll
 0004:00000050       __imp__WriteConsoleW@20    10064050     kernel32:KERNEL32.dll
 0004:00000054       __imp__GetCommandLineA@0   10064054     kernel32:KERNEL32.dll
 0004:00000058       __imp__GetCurrentThreadId@0 10064058     kernel32:KERNEL32.dll
 0004:0000005c       __imp__WriteFile@20        1006405c     kernel32:KERNEL32.dll
 0004:00000060       __imp__GetProcessHeap@0    10064060     kernel32:KERNEL32.dll
 0004:00000064       __imp__UnhandledExceptionFilter@4 10064064     kernel32:KERNEL32.dll
 0004:00000068       __imp__SetUnhandledExceptionFilter@4 10064068     kernel32:KERNEL32.dll
 0004:0000006c       __imp__SetLastError@4      1006406c     kernel32:KERNEL32.dll
 0004:00000070       __imp__InitializeCriticalSectionAndSpinCount@8 10064070     kernel32:KERNEL32.dll
 0004:00000074       __imp__CreateEventW@16     10064074     kernel32:KERNEL32.dll
 0004:00000078       __imp__Sleep@4             10064078     kernel32:KERNEL32.dll
 0004:0000007c       __imp__GetCurrentProcess@0 1006407c     kernel32:KERNEL32.dll
 0004:00000080       __imp__TerminateProcess@8  10064080     kernel32:KERNEL32.dll
 0004:00000084       __imp__TlsAlloc@0          10064084     kernel32:KERNEL32.dll
 0004:00000088       __imp__TlsGetValue@4       10064088     kernel32:KERNEL32.dll
 0004:0000008c       __imp__TlsSetValue@8       1006408c     kernel32:KERNEL32.dll
 0004:00000090       __imp__TlsFree@4           10064090     kernel32:KERNEL32.dll
 0004:00000094       __imp__GetStartupInfoW@4   10064094     kernel32:KERNEL32.dll
 0004:00000098       __imp__GetTickCount@0      10064098     kernel32:KERNEL32.dll
 0004:0000009c       __imp__GetModuleHandleW@4  1006409c     kernel32:KERNEL32.dll
 0004:000000a0       __imp__CreateSemaphoreW@16 100640a0     kernel32:KERNEL32.dll
 0004:000000a4       __imp__DeleteCriticalSection@4 100640a4     kernel32:KERNEL32.dll
 0004:000000a8       __imp__FatalAppExitA@8     100640a8     kernel32:KERNEL32.dll
 0004:000000ac       __imp__SetConsoleCtrlHandler@8 100640ac     kernel32:KERNEL32.dll
 0004:000000b0       __imp__FreeLibrary@4       100640b0     kernel32:KERNEL32.dll
 0004:000000b4       __imp__LoadLibraryExW@12   100640b4     kernel32:KERNEL32.dll
 0004:000000b8       __imp__IsValidCodePage@4   100640b8     kernel32:KERNEL32.dll
 0004:000000bc       __imp__GetACP@0            100640bc     kernel32:KERNEL32.dll
 0004:000000c0       __imp__GetOEMCP@0          100640c0     kernel32:KERNEL32.dll
 0004:000000c4       __imp__GetCPInfo@8         100640c4     kernel32:KERNEL32.dll
 0004:000000c8       __imp__CloseHandle@4       100640c8     kernel32:KERNEL32.dll
 0004:000000cc       __imp__RtlUnwind@16        100640cc     kernel32:KERNEL32.dll
 0004:000000d0       __imp__ReadFile@20         100640d0     kernel32:KERNEL32.dll
 0004:000000d4       __imp__GetConsoleMode@8    100640d4     kernel32:KERNEL32.dll
 0004:000000d8       __imp__ReadConsoleW@20     100640d8     kernel32:KERNEL32.dll
 0004:000000dc       __imp__GetConsoleCP@0      100640dc     kernel32:KERNEL32.dll
 0004:000000e0       __imp__DeleteFileW@4       100640e0     kernel32:KERNEL32.dll
 0004:000000e4       __imp__SetFilePointerEx@20 100640e4     kernel32:KERNEL32.dll
 0004:000000e8       __imp__RaiseException@16   100640e8     kernel32:KERNEL32.dll
 0004:000000ec       __imp__OutputDebugStringW@4 100640ec     kernel32:KERNEL32.dll
 0004:000000f0       __imp__GetCurrentThread@0  100640f0     kernel32:KERNEL32.dll
 0004:000000f4       __imp__GetModuleFileNameA@12 100640f4     kernel32:KERNEL32.dll
 0004:000000f8       __imp__QueryPerformanceCounter@4 100640f8     kernel32:KERNEL32.dll
 0004:000000fc       __imp__GetCurrentProcessId@0 100640fc     kernel32:KERNEL32.dll
 0004:00000100       __imp__GetSystemTimeAsFileTime@4 10064100     kernel32:KERNEL32.dll
 0004:00000104       __imp__GetEnvironmentStringsW@0 10064104     kernel32:KERNEL32.dll
 0004:00000108       __imp__FreeEnvironmentStringsW@4 10064108     kernel32:KERNEL32.dll
 0004:0000010c       __imp__HeapSize@12         1006410c     kernel32:KERNEL32.dll
 0004:00000110       __imp__GetDateFormatW@24   10064110     kernel32:KERNEL32.dll
 0004:00000114       __imp__GetTimeFormatW@24   10064114     kernel32:KERNEL32.dll
 0004:00000118       __imp__CompareStringW@24   10064118     kernel32:KERNEL32.dll
 0004:0000011c       __imp__LCMapStringW@24     1006411c     kernel32:KERNEL32.dll
 0004:00000120       __imp__GetLocaleInfoW@16   10064120     kernel32:KERNEL32.dll
 0004:00000124       __imp__IsValidLocale@8     10064124     kernel32:KERNEL32.dll
 0004:00000128       __imp__GetUserDefaultLCID@0 10064128     kernel32:KERNEL32.dll
 0004:0000012c       __imp__EnumSystemLocalesW@8 1006412c     kernel32:KERNEL32.dll
 0004:00000130       __imp__GetStringTypeW@16   10064130     kernel32:KERNEL32.dll
 0004:00000134       __imp__FlushFileBuffers@4  10064134     kernel32:KERNEL32.dll
 0004:00000138       __imp__SetStdHandle@8      10064138     kernel32:KERNEL32.dll
 0004:0000013c       __imp__CreateFileW@28      1006413c     kernel32:KERNEL32.dll
 0004:00000140       __imp__SetEndOfFile@4      10064140     kernel32:KERNEL32.dll
 0004:00000144       \177KERNEL32_NULL_THUNK_DATA 10064144     kernel32:KERNEL32.dll
 0004:000001b0       __IMPORT_DESCRIPTOR_KERNEL32 100641b0     kernel32:KERNEL32.dll
 0004:000001c4       __NULL_IMPORT_DESCRIPTOR   100641c4     kernel32:KERNEL32.dll

 entry point at        0001:00012eb3

