 backup_test1_xpc

 Timestamp is 583ca448 (Mon Nov 28 16:40:24 2016)

 Preferred load address is 10000000

 Start         Length     Name                   Class
 0001:00000000 0003c0f3H .text$mn                CODE
 0002:00000000 00000104H .CRT$XCA                DATA
 0002:00000104 00000104H .CRT$XCZ                DATA
 0002:00000208 00000104H .CRT$XIA                DATA
 0002:0000030c 00000113H .CRT$XIC                DATA
 0002:00000420 00000104H .CRT$XIZ                DATA
 0002:00000524 00000104H .CRT$XPA                DATA
 0002:00000628 00000109H .CRT$XPX                DATA
 0002:00000734 00000104H .CRT$XPXA               DATA
 0002:00000838 00000104H .CRT$XPZ                DATA
 0002:0000093c 00000104H .CRT$XTA                DATA
 0002:00000a40 00000104H .CRT$XTZ                DATA
 0002:00000b50 0000a001H .rdata                  DATA
 0002:0000ab54 00000199H .rdata$debug            DATA
 0002:0000acf0 0000010eH .rdata$sxdata           DATA
 0002:0000ae00 00000104H .rtc$IAA                DATA
 0002:0000af04 00000104H .rtc$IZZ                DATA
 0002:0000b008 00000104H .rtc$TAA                DATA
 0002:0000b10c 00000104H .rtc$TZZ                DATA
 0002:0000b210 00000991H .xdata$x                DATA
 0002:0000bbb0 0000021aH .edata                  DATA
 0003:00000000 00002017H .data                   DATA
 0003:00002020 00015a24H .bss                    DATA
 0004:00000000 000001b0H .idata$5                DATA
 0004:000001b0 00000014H .idata$2                DATA
 0004:000001c4 00000014H .idata$3                DATA
 0004:000001d8 000001b0H .idata$4                DATA
 0004:00000388 0000076bH .idata$6                DATA

  Address         Publics by Value              Rva+Base       Lib:Object

 0000:00000000       ___guard_fids_count        00000000     <absolute>
 0000:00000000       __except_list              00000000     <absolute>
 0000:00000000       ___guard_fids_table        00000000     <absolute>
 0000:00000000       ___guard_flags             00000000     <absolute>
 0000:00000003       ___safe_se_handler_count   00000003     <absolute>
 0000:00000000       ___ImageBase               10000000     <linker-defined>
 0001:00000320       _MdlInitialize             10001320 f   backup_test1.obj
 0001:00000330       _MdlInitializeSampleTimes  10001330 f   backup_test1.obj
 0001:00000340       _MdlInitializeSizes        10001340 f   backup_test1.obj
 0001:00000350       _MdlOutputs                10001350 f   backup_test1.obj
 0001:00000360       _MdlStart                  10001360 f   backup_test1.obj
 0001:00000370       _MdlTerminate              10001370 f   backup_test1.obj
 0001:00000380       _MdlUpdate                 10001380 f   backup_test1.obj
 0001:00000410       _backup_test1              10001410 f   backup_test1.obj
 0001:00001790       _backup_test1_GetCAPIStaticMap 10002790 f   backup_test1_capi.obj
 0001:000017a0       _backup_test1_InitializeDataMapInfo 100027a0 f   backup_test1_capi.obj
 0001:00001830       _TgtConnBackgroundTask     10002830 f   backup_test1_tgtconn.obj
 0001:00001840       _TgtConnInit               10002840 f   backup_test1_tgtconn.obj
 0001:00001860       _TgtConnPostStep           10002860 f   backup_test1_tgtconn.obj
 0001:00001870       _TgtConnPreStep            10002870 f   backup_test1_tgtconn.obj
 0001:00001880       _TgtConnTerm               10002880 f   backup_test1_tgtconn.obj
 0001:00001890       _rtGetInf                  10002890 f   rtGetInf.obj
 0001:000018c0       _rtGetInfF                 100028c0 f   rtGetInf.obj
 0001:000018e0       _rtGetMinusInf             100028e0 f   rtGetInf.obj
 0001:00001910       _rtGetMinusInfF            10002910 f   rtGetInf.obj
 0001:00001930       _rtGetNaN                  10002930 f   rtGetNaN.obj
 0001:00001960       _rtGetNaNF                 10002960 f   rtGetNaN.obj
 0001:00002290       _rt_CreateLogVar           10003290 f   rt_logging.obj
 0001:00002320       _rt_CreateLogVarWithConvert 10003320 f   rt_logging.obj
 0001:00002ca0       _rt_CreateStructLogVar     10003ca0 f   rt_logging.obj
 0001:00003a10       _rt_GetMxIdFromDTypeId     10004a10 f   rt_logging.obj
 0001:00003a40       _rt_GetMxIdFromDTypeIdForRSim 10004a40 f   rt_logging.obj
 0001:00006380       _rt_StartDataLogging       10007380 f   rt_logging.obj
 0001:00006840       _rt_StartDataLoggingWithStartTime 10007840 f   rt_logging.obj
 0001:000071a0       _rt_StopDataLogging        100081a0 f   rt_logging.obj
 0001:000071c0       _rt_StopDataLoggingImpl    100081c0 f   rt_logging.obj
 0001:000074e0       _rt_UpdateLogVar           100084e0 f   rt_logging.obj
 0001:000088a0       _rt_UpdateStructLogVar     100098a0 f   rt_logging.obj
 0001:00008930       _rt_UpdateTXXFYLogVars     10009930 f   rt_logging.obj
 0001:00008c70       _rt_UpdateTXYLogVars       10009c70 f   rt_logging.obj
 0001:00008ec0       _rt_CleanUpForStateLogWithMMI 10009ec0 f   rt_logging_mmi.obj
 0001:00008fd0       _rt_FillStateSigInfoFromMMI 10009fd0 f   rt_logging_mmi.obj
 0001:00009380       _rt_mxCreateCharMatrixFromStrings 1000a380 f   rt_matrx.obj
 0001:000094d0       _rt_mxCreateDoubleMatrix   1000a4d0 f   rt_matrx.obj
 0001:00009530       _rt_mxCreateNumericArray   1000a530 f   rt_matrx.obj
 0001:000095b0       _rt_mxCreateString         1000a5b0 f   rt_matrx.obj
 0001:00009640       _rt_mxDuplicateArray       1000a640 f   rt_matrx.obj
 0001:000096a0       _rt_mxGetDimensions        1000a6a0 f   rt_matrx.obj
 0001:000096e0       _rt_mxGetEps               1000a6e0 f   rt_matrx.obj
 0001:000096f0       _rt_mxGetString            1000a6f0 f   rt_matrx.obj
 0001:00009770       _rtIsInf                   1000a770 f   rt_nonfinite.obj
 0001:000097b0       _rtIsInfF                  1000a7b0 f   rt_nonfinite.obj
 0001:000097f0       _rtIsNaN                   1000a7f0 f   rt_nonfinite.obj
 0001:00009810       _rtIsNaNF                  1000a810 f   rt_nonfinite.obj
 0001:00009830       _rt_InitInfAndNaN          1000a830 f   rt_nonfinite.obj
 0001:00009890       _rtPrintfNoOp              1000a890 f   rt_printf.obj
 0001:000098a0       _rtwCAPI_CountSysRan       1000a8a0 f   rtw_modelmap_utils.obj
 0001:00009940       _rtwCAPI_EncodePath        1000a940 f   rtw_modelmap_utils.obj
 0001:00009a30       _rtwCAPI_FillSysRan        1000aa30 f   rtw_modelmap_utils.obj
 0001:00009b20       _rtwCAPI_FreeFullPaths     1000ab20 f   rtw_modelmap_utils.obj
 0001:00009bb0       _rtwCAPI_GetFullStateBlockPath 1000abb0 f   rtw_modelmap_utils.obj
 0001:00009d60       _rtwCAPI_GetNumContStateRecords 1000ad60 f   rtw_modelmap_utils.obj
 0001:00009e20       _rtwCAPI_GetNumSigLogRecords 1000ae20 f   rtw_modelmap_utils.obj
 0001:00009e70       _rtwCAPI_GetNumSigLogRecordsForRTWLogging 1000ae70 f   rtw_modelmap_utils.obj
 0001:00009f00       _rtwCAPI_GetNumStateRecords 1000af00 f   rtw_modelmap_utils.obj
 0001:00009f50       _rtwCAPI_GetNumStateRecordsForRTWLogging 1000af50 f   rtw_modelmap_utils.obj
 0001:00009fe0       _rtwCAPI_GetSigAddrFromMap 1000afe0 f   rtw_modelmap_utils.obj
 0001:0000a0a0       _rtwCAPI_GetSigLogRecordInfo 1000b0a0 f   rtw_modelmap_utils.obj
 0001:0000a4d0       _rtwCAPI_GetStateRecordInfo 1000b4d0 f   rtw_modelmap_utils.obj
 0001:0000a980       _rtwCAPI_GetStateWidth     1000b980 f   rtw_modelmap_utils.obj
 0001:0000a9e0       _rtwCAPI_HasStates         1000b9e0 f   rtw_modelmap_utils.obj
 0001:0000aa50       _rtwCAPI_UpdateFullPaths   1000ba50 f   rtw_modelmap_utils.obj
 0001:0000ac30       _DllMain@12                1000bc30 f   xpctarget.obj
 0001:0000ac40       _SLRTSetErrorStatus        1000bc40 f   xpctarget.obj
 0001:0000ac60       _backup_test1_ChangeStepSize 1000bc60 f   xpctarget.obj
 0001:0000acb0       _changeStepSize            1000bcb0 f   xpctarget.obj
 0001:0000ad00       _getDLMVersion             1000bd00 f   xpctarget.obj
 0001:0000ad10       _getRefMdlPath             1000bd10 f   xpctarget.obj
 0001:0000ad90       _getRefMdlSignalNumber     1000bd90 f   xpctarget.obj
 0001:0000ae40       _getrlmdlinfo              1000be40 f   xpctarget.obj
 0001:0000b020       _updateDiscreteEvents      1000c020 f   xpctarget.obj
 0001:0000b030       _getNumRef                 1000c030 f   appmappingData.obj
 0001:0000b430       _dacbpcidda0x12            1000c430 f   dacbpcidda0x12.obj
 0001:0000bfd0       _dipci8255                 1000cfd0 f   dipci8255.obj
 0001:0000cb70       _dopci8255                 1000db70 f   dopci8255.obj
 0001:0000da80       _GetPCIDeviceFull          1000ea80 f   xpcruntime:xpcimports.obj
 0001:0000dab0       _ShowPCIDevice             1000eab0 f   xpcruntime:xpcimports.obj
 0001:0000e120       _xpcGetPciConfigAtSlot     1000f120 f   xpcruntime:xpcimports.obj
 0001:0000e3a0       _xpcInitProcs              1000f3a0 f   xpcruntime:xpcimports.obj
 0001:0000ef00       _xpceuploadevent           1000ff00 f   xpcruntime:xpcimports.obj
 0001:0000ef01       __heap_alloc               1000ff01 f i LIBCMT:malloc.obj
 0001:0000ef3e       _malloc                    1000ff3e f   LIBCMT:malloc.obj
 0001:0000efd0       _memset                    1000ffd0 f   LIBCMT:memset.obj
 0001:0000f060       __fpmath                   10010060 f   LIBCMT:fpinit.obj
 0001:0000f077       ___setfflag                10010077 f   LIBCMT:fpinit.obj
 0001:0000f08a       __cfltcvt_init             1001008a f   LIBCMT:fpinit.obj
 0001:0000f0ea       ___raise_securityfailure   100100ea f   LIBCMT:gs_report.obj
 0001:0000f127       ___report_gsfailure        10010127 f   LIBCMT:gs_report.obj
 0001:0000f222       ___report_rangecheckfailure 10010222 f   LIBCMT:gs_report.obj
 0001:0000f22e       ___report_securityfailure  1001022e f   LIBCMT:gs_report.obj
 0001:0000f2fe       ___report_securityfailureEx 100102fe f   LIBCMT:gs_report.obj
 0001:0000f414       ___copy_path_to_wide_string 10010414 f   LIBCMT:crt0dat.obj
 0001:0000f4c6       ___copy_to_char            100104c6 f   LIBCMT:crt0dat.obj
 0001:0000f57b       ___crtCorExitProcess       1001057b f   LIBCMT:crt0dat.obj
 0001:0000f5af       ___crtExitProcess          100105af f   LIBCMT:crt0dat.obj
 0001:0000f5c5       ___freeCrtMemory           100105c5 f   LIBCMT:crt0dat.obj
 0001:0000f6d2       __amsg_exit                100106d2 f   LIBCMT:crt0dat.obj
 0001:0000f6ee       __c_exit                   100106ee f   LIBCMT:crt0dat.obj
 0001:0000f6fd       __cexit                    100106fd f   LIBCMT:crt0dat.obj
 0001:0000f70c       __cinit                    1001070c f   LIBCMT:crt0dat.obj
 0001:0000f790       __exit                     10010790 f   LIBCMT:crt0dat.obj
 0001:0000f7a4       __exit_app                 100107a4 f   LIBCMT:crt0dat.obj
 0001:0000f7b2       __get_pgmptr               100107b2 f   LIBCMT:crt0dat.obj
 0001:0000f7e1       __get_wpgmptr              100107e1 f   LIBCMT:crt0dat.obj
 0001:0000f810       __init_pointers            10010810 f   LIBCMT:crt0dat.obj
 0001:0000f87e       __initterm_e               1001087e f   LIBCMT:crt0dat.obj
 0001:0000f8a0       __lockexit                 100108a0 f   LIBCMT:crt0dat.obj
 0001:0000f8a9       __unlockexit               100108a9 f   LIBCMT:crt0dat.obj
 0001:0000f9e1       _exit                      100109e1 f   LIBCMT:crt0dat.obj
 0001:0000f9f5       _calloc                    100109f5 f   LIBCMT:calloc.obj
 0001:0000fa35       _free                      10010a35 f   LIBCMT:free.obj
 0001:0000fa6d       _realloc                   10010a6d f   LIBCMT:realloc.obj
 0001:0000fb20       _memmove                   10010b20 f   LIBCMT:memmove.obj
 0001:00010170       _strchr                    10011170 f   LIBCMT:strchr.obj
 0001:000101de       ___from_strstr_to_strchr   100111de     LIBCMT:strchr.obj
 0001:000102a0       _strncat                   100112a0 f   LIBCMT:strncat.obj
 0001:000103e0       _strncpy                   100113e0 f   LIBCMT:strncpy.obj
 0001:00010504       ___initstdio               10011504 f   LIBCMT:_file.obj
 0001:00010577       ___endstdio                10011577 f   LIBCMT:_file.obj
 0001:0001059e       ___iob_func                1001159e f   LIBCMT:_file.obj
 0001:000105a4       __lock_file                100115a4 f   LIBCMT:_file.obj
 0001:000105e3       __lock_file2               100115e3 f   LIBCMT:_file.obj
 0001:00010613       __unlock_file              10011613 f   LIBCMT:_file.obj
 0001:0001064d       __unlock_file2             1001164d f   LIBCMT:_file.obj
 0001:0001067a       __fclose_nolock            1001167a f   LIBCMT:fclose.obj
 0001:000106e6       _fclose                    100116e6 f   LIBCMT:fclose.obj
 0001:0001075d       __fsopen                   1001175d f   LIBCMT:fopen.obj
 0001:00010821       _fopen                     10011821 f   LIBCMT:fopen.obj
 0001:00010836       _fopen_s                   10011836 f   LIBCMT:fopen.obj
 0001:0001087b       __fprintf_l                1001187b f   LIBCMT:fprintf.obj
 0001:00010895       __fprintf_p                10011895 f   LIBCMT:fprintf.obj
 0001:000108ae       __fprintf_p_l              100118ae f   LIBCMT:fprintf.obj
 0001:000108c8       __fprintf_s_l              100118c8 f   LIBCMT:fprintf.obj
 0001:000108e2       _fprintf                   100118e2 f   LIBCMT:fprintf.obj
 0001:000109f4       _fprintf_s                 100119f4 f   LIBCMT:fprintf.obj
 0001:00010a0d       __fread_nolock             10011a0d f   LIBCMT:fread.obj
 0001:00010a28       __fread_nolock_s           10011a28 f   LIBCMT:fread.obj
 0001:00010bed       _fread                     10011bed f   LIBCMT:fread.obj
 0001:00010c08       _fread_s                   10011c08 f   LIBCMT:fread.obj
 0001:00010c99       __fwrite_nolock            10011c99 f   LIBCMT:fwrite.obj
 0001:00010df2       _fwrite                    10011df2 f   LIBCMT:fwrite.obj
 0001:00010e74       __get_printf_count_output  10011e74 f   LIBCMT:printf.obj
 0001:00010e89       __printf_l                 10011e89 f   LIBCMT:printf.obj
 0001:00010ea0       __printf_p                 10011ea0 f   LIBCMT:printf.obj
 0001:00010eb6       __printf_p_l               10011eb6 f   LIBCMT:printf.obj
 0001:00010ecd       __printf_s_l               10011ecd f   LIBCMT:printf.obj
 0001:00010ee4       __set_printf_count_output  10011ee4 f   LIBCMT:printf.obj
 0001:00010f0c       _printf                    10011f0c f   LIBCMT:printf.obj
 0001:00010fbb       _printf_s                  10011fbb f   LIBCMT:printf.obj
 0001:00010fd1       __unlink                   10011fd1 f   LIBCMT:unlink.obj
 0001:00010fda       _remove                    10011fda f   LIBCMT:unlink.obj
 0001:0001101c       _rewind                    1001201c f   LIBCMT:rewind.obj
 0001:000110db       __scprintf                 100120db f   LIBCMT:sprintf.obj
 0001:000110ee       __scprintf_l               100120ee f   LIBCMT:sprintf.obj
 0001:00011105       __scprintf_p               10012105 f   LIBCMT:sprintf.obj
 0001:00011118       __scprintf_p_l             10012118 f   LIBCMT:sprintf.obj
 0001:0001112f       __snprintf_s               1001212f f   LIBCMT:sprintf.obj
 0001:0001114e       __snprintf_s_l             1001214e f   LIBCMT:sprintf.obj
 0001:0001116e       __sprintf_l                1001216e f   LIBCMT:sprintf.obj
 0001:00011188       __sprintf_p                10012188 f   LIBCMT:sprintf.obj
 0001:000111a4       __sprintf_p_l              100121a4 f   LIBCMT:sprintf.obj
 0001:000111c1       __sprintf_s_l              100121c1 f   LIBCMT:sprintf.obj
 0001:000111de       _sprintf                   100121de f   LIBCMT:sprintf.obj
 0001:00011262       _sprintf_s                 10012262 f   LIBCMT:sprintf.obj
 0001:0001127e       _ldexp                     1001227e f   LIBCMT:ldexp.obj
 0001:0001146a       @__security_check_cookie@4 1001246a f   LIBCMT:secchk.obj
 0001:00011480       __ftoui3                   10012480 f   LIBCMT:ftol3.obj
 0001:0001148f       __ftoul3                   1001248f f   LIBCMT:ftol3.obj
 0001:0001149e       __ftol3                    1001249e f   LIBCMT:ftol3.obj
 0001:000114ab       __ftol3_NaN                100124ab f   LIBCMT:ftol3.obj
 0001:000114c3       __ftol3_work               100124c3 f   LIBCMT:ftol3.obj
 0001:00011549       __ftol3_common             10012549 f   LIBCMT:ftol3.obj
 0001:0001160b       __ftol3_arg_error          1001260b f   LIBCMT:ftol3.obj
 0001:0001161d       __ftol3_except             1001261d f   LIBCMT:ftol3.obj
 0001:0001165f       __dtoui3                   1001265f f   LIBCMT:ftol3.obj
 0001:0001166e       __dtoul3                   1001266e f   LIBCMT:ftol3.obj
 0001:0001167d       __dtol3                    1001267d f   LIBCMT:ftol3.obj
 0001:0001168a       __dtol3_NaN                1001268a f   LIBCMT:ftol3.obj
 0001:000116a7       __dtol3_work               100126a7 f   LIBCMT:ftol3.obj
 0001:0001178c       __ultod3                   1001278c f   LIBCMT:ftol3.obj
 0001:0001181d       __ltod3                    1001281d f   LIBCMT:ftol3.obj
 0001:00011850       _memcpy                    10012850 f   LIBCMT:memcpy.obj
 0001:00011e94       ___isa_available_init      10012e94 f   LIBCMT:cpu_disp.obj
 0001:0001200d       __invoke_watson_if_error   1001300d f i LIBCMT:wassert.obj
 0001:0001202d       __wassert                  1001302d f   LIBCMT:wassert.obj
 0001:000126d1       __CRT_INIT@12              100136d1 f   LIBCMT:dllcrt0.obj
 0001:00012843       __DllMainCRTStartup@12     10013843 f   LIBCMT:dllcrt0.obj
 0001:00012974       ___DllXcptFilter           10013974 f   LIBCMT:dllcrt0.obj
 0001:00012999       ?_query_new_handler@@YAP6AHI@ZXZ 10013999 f   LIBCMT:handler.obj
 0001:000129a6       ?_set_new_handler@@YAP6AHI@ZH@Z 100139a6 f   LIBCMT:handler.obj
 0001:000129af       ?_set_new_handler@@YAP6AHI@ZP6AHI@Z@Z 100139af f   LIBCMT:handler.obj
 0001:000129e4       __callnewh                 100139e4 f   LIBCMT:handler.obj
 0001:00012a0a       __initp_heap_handler       10013a0a f   LIBCMT:handler.obj
 0001:00012a17       __FF_MSGBANNER             10013a17 f   LIBCMT:crt0msg.obj
 0001:00012a50       __GET_RTERRMSG             10013a50 f   LIBCMT:crt0msg.obj
 0001:00012a74       __NMSG_WRITE               10013a74 f   LIBCMT:crt0msg.obj
 0001:00012c31       ___doserrno                10013c31 f   LIBCMT:dosmap.obj
 0001:00012c44       __dosmaperr                10013c44 f   LIBCMT:dosmap.obj
 0001:00012c65       __errno                    10013c65 f   LIBCMT:dosmap.obj
 0001:00012c78       __get_doserrno             10013c78 f   LIBCMT:dosmap.obj
 0001:00012c9b       __get_errno                10013c9b f   LIBCMT:dosmap.obj
 0001:00012cbe       __get_errno_from_oserr     10013cbe f   LIBCMT:dosmap.obj
 0001:00012cff       __set_doserrno             10013cff f   LIBCMT:dosmap.obj
 0001:00012d1e       __set_errno                10013d1e f   LIBCMT:dosmap.obj
 0001:00012d3d       __get_heap_handle          10013d3d f   LIBCMT:heapinit.obj
 0001:00012d43       __heap_init                10013d43 f   LIBCMT:heapinit.obj
 0001:00012d58       __heap_term                10013d58 f   LIBCMT:heapinit.obj
 0001:00012d60       __VEC_memset               10013d60 f   LIBCMT:p4_memset.obj
 0001:00012e28       ??0_LocaleUpdate@@QAE@PAUlocaleinfo_struct@@@Z 10013e28 f i LIBCMT:cvt.obj
 0001:00012eb0       ??1_LocaleUpdate@@QAE@XZ   10013eb0 f i LIBCMT:cvt.obj
 0001:00012ebe       ?GetLocaleT@_LocaleUpdate@@QAEPAUlocaleinfo_struct@@XZ 10013ebe f i LIBCMT:cvt.obj
 0001:00012ec1       ?strrchr@@YAPADPADH@Z      10013ec1 f i LIBCMT:cvt.obj
 0001:00012eca       __cfltcvt                  10013eca f   LIBCMT:cvt.obj
 0001:00012eeb       __cfltcvt_l                10013eeb f   LIBCMT:cvt.obj
 0001:00012f71       __cftoa                    10013f71 f   LIBCMT:cvt.obj
 0001:00012f8f       __cftoa_l                  10013f8f f   LIBCMT:cvt.obj
 0001:000132eb       __cftoe                    100142eb f   LIBCMT:cvt.obj
 0001:0001345a       __cftoe_l                  1001445a f   LIBCMT:cvt.obj
 0001:00013528       __cftof                    10014528 f   LIBCMT:cvt.obj
 0001:0001362f       __cftof_l                  1001462f f   LIBCMT:cvt.obj
 0001:000136f0       __cftog                    100146f0 f   LIBCMT:cvt.obj
 0001:0001370e       __cftog_l                  1001470e f   LIBCMT:cvt.obj
 0001:0001380d       __cropzeros                1001480d f   LIBCMT:cvt.obj
 0001:0001381e       __cropzeros_l              1001481e f   LIBCMT:cvt.obj
 0001:0001389e       __fassign                  1001489e f   LIBCMT:cvt.obj
 0001:000138b6       __fassign_l                100148b6 f   LIBCMT:cvt.obj
 0001:000138f8       __forcdecpt                100148f8 f   LIBCMT:cvt.obj
 0001:00013909       __forcdecpt_l              10014909 f   LIBCMT:cvt.obj
 0001:0001397d       __positive                 1001497d f   LIBCMT:cvt.obj
 0001:000139bf       __setdefaultprecision      100149bf f   LIBCMT:fp8.obj
 0001:000139e6       __initp_misc_cfltcvt_tab   100149e6 f   LIBCMT:cmiscdat.obj
 0001:00013a05       __crt_debugger_hook        10014a05 f   LIBCMT:dbghook.obj
 0001:00013a3a       ___crtCloseThreadpoolTimer 10014a3a f   LIBCMT:winapisupp.obj
 0001:00013a51       ___crtCloseThreadpoolWait  10014a51 f   LIBCMT:winapisupp.obj
 0001:00013a68       ___crtCreateEventExW       10014a68 f   LIBCMT:winapisupp.obj
 0001:00013aa3       ___crtCreateSemaphoreExW   10014aa3 f   LIBCMT:winapisupp.obj
 0001:00013add       ___crtCreateSymbolicLinkW  10014add f   LIBCMT:winapisupp.obj
 0001:00013b06       ___crtCreateThreadpoolTimer 10014b06 f   LIBCMT:winapisupp.obj
 0001:00013b27       ___crtCreateThreadpoolWait 10014b27 f   LIBCMT:winapisupp.obj
 0001:00013b48       ___crtFlsAlloc             10014b48 f   LIBCMT:winapisupp.obj
 0001:00013b66       ___crtFlsFree              10014b66 f   LIBCMT:winapisupp.obj
 0001:00013b85       ___crtFlsGetValue          10014b85 f   LIBCMT:winapisupp.obj
 0001:00013ba4       ___crtFlsSetValue          10014ba4 f   LIBCMT:winapisupp.obj
 0001:00013bc6       ___crtFlushProcessWriteBuffers 10014bc6 f   LIBCMT:winapisupp.obj
 0001:00013bd6       ___crtFreeLibraryWhenCallbackReturns 10014bd6 f   LIBCMT:winapisupp.obj
 0001:00013bf0       ___crtGetCurrentProcessorNumber 10014bf0 f   LIBCMT:winapisupp.obj
 0001:00013c02       ___crtGetFileInformationByHandleEx 10014c02 f   LIBCMT:winapisupp.obj
 0001:00013c2e       ___crtGetLogicalProcessorInformation 10014c2e f   LIBCMT:winapisupp.obj
 0001:00013c54       ___crtGetShowWindowMode    10014c54 f   LIBCMT:winapisupp.obj
 0001:00013c77       ___crtGetTickCount64       10014c77 f   LIBCMT:winapisupp.obj
 0001:00013c8f       ___crtInitializeCriticalSectionEx 10014c8f f   LIBCMT:winapisupp.obj
 0001:00013cbd       ___crtIsPackagedApp        10014cbd f   LIBCMT:winapisupp.obj
 0001:00013cfd       ___crtLoadWinApiPointers   10014cfd f   LIBCMT:winapisupp.obj
 0001:00013f88       ___crtSetFileInformationByHandle 10014f88 f   LIBCMT:winapisupp.obj
 0001:00013fb4       ___crtSetThreadStackGuarantee 10014fb4 f   LIBCMT:winapisupp.obj
 0001:00013fcf       ___crtSetThreadpoolTimer   10014fcf f   LIBCMT:winapisupp.obj
 0001:00013fef       ___crtSetThreadpoolWait    10014fef f   LIBCMT:winapisupp.obj
 0001:0001400c       ___crtSetUnhandledExceptionFilter 1001500c f   LIBCMT:winapisupp.obj
 0001:0001401a       ___crtSleep                1001501a f   LIBCMT:winapisupp.obj
 0001:00014028       ___crtTerminateProcess     10015028 f   LIBCMT:winapisupp.obj
 0001:0001403d       ___crtUnhandledException   1001503d f   LIBCMT:winapisupp.obj
 0001:00014053       ___crtWaitForThreadpoolTimerCallbacks 10015053 f   LIBCMT:winapisupp.obj
 0001:0001406d       ?_invalid_parameter@@YAXPBG00II@Z 1001506d f   LIBCMT:invarg.obj
 0001:00014072       ?_invoke_watson@@YAXPBG00II@Z 10015072 f   LIBCMT:invarg.obj
 0001:0001408a       __call_reportfault         1001508a f   LIBCMT:invarg.obj
 0001:000141af       __get_invalid_parameter_handler 100151af f   LIBCMT:invarg.obj
 0001:000141bc       __initp_misc_invarg        100151bc f   LIBCMT:invarg.obj
 0001:000141c9       __invalid_parameter        100151c9 f   LIBCMT:invarg.obj
 0001:000141f4       __invalid_parameter_noinfo 100151f4 f   LIBCMT:invarg.obj
 0001:00014204       __invalid_parameter_noinfo_noreturn 10015204 f   LIBCMT:invarg.obj
 0001:0001421f       __invoke_watson            1001521f f   LIBCMT:invarg.obj
 0001:0001424a       __set_invalid_parameter_handler 1001524a f   LIBCMT:invarg.obj
 0001:0001426f       __RTC_Initialize           1001526f f   LIBCMT:initsect.obj
 0001:0001428f       __RTC_Terminate            1001528f f   LIBCMT:initsect.obj
 0001:000142af       __lock                     100152af f   LIBCMT:mlock.obj
 0001:000142e3       __lockerr_exit             100152e3 f   LIBCMT:mlock.obj
 0001:00014303       __mtdeletelocks            10015303 f   LIBCMT:mlock.obj
 0001:00014357       __mtinitlocknum            10015357 f   LIBCMT:mlock.obj
 0001:00014400       __mtinitlocks              10015400 f   LIBCMT:mlock.obj
 0001:00014439       __unlock                   10015439 f   LIBCMT:mlock.obj
 0001:00014450       __FindPESection            10015450 f   LIBCMT:pesect.obj
 0001:000144a0       __IsNonwritableInCurrentImage 100154a0 f   LIBCMT:pesect.obj
 0001:00014560       __ValidateImageBase        10015560 f   LIBCMT:pesect.obj
 0001:00014591       ___onexitinit              10015591 f   LIBCMT:onexit.obj
 0001:000145c0       __onexit                   100155c0 f   LIBCMT:onexit.obj
 0001:000146bc       _atexit                    100156bc f   LIBCMT:onexit.obj
 0001:000146d1       __calloc_crt               100156d1 f   LIBCMT:crtheap.obj
 0001:00014719       __malloc_crt               10015719 f   LIBCMT:crtheap.obj
 0001:00014760       __realloc_crt              10015760 f   LIBCMT:crtheap.obj
 0001:000147aa       __recalloc_crt             100157aa f   LIBCMT:crtheap.obj
 0001:000147f8       __set_malloc_crt_max_wait  100157f8 f   LIBCMT:crtheap.obj
 0001:0001480b       _wait_a_bit                1001580b f i LIBCMT:crtheap.obj
 0001:0001482f       ?_inconsistency@@YAXXZ     1001582f f   LIBCMT:hooks.obj
 0001:00014867       ?terminate@@YAXXZ          10015867 f   LIBCMT:hooks.obj
 0001:0001489b       ?unexpected@@YAXXZ         1001589b f   LIBCMT:hooks.obj
 0001:000148ae       __initp_eh_hooks           100158ae f   LIBCMT:hooks.obj
 0001:000148bf       ___getlocaleinfo           100158bf f   LIBCMT:inithelp.obj
 0001:00014a98       __initp_misc_purevirt      10015a98 f   LIBCMT:inithelp.obj
 0001:00014aa5       ___fpecode                 10015aa5 f   LIBCMT:winsig.obj
 0001:00014aae       ___get_sigabrt             10015aae f   LIBCMT:winsig.obj
 0001:00014abb       ___pxcptinfoptrs           10015abb f   LIBCMT:winsig.obj
 0001:00014ac4       __initp_misc_winsig        10015ac4 f   LIBCMT:winsig.obj
 0001:00014b85       _raise                     10015b85 f   LIBCMT:winsig.obj
 0001:00014d7a       _signal                    10015d7a f   LIBCMT:winsig.obj
 0001:00014fd1       __initp_misc_rand_s        10015fd1 f   LIBCMT:rand_s.obj
 0001:00014fde       _rand_s                    10015fde f   LIBCMT:rand_s.obj
 0001:000150f0       __SEH_prolog4              100160f0 f   LIBCMT:sehprolg4.obj
 0001:00015135       __SEH_epilog4              10016135 f   LIBCMT:sehprolg4.obj
 0001:00015190       __except_handler4          10016190 f   LIBCMT:chandler4.obj
 0001:00015324       ___initmbctable            10016324 f   LIBCMT:mbctype.obj
 0001:000155db       ___updatetmbcinfo          100165db f   LIBCMT:mbctype.obj
 0001:00015681       __getmbcp                  10016681 f   LIBCMT:mbctype.obj
 0001:000156b2       __setmbcp                  100166b2 f   LIBCMT:mbctype.obj
 0001:0001585a       __setmbcp_nolock           1001685a f   LIBCMT:mbctype.obj
 0001:00015a45       __ftbuf                    10016a45 f   LIBCMT:_sftbuf.obj
 0001:00015a76       __stbuf                    10016a76 f   LIBCMT:_sftbuf.obj
 0001:00015b1c       __calloc_impl              10016b1c f   LIBCMT:calloc_impl.obj
 0001:00015b96       __fcloseall                10016b96 f   LIBCMT:closeall.obj
 0001:00015c33       __fflush_nolock            10016c33 f   LIBCMT:fflush.obj
 0001:00015c79       __flush                    10016c79 f   LIBCMT:fflush.obj
 0001:00015cdd       __flushall                 10016cdd f   LIBCMT:fflush.obj
 0001:00015ce6       _fflush                    10016ce6 f   LIBCMT:fflush.obj
 0001:00015e23       __fileno                   10016e23 f   LIBCMT:fileno.obj
 0001:00015e47       __close                    10016e47 f   LIBCMT:close.obj
 0001:00015f22       __close_nolock             10016f22 f   LIBCMT:close.obj
 0001:00015fbc       __freebuf                  10016fbc f   LIBCMT:_freebuf.obj
 0001:00015fec       __getstream                10016fec f   LIBCMT:stream.obj
 0001:0001610b       __openfile                 1001710b f   LIBCMT:_open.obj
 0001:00016390       __local_unwind4            10017390 f   LIBCMT:exsup4.obj
 0001:00016466       __seh_longjmp_unwind4@4    10017466 f   LIBCMT:exsup4.obj
 0001:00016482       @_EH4_CallFilterFunc@8     10017482 f   LIBCMT:exsup4.obj
 0001:00016499       @_EH4_TransferToHandler@8  10017499 f   LIBCMT:exsup4.obj
 0001:000164b2       @_EH4_GlobalUnwind2@8      100174b2 f   LIBCMT:exsup4.obj
 0001:000164cb       @_EH4_LocalUnwind@16       100174cb f   LIBCMT:exsup4.obj
 0001:000164e2       __vfprintf_l               100174e2 f   LIBCMT:vfprintf.obj
 0001:00016500       __vfprintf_p               10017500 f   LIBCMT:vfprintf.obj
 0001:0001651d       __vfprintf_p_l             1001751d f   LIBCMT:vfprintf.obj
 0001:0001653b       __vfprintf_s_l             1001753b f   LIBCMT:vfprintf.obj
 0001:00016559       _vfprintf                  10017559 f   LIBCMT:vfprintf.obj
 0001:00016576       _vfprintf_helper           10017576 f   LIBCMT:vfprintf.obj
 0001:00016687       _vfprintf_s                10017687 f   LIBCMT:vfprintf.obj
 0001:000166a4       __output_l                 100176a4 f   LIBCMT:output.obj
 0001:00017224       _get_int64_arg             10018224 f i LIBCMT:output.obj
 0001:00017237       _get_int_arg               10018237 f i LIBCMT:output.obj
 0001:00017247       _get_short_arg             10018247 f i LIBCMT:output.obj
 0001:00017344       __ioinit                   10018344 f   LIBCMT:ioinit.obj
 0001:000175f8       __ioterm                   100185f8 f   LIBCMT:ioinit.obj
 0001:0001764a       __filbuf                   1001864a f   LIBCMT:_filbuf.obj
 0001:0001776b       _memcpy_s                  1001876b f   LIBCMT:memcpy_s.obj
 0001:000177ea       __read                     100187ea f   LIBCMT:read.obj
 0001:000178fe       __read_nolock              100188fe f   LIBCMT:read.obj
 0001:0001808f       __flsbuf                   1001908f f   LIBCMT:_flsbuf.obj
 0001:000181de       __write                    100191de f   LIBCMT:write.obj
 0001:000182cd       __write_nolock             100192cd f   LIBCMT:write.obj
 0001:00018b32       __vprintf_l                10019b32 f   LIBCMT:vprintf.obj
 0001:00018b4d       __vprintf_p                10019b4d f   LIBCMT:vprintf.obj
 0001:00018b67       __vprintf_p_l              10019b67 f   LIBCMT:vprintf.obj
 0001:00018b82       __vprintf_s_l              10019b82 f   LIBCMT:vprintf.obj
 0001:00018b9d       _vprintf                   10019b9d f   LIBCMT:vprintf.obj
 0001:00018bb7       _vprintf_helper            10019bb7 f   LIBCMT:vprintf.obj
 0001:00018c44       _vprintf_s                 10019c44 f   LIBCMT:vprintf.obj
 0001:00018c5e       __wremove                  10019c5e f   LIBCMT:wunlink.obj
 0001:00018c8c       __wunlink                  10019c8c f   LIBCMT:wunlink.obj
 0001:00018c95       __lseek                    10019c95 f   LIBCMT:lseek.obj
 0001:00018d84       __lseek_nolock             10019d84 f   LIBCMT:lseek.obj
 0001:00018e2b       __vscprintf                10019e2b f   LIBCMT:vsprintf.obj
 0001:00018e45       __vscprintf_helper         10019e45 f   LIBCMT:vsprintf.obj
 0001:00018ea1       __vscprintf_l              10019ea1 f   LIBCMT:vsprintf.obj
 0001:00018ebc       __vscprintf_p              10019ebc f   LIBCMT:vsprintf.obj
 0001:00018ed6       __vscprintf_p_l            10019ed6 f   LIBCMT:vsprintf.obj
 0001:00018ef1       __vsprintf_l               10019ef1 f   LIBCMT:vsprintf.obj
 0001:00018f75       _vsprintf                  10019f75 f   LIBCMT:vsprintf.obj
 0001:00018f8d       __vsnprintf_c              10019f8d f   LIBCMT:vsnprnc.obj
 0001:00018fb4       __vsnprintf_c_l            10019fb4 f   LIBCMT:vsnprnc.obj
 0001:00018fdc       __vsnprintf_helper         10019fdc f   LIBCMT:vsnprnc.obj
 0001:000190a6       __vsnprintf_s              1001a0a6 f   LIBCMT:vsnprnc.obj
 0001:000190c4       __vsnprintf_s_l            1001a0c4 f   LIBCMT:vsnprnc.obj
 0001:000191c4       __vsprintf_p               1001a1c4 f   LIBCMT:vsnprnc.obj
 0001:000191eb       __vsprintf_p_l             1001a1eb f   LIBCMT:vsnprnc.obj
 0001:00019213       __vsprintf_s_l             1001a213 f   LIBCMT:vsnprnc.obj
 0001:00019288       _vsprintf_s                1001a288 f   LIBCMT:vsnprnc.obj
 0001:000192a3       __chgsign                  1001a2a3 f   LIBCMT:ieeemisc.obj
 0001:000192d0       __chgsignf                 1001a2d0 f   LIBCMT:ieeemisc.obj
 0001:000192f1       __copysign                 1001a2f1 f   LIBCMT:ieeemisc.obj
 0001:00019319       __copysignf                1001a319 f   LIBCMT:ieeemisc.obj
 0001:00019335       __finite                   1001a335 f   LIBCMT:ieeemisc.obj
 0001:0001934d       __fpclass                  1001a34d f   LIBCMT:ieeemisc.obj
 0001:000193e9       __isnan                    1001a3e9 f   LIBCMT:ieeemisc.obj
 0001:0001941c       __logb                     1001a41c f   LIBCMT:ieeemisc.obj
 0001:000194fd       __nextafter                1001a4fd f   LIBCMT:ieeemisc.obj
 0001:0001979d       __scalb                    1001a79d f   LIBCMT:ieeemisc.obj
 0001:000197b5       __add_exp                  1001a7b5 f   LIBCMT:util.obj
 0001:000197e4       __decomp                   1001a7e4 f   LIBCMT:util.obj
 0001:000198b6       __get_exp                  1001a8b6 f   LIBCMT:util.obj
 0001:000198cf       __set_bexp                 1001a8cf f   LIBCMT:util.obj
 0001:000198f8       __set_exp                  1001a8f8 f   LIBCMT:util.obj
 0001:00019927       __sptype                   1001a927 f   LIBCMT:util.obj
 0001:00019982       __errcode                  1001a982 f   LIBCMT:fpexcept.obj
 0001:000199b4       __except1                  1001a9b4 f   LIBCMT:fpexcept.obj
 0001:00019a7c       __except2                  1001aa7c f   LIBCMT:fpexcept.obj
 0001:00019b7c       __handle_exc               1001ab7c f   LIBCMT:fpexcept.obj
 0001:00019d5a       __handle_qnan1             1001ad5a f   LIBCMT:fpexcept.obj
 0001:00019daa       __handle_qnan2             1001adaa f   LIBCMT:fpexcept.obj
 0001:00019e0a       __raise_exc                1001ae0a f   LIBCMT:fpexcept.obj
 0001:00019e2b       __raise_exc_ex             1001ae2b f   LIBCMT:fpexcept.obj
 0001:0001a110       __raise_excf               1001b110 f   LIBCMT:fpexcept.obj
 0001:0001a131       __set_errno_from_matherr   1001b131 f   LIBCMT:fpexcept.obj
 0001:0001a15e       __umatherr                 1001b15e f   LIBCMT:fpexcept.obj
 0001:0001a1fe       ___clrfp_sse2              1001b1fe f   LIBCMT:fpctrl.obj
 0001:0001a21f       ___ctrlfp_sse2             1001b21f f   LIBCMT:fpctrl.obj
 0001:0001a258       ___fclrf_sse2              1001b258 f   LIBCMT:fpctrl.obj
 0001:0001a275       ___get_fpsr_sse2           1001b275 f   LIBCMT:fpctrl.obj
 0001:0001a291       ___set_fpsr_sse2           1001b291 f   LIBCMT:fpctrl.obj
 0001:0001a307       ___set_statfp_sse2         1001b307 f   LIBCMT:fpctrl.obj
 0001:0001a320       ___statfp_sse2             1001b320 f   LIBCMT:fpctrl.obj
 0001:0001a335       __clrfp                    1001b335 f   LIBCMT:fpctrl.obj
 0001:0001a346       __ctrlfp                   1001b346 f   LIBCMT:fpctrl.obj
 0001:0001a371       __set_statfp               1001b371 f   LIBCMT:fpctrl.obj
 0001:0001a3c9       __statfp                   1001b3c9 f   LIBCMT:fpctrl.obj
 0001:0001a3d9       _wcscat_s                  1001b3d9 f   LIBCMT:wcscat_s.obj
 0001:0001a445       _wcscpy_s                  1001b445 f   LIBCMT:wcscpy_s.obj
 0001:0001a4a1       _wcslen                    1001b4a1 f   LIBCMT:wcslen.obj
 0001:0001a4ba       _wcsncat_s                 1001b4ba f   LIBCMT:wcsncat_s.obj
 0001:0001a588       __set_abort_behavior       1001b588 f   LIBCMT:abort.obj
 0001:0001a5a7       _abort                     1001b5a7 f   LIBCMT:abort.obj
 0001:0001a5ea       ___set_app_type            1001b5ea f   LIBCMT:errmode.obj
 0001:0001a5f7       __set_error_mode           1001b5f7 f   LIBCMT:errmode.obj
 0001:0001a753       __i64tow_s                 1001b753 f   LIBCMT:xtows.obj
 0001:0001a784       __itow_s                   1001b784 f   LIBCMT:xtows.obj
 0001:0001a7ad       __ltow_s                   1001b7ad f   LIBCMT:xtows.obj
 0001:0001a7d7       __ui64tow_s                1001b7d7 f   LIBCMT:xtows.obj
 0001:0001a7f2       __ultow_s                  1001b7f2 f   LIBCMT:xtows.obj
 0001:0001a8fd       _setvbuf                   1001b8fd f   LIBCMT:setvbuf.obj
 0001:0001aa03       __fwprintf_l               1001ba03 f   LIBCMT:fwprintf.obj
 0001:0001aa1d       __fwprintf_p               1001ba1d f   LIBCMT:fwprintf.obj
 0001:0001aa36       __fwprintf_p_l             1001ba36 f   LIBCMT:fwprintf.obj
 0001:0001aa50       __fwprintf_s_l             1001ba50 f   LIBCMT:fwprintf.obj
 0001:0001aa6a       _fwprintf                  1001ba6a f   LIBCMT:fwprintf.obj
 0001:0001aafe       _fwprintf_s                1001bafe f   LIBCMT:fwprintf.obj
 0001:0001ab17       __vsnwprintf_s             1001bb17 f   LIBCMT:vswprnc.obj
 0001:0001ab35       __vsnwprintf_s_l           1001bb35 f   LIBCMT:vswprnc.obj
 0001:0001ac39       __vswprintf_c              1001bc39 f   LIBCMT:vswprnc.obj
 0001:0001ac60       __vswprintf_c_l            1001bc60 f   LIBCMT:vswprnc.obj
 0001:0001ac88       __vswprintf_helper         1001bc88 f   LIBCMT:vswprnc.obj
 0001:0001ad83       __vswprintf_p              1001bd83 f   LIBCMT:vswprnc.obj
 0001:0001adaa       __vswprintf_p_l            1001bdaa f   LIBCMT:vswprnc.obj
 0001:0001add2       __vswprintf_s_l            1001bdd2 f   LIBCMT:vswprnc.obj
 0001:0001ae49       _vswprintf_s               1001be49 f   LIBCMT:vswprnc.obj
 0001:0001ae64       ___crtMessageBoxW          1001be64 f   LIBCMT:crtmboxw.obj
 0001:0001b04a       ___crtMessageBoxWaitThreadW@4 1001c04a f   LIBCMT:crtmboxw.obj
 0001:0001b068       __XcptFilter               1001c068 f   LIBCMT:winxfltr.obj
 0001:0001b1c3       ___CppXcptFilter           1001c1c3 f   LIBCMT:winxfltr.obj
 0001:0001b215       ___get_flsindex            1001c215 f   LIBCMT:tidtable.obj
 0001:0001b21b       ___threadhandle            1001c21b f   LIBCMT:tidtable.obj
 0001:0001b221       ___threadid                1001c221 f   LIBCMT:tidtable.obj
 0001:0001b227       __freefls@4                1001c227 f   LIBCMT:tidtable.obj
 0001:0001b35c       __freeptd                  1001c35c f   LIBCMT:tidtable.obj
 0001:0001b392       __getptd                   1001c392 f   LIBCMT:tidtable.obj
 0001:0001b3aa       __getptd_noexit            1001c3aa f   LIBCMT:tidtable.obj
 0001:0001b419       __initptd                  1001c419 f   LIBCMT:tidtable.obj
 0001:0001b4cc       __mtinit                   1001c4cc f   LIBCMT:tidtable.obj
 0001:0001b542       __mtterm                   1001c542 f   LIBCMT:tidtable.obj
 0001:0001b55f       __set_pgmptr               1001c55f f i LIBCMT:stdargv.obj
 0001:0001b56c       __setargv                  1001c56c f   LIBCMT:stdargv.obj
 0001:0001b79b       __setenvp                  1001c79b f   LIBCMT:stdenvp.obj
 0001:0001b87c       ___security_init_cookie    1001c87c f   LIBCMT:gs_support.obj
 0001:0001b918       ___crtGetEnvironmentStringsA 1001c918 f   LIBCMT:a_env.obj
 0001:0001b9b0       _strlen                    1001c9b0 f   LIBCMT:strlen.obj
 0001:0001ba3b       _wcsncpy_s                 1001ca3b f   LIBCMT:wcsncpy_s.obj
 0001:0001baf9       ___addlocaleref            1001caf9 f   LIBCMT:localref.obj
 0001:0001bb8e       ___freetlocinfo            1001cb8e f   LIBCMT:localref.obj
 0001:0001bce8       ___removelocaleref         1001cce8 f   LIBCMT:localref.obj
 0001:0001bd88       ___updatetlocinfo          1001cd88 f   LIBCMT:localref.obj
 0001:0001be08       __updatetlocinfoEx_nolock  1001ce08 f   LIBCMT:localref.obj
 0001:0001be53       ___isascii                 1001ce53 f i LIBCMT:_ctype.obj
 0001:0001be63       ___iscsym                  1001ce63 f i LIBCMT:_ctype.obj
 0001:0001be83       ___iscsymf                 1001ce83 f i LIBCMT:_ctype.obj
 0001:0001bea0       ___toascii                 1001cea0 f i LIBCMT:_ctype.obj
 0001:0001beab       __isalnum_l                1001ceab f i LIBCMT:_ctype.obj
 0001:0001bf03       __isalpha_l                1001cf03 f i LIBCMT:_ctype.obj
 0001:0001bf5b       __isblank_l                1001cf5b f i LIBCMT:_ctype.obj
 0001:0001bfb5       __iscntrl_l                1001cfb5 f i LIBCMT:_ctype.obj
 0001:0001c007       __iscsym_l                 1001d007 f i LIBCMT:_ctype.obj
 0001:0001c028       __iscsymf_l                1001d028 f i LIBCMT:_ctype.obj
 0001:0001c049       __isdigit_l                1001d049 f i LIBCMT:_ctype.obj
 0001:0001c09b       __isgraph_l                1001d09b f i LIBCMT:_ctype.obj
 0001:0001c0f3       __islower_l                1001d0f3 f i LIBCMT:_ctype.obj
 0001:0001c145       __isprint_l                1001d145 f i LIBCMT:_ctype.obj
 0001:0001c19d       __ispunct_l                1001d19d f i LIBCMT:_ctype.obj
 0001:0001c1ef       __isspace_l                1001d1ef f i LIBCMT:_ctype.obj
 0001:0001c241       __isupper_l                1001d241 f i LIBCMT:_ctype.obj
 0001:0001c293       __isxdigit_l               1001d293 f i LIBCMT:_ctype.obj
 0001:0001c2eb       _isalnum                   1001d2eb f i LIBCMT:_ctype.obj
 0001:0001c318       _isalpha                   1001d318 f i LIBCMT:_ctype.obj
 0001:0001c345       _isblank                   1001d345 f i LIBCMT:_ctype.obj
 0001:0001c37a       _iscntrl                   1001d37a f i LIBCMT:_ctype.obj
 0001:0001c3a5       _isdigit                   1001d3a5 f i LIBCMT:_ctype.obj
 0001:0001c3d0       _isgraph                   1001d3d0 f i LIBCMT:_ctype.obj
 0001:0001c3fd       _islower                   1001d3fd f i LIBCMT:_ctype.obj
 0001:0001c428       _isprint                   1001d428 f i LIBCMT:_ctype.obj
 0001:0001c455       _ispunct                   1001d455 f i LIBCMT:_ctype.obj
 0001:0001c480       _isspace                   1001d480 f i LIBCMT:_ctype.obj
 0001:0001c4ab       _isupper                   1001d4ab f i LIBCMT:_ctype.obj
 0001:0001c4d6       _isxdigit                  1001d4d6 f i LIBCMT:_ctype.obj
 0001:0001c503       __tolower                  1001d503 f   LIBCMT:tolower.obj
 0001:0001c50e       __tolower_l                1001d50e f   LIBCMT:tolower.obj
 0001:0001c651       _tolower                   1001d651 f   LIBCMT:tolower.obj
 0001:0001c67d       _strcpy_s                  1001d67d f   LIBCMT:strcpy_s.obj
 0001:0001c6e0       _strrchr                   1001d6e0 f   LIBCMT:strrchr.obj
 0001:0001c817       __fptostr                  1001d817 f   LIBCMT:_fptostr.obj
 0001:0001c8c7       ___crt_atoflt_l            1001d8c7 f   LIBCMT:atodbl.obj
 0001:0001c96b       __atodbl                   1001d96b f   LIBCMT:atodbl.obj
 0001:0001c980       __atodbl_l                 1001d980 f   LIBCMT:atodbl.obj
 0001:0001ca0e       __atoflt                   1001da0e f   LIBCMT:atodbl.obj
 0001:0001ca23       __atoflt_l                 1001da23 f   LIBCMT:atodbl.obj
 0001:0001ca3b       __atoldbl                  1001da3b f   LIBCMT:atodbl.obj
 0001:0001ca50       __atoldbl_l                1001da50 f   LIBCMT:atodbl.obj
 0001:0001cadf       ___dtold                   1001dadf f   LIBCMT:cfout.obj
 0001:0001cba7       __fltout2                  1001dba7 f   LIBCMT:cfout.obj
 0001:0001cc40       __alldvrm                  1001dc40 f   LIBCMT:lldvrm.obj
 0001:0001cd20       __aullshr                  1001dd20 f   LIBCMT:ullshr.obj
 0001:0001cd3f       __get_output_format        1001dd3f f   LIBCMT:outputformat.obj
 0001:0001cd45       __set_output_format        1001dd45 f   LIBCMT:outputformat.obj
 0001:0001cd77       __controlfp_s              1001dd77 f   LIBCMT:contrlfp.obj
 0001:0001cdd4       __fptrap                   1001ddd4 f   LIBCMT:crt0fp.obj
 0001:0001cddd       __msize                    1001dddd f   LIBCMT:msize.obj
 0001:0001ce0e       __recalloc                 1001de0e f   LIBCMT:recalloc.obj
 0001:0001ce77       _strncpy_s                 1001de77 f   LIBCMT:strncpy_s.obj
 0001:0001cfff       __MallocaIsSizeInRange     1001dfff f i LIBCMT:a_loc.obj
 0001:0001d010       __MarkAllocaS              1001e010 f i LIBCMT:a_loc.obj
 0001:0001d024       ___crtGetLocaleInfoA       1001e024 f   LIBCMT:a_loc.obj
 0001:0001d05e       __freea                    1001e05e f i LIBCMT:a_loc.obj
 0001:0001d07c       _GetTableIndexFromLcid     1001e07c f   LIBCMT:winapinls.obj
 0001:0001d0b1       _GetTableIndexFromLocaleName 1001e0b1 f   LIBCMT:winapinls.obj
 0001:0001d0ff       ___crtCompareStringEx      1001e0ff f   LIBCMT:winapinls.obj
 0001:0001d14b       ___crtDownlevelLCIDToLocaleName 1001e14b f   LIBCMT:winapinls.obj
 0001:0001d1c7       ___crtDownlevelLocaleNameToLCID 1001e1c7 f   LIBCMT:winapinls.obj
 0001:0001d205       ___crtEnumSystemLocalesEx  1001e205 f   LIBCMT:winapinls.obj
 0001:0001d242       ___crtGetDateFormatEx      1001e242 f   LIBCMT:winapinls.obj
 0001:0001d28b       ___crtGetLocaleInfoEx      1001e28b f   LIBCMT:winapinls.obj
 0001:0001d2ba       ___crtGetTimeFormatEx      1001e2ba f   LIBCMT:winapinls.obj
 0001:0001d2ef       ___crtGetUserDefaultLocaleName 1001e2ef f   LIBCMT:winapinls.obj
 0001:0001d31a       ___crtIsValidLocaleName    1001e31a f   LIBCMT:winapinls.obj
 0001:0001d345       ___crtLCMapStringEx        1001e345 f   LIBCMT:winapinls.obj
 0001:0001d391       ___wcsnicmp_ascii          1001e391 f   LIBCMT:winapinls.obj
 0001:0001d623       ___crtLCMapStringA         1001e623 f   LIBCMT:a_map.obj
 0001:0001d761       ___crtGetStringTypeA       1001e761 f   LIBCMT:a_str.obj
 0001:0001d7a1       __isatty                   1001e7a1 f   LIBCMT:isatty.obj
 0001:0001d7f5       __commit                   1001e7f5 f   LIBCMT:commit.obj
 0001:0001d8de       ___lock_fhandle            1001e8de f   LIBCMT:osfinfo.obj
 0001:0001d96c       __alloc_osfhnd             1001e96c f   LIBCMT:osfinfo.obj
 0001:0001db15       __free_osfhnd              1001eb15 f   LIBCMT:osfinfo.obj
 0001:0001db9b       __get_osfhandle            1001eb9b f   LIBCMT:osfinfo.obj
 0001:0001dc02       __open_osfhandle           1001ec02 f   LIBCMT:osfinfo.obj
 0001:0001dd18       __set_osfhnd               1001ed18 f   LIBCMT:osfinfo.obj
 0001:0001dd9a       __unlock_fhandle           1001ed9a f   LIBCMT:osfinfo.obj
 0001:0001ddc0       __open                     1001edc0 f   LIBCMT:open.obj
 0001:0001de70       __sopen                    1001ee70 f   LIBCMT:open.obj
 0001:0001dea3       __sopen_helper             1001eea3 f   LIBCMT:open.obj
 0001:0001df6c       __sopen_nolock             1001ef6c f   LIBCMT:open.obj
 0001:0001dfba       __sopen_s                  1001efba f   LIBCMT:open.obj
 0001:0001dfd8       __mbsnbcmp                 1001efd8 f   LIBCMT:mbsnbcmp.obj
 0001:0001dff0       __mbsnbcmp_l               1001eff0 f   LIBCMT:mbsnbcmp.obj
 0001:0001e107       __mbsnbicmp                1001f107 f   LIBCMT:mbsnbicm.obj
 0001:0001e11f       __mbsnbicmp_l              1001f11f f   LIBCMT:mbsnbicm.obj
 0001:0001e2e0       __global_unwind2           1001f2e0 f   LIBCMT:exsup.obj
 0001:0001e345       __local_unwind2            1001f345 f   LIBCMT:exsup.obj
 0001:0001e3c9       __abnormal_termination     1001f3c9 f   LIBCMT:exsup.obj
 0001:0001e3ec       __NLG_Notify1              1001f3ec f   LIBCMT:exsup.obj
 0001:0001e3f5       __NLG_Notify               1001f3f5 f   LIBCMT:exsup.obj
 0001:0001e40c       __NLG_Dispatch2            1001f40c     LIBCMT:exsup.obj
 0001:0001e40c       __NLG_Dispatch             1001f40c     LIBCMT:exsup.obj
 0001:0001e414       __NLG_Call                 1001f414 f   LIBCMT:exsup.obj
 0001:0001e416       __NLG_Return2              1001f416     LIBCMT:exsup.obj
 0001:0001e417       __output_s_l               1001f417 f   LIBCMT:outputs.obj
 0001:0001f09f       __output_p_l               1002009f f   LIBCMT:outputp.obj
 0001:000203d7       __validate_param_reuseA    100213d7 f   LIBCMT:outputp.obj
 0001:0002050d       _get_crtdouble_arg         1002150d f i LIBCMT:outputp.obj
 0001:0002060c       ___iswcsym                 1002160c f i LIBCMT:_wctype.obj
 0001:00020630       ___iswcsymf                10021630 f i LIBCMT:_wctype.obj
 0001:00020654       __isleadbyte_l             10021654 f i LIBCMT:_wctype.obj
 0001:0002068e       __iswalnum_l               1002168e f i LIBCMT:_wctype.obj
 0001:000206a2       __iswalpha_l               100216a2 f i LIBCMT:_wctype.obj
 0001:000206b6       __iswblank_l               100216b6 f i LIBCMT:_wctype.obj
 0001:000206d1       __iswcntrl_l               100216d1 f i LIBCMT:_wctype.obj
 0001:000206e2       __iswcsym_l                100216e2 f i LIBCMT:_wctype.obj
 0001:00020706       __iswcsymf_l               10021706 f i LIBCMT:_wctype.obj
 0001:0002072a       __iswdigit_l               1002172a f i LIBCMT:_wctype.obj
 0001:0002073b       __iswgraph_l               1002173b f i LIBCMT:_wctype.obj
 0001:0002074f       __iswlower_l               1002174f f i LIBCMT:_wctype.obj
 0001:00020760       __iswprint_l               10021760 f i LIBCMT:_wctype.obj
 0001:00020774       __iswpunct_l               10021774 f i LIBCMT:_wctype.obj
 0001:00020785       __iswspace_l               10021785 f i LIBCMT:_wctype.obj
 0001:00020796       __iswupper_l               10021796 f i LIBCMT:_wctype.obj
 0001:000207a7       __iswxdigit_l              100217a7 f i LIBCMT:_wctype.obj
 0001:000207bb       _isleadbyte                100217bb f i LIBCMT:_wctype.obj
 0001:000207cc       _iswalnum                  100217cc f i LIBCMT:_wctype.obj
 0001:000207e0       _iswalpha                  100217e0 f i LIBCMT:_wctype.obj
 0001:000207f4       _iswascii                  100217f4 f i LIBCMT:_wctype.obj
 0001:00020806       _iswblank                  10021806 f i LIBCMT:_wctype.obj
 0001:00020821       _iswcntrl                  10021821 f i LIBCMT:_wctype.obj
 0001:00020832       _iswdigit                  10021832 f i LIBCMT:_wctype.obj
 0001:00020843       _iswgraph                  10021843 f i LIBCMT:_wctype.obj
 0001:00020857       _iswlower                  10021857 f i LIBCMT:_wctype.obj
 0001:00020868       _iswprint                  10021868 f i LIBCMT:_wctype.obj
 0001:0002087c       _iswpunct                  1002187c f i LIBCMT:_wctype.obj
 0001:0002088d       _iswspace                  1002188d f i LIBCMT:_wctype.obj
 0001:0002089e       _iswupper                  1002189e f i LIBCMT:_wctype.obj
 0001:000208af       _iswxdigit                 100218af f i LIBCMT:_wctype.obj
 0001:000208c3       __wctomb_l                 100218c3 f   LIBCMT:wctomb.obj
 0001:00020912       __wctomb_s_l               10021912 f   LIBCMT:wctomb.obj
 0001:00020a36       _wctomb                    10021a36 f   LIBCMT:wctomb.obj
 0001:00020a69       _wctomb_s                  10021a69 f   LIBCMT:wctomb.obj
 0001:00020a90       __aulldvrm                 10021a90 f   LIBCMT:ulldvrm.obj
 0001:00020b25       __getbuf                   10021b25 f   LIBCMT:_getbuf.obj
 0001:00020b6b       __lseeki64                 10021b6b f   LIBCMT:lseeki64.obj
 0001:00020c67       __lseeki64_nolock          10021c67 f   LIBCMT:lseeki64.obj
 0001:00020cda       __mbtowc_l                 10021cda f   LIBCMT:mbtowc.obj
 0001:00020dcf       _mbtowc                    10021dcf f   LIBCMT:mbtowc.obj
 0001:00020de7       __putwch                   10021de7 f   LIBCMT:putwch.obj
 0001:00020e33       __putwch_nolock            10021e33 f   LIBCMT:putwch.obj
 0001:00020e80       __chkstk                   10021e80 f   LIBCMT:chkstk.obj
 0001:00020e80       __alloca_probe             10021e80 f   LIBCMT:chkstk.obj
 0001:00020eab       __matherr                  10021eab f   LIBCMT:matherr.obj
 0001:00020eae       __vfwprintf_l              10021eae f   LIBCMT:vfwprint.obj
 0001:00020ecc       __vfwprintf_p              10021ecc f   LIBCMT:vfwprint.obj
 0001:00020ee9       __vfwprintf_p_l            10021ee9 f   LIBCMT:vfwprint.obj
 0001:00020f07       __vfwprintf_s_l            10021f07 f   LIBCMT:vfwprint.obj
 0001:00020f25       _vfwprintf                 10021f25 f   LIBCMT:vfwprint.obj
 0001:00020f42       _vfwprintf_helper          10021f42 f   LIBCMT:vfwprint.obj
 0001:00020fd5       _vfwprintf_s               10021fd5 f   LIBCMT:vfwprint.obj
 0001:00020ff2       __woutput_l                10021ff2 f   LIBCMT:woutput.obj
 0001:00021cd1       __woutput_s_l              10022cd1 f   LIBCMT:woutputs.obj
 0001:000229e8       __validate_param_reuseW    100239e8 f   LIBCMT:woutputp.obj
 0001:00022b60       __woutput_p_l              10023b60 f   LIBCMT:woutputp.obj
 0001:00023f89       __ismbbalnum               10024f89 f   LIBCMT:ismbbyte.obj
 0001:00023fa2       __ismbbalnum_l             10024fa2 f   LIBCMT:ismbbyte.obj
 0001:00023fbc       __ismbbalpha               10024fbc f   LIBCMT:ismbbyte.obj
 0001:00023fd5       __ismbbalpha_l             10024fd5 f   LIBCMT:ismbbyte.obj
 0001:00023fef       __ismbbblank               10024fef f   LIBCMT:ismbbyte.obj
 0001:00024010       __ismbbblank_l             10025010 f   LIBCMT:ismbbyte.obj
 0001:00024032       __ismbbgraph               10025032 f   LIBCMT:ismbbyte.obj
 0001:0002404b       __ismbbgraph_l             1002504b f   LIBCMT:ismbbyte.obj
 0001:00024065       __ismbbkalnum              10025065 f   LIBCMT:ismbbyte.obj
 0001:0002407b       __ismbbkalnum_l            1002507b f   LIBCMT:ismbbyte.obj
 0001:00024092       __ismbbkana                10025092 f   LIBCMT:ismbbyte.obj
 0001:000240a3       __ismbbkana_l              100250a3 f   LIBCMT:ismbbyte.obj
 0001:000240ef       __ismbbkprint              100250ef f   LIBCMT:ismbbyte.obj
 0001:00024105       __ismbbkprint_l            10025105 f   LIBCMT:ismbbyte.obj
 0001:0002411c       __ismbbkpunct              1002511c f   LIBCMT:ismbbyte.obj
 0001:00024132       __ismbbkpunct_l            10025132 f   LIBCMT:ismbbyte.obj
 0001:00024149       __ismbblead                10025149 f   LIBCMT:ismbbyte.obj
 0001:0002415f       __ismbblead_l              1002515f f   LIBCMT:ismbbyte.obj
 0001:00024176       __ismbbprint               10025176 f   LIBCMT:ismbbyte.obj
 0001:0002418f       __ismbbprint_l             1002518f f   LIBCMT:ismbbyte.obj
 0001:000241a9       __ismbbpunct               100251a9 f   LIBCMT:ismbbyte.obj
 0001:000241bf       __ismbbpunct_l             100251bf f   LIBCMT:ismbbyte.obj
 0001:000241d6       __ismbbtrail               100251d6 f   LIBCMT:ismbbyte.obj
 0001:000241ec       __ismbbtrail_l             100251ec f   LIBCMT:ismbbyte.obj
 0001:00024203       ___free_lconv_mon          10025203 f   LIBCMT:initmon.obj
 0001:000242ff       ___init_monetary           100252ff f   LIBCMT:initmon.obj
 0001:000246d8       ___free_lconv_num          100256d8 f   LIBCMT:initnum.obj
 0001:0002473f       ___init_numeric            1002573f f   LIBCMT:initnum.obj
 0001:0002497d       ___free_lc_time            1002597d f   LIBCMT:inittime.obj
 0001:00024cfd       ___init_time               10025cfd f   LIBCMT:inittime.obj
 0001:0002556c       _localeconv                1002656c f   LIBCMT:lconv.obj
 0001:00025592       __isctype                  10026592 f   LIBCMT:isctype.obj
 0001:000255c1       __isctype_l                100265c1 f   LIBCMT:isctype.obj
 0001:00025672       ___init_dummy              10026672 f   LIBCMT:wsetloca.obj
 0001:00025675       __locterm                  10026675 f   LIBCMT:wsetloca.obj
 0001:000256c7       ____setlc_active_func      100266c7 f   LIBCMT:wsetloca.obj
 0001:000256cd       ____unguarded_readlc_active_add_func 100266cd f   LIBCMT:wsetloca.obj
 0001:000256d3       ___copy_locale_name        100266d3 f   LIBCMT:wsetloca.obj
 0001:00025737       ___create_locale           10026737 f   LIBCMT:wsetloca.obj
 0001:00025740       ___free_locale             10026740 f   LIBCMT:wsetloca.obj
 0001:00025745       ___get_current_locale      10026745 f   LIBCMT:wsetloca.obj
 0001:0002574a       ___lc_lctowcs              1002674a f   LIBCMT:wsetloca.obj
 0001:000257b8       ___lc_wcstolc              100267b8 f   LIBCMT:wsetloca.obj
 0001:000258e4       __configthreadlocale       100268e4 f   LIBCMT:wsetloca.obj
 0001:0002596a       __create_locale            1002696a f   LIBCMT:wsetloca.obj
 0001:000259cc       __expandlocale             100269cc f   LIBCMT:wsetloca.obj
 0001:00025cc3       __free_locale              10026cc3 f   LIBCMT:wsetloca.obj
 0001:00025d7a       __get_current_locale       10026d7a f   LIBCMT:wsetloca.obj
 0001:00025e29       __wcreate_locale           10026e29 f   LIBCMT:wsetloca.obj
 0001:00025f00       __wcscats                  10026f00 f   LIBCMT:wsetloca.obj
 0001:00025f3f       __wsetlocale               10026f3f f   LIBCMT:wsetloca.obj
 0001:00026881       __CopyMan                  10027881 f i LIBCMT:intrncvt.obj
 0001:0002689e       __FillZeroMan              1002789e f i LIBCMT:intrncvt.obj
 0001:000268ad       __IncMan                   100278ad f i LIBCMT:intrncvt.obj
 0001:0002690f       __IsZeroMan                1002790f f i LIBCMT:intrncvt.obj
 0001:0002692c       __RoundMan                 1002792c f i LIBCMT:intrncvt.obj
 0001:00026a2d       __ShrMan                   10027a2d f i LIBCMT:intrncvt.obj
 0001:00026abb       __ZeroTail                 10027abb f i LIBCMT:intrncvt.obj
 0001:00026b03       ___addl                    10027b03 f i LIBCMT:intrncvt.obj
 0001:00026b27       __ld12cvt                  10027b27 f i LIBCMT:intrncvt.obj
 0001:00027092       __ld12tod                  10028092 f   LIBCMT:intrncvt.obj
 0001:00027604       __ld12tof                  10028604 f   LIBCMT:intrncvt.obj
 0001:00027b76       __ld12told                 10028b76 f   LIBCMT:intrncvt.obj
 0001:00027c45       ___STRINGTOLD_L            10028c45 f   LIBCMT:strgtold.obj
 0001:00027ca0       ___ld12mul                 10028ca0 f i LIBCMT:strgtold.obj
 0001:00027f6c       ___multtenpow12            10028f6c f i LIBCMT:strgtold.obj
 0001:000282bf       ___shl_12                  100292bf f i LIBCMT:strgtold.obj
 0001:000282f0       ___shr_12                  100292f0 f i LIBCMT:strgtold.obj
 0001:00028320       ___strgtold12_l            10029320 f   LIBCMT:strgtold.obj
 0001:00028ac8       _$I10_OUTPUT               10029ac8 f   LIBCMT:x10fout.obj
 0001:0002949c       ___add_12                  1002a49c f i LIBCMT:x10fout.obj
 0001:0002950e       ___pctype_func             1002a50e f   LIBCMT:ctype.obj
 0001:00029537       ___pwctype_func            1002a537 f   LIBCMT:ctype.obj
 0001:00029677       ___control87_2             1002a677 f   LIBCMT:ieee87.obj
 0001:00029ceb       __clearfp                  1002aceb f   LIBCMT:ieee87.obj
 0001:00029dcb       __control87                1002adcb f i LIBCMT:ieee87.obj
 0001:0002a0cd       __controlfp                1002b0cd f   LIBCMT:ieee87.obj
 0001:0002a3d8       __fpreset                  1002b3d8 f   LIBCMT:ieee87.obj
 0001:0002a4a5       __set_controlfp            1002b4a5 f   LIBCMT:ieee87.obj
 0001:0002a518       __statusfp                 1002b518 f   LIBCMT:ieee87.obj
 0001:0002a5b2       __statusfp2                1002b5b2 f   LIBCMT:ieee87.obj
 0001:0002a620       __alloca_probe_16          1002b620 f   LIBCMT:alloca16.obj
 0001:0002a636       __alloca_probe_8           1002b636     LIBCMT:alloca16.obj
 0001:0002a64c       _wcsnlen                   1002b64c f   LIBCMT:wcslen_s.obj
 0001:0002a6f3       __wopen                    1002b6f3 f   LIBCMT:wopen.obj
 0001:0002a7a3       __wsopen                   1002b7a3 f   LIBCMT:wopen.obj
 0001:0002a7d6       __wsopen_helper            1002b7d6 f   LIBCMT:wopen.obj
 0001:0002a89f       __wsopen_nolock            1002b89f f   LIBCMT:wopen.obj
 0001:0002aff2       __wsopen_s                 1002bff2 f   LIBCMT:wopen.obj
 0001:0002b010       _strncmp                   1002c010 f   LIBCMT:strncmp.obj
 0001:0002b088       __strnicmp                 1002c088 f   LIBCMT:strnicmp.obj
 0001:0002b0f3       __strnicmp_l               1002c0f3 f   LIBCMT:strnicmp.obj
 0001:0002b3ca       __strtol_l                 1002c3ca f   LIBCMT:strtol.obj
 0001:0002b3e5       __strtoul_l                1002c3e5 f   LIBCMT:strtol.obj
 0001:0002b400       _strtol                    1002c400 f   LIBCMT:strtol.obj
 0001:0002b42a       _strtoul                   1002c42a f   LIBCMT:strtol.obj
 0001:0002b454       __iswctype_l               1002c454 f   LIBCMT:iswctype.obj
 0001:0002b466       _is_wctype                 1002c466 f   LIBCMT:iswctype.obj
 0001:0002b46f       _iswctype                  1002c46f f   LIBCMT:iswctype.obj
 0001:0002b4c5       ____lc_codepage_func       1002c4c5 f   LIBCMT:initctyp.obj
 0001:0002b4eb       ____lc_collate_cp_func     1002c4eb f   LIBCMT:initctyp.obj
 0001:0002b511       ____lc_locale_name_func    1002c511 f   LIBCMT:initctyp.obj
 0001:0002b539       ____mb_cur_max_func        1002c539 f   LIBCMT:initctyp.obj
 0001:0002b55f       ____mb_cur_max_l_func      1002c55f f   LIBCMT:initctyp.obj
 0001:0002b576       ___init_ctype              1002c576 f   LIBCMT:initctyp.obj
 0001:0002b90e       ___termconout              1002c90e f   LIBCMT:initcon.obj
 0001:0002b925       ___initconout              1002c925 f   LIBCMT:initcon.obj
 0001:0002b944       __fputwc_nolock            1002c944 f   LIBCMT:fputwc.obj
 0001:0002baca       _fputwc                    1002caca f   LIBCMT:fputwc.obj
 0001:0002bb41       _putwc                     1002cb41 f   LIBCMT:fputwc.obj
 0001:0002bd2b       __wcstol_l                 1002cd2b f   LIBCMT:wcstol.obj
 0001:0002bd43       __wcstoul_l                1002cd43 f   LIBCMT:wcstol.obj
 0001:0002bd5b       _wcstol                    1002cd5b f   LIBCMT:wcstol.obj
 0001:0002bd73       _wcstoul                   1002cd73 f   LIBCMT:wcstol.obj
 0001:0002bd8b       ___init_collate            1002cd8b f   LIBCMT:initcoll.obj
 0001:0002beab       _memcmp                    1002ceab f   LIBCMT:memcmp.obj
 0001:0002edbf       _wcscmp                    1002fdbf f   LIBCMT:wcscmp.obj
 0001:0002edfd       _wcscspn                   1002fdfd f   LIBCMT:wcscspn.obj
 0001:0002ee48       _wcsncmp                   1002fe48 f   LIBCMT:wcsncmp.obj
 0001:0002ee7e       _wcspbrk                   1002fe7e f   LIBCMT:wcspbrk.obj
 0001:0002f482       ___get_qualified_locale    10030482 f   LIBCMT:getqloc.obj
 0001:0002fcf2       ___get_qualified_locale_downlevel 10030cf2 f   LIBCMT:getqloc_downlevel.obj
 0001:0002ff0e       ___mtold12                 10030f0e f   LIBCMT:mantold.obj
 0001:000300ee       __chsize                   100310ee f   LIBCMT:chsize.obj
 0001:00030108       __chsize_nolock            10031108 f   LIBCMT:chsize.obj
 0001:000302be       __chsize_s                 100312be f   LIBCMT:chsize.obj
 0001:000303ac       __get_fmode                100313ac f   LIBCMT:setmode.obj
 0001:000303d6       __set_fmode                100313d6 f   LIBCMT:setmode.obj
 0001:00030411       __setmode                  10031411 f   LIBCMT:setmode.obj
 0001:00030516       __setmode_nolock           10031516 f   LIBCMT:setmode.obj
 0001:000305f0       ___ascii_strnicmp          100315f0 f   LIBCMT:_strnicm.obj
 0001:00030651       __flswbuf                  10031651 f   LIBCMT:_flswbuf.obj
 0001:000307b3       __wchartodigit             100317b3 f   LIBCMT:wchtodig.obj
 0001:00030952       __wtoi                     10031952 f   LIBCMT:wtox.obj
 0001:0003095b       __wtoi64                   1003195b f   LIBCMT:wtox.obj
 0001:0003096f       __wtoi64_l                 1003196f f   LIBCMT:wtox.obj
 0001:00030986       __wtoi_l                   10031986 f   LIBCMT:wtox.obj
 0001:0003098f       __wtol                     1003198f f   LIBCMT:wtox.obj
 0001:000309a3       __wtol_l                   100319a3 f   LIBCMT:wtox.obj
 0001:000309ba       __wtoll                    100319ba f   LIBCMT:wtox.obj
 0001:000309ce       __wtoll_l                  100319ce f   LIBCMT:wtox.obj
 0001:000309e5       _wcschr                    100319e5 f   LIBCMT:wcschr.obj
 0001:00030a93       __wcsicmp                  10031a93 f   LIBCMT:wcsicmp.obj
 0001:00030b26       __wcsicmp_l                10031b26 f   LIBCMT:wcsicmp.obj
 0001:00030c01       __wcsnicmp                 10031c01 f   LIBCMT:wcsnicmp.obj
 0001:00030cb7       __wcsnicmp_l               10031cb7 f   LIBCMT:wcsnicmp.obj
 0001:00031080       __wcstof_l                 10032080 f   LIBCMT:wcstoq.obj
 0001:00031133       __wcstoi64                 10032133 f   LIBCMT:wcstoq.obj
 0001:0003115d       __wcstoi64_l               1003215d f   LIBCMT:wcstoq.obj
 0001:00031178       __wcstoimax_l              10032178 f   LIBCMT:wcstoq.obj
 0001:00031181       __wcstold_l                10032181 f   LIBCMT:wcstoq.obj
 0001:0003118a       __wcstoll_l                1003218a f   LIBCMT:wcstoq.obj
 0001:00031193       __wcstoui64                10032193 f   LIBCMT:wcstoq.obj
 0001:000311bd       __wcstoui64_l              100321bd f   LIBCMT:wcstoq.obj
 0001:000311d8       __wcstoull_l               100321d8 f   LIBCMT:wcstoq.obj
 0001:000311e1       __wcstoumax_l              100321e1 f   LIBCMT:wcstoq.obj
 0001:000311ea       _wcstof                    100321ea f   LIBCMT:wcstoq.obj
 0001:000311ff       _wcstoimax                 100321ff f   LIBCMT:wcstoq.obj
 0001:00031208       _wcstold                   10032208 f   LIBCMT:wcstoq.obj
 0001:00031211       _wcstoll                   10032211 f   LIBCMT:wcstoq.obj
 0001:0003121a       _wcstoull                  1003221a f   LIBCMT:wcstoq.obj
 0001:00031223       _wcstoumax                 10032223 f   LIBCMT:wcstoq.obj
 0001:0003122c       __towlower_l               1003222c f   LIBCMT:towlower.obj
 0001:000312dd       _towlower                  100322dd f   LIBCMT:towlower.obj
 0001:000312ee       __wcstod_l                 100322ee f   LIBCMT:wcstod.obj
 0001:000313e9       _wcstod                    100323e9 f   LIBCMT:wcstod.obj
 0001:00031400       __allmul                   10032400 f   LIBCMT:llmul.obj
 0001:00031434       ___crtLCMapStringW         10032434 f   LIBCMT:w_map.obj
 0001:00031463       __wfltin2                  10032463 f   LIBCMT:wcfin.obj
 0001:00031510       ___WSTRINGTOLD_L           10032510 f   LIBCMT:wstrgtold.obj
 0001:0003156b       ___wstrgtold12_l           1003256b f   LIBCMT:wstrgtold.obj
 0001:00031dbc       _GetModuleHandleA@4        10032dbc f   kernel32:KERNEL32.dll
 0001:00031dc2       _GetProcAddress@8          10032dc2 f   kernel32:KERNEL32.dll
 0001:00031dc8       _HeapAlloc@12              10032dc8 f   kernel32:KERNEL32.dll
 0001:00031dce       _IsDebuggerPresent@0       10032dce f   kernel32:KERNEL32.dll
 0001:00031dd4       _IsProcessorFeaturePresent@4 10032dd4 f   kernel32:KERNEL32.dll
 0001:00031dda       _EncodePointer@4           10032dda f   kernel32:KERNEL32.dll
 0001:00031de0       _DecodePointer@4           10032de0 f   kernel32:KERNEL32.dll
 0001:00031de6       _GetLastError@0            10032de6 f   kernel32:KERNEL32.dll
 0001:00031dec       _ExitProcess@4             10032dec f   kernel32:KERNEL32.dll
 0001:00031df2       _GetModuleHandleExW@12     10032df2 f   kernel32:KERNEL32.dll
 0001:00031df8       _AreFileApisANSI@0         10032df8 f   kernel32:KERNEL32.dll
 0001:00031dfe       _MultiByteToWideChar@24    10032dfe f   kernel32:KERNEL32.dll
 0001:00031e04       _WideCharToMultiByte@32    10032e04 f   kernel32:KERNEL32.dll
 0001:00031e0a       _HeapFree@12               10032e0a f   kernel32:KERNEL32.dll
 0001:00031e10       _HeapReAlloc@16            10032e10 f   kernel32:KERNEL32.dll
 0001:00031e16       _EnterCriticalSection@4    10032e16 f   kernel32:KERNEL32.dll
 0001:00031e1c       _LeaveCriticalSection@4    10032e1c f   kernel32:KERNEL32.dll
 0001:00031e22       _GetStdHandle@4            10032e22 f   kernel32:KERNEL32.dll
 0001:00031e28       _GetFileType@4             10032e28 f   kernel32:KERNEL32.dll
 0001:00031e2e       _GetModuleFileNameW@12     10032e2e f   kernel32:KERNEL32.dll
 0001:00031e34       _WriteConsoleW@20          10032e34 f   kernel32:KERNEL32.dll
 0001:00031e3a       _GetCommandLineA@0         10032e3a f   kernel32:KERNEL32.dll
 0001:00031e40       _GetCurrentThreadId@0      10032e40 f   kernel32:KERNEL32.dll
 0001:00031e46       _WriteFile@20              10032e46 f   kernel32:KERNEL32.dll
 0001:00031e4c       _GetProcessHeap@0          10032e4c f   kernel32:KERNEL32.dll
 0001:00031e52       _UnhandledExceptionFilter@4 10032e52 f   kernel32:KERNEL32.dll
 0001:00031e58       _SetUnhandledExceptionFilter@4 10032e58 f   kernel32:KERNEL32.dll
 0001:00031e5e       _SetLastError@4            10032e5e f   kernel32:KERNEL32.dll
 0001:00031e64       _InitializeCriticalSectionAndSpinCount@8 10032e64 f   kernel32:KERNEL32.dll
 0001:00031e6a       _CreateEventW@16           10032e6a f   kernel32:KERNEL32.dll
 0001:00031e70       _Sleep@4                   10032e70 f   kernel32:KERNEL32.dll
 0001:00031e76       _GetCurrentProcess@0       10032e76 f   kernel32:KERNEL32.dll
 0001:00031e7c       _TerminateProcess@8        10032e7c f   kernel32:KERNEL32.dll
 0001:00031e82       _TlsAlloc@0                10032e82 f   kernel32:KERNEL32.dll
 0001:00031e88       _TlsGetValue@4             10032e88 f   kernel32:KERNEL32.dll
 0001:00031e8e       _TlsSetValue@8             10032e8e f   kernel32:KERNEL32.dll
 0001:00031e94       _TlsFree@4                 10032e94 f   kernel32:KERNEL32.dll
 0001:00031e9a       _GetStartupInfoW@4         10032e9a f   kernel32:KERNEL32.dll
 0001:00031ea0       _GetTickCount@0            10032ea0 f   kernel32:KERNEL32.dll
 0001:00031ea6       _GetModuleHandleW@4        10032ea6 f   kernel32:KERNEL32.dll
 0001:00031eac       _CreateSemaphoreW@16       10032eac f   kernel32:KERNEL32.dll
 0001:00031eb2       _DeleteCriticalSection@4   10032eb2 f   kernel32:KERNEL32.dll
 0001:00031eb8       _FatalAppExitA@8           10032eb8 f   kernel32:KERNEL32.dll
 0001:00031ebe       _SetConsoleCtrlHandler@8   10032ebe f   kernel32:KERNEL32.dll
 0001:00031ec4       _FreeLibrary@4             10032ec4 f   kernel32:KERNEL32.dll
 0001:00031eca       _LoadLibraryExW@12         10032eca f   kernel32:KERNEL32.dll
 0001:00031ed0       _IsValidCodePage@4         10032ed0 f   kernel32:KERNEL32.dll
 0001:00031ed6       _GetACP@0                  10032ed6 f   kernel32:KERNEL32.dll
 0001:00031edc       _GetOEMCP@0                10032edc f   kernel32:KERNEL32.dll
 0001:00031ee2       _GetCPInfo@8               10032ee2 f   kernel32:KERNEL32.dll
 0001:00031ee8       _CloseHandle@4             10032ee8 f   kernel32:KERNEL32.dll
 0001:00031eee       _RtlUnwind@16              10032eee f   kernel32:KERNEL32.dll
 0001:00031ef4       _ReadFile@20               10032ef4 f   kernel32:KERNEL32.dll
 0001:00031efa       _GetConsoleMode@8          10032efa f   kernel32:KERNEL32.dll
 0001:00031f00       _ReadConsoleW@20           10032f00 f   kernel32:KERNEL32.dll
 0001:00031f06       _GetConsoleCP@0            10032f06 f   kernel32:KERNEL32.dll
 0001:00031f0c       _DeleteFileW@4             10032f0c f   kernel32:KERNEL32.dll
 0001:00031f12       _SetFilePointerEx@20       10032f12 f   kernel32:KERNEL32.dll
 0001:00031f18       _RaiseException@16         10032f18 f   kernel32:KERNEL32.dll
 0001:00031f1e       _OutputDebugStringW@4      10032f1e f   kernel32:KERNEL32.dll
 0001:00031f24       _GetCurrentThread@0        10032f24 f   kernel32:KERNEL32.dll
 0001:00031f2a       _GetModuleFileNameA@12     10032f2a f   kernel32:KERNEL32.dll
 0001:00031f30       _QueryPerformanceCounter@4 10032f30 f   kernel32:KERNEL32.dll
 0001:00031f36       _GetCurrentProcessId@0     10032f36 f   kernel32:KERNEL32.dll
 0001:00031f3c       _GetSystemTimeAsFileTime@4 10032f3c f   kernel32:KERNEL32.dll
 0001:00031f42       _GetEnvironmentStringsW@0  10032f42 f   kernel32:KERNEL32.dll
 0001:00031f48       _FreeEnvironmentStringsW@4 10032f48 f   kernel32:KERNEL32.dll
 0001:00031f4e       _HeapSize@12               10032f4e f   kernel32:KERNEL32.dll
 0001:00031f54       _GetDateFormatW@24         10032f54 f   kernel32:KERNEL32.dll
 0001:00031f5a       _GetTimeFormatW@24         10032f5a f   kernel32:KERNEL32.dll
 0001:00031f60       _CompareStringW@24         10032f60 f   kernel32:KERNEL32.dll
 0001:00031f66       _LCMapStringW@24           10032f66 f   kernel32:KERNEL32.dll
 0001:00031f6c       _GetLocaleInfoW@16         10032f6c f   kernel32:KERNEL32.dll
 0001:00031f72       _IsValidLocale@8           10032f72 f   kernel32:KERNEL32.dll
 0001:00031f78       _GetUserDefaultLCID@0      10032f78 f   kernel32:KERNEL32.dll
 0001:00031f7e       _EnumSystemLocalesW@8      10032f7e f   kernel32:KERNEL32.dll
 0001:00031f84       _GetStringTypeW@16         10032f84 f   kernel32:KERNEL32.dll
 0001:00031f8a       _FlushFileBuffers@4        10032f8a f   kernel32:KERNEL32.dll
 0001:00031f90       _SetStdHandle@8            10032f90 f   kernel32:KERNEL32.dll
 0001:00031f96       _CreateFileW@28            10032f96 f   kernel32:KERNEL32.dll
 0001:00031f9c       _SetEndOfFile@4            10032f9c f   kernel32:KERNEL32.dll
 0002:00000000       ___xc_a                    1003e000     LIBCMT:crt0init.obj
 0002:00000104       ___xc_z                    1003e104     LIBCMT:crt0init.obj
 0002:00000208       ___xi_a                    1003e208     LIBCMT:crt0init.obj
 0002:00000420       ___xi_z                    1003e420     LIBCMT:crt0init.obj
 0002:00000524       ___xp_a                    1003e524     LIBCMT:crt0init.obj
 0002:00000838       ___xp_z                    1003e838     LIBCMT:crt0init.obj
 0002:0000093c       ___xt_a                    1003e93c     LIBCMT:crt0init.obj
 0002:00000a40       ___xt_z                    1003ea40     LIBCMT:crt0init.obj
 0002:00000b88       _backup_test1_M            1003eb88     backup_test1.obj
 0002:00000b8c       ??_C@_0BC@OJJPBDHH@FixedStepDiscrete?$AA@ 1003eb8c     backup_test1.obj
 0002:00000ba4       ??_C@_04EPKDLPPB@tout?$AA@ 1003eba4     backup_test1.obj
 0002:00000baa       ??_C@_00CNPNBAHC@?$AA@     1003ebaa     backup_test1.obj
 0002:00000bac       ??_C@_03HBFGMJOD@rt_?$AA@  1003ebac     backup_test1.obj
 0002:00000bb0       ??_C@_0O@GDKFENNN@PCI?9DDA08?512?5?$AA@ 1003ebb0     backup_test1.obj
 0002:00000bc0       ??_C@_0BL@ENNBPDGL@backup_test1?1PCI?9DDA08?512?5?$AA@ 1003ebc0     backup_test1.obj
 0002:00000be0       ??_C@_0P@BFHBFPFF@PCI?9DDA08?512?52?$AA@ 1003ebe0     backup_test1.obj
 0002:00000bf4       ??_C@_0BM@DHFNDNFC@backup_test1?1PCI?9DDA08?512?52?$AA@ 1003ebf4     backup_test1.obj
 0002:00000c18       ??_C@_0BA@KOPDHJJN@PCI?9DDA?508?512?53?$AA@ 1003ec18     backup_test1.obj
 0002:00000c2c       ??_C@_0BN@DALFMAFM@backup_test1?1PCI?9DDA?508?512?53?$AA@ 1003ec2c     backup_test1.obj
 0002:00000c50       ??_C@_0P@DOFMAMJG@PCI?9DDA08?512?51?$AA@ 1003ec50     backup_test1.obj
 0002:00000c64       ??_C@_0BM@BMHAGOJB@backup_test1?1PCI?9DDA08?512?51?$AA@ 1003ec64     backup_test1.obj
 0002:00000c88       ??_C@_0BA@OBLCOPFK@PCI?9DDA?508?512?54?$AA@ 1003ec88     backup_test1.obj
 0002:00000c9c       ??_C@_0BN@HPPEFGJL@backup_test1?1PCI?9DDA?508?512?54?$AA@ 1003ec9c     backup_test1.obj
 0002:00000cc0       __real@3f50624dd2f1a9fc    1003ecc0     backup_test1.obj
 0002:00000cd0       __real@41f0000000000000    1003ecd0     backup_test1.obj
 0002:00000ce0       __real@bff0000000000000    1003ece0     backup_test1.obj
 0002:00000cf0       __xmm@00000000000000003f50624dd2f1a9fc 1003ecf0     backup_test1.obj
 0002:00000d10       __xmm@0000008e000000030000000600000001 1003ed10     backup_test1.obj
 0002:00000d30       __xmm@41f00000000000000000000000000000 1003ed30     backup_test1.obj
 0002:000012cc       ??_C@_08CHMPKCOC@Constant?$AA@ 1003f2cc     backup_test1_capi.obj
 0002:000012d8       ??_C@_05LPIJGKJ@Value?$AA@ 1003f2d8     backup_test1_capi.obj
 0002:000012e0       ??_C@_02KKFPAPOP@P1?$AA@   1003f2e0     backup_test1_capi.obj
 0002:000012e4       ??_C@_02IBHCFMCM@P2?$AA@   1003f2e4     backup_test1_capi.obj
 0002:000012e8       ??_C@_02JIGJGNGN@P3?$AA@   1003f2e8     backup_test1_capi.obj
 0002:000012ec       ??_C@_02NHCIPLKK@P4?$AA@   1003f2ec     backup_test1_capi.obj
 0002:000012f0       ??_C@_02MODDMKOL@P5?$AA@   1003f2f0     backup_test1_capi.obj
 0002:000012f4       ??_C@_02OFBOJJCI@P6?$AA@   1003f2f4     backup_test1_capi.obj
 0002:000012f8       ??_C@_02PMAFKIGJ@P7?$AA@   1003f2f8     backup_test1_capi.obj
 0002:000012fc       ??_C@_02HLJNLEKG@P8?$AA@   1003f2fc     backup_test1_capi.obj
 0002:00001300       ??_C@_02GCIGIFOH@P9?$AA@   1003f300     backup_test1_capi.obj
 0002:00001304       ??_C@_03OPFJJGBF@P10?$AA@  1003f304     backup_test1_capi.obj
 0002:00001308       ??_C@_06BNJCAIGJ@double?$AA@ 1003f308     backup_test1_capi.obj
 0002:00001310       ??_C@_06CNMIJIPB@real_T?$AA@ 1003f310     backup_test1_capi.obj
 0002:00001318       ??_C@_05KNFBNCOH@float?$AA@ 1003f318     backup_test1_capi.obj
 0002:00001320       ??_C@_0CJ@GGPBKPNK@Could?5not?5start?5ToAsyncQueue?5app@ 1003f320     backup_test1_tgtconn.obj
 0002:00001bb8       ??_C@_0DJ@FHKINPLE@Unexpected?5itemKind?5?$DN?5DATA_ITEM?5@ 1003fbb8     rt_logging.obj
 0002:00001bfc       ??_C@_0DA@IEHFPFCJ@Unexpected?5itemKind?$DN?$CFd?5in?5rt_Pro@ 1003fbfc     rt_logging.obj
 0002:00001c38       ??_C@_0DA@IFLHJPBO@Unexpected?5itemKind?$DN?$CFd?5in?5rt_Pro@ 1003fc38     rt_logging.obj
 0002:00001c74       ??_C@_0DA@IAPIIJJL@Unexpected?5itemKind?$DN?$CFd?5in?5rt_Pro@ 1003fc74     rt_logging.obj
 0002:00001cb0       ??_C@_0BE@LCIGPJIG@MATLAB?55?40?5MAT?9file?$AA@ 1003fcb0     rt_logging.obj
 0002:00001cc8       ??_C@_0FB@PCJEAJIB@?$CK?$CK?$CK?5Log?5variable?5?$CFs?5has?5wrapped?5@ 1003fcc8     rt_logging.obj
 0002:00001d30       ??_C@_0MG@NKMLMOGF@?$CK?$CK?$CK?5To?5avoid?5wrapping?0?5explicitl@ 1003fd30     rt_logging.obj
 0002:00001e20       ??_C@_0N@IPAEOLLP@_rtw_tmw?4tmw?$AA@ 1003fe20     rt_logging.obj
 0002:00001e30       ??_C@_04HDOCAJNK@?$CFs?$CFs?$AA@ 1003fe30     rt_logging.obj
 0002:00001e38       ??_C@_03ELIABIOC@w?$CLb?$AA@ 1003fe38     rt_logging.obj
 0002:00001e3c       ??_C@_0BF@JPILDDFA@?$CK?$CK?$CK?5Error?5opening?5?$CFs?$AA@ 1003fe3c     rt_logging.obj
 0002:00001e58       ??_C@_0BK@EEMDELA@unable?5to?5open?5data?5file?6?$AA@ 1003fe58     rt_logging.obj
 0002:00001e78       ??_C@_04CGFJFPFD@none?$AA@ 1003fe78     rt_logging.obj
 0002:00001e80       ??_C@_0EE@LCGFPNON@?$CK?$CK?$CK?5Error?5creating?5signals?5struc@ 1003fe80     rt_logging.obj
 0002:00001ed4       ??_C@_0CE@NHECEDMK@?$CK?$CK?$CK?5Error?5creating?5log?5variable?5@ 1003fed4     rt_logging.obj
 0002:00001f00       ??_C@_0DB@IOCGKAGH@?$CK?$CK?$CK?5Errors?5occurred?5when?5startin@ 1003ff00     rt_logging.obj
 0002:00001f3c       ??_C@_0BO@BBLOGEBK@?$CK?$CK?$CK?5Memory?5allocation?5error?4?6?$AA@ 1003ff3c     rt_logging.obj
 0002:00001f60       ??_C@_0N@LGFBAGEL@?5?$CIreal?5part?$CJ?$AA@ 1003ff60     rt_logging.obj
 0002:00001f70       ??_C@_0KH@CGNMHNFE@?5?5?5?5varName?5?5?5?5?5?5?5?5?5?5?$DN?5?$CFs?$CFs?6?5?5?5?5@ 1003ff70     rt_logging.obj
 0002:00002038       ??_C@_0LE@OALKKEFM@?5?5?5?5varName?5?5?5?5?5?5?5?5?5?5?$DN?5?$CFs?5?$CIcompl@ 10040038     rt_logging.obj
 0002:00002110       ??_C@_0KF@JDDLEOKO@?5?5?5?5varName?5?5?5?5?5?5?5?5?5?5?$DN?5?$CFs?6?5?5?5?5nR@ 10040110     rt_logging.obj
 0002:000021d8       ??_C@_0DP@HPDMIOFM@?$CK?$CK?$CK?5Using?5a?5default?5buffer?5of?5si@ 100401d8     rt_logging.obj
 0002:00002228       ??_C@_0KE@JEFOLKNF@?6?$CK?$CK?$CK?5Memory?5required?5to?5log?5vari@ 10040228     rt_logging.obj
 0002:000022f0       ??_C@_0JP@DKLMHCBI@?$CK?$CK?$CK?5Details?3?6?5?5?5?5?5?5?5varName?5?5?5?5?5@ 100402f0     rt_logging.obj
 0002:000023b0       ??_C@_0CM@CAMILBED@?$CK?$CK?$CK?5Error?5allocating?5memory?5for?5@ 100403b0     rt_logging.obj
 0002:000023e4       ??_C@_0DF@BBCNMOPM@?$CK?$CK?$CK?5Error?5allocating?5memory?5for?5@ 100403e4     rt_logging.obj
 0002:00002428       ??_C@_0JP@DBCLPCCI@?$CK?$CK?$CK?5Details?3?6?5?5?5?5?5?5?5varName?5?5?5?5?5@ 10040428     rt_logging.obj
 0002:000024e8       ??_C@_0FK@DPGAOBGA@?$CK?$CK?$CK?5Error?5allocating?5memory?5for?5@ 100404e8     rt_logging.obj
 0002:00002554       ??_C@_0BI@GGDNPHLJ@?$CK?$CK?$CK?5Error?5writing?5to?5?$CFs?$AA@ 10040554     rt_logging.obj
 0002:00002570       ??_C@_0CB@IBGJGELG@?$CK?$CK?$CK?5Error?5writing?5?$CFs?5due?5to?3?5?$CFs?6@ 10040570     rt_logging.obj
 0002:00002598       ??_C@_0CN@FLMCHCPB@?$CK?$CK?$CK?5Error?5writing?5log?5variable?5?$CF@ 10040598     rt_logging.obj
 0002:000025d0       ??_C@_0DH@GAJCNOJP@?$CK?$CK?$CK?5Error?5writing?5structure?5log?5@ 100405d0     rt_logging.obj
 0002:00002614       ??_C@_0BD@POEALECL@?$CK?$CK?5created?5?$CFs?5?$CK?$CK?6?6?$AA@ 10040614     rt_logging.obj
 0002:00002630       __real@0000000000000000    10040630     rt_logging.obj
 0002:00002640       __real@3ff0000000000000    10040640     rt_logging.obj
 0002:00002650       __real@4020000000000000    10040650     rt_logging.obj
 0002:00002660       __real@41dfffffffc00000    10040660     rt_logging.obj
 0002:00002670       __real@41efffffffe00000    10040670     rt_logging.obj
 0002:00002680       __real@4330000000000000    10040680     rt_logging.obj
 0002:00002690       __real@8000000000000000    10040690     rt_logging.obj
 0002:000026a0       __real@bfbf9add3afd2773    100406a0     rt_logging.obj
 0002:000026b0       __real@c000000000000000    100406b0     rt_logging.obj
 0002:000026c0       __xmm@20202020202020202020202020202020 100406c0     rt_logging.obj
 0002:000026f0       __real@3cb0000000000000    100406f0     rt_matrx.obj
 0002:00002700       __real@3fe0000000000000    10040700     rt_matrx.obj
 0002:0000270c       ??_C@_0BI@INNPNFJN@Memory?5Allocation?5Error?$AA@ 1004070c     rtw_modelmap_utils.obj
 0002:00002728       ??_C@_1HC@OAPLBLFC@?$AAC?$AA?3?$AA?2?$AAP?$AAR?$AAO?$AAG?$AAR?$AAA?$AA?$HO?$AA1?$AA?2?$AAM?$AAA?$AAT?$AAL?$AAA?$AAB?$AA?2?$AAR?$AA2?$AA0?$AA1?$AA6?$AAa?$AA?2?$AAr?$AAt?$AAw?$AA?2?$AAc?$AA?2@ 10040728     rtw_modelmap_utils.obj
 0002:000027b0       ??_C@_1CI@OEAJCJND@?$AAj?$AA?5?$AA?$DN?$AA?$DN?$AA?5?$AAe?$AAn?$AAc?$AAo?$AAd?$AAe?$AAd?$AAP?$AAa?$AAt?$AAh?$AAL?$AAe?$AAn?$AA?$AA@ 100407b0     rtw_modelmap_utils.obj
 0002:000027e0       ??_C@_1DC@NFAOIFKB@?$AAe?$AAn?$AAc?$AAo?$AAd?$AAe?$AAd?$AAP?$AAa?$AAt?$AAh?$AA?$FL?$AAj?$AA?9?$AA1?$AA?$FN?$AA?5?$AA?$DN?$AA?$DN?$AA?5?$AA?8?$AA?2?$AA0?$AA?8?$AA?$AA@ 100407e0     rtw_modelmap_utils.obj
 0002:0000281c       ??_C@_1DI@FLNJGPEE@?$AAs?$AAi?$AAg?$AAC?$AAo?$AAm?$AAp?$AAl?$AAe?$AAx?$AAi?$AAt?$AAy?$AA?$FL?$AA?$CK?$AAs?$AAi?$AAg?$AAI?$AAd?$AAx?$AA?$FN?$AA?5?$AA?$CB?$AA?$DN?$AA?5?$AA1?$AA?$AA@ 1004081c     rtw_modelmap_utils.obj
 0002:00002860       ??_C@_1KI@OFELMGBG@?$AA?$CI?$AA?$CI?$AA?$CI?$AAd?$AAa?$AAt?$AAa?$AAT?$AAy?$AAp?$AAe?$AAM?$AAa?$AAp?$AA?$CJ?$AA?$FL?$AA?$CI?$AA?$CI?$AA?$CI?$AAs?$AAt?$AAa?$AAt?$AAe?$AAs?$AA?$CJ?$AA?$FL?$AA?$CI?$AAi?$AA?$CJ?$AA?$FN?$AA?4@ 10040860     rtw_modelmap_utils.obj
 0002:0000292c       ??_C@_1DA@ILCMPHNE@?$AAf?$AAu?$AAl?$AAl?$AAP?$AAa?$AAt?$AAh?$AA?5?$AA?$CB?$AA?$DN?$AA?5?$AA?$CI?$AA?$CI?$AAv?$AAo?$AAi?$AAd?$AA?5?$AA?$CK?$AA?$CJ?$AA0?$AA?$CJ?$AA?$AA@ 1004092c     rtw_modelmap_utils.obj
 0002:00002968       ??_C@_1CI@OEPPFCCA@?$AAp?$AAa?$AAt?$AAh?$AA?5?$AA?$CB?$AA?$DN?$AA?5?$AA?$CI?$AA?$CI?$AAv?$AAo?$AAi?$AAd?$AA?5?$AA?$CK?$AA?$CJ?$AA0?$AA?$CJ?$AA?$AA@ 10040968     rtw_modelmap_utils.obj
 0002:00002998       ??_C@_1FK@GLJIMFHB@?$AA?$CI?$AA?$CI?$AAm?$AAm?$AAi?$AA?$CJ?$AA?9?$AA?$DO?$AAI?$AAn?$AAs?$AAt?$AAa?$AAn?$AAc?$AAe?$AAM?$AAa?$AAp?$AA?4?$AAf?$AAu?$AAl?$AAl?$AAP?$AAa?$AAt?$AAh?$AA?$CJ?$AA?5?$AA?$DN?$AA?$DN@ 10040998     rtw_modelmap_utils.obj
 0002:00002a04       ??_C@_1DG@HPCJGNCE@?$AAm?$AAm?$AAi?$AAP?$AAa?$AAt?$AAh?$AA?$FL?$AAp?$AAa?$AAt?$AAh?$AAL?$AAe?$AAn?$AA?9?$AA1?$AA?$FN?$AA?5?$AA?$DN?$AA?$DN?$AA?5?$AA?8?$AA?2?$AA0?$AA?8?$AA?$AA@ 10040a04     rtw_modelmap_utils.obj
 0002:00002a44       ??_C@_1DM@DBAOGGOO@?$AAm?$AAm?$AAi?$AAP?$AAa?$AAt?$AAh?$AA?$FL?$AAm?$AAm?$AAi?$AAP?$AAa?$AAt?$AAh?$AAL?$AAe?$AAn?$AA?9?$AA1?$AA?$FN?$AA?5?$AA?$DN?$AA?$DN?$AA?5?$AA?8?$AA?2?$AA0?$AA?8?$AA?$AA@ 10040a44     rtw_modelmap_utils.obj
 0002:00002a8c       ??_C@_1DC@LHIAKAFE@?$AAb?$AAl?$AAo?$AAc?$AAk?$AAP?$AAa?$AAt?$AAh?$AA?5?$AA?$CB?$AA?$DN?$AA?5?$AA?$CI?$AA?$CI?$AAv?$AAo?$AAi?$AAd?$AA?5?$AA?$CK?$AA?$CJ?$AA0?$AA?$CJ?$AA?$AA@ 10040a8c     rtw_modelmap_utils.obj
 0002:00002ac8       ??_C@_1GI@KIEJKPGC@?$AAf?$AAu?$AAl?$AAl?$AAS?$AAt?$AAa?$AAt?$AAe?$AAB?$AAl?$AAo?$AAc?$AAk?$AAP?$AAa?$AAt?$AAh?$AA?$FL?$AAf?$AAu?$AAl?$AAl?$AAS?$AAt?$AAa?$AAt?$AAe?$AAB?$AAl?$AAo?$AAc@ 10040ac8     rtw_modelmap_utils.obj
 0002:00002b48       ??_C@_1EE@DNPIBJHC@?$AA?$CI?$AA?$CI?$AAd?$AAi?$AAm?$AAM?$AAa?$AAp?$AA?$CJ?$AA?$FL?$AA?$CI?$AAm?$AAa?$AAp?$AAI?$AAd?$AAx?$AA?$CJ?$AA?$FN?$AA?4?$AAn?$AAu?$AAm?$AAD?$AAi?$AAm?$AAs?$AA?$CJ?$AA?5?$AA?$DN?$AA?$DN?$AA?5@ 10040b48     rtw_modelmap_utils.obj
 0002:00002b9c       ??_C@_06JFOKFOED@CSTATE?$AA@ 10040b9c     rtw_modelmap_utils.obj
 0002:00002ba4       ??_C@_06FAENGAMN@DSTATE?$AA@ 10040ba4     rtw_modelmap_utils.obj
 0002:00002bac       ??_C@_1BI@LEBJNOGG@?$AAc?$AAs?$AAv?$AAI?$AAd?$AAx?$AA?5?$AA?$DO?$AA?$DN?$AA?5?$AA0?$AA?$AA@ 10040bac     rtw_modelmap_utils.obj
 0002:00002bc8       ??_C@_1BA@KDMGHCHP@?$AAT?$AAI?$AAD?$AA?$DN?$AA?$DN?$AA?9?$AA1?$AA?$AA@ 10040bc8     rtw_modelmap_utils.obj
 0002:00002bdc       ??_C@_1DM@DHGKBPCE@?$AAs?$AAi?$AAg?$AAP?$AAa?$AAt?$AAh?$AA?$FL?$AAs?$AAi?$AAg?$AAP?$AAa?$AAt?$AAh?$AAL?$AAe?$AAn?$AA?9?$AA1?$AA?$FN?$AA?5?$AA?$DN?$AA?$DN?$AA?5?$AA?8?$AA?2?$AA0?$AA?8?$AA?$AA@ 10040bdc     rtw_modelmap_utils.obj
 0002:00002c24       _serialfifoground          10040c24     xpc_datatype_ground.obj
 0002:00002c30       _bcmsg1553ground           10040c30     xpc_datatype_ground.obj
 0002:00002c40       _bcstatground              10040c40     xpc_datatype_ground.obj
 0002:00002c58       _bmmsg1553ground           10040c58     xpc_datatype_ground.obj
 0002:00002c78       ??_C@_0N@CDFFAIED@backup_test1?$AA@ 10040c78     xpctarget.obj
 0002:00002c88       _ptsetfilename             10040c88     xpctarget.obj
 0002:00002c8c       _xmlfile                   10040c8c     xpctarget.obj
 0002:00002c94       ??_C@_0L@CHBJKKFC@xpceSetVar?$AA@ 10040c94     xpctarget.obj
 0002:00002ca4       ??_C@_03ICACBPID@6?44?$AA@ 10040ca4     xpctarget.obj
 0002:00002ca8       __real@3fb999999999999a    10040ca8     xpctarget.obj
 0002:00002cb8       __real@408f400000000000    10040cb8     xpctarget.obj
 0002:00002cc8       _backup_test1_BIOMAP       10040cc8     appmappingData.obj
 0002:00002cf8       _backup_test1_LBLMAP       10040cf8     appmappingData.obj
 0002:00002d28       _backup_test1_SIDMAP       10040d28     appmappingData.obj
 0002:00002d58       _backup_test1_SBIO         10040d58     appmappingData.obj
 0002:00002d68       _backup_test1_SLBL         10040d68     appmappingData.obj
 0002:00002d78       _backup_test1_PTIDSMAP     10040d78     appmappingData.obj
 0002:00002ee0       _backup_test1_PTNAMESMAP   10040ee0     appmappingData.obj
 0002:00003048       _backup_test1_SPTMAP       10041048     appmappingData.obj
 0002:000030fc       _backup_test1_dtmap        100410fc     appmappingData.obj
 0002:00003108       _appInfo                   10041108     appmappingData.obj
 0002:00003240       ??_C@_0ED@LKHIFFLC@Wrong?5number?5of?5input?5arguments?5@ 10041240     dacbpcidda0x12.obj
 0002:00003290       ??_C@_0BA@MBPMNBMJ@CB?5PCI?9DDA02?112?$AA@ 10041290     dacbpcidda0x12.obj
 0002:000032a4       ??_C@_0BA@EOLMCEGJ@CB?5PCI?9DDA04?112?$AA@ 100412a4     dacbpcidda0x12.obj
 0002:000032b8       ??_C@_0BA@ILEMMJGI@CB?5PCI?9DDA08?112?$AA@ 100412b8     dacbpcidda0x12.obj
 0002:000032cc       ??_C@_0BA@KFJABEMN@CB?5PCI?9DDA02?116?$AA@ 100412cc     dacbpcidda0x12.obj
 0002:000032e0       ??_C@_0BA@CKNAOBGN@CB?5PCI?9DDA04?116?$AA@ 100412e0     dacbpcidda0x12.obj
 0002:000032f4       ??_C@_0BA@OPCAAMGM@CB?5PCI?9DDA08?116?$AA@ 100412f4     dacbpcidda0x12.obj
 0002:00003308       ??_C@_0BB@IGAELBME@CB?5PCIM?9DDA06?116?$AA@ 10041308     dacbpcidda0x12.obj
 0002:0000331c       ??_C@_0BD@IPMBHKCA@CB?5PCIM?9DAS1602?116?$AA@ 1004131c     dacbpcidda0x12.obj
 0002:00003334       ??_C@_0BG@EPCOHGPO@?$CFs?3?5board?5not?5present?$AA@ 10041334     dacbpcidda0x12.obj
 0002:00003350       ??_C@_0CI@NFFNBHJA@?$CFs?5?$CIbus?5?$CFd?0?5slot?5?$CFd?$CJ?3?5board?5not?5@ 10041350     dacbpcidda0x12.obj
 0002:00003380       __real@3ee4f8b588e368f1    10041380     dacbpcidda0x12.obj
 0002:00003390       __real@4004000000000000    10041390     dacbpcidda0x12.obj
 0002:000033a0       __real@4014000000000000    100413a0     dacbpcidda0x12.obj
 0002:000033b0       __real@4024000000000000    100413b0     dacbpcidda0x12.obj
 0002:000033c0       __real@4034000000000000    100413c0     dacbpcidda0x12.obj
 0002:000033d0       __real@40b0000000000000    100413d0     dacbpcidda0x12.obj
 0002:000033e0       __real@40f0000000000000    100413e0     dacbpcidda0x12.obj
 0002:000033ec       ??_C@_0BC@JCHLEIED@MC?5PCI?9DAS1602?116?$AA@ 100413ec     dipci8255.obj
 0002:00003404       ??_C@_0P@KEALKDG@MC?5PCI?9DAS1200?$AA@ 10041404     dipci8255.obj
 0002:00003418       ??_C@_0BC@EFMBBGCC@MC?5PCI?9DAS1200?1JR?$AA@ 10041418     dipci8255.obj
 0002:00003430       ??_C@_0O@PCCBFPNG@MC?5PCI?9DIO48H?$AA@ 10041430     dipci8255.obj
 0002:00003440       ??_C@_0BA@FIIFPMIK@MC?5PCI?9DDA02?112?$AA@ 10041440     dipci8255.obj
 0002:00003454       ??_C@_0BA@NHMFAJCK@MC?5PCI?9DDA04?112?$AA@ 10041454     dipci8255.obj
 0002:00003468       ??_C@_0BA@BCDFOECL@MC?5PCI?9DDA08?112?$AA@ 10041468     dipci8255.obj
 0002:0000347c       ??_C@_0O@NOFAPJGO@MC?5PCI?9DIO24H?$AA@ 1004147c     dipci8255.obj
 0002:0000348c       ??_C@_0O@KNFKKAB@MC?5PCI?9DIO96H?$AA@ 1004148c     dipci8255.obj
 0002:0000349c       ??_C@_0N@JDGAGCEP@MC?5PCI?9DIO24?$AA@ 1004149c     dipci8255.obj
 0002:000034ac       ??_C@_0BC@PGBHINEH@MC?5PCI?9DAS1602?112?$AA@ 100414ac     dipci8255.obj
 0002:000034c4       ??_C@_0M@DJFFBOOL@NI?5PCI?96503?$AA@ 100414c4     dipci8255.obj
 0002:000034d4       ??_C@_0O@CJHADKHB@NI?5PCI?9DIO?996?$AA@ 100414d4     dipci8255.obj
 0002:000034e4       ??_C@_0M@PLHAOKFN@NI?5PXI?96508?$AA@ 100414e4     dipci8255.obj
 0002:000034f4       ??_C@_0N@NMILOOOH@NI?5PCI?96025E?$AA@ 100414f4     dipci8255.obj
 0002:00003504       ??_C@_0BA@LFAJKKBP@MC?5PCI?9DUAL?9AC5?$AA@ 10041504     dipci8255.obj
 0002:00003518       ??_C@_0BA@DMOJDJIO@MC?5PCI?9DDA02?116?$AA@ 10041518     dipci8255.obj
 0002:0000352c       ??_C@_0BA@LDKJMMCO@MC?5PCI?9DDA04?116?$AA@ 1004152c     dipci8255.obj
 0002:00003540       ??_C@_0BA@HGFJCBCP@MC?5PCI?9DDA08?116?$AA@ 10041540     dipci8255.obj
 0002:00003554       ??_C@_0BB@GJEINIMD@MC?5PCIM?9DDA06?116?$AA@ 10041554     dipci8255.obj
 0002:00003568       ??_C@_0BD@PEOONKFH@MC?5PCIM?9DAS1602?116?$AA@ 10041568     dipci8255.obj
 0002:00003580       ??_C@_0N@KNADOPCM@MC?5PCI?9DIO96?$AA@ 10041580     dipci8255.obj
 0002:00003590       ??_C@_0P@LJFCEDPM@MC?5PCI?9DAS1001?$AA@ 10041590     dipci8255.obj
 0002:000035a4       ??_C@_0P@JCHPBADP@MC?5PCI?9DAS1002?$AA@ 100415a4     dipci8255.obj
 0002:000035b8       ??_C@_0BI@IHCNPKCM@No?5?$CFs?5at?5bus?5?$CFd?5slot?5?$CFd?$AA@ 100415b8     dipci8255.obj
 0002:000035d4       ??_C@_0BC@MPAJBIJ@CB?5PCI?9DAS1602?116?$AA@ 100415d4     dopci8255.obj
 0002:000035ec       ??_C@_0P@HKDMEDDF@CB?5PCI?9DAS1200?$AA@ 100415ec     dopci8255.obj
 0002:00003600       ??_C@_0BC@NLEKMPOI@CB?5PCI?9DAS1200?1JR?$AA@ 10041600     dopci8255.obj
 0002:00003618       ??_C@_0O@OECMNDND@CB?5PCI?9DIO48H?$AA@ 10041618     dopci8255.obj
 0002:00003628       ??_C@_0O@MIFNHFGL@CB?5PCI?9DIO24H?$AA@ 10041628     dopci8255.obj
 0002:00003638       ??_C@_0O@BMNICGAE@CB?5PCI?9DIO96H?$AA@ 10041638     dopci8255.obj
 0002:00003648       ??_C@_0N@PCCDCCJA@CB?5PCI?9DIO24?$AA@ 10041648     dopci8255.obj
 0002:00003658       ??_C@_0BC@GIJMFEIN@CB?5PCI?9DAS1602?112?$AA@ 10041658     dopci8255.obj
 0002:00003670       ??_C@_0BA@CMHAIHFM@CB?5PCI?9DUAL?9AC5?$AA@ 10041670     dopci8255.obj
 0002:00003684       ??_C@_0N@MMEAKPPD@CB?5PCI?9DIO96?$AA@ 10041684     dopci8255.obj
 0002:00003694       ??_C@_0BE@MDOBOAKD@CB?5?$CIMC?$CJ?5PCI?9DAS1001?$AA@ 10041694     dopci8255.obj
 0002:000036ac       ??_C@_0BE@OIMMLDGA@CB?5?$CIMC?$CJ?5PCI?9DAS1002?$AA@ 100416ac     dopci8255.obj
 0002:000036c4       ??_C@_0CJ@MHHCOHM@Board?5base?5address?5came?5up?50?0?5ca@ 100416c4     dopci8255.obj
 0002:000036f8       ??_C@_0CC@DMFKNLL@VendorId?5?$DN?50x?$CFx?0?5DeviceId?5?$DN?50x?$CFx@ 100416f8     xpcruntime:xpcimports.obj
 0002:0000371c       ??_C@_0DH@OHCBLNMG@Subsystem?5Device?5ID?5?$DN?50x?$CFx?6Subsy@ 1004171c     xpcruntime:xpcimports.obj
 0002:00003754       ??_C@_0BD@MMMMEFCM@Class?5Code?5?$DN?50x?$CFx?6?$AA@ 10041754     xpcruntime:xpcimports.obj
 0002:00003768       ??_C@_0BE@OLDDDNHM@InterruptLine?5?$DN?5?$CFd?6?$AA@ 10041768     xpcruntime:xpcimports.obj
 0002:0000377c       ??_C@_0BF@OLKLEKBD@bus?5?$DN?5?$CFd?0?5slot?5?$DN?5?$CFd?6?$AA@ 1004177c     xpcruntime:xpcimports.obj
 0002:00003794       ??_C@_0CE@DGLLGDFH@?5?5?5?5Phys?5?5?5Virtual?5?5?5Length?5IO?1M@ 10041794     xpcruntime:xpcimports.obj
 0002:000037b8       ??_C@_0BI@FEOPLEMG@?$CF08x?5?$CF08x?5?$CF08x?5?5?5?5?5?5?$CFc?6?$AA@ 100417b8     xpcruntime:xpcimports.obj
 0002:000037d0       ??_C@_0BB@BNNCEDPC@rl32eScopeExists?$AA@ 100417d0     xpcruntime:xpcimports.obj
 0002:000037e4       ??_C@_0BM@FJBFEGFG@rl32eScopeExists?5not?5found?6?$AA@ 100417e4     xpcruntime:xpcimports.obj
 0002:00003800       ??_C@_0O@BNNGKJEA@rl32eDefScope?$AA@ 10041800     xpcruntime:xpcimports.obj
 0002:00003810       ??_C@_0BJ@CDNOENKA@rl32eDefScope?5not?5found?6?$AA@ 10041810     xpcruntime:xpcimports.obj
 0002:0000382c       ??_C@_0P@CKNKILDP@rl32eAddSignal?$AA@ 1004182c     xpcruntime:xpcimports.obj
 0002:0000383c       ??_C@_0BK@GMJAJBAI@rl32eAddSignal?5not?5found?6?$AA@ 1004183c     xpcruntime:xpcimports.obj
 0002:00003858       ??_C@_0BB@LDMIHGCE@rl32eGetSignalNo?$AA@ 10041858     xpcruntime:xpcimports.obj
 0002:0000386c       ??_C@_0BM@LGAMBAID@rl32eGetSignalNo?5not?5found?6?$AA@ 1004186c     xpcruntime:xpcimports.obj
 0002:00003888       ??_C@_0O@CFDGALBP@rl32eSetScope?$AA@ 10041888     xpcruntime:xpcimports.obj
 0002:00003898       ??_C@_0BJ@JCLHHIN@rl32eSetScope?5not?5found?6?$AA@ 10041898     xpcruntime:xpcimports.obj
 0002:000038b4       ??_C@_0P@IKMCBMHH@xpceFSScopeSet?$AA@ 100418b4     xpcruntime:xpcimports.obj
 0002:000038c4       ??_C@_0BK@JODJPNNH@xpceFSScopeSet?5not?5found?6?$AA@ 100418c4     xpcruntime:xpcimports.obj
 0002:000038e0       ??_C@_0BE@DLACEEJM@rl32eSetTargetScope?$AA@ 100418e0     xpcruntime:xpcimports.obj
 0002:000038f4       ??_C@_0BP@JCHFMKPJ@rl32eSetTargetScope?5not?5found?6?$AA@ 100418f4     xpcruntime:xpcimports.obj
 0002:00003914       ??_C@_0BJ@LIDLNDHC@rl32eSetTargetScopeSigFt?$AA@ 10041914     xpcruntime:xpcimports.obj
 0002:00003930       ??_C@_0CE@JLGHCFHI@rl32eSetTargetScopeSigFt?5not?5fou@ 10041930     xpcruntime:xpcimports.obj
 0002:00003954       ??_C@_0BI@JAPOIDNG@rl32eRestartAcquisition?$AA@ 10041954     xpcruntime:xpcimports.obj
 0002:0000396c       ??_C@_0CD@LLBEFFBO@rl32eRestartAcquisition?5not?5foun@ 1004196c     xpcruntime:xpcimports.obj
 0002:00003990       ??_C@_0P@IEIIADJB@xpceScopeAcqOK?$AA@ 10041990     xpcruntime:xpcimports.obj
 0002:000039a0       ??_C@_0BK@NJCKNFPN@xpceScopeAcqOK?5not?5found?6?$AA@ 100419a0     xpcruntime:xpcimports.obj
 0002:000039bc       ??_C@_0BA@IJINKAHF@xpceRegisterISR?$AA@ 100419bc     xpcruntime:xpcimports.obj
 0002:000039cc       ??_C@_0BL@NNDLOEJE@xpceRegisterISR?5not?5found?6?$AA@ 100419cc     xpcruntime:xpcimports.obj
 0002:000039e8       ??_C@_0BC@NLBADGKF@xpceDeRegisterISR?$AA@ 100419e8     xpcruntime:xpcimports.obj
 0002:000039fc       ??_C@_0BN@DCAIKFFD@xpceDeRegisterISR?5not?5found?6?$AA@ 100419fc     xpcruntime:xpcimports.obj
 0002:00003a1c       ??_C@_0P@CPGPNKEB@xpceFTReadTime?$AA@ 10041a1c     xpcruntime:xpcimports.obj
 0002:00003a2c       ??_C@_0BK@NMABIODN@xpceFTReadTime?5not?5found?6?$AA@ 10041a2c     xpcruntime:xpcimports.obj
 0002:00003a48       ??_C@_09PHNHCHFH@xpceFTAdd?$AA@ 10041a48     xpcruntime:xpcimports.obj
 0002:00003a54       ??_C@_0BF@FJLEIILA@xpceFTAdd?5not?5found?6?$AA@ 10041a54     xpcruntime:xpcimports.obj
 0002:00003a6c       ??_C@_0P@KEODBLHO@xpceFTSubtract?$AA@ 10041a6c     xpcruntime:xpcimports.obj
 0002:00003a7c       ??_C@_0BK@HONODOKP@xpceFTSubtract?5not?5found?6?$AA@ 10041a7c     xpcruntime:xpcimports.obj
 0002:00003a98       ??_C@_07JPMEPILD@xpcInpB?$AA@ 10041a98     xpcruntime:xpcimports.obj
 0002:00003aa0       ??_C@_0BD@PGABEJOL@xpcInpB?5not?5found?6?$AA@ 10041aa0     xpcruntime:xpcimports.obj
 0002:00003ab4       ??_C@_07KIHBBOKH@xpcInpW?$AA@ 10041ab4     xpcruntime:xpcimports.obj
 0002:00003abc       ??_C@_0BD@FPCJFMCC@xpcInpW?5not?5found?6?$AA@ 10041abc     xpcruntime:xpcimports.obj
 0002:00003ad0       ??_C@_08KDIAJBOP@xpcInpDW?$AA@ 10041ad0     xpcruntime:xpcimports.obj
 0002:00003adc       ??_C@_0BE@PIELDNIL@xpcInpDW?5not?5found?6?$AA@ 10041adc     xpcruntime:xpcimports.obj
 0002:00003af0       ??_C@_08PJFMOIGO@xpcOutpB?$AA@ 10041af0     xpcruntime:xpcimports.obj
 0002:00003afc       ??_C@_0BE@HCKNCEKF@xpcOutpB?5not?5found?6?$AA@ 10041afc     xpcruntime:xpcimports.obj
 0002:00003b10       ??_C@_08MOOJAOHK@xpcOutpW?$AA@ 10041b10     xpcruntime:xpcimports.obj
 0002:00003b1c       ??_C@_0BE@NLIFDBGM@xpcOutpW?5not?5found?6?$AA@ 10041b1c     xpcruntime:xpcimports.obj
 0002:00003b30       ??_C@_09FLIEKHJG@xpcOutpDW?$AA@ 10041b30     xpcruntime:xpcimports.obj
 0002:00003b3c       ??_C@_0BF@GJKLPNHB@xpcOutpDW?5not?5found?6?$AA@ 10041b3c     xpcruntime:xpcimports.obj
 0002:00003b54       ??_C@_0BH@EHOLELHH@xpcReserveMemoryRegion?$AA@ 10041b54     xpcruntime:xpcimports.obj
 0002:00003b6c       ??_C@_0CC@KAAAGPI@xpcReserveMemoryRegion?5not?5found@ 10041b6c     xpcruntime:xpcimports.obj
 0002:00003b90       ??_C@_0BA@JGPMHGAF@rl32eShowPCIDev?$AA@ 10041b90     xpcruntime:xpcimports.obj
 0002:00003ba0       ??_C@_0BL@DDFFLNHI@rl32eShowPCIDev?5not?5found?6?$AA@ 10041ba0     xpcruntime:xpcimports.obj
 0002:00003bbc       ??_C@_0BB@KBCOJPFB@rl32eShowPCIInfo?$AA@ 10041bbc     xpcruntime:xpcimports.obj
 0002:00003bd0       ??_C@_0BM@IFDMAGLO@rl32eShowPCIInfo?5not?5found?6?$AA@ 10041bd0     xpcruntime:xpcimports.obj
 0002:00003bec       ??_C@_0BA@BGPAADB@rl32eGetPCIInfo?$AA@ 10041bec     xpcruntime:xpcimports.obj
 0002:00003bfc       ??_C@_0BL@IGOMLDCK@rl32eGetPCIInfo?5not?5found?6?$AA@ 10041bfc     xpcruntime:xpcimports.obj
 0002:00003c18       ??_C@_0BG@NJPFKFDP@rl32eGetPCIInfoAtSlot?$AA@ 10041c18     xpcruntime:xpcimports.obj
 0002:00003c30       ??_C@_0CB@BBKIPMLA@rl32eGetPCIInfoAtSlot?5not?5found?6@ 10041c30     xpcruntime:xpcimports.obj
 0002:00003c54       ??_C@_0BH@OKBOPNFG@xpceAssignPCIInterrupt?$AA@ 10041c54     xpcruntime:xpcimports.obj
 0002:00003c6c       ??_C@_0CC@CDNDNJBJ@xpceAssignPCIInterrupt?5not?5found@ 10041c6c     xpcruntime:xpcimports.obj
 0002:00003c90       ??_C@_0BB@FCHHFAAH@rl32eInitCOMPort?$AA@ 10041c90     xpcruntime:xpcimports.obj
 0002:00003ca4       ??_C@_0BM@DDJGKAHB@rl32eInitCOMPort?5not?5found?6?$AA@ 10041ca4     xpcruntime:xpcimports.obj
 0002:00003cc0       ??_C@_0BC@CHEEFCP@rl32eCloseCOMPort?$AA@ 10041cc0     xpcruntime:xpcimports.obj
 0002:00003cd4       ??_C@_0BN@KCOFELEM@rl32eCloseCOMPort?5not?5found?6?$AA@ 10041cd4     xpcruntime:xpcimports.obj
 0002:00003cf4       ??_C@_0O@LLJGKFOG@rl32eSendChar?$AA@ 10041cf4     xpcruntime:xpcimports.obj
 0002:00003d04       ??_C@_0BJ@JCJKDACJ@rl32eSendChar?5not?5found?6?$AA@ 10041d04     xpcruntime:xpcimports.obj
 0002:00003d20       ??_C@_0BB@OMFKCOEK@rl32eReceiveChar?$AA@ 10041d20     xpcruntime:xpcimports.obj
 0002:00003d34       ??_C@_0BM@HGAIOAND@rl32eReceiveChar?5not?5found?6?$AA@ 10041d34     xpcruntime:xpcimports.obj
 0002:00003d50       ??_C@_0BI@PKEJFHMJ@rl32eReceiveBufferCount?$AA@ 10041d50     xpcruntime:xpcimports.obj
 0002:00003d68       ??_C@_0CD@LNMOFLAH@rl32eReceiveBufferCount?5not?5foun@ 10041d68     xpcruntime:xpcimports.obj
 0002:00003d8c       ??_C@_0BA@CFIJOJPK@rl32eLineStatus?$AA@ 10041d8c     xpcruntime:xpcimports.obj
 0002:00003d9c       ??_C@_0BL@PLIDKKGI@rl32eLineStatus?5not?5found?6?$AA@ 10041d9c     xpcruntime:xpcimports.obj
 0002:00003db8       ??_C@_0P@MDMKIJF@rl32eSendBlock?$AA@ 10041db8     xpcruntime:xpcimports.obj
 0002:00003dc8       ??_C@_0BK@KNBNFIKH@rl32eSendBlock?5not?5found?6?$AA@ 10041dc8     xpcruntime:xpcimports.obj
 0002:00003de4       ??_C@_0BD@PCKOKHO@xpceGetSignalValue?$AA@ 10041de4     xpcruntime:xpcimports.obj
 0002:00003df8       ??_C@_0BO@GCBDJHMB@xpceGetSignalValue?5not?5found?6?$AA@ 10041df8     xpcruntime:xpcimports.obj
 0002:00003e18       ??_C@_0BB@BJONJAGA@xpceSetParameter?$AA@ 10041e18     xpcruntime:xpcimports.obj
 0002:00003e2c       ??_C@_0BM@BJIKDLHA@xpceSetParameter?5not?5found?6?$AA@ 10041e2c     xpcruntime:xpcimports.obj
 0002:00003e48       ??_C@_0BB@GNFDFMCM@xpceGetParameter?$AA@ 10041e48     xpcruntime:xpcimports.obj
 0002:00003e5c       ??_C@_0BM@POHNKBC@xpceGetParameter?5not?5found?6?$AA@ 10041e5c     xpcruntime:xpcimports.obj
 0002:00003e78       ??_C@_0BB@CEIJLFCD@xpceGetParamDims?$AA@ 10041e78     xpcruntime:xpcimports.obj
 0002:00003e8c       ??_C@_0BM@OABDBKAO@xpceGetParamDims?5not?5found?6?$AA@ 10041e8c     xpcruntime:xpcimports.obj
 0002:00003ea8       ??_C@_0L@OCBLLHBM@xpceGetTET?$AA@ 10041ea8     xpcruntime:xpcimports.obj
 0002:00003eb4       ??_C@_0BG@HNOFBOB@xpceGetTET?5not?5found?6?$AA@ 10041eb4     xpcruntime:xpcimports.obj
 0002:00003ecc       ??_C@_0BA@FHMIOKFL@xpceUDPOpenSend?$AA@ 10041ecc     xpcruntime:xpcimports.obj
 0002:00003edc       ??_C@_0BL@HNLPFEK@xpceUDPOpenSend?5not?5found?6?$AA@ 10041edc     xpcruntime:xpcimports.obj
 0002:00003ef8       ??_C@_0BD@BCELJJJL@xpceUDPOpenReceive?$AA@ 10041ef8     xpcruntime:xpcimports.obj
 0002:00003f0c       ??_C@_0BO@IFKJBHKC@xpceUDPOpenReceive?5not?5found?6?$AA@ 10041f0c     xpcruntime:xpcimports.obj
 0002:00003f2c       ??_C@_0M@OFPFLJGN@xpceUDPSend?$AA@ 10041f2c     xpcruntime:xpcimports.obj
 0002:00003f38       ??_C@_0BH@NOIKLPAB@xpceUDPSend?5not?5found?6?$AA@ 10041f38     xpcruntime:xpcimports.obj
 0002:00003f50       ??_C@_0P@PLFDECIN@xpceUDPReceive?$AA@ 10041f50     xpcruntime:xpcimports.obj
 0002:00003f60       ??_C@_0BK@OPJMLDLH@xpceUDPReceive?5not?5found?6?$AA@ 10041f60     xpcruntime:xpcimports.obj
 0002:00003f7c       ??_C@_0N@IEHPMFME@xpceUDPClose?$AA@ 10041f7c     xpcruntime:xpcimports.obj
 0002:00003f8c       ??_C@_0BI@FHPFHECO@xpceUDPClose?5not?5found?6?$AA@ 10041f8c     xpcruntime:xpcimports.obj
 0002:00003fa4       ??_C@_0P@OKGNGAGH@xpcIsModelInit?$AA@ 10041fa4     xpcruntime:xpcimports.obj
 0002:00003fb4       ??_C@_0BK@DHEMLBIM@xpcIsModelInit?5not?5found?6?$AA@ 10041fb4     xpcruntime:xpcimports.obj
 0002:00003fd0       ??_C@_0BH@KJJLCAOJ@xpcAllocPhysicalMemory?$AA@ 10041fd0     xpcruntime:xpcimports.obj
 0002:00003fe8       ??_C@_0CC@MOJPNHKL@xpcAllocPhysicalMemory?5not?5found@ 10041fe8     xpcruntime:xpcimports.obj
 0002:0000400c       ??_C@_0BG@CBNPGAEL@xpcFreePhysicalMemory?$AA@ 1004200c     xpcruntime:xpcimports.obj
 0002:00004024       ??_C@_0CB@PKJEBPOG@xpcFreePhysicalMemory?5not?5found?6@ 10042024     xpcruntime:xpcimports.obj
 0002:00004048       ??_C@_0BC@JGKNLICL@xpcGetElapsedTime?$AA@ 10042048     xpcruntime:xpcimports.obj
 0002:0000405c       ??_C@_0BN@OEOAHCIO@xpcGetElapsedTime?5not?5found?6?$AA@ 1004205c     xpcruntime:xpcimports.obj
 0002:0000407c       ??_C@_0M@ICBLMODA@xpcBusyWait?$AA@ 1004207c     xpcruntime:xpcimports.obj
 0002:00004088       ??_C@_0BH@FBOPECBI@xpcBusyWait?5not?5found?6?$AA@ 10042088     xpcruntime:xpcimports.obj
 0002:000040a0       ??_C@_0N@LKKJEKKA@TBCreateSpin?$AA@ 100420a0     xpcruntime:xpcimports.obj
 0002:000040b0       ??_C@_0BI@FHKMLKOE@TBCreateSpin?5not?5found?6?$AA@ 100420b0     xpcruntime:xpcimports.obj
 0002:000040c8       ??_C@_0N@HOAJHNBD@TBDeleteSpin?$AA@ 100420c8     xpcruntime:xpcimports.obj
 0002:000040d8       ??_C@_0BI@BKCPAAG@TBDeleteSpin?5not?5found?6?$AA@ 100420d8     xpcruntime:xpcimports.obj
 0002:000040f0       ??_C@_0P@DAHDDBJG@TBTakeSpinFast?$AA@ 100420f0     xpcruntime:xpcimports.obj
 0002:00004100       ??_C@_0BK@NKAIBHGB@TBTakeSpinFast?5not?5found?6?$AA@ 10042100     xpcruntime:xpcimports.obj
 0002:0000411c       ??_C@_0P@FKNAAELA@TBGiveSpinFast?$AA@ 1004211c     xpcruntime:xpcimports.obj
 0002:0000412c       ??_C@_0BK@KGPJBJND@TBGiveSpinFast?5not?5found?6?$AA@ 1004212c     xpcruntime:xpcimports.obj
 0002:00004148       ??_C@_0BE@IIGBFDHK@xpceCreateSemaphore?$AA@ 10042148     xpcruntime:xpcimports.obj
 0002:0000415c       ??_C@_0BP@KFBAFFKJ@xpceCreateSemaphore?5not?5found?6?$AA@ 1004215c     xpcruntime:xpcimports.obj
 0002:0000417c       ??_C@_0BC@IFNIONKJ@xpceWaitSemaphore?$AA@ 1004217c     xpcruntime:xpcimports.obj
 0002:00004190       ??_C@_0BN@NMFAADIO@xpceWaitSemaphore?5not?5found?6?$AA@ 10042190     xpcruntime:xpcimports.obj
 0002:000041b0       ??_C@_0BE@NNDIOBKE@xpceSignalSemaphore?$AA@ 100421b0     xpcruntime:xpcimports.obj
 0002:000041c4       ??_C@_0BP@LBANMHJP@xpceSignalSemaphore?5not?5found?6?$AA@ 100421c4     xpcruntime:xpcimports.obj
 0002:000041e4       ??_C@_0BE@MEBEKOIM@xpceDeleteSemaphore?$AA@ 100421e4     xpcruntime:xpcimports.obj
 0002:000041f8       ??_C@_0BP@OFNCKOJH@xpceDeleteSemaphore?5not?5found?6?$AA@ 100421f8     xpcruntime:xpcimports.obj
 0002:00004218       ??_C@_0BD@MFNDMBOF@FindUsbVideoDevice?$AA@ 10042218     xpcruntime:xpcimports.obj
 0002:0000422c       ??_C@_0BO@POKLDHMI@FindUsbVideoDevice?5not?5found?6?$AA@ 1004222c     xpcruntime:xpcimports.obj
 0002:0000424c       ??_C@_0BA@PLPAPNAB@GetVideoConfigs?$AA@ 1004224c     xpcruntime:xpcimports.obj
 0002:0000425c       ??_C@_0BL@DALDHKHC@GetVideoConfigs?5not?5found?6?$AA@ 1004225c     xpcruntime:xpcimports.obj
 0002:00004278       ??_C@_0L@GBAEMHMH@StartVideo?$AA@ 10042278     xpcruntime:xpcimports.obj
 0002:00004284       ??_C@_0BG@HDCELEBP@StartVideo?5not?5found?6?$AA@ 10042284     xpcruntime:xpcimports.obj
 0002:0000429c       ??_C@_0BA@FDNPOCLN@ReadFrameBuffer?$AA@ 1004229c     xpcruntime:xpcimports.obj
 0002:000042ac       ??_C@_0BL@JHGHPNBI@ReadFrameBuffer?5not?5found?6?$AA@ 100422ac     xpcruntime:xpcimports.obj
 0002:000042c8       ??_C@_09FAHCLKAG@StopVideo?$AA@ 100422c8     xpcruntime:xpcimports.obj
 0002:000042d4       ??_C@_0BF@NKGKKADL@StopVideo?5not?5found?6?$AA@ 100422d4     xpcruntime:xpcimports.obj
 0002:000042ec       ??_C@_0O@MCPKDLLL@ConvertUImage?$AA@ 100422ec     xpcruntime:xpcimports.obj
 0002:000042fc       ??_C@_0BJ@PHJKOAFL@ConvertUImage?5not?5found?6?$AA@ 100422fc     xpcruntime:xpcimports.obj
 0002:00004318       ??_C@_0BD@NKCBPBJJ@CreateVideoDisplay?$AA@ 10042318     xpcruntime:xpcimports.obj
 0002:0000432c       ??_C@_0BO@HPPLLNFP@CreateVideoDisplay?5not?5found?6?$AA@ 1004232c     xpcruntime:xpcimports.obj
 0002:0000434c       ??_C@_0BE@KJCKGPHA@DestroyVideoDisplay?$AA@ 1004234c     xpcruntime:xpcimports.obj
 0002:00004360       ??_C@_0BP@FMGLJAIJ@DestroyVideoDisplay?5not?5found?6?$AA@ 10042360     xpcruntime:xpcimports.obj
 0002:00004380       ??_C@_0BC@HCMIMIDN@StartVideoDisplay?$AA@ 10042380     xpcruntime:xpcimports.obj
 0002:00004394       ??_C@_0BN@EFIEBGOO@StartVideoDisplay?5not?5found?6?$AA@ 10042394     xpcruntime:xpcimports.obj
 0002:000043b4       ??_C@_0BB@JBBLMILG@StopVideoDisplay?$AA@ 100423b4     xpcruntime:xpcimports.obj
 0002:000043c8       ??_C@_0BM@DBJBPLEL@StopVideoDisplay?5not?5found?6?$AA@ 100423c8     xpcruntime:xpcimports.obj
 0002:000043e4       ??_C@_0M@MFJEGMHC@StreamVideo?$AA@ 100423e4     xpcruntime:xpcimports.obj
 0002:000043f0       ??_C@_0BH@OINCDMLA@StreamVideo?5not?5found?6?$AA@ 100423f0     xpcruntime:xpcimports.obj
 0002:00004408       ??_C@_0N@IGGLCIGE@xpceaddEvent?$AA@ 10042408     xpcruntime:xpcimports.obj
 0002:00004418       ??_C@_0BI@NHJNFMKH@xpceaddEvent?5not?5found?6?$AA@ 10042418     xpcruntime:xpcimports.obj
 0002:00004430       ??_C@_0BB@LCMHHHFN@getMemoryService?$AA@ 10042430     xpcruntime:xpcimports.obj
 0002:00004444       ??_C@_0BM@MPLCNIIE@getMemoryService?5not?5found?6?$AA@ 10042444     xpcruntime:xpcimports.obj
 0002:00004460       ??_C@_0P@KIKONDKK@getCommService?$AA@ 10042460     xpcruntime:xpcimports.obj
 0002:00004470       ??_C@_0BK@NCECBKNM@getCommService?5not?5found?6?$AA@ 10042470     xpcruntime:xpcimports.obj
 0002:0000448c       ??_C@_0P@GDLHFECE@getStatusFlags?$AA@ 1004248c     xpcruntime:xpcimports.obj
 0002:0000449c       ??_C@_0BK@NEKDLJHG@getStatusFlags?5not?5found?6?$AA@ 1004249c     xpcruntime:xpcimports.obj
 0002:000044b8       ??_C@_0BL@CDFCLKOL@startToAsyncQueueTgtAppSvc?$AA@ 100424b8     xpcruntime:xpcimports.obj
 0002:000044d4       ??_C@_0CG@JGOFFKEL@startToAsyncQueueTgtAppSvc?5not?5f@ 100424d4     xpcruntime:xpcimports.obj
 0002:000044fc       ??_C@_0BP@IJNGPPPE@terminateToAsyncQueueTgtAppSvc?$AA@ 100424fc     xpcruntime:xpcimports.obj
 0002:0000451c       ??_C@_0CK@NDEMAMKF@terminateToAsyncQueueTgtAppSvc?5n@ 1004251c     xpcruntime:xpcimports.obj
 0002:00004548       ??_C@_0BK@IDACEHAO@sendToAsyncQueueTgtAppSvc?$AA@ 10042548     xpcruntime:xpcimports.obj
 0002:00004564       ??_C@_0CF@PNCKPEHN@sendToAsyncQueueTgtAppSvc?5not?5fo@ 10042564     xpcruntime:xpcimports.obj
 0002:0000458c       ??_C@_0BN@HJOHIFOM@xpceGetIntTimerGranularityNS?$AA@ 1004258c     xpcruntime:xpcimports.obj
 0002:000045ac       ??_C@_0CI@OADDPMKB@xpceGetIntTimerGranularityNS?5not@ 100425ac     xpcruntime:xpcimports.obj
 0002:000045d4       ??_C@_0BG@CCHICKPN@slrteSetStepSizeDelta?$AA@ 100425d4     xpcruntime:xpcimports.obj
 0002:000045ec       ??_C@_0CB@MKHINEIJ@slrteSetStepSizeDelta?5not?5found?6@ 100425ec     xpcruntime:xpcimports.obj
 0002:00004610       ??_C@_0BI@CLNBLDKJ@slrteGetCurrentStepSize?$AA@ 10042610     xpcruntime:xpcimports.obj
 0002:00004628       ??_C@_0CD@GIOJPGJA@slrteGetCurrentStepSize?5not?5foun@ 10042628     xpcruntime:xpcimports.obj
 0002:0000464c       ??_C@_0BE@FCLCBOC@registerPTPTimeRead?$AA@ 1004264c     xpcruntime:xpcimports.obj
 0002:00004660       ??_C@_0BP@LHPKAJIP@registerPTPTimeRead?5not?5found?6?$AA@ 10042660     xpcruntime:xpcimports.obj
 0002:00004680       ??_C@_0BG@KIGCDDJI@unRegisterPTPTimeRead?$AA@ 10042680     xpcruntime:xpcimports.obj
 0002:00004698       ??_C@_0CB@MLFFBFCM@unRegisterPTPTimeRead?5not?5found?6@ 10042698     xpcruntime:xpcimports.obj
 0002:000046bc       ??_C@_0BB@IPMDDBHK@slTestInitialize?$AA@ 100426bc     xpcruntime:xpcimports.obj
 0002:000046d0       ??_C@_0BM@LAJFCCJH@slTestInitialize?5not?5found?6?$AA@ 100426d0     xpcruntime:xpcimports.obj
 0002:000046ec       ??_C@_0BF@OOMPMEBC@slTestLogAssessments?$AA@ 100426ec     xpcruntime:xpcimports.obj
 0002:00004704       ??_C@_0CA@FGJCEBAG@slTestLogAssessments?5not?5found?6?$AA@ 10042704     xpcruntime:xpcimports.obj
 0002:00004724       ??_C@_0BB@HJHKONHO@slTestEvalOnFail?$AA@ 10042724     xpcruntime:xpcimports.obj
 0002:00004738       ??_C@_0BM@JIKCFFNJ@slTestEvalOnFail?5not?5found?6?$AA@ 10042738     xpcruntime:xpcimports.obj
 0002:00004754       ??_C@_0BA@LBHLABFP@slTestTerminate?$AA@ 10042754     xpcruntime:xpcimports.obj
 0002:00004764       ??_C@_0BL@EMFGKAPA@slTestTerminate?5not?5found?6?$AA@ 10042764     xpcruntime:xpcimports.obj
 0002:00004780       ??_C@_0BE@JPNPBBEO@slTestRegAssessment?$AA@ 10042780     xpcruntime:xpcimports.obj
 0002:00004794       ??_C@_0BP@FBDEJJJH@slTestRegAssessment?5not?5found?6?$AA@ 10042794     xpcruntime:xpcimports.obj
 0002:000047b4       __FPinit                   100427b4     LIBCMT:fpinit.obj
 0002:000047c0       ??_C@_1BI@BGOHAHKC@?$AAm?$AAs?$AAc?$AAo?$AAr?$AAe?$AAe?$AA?4?$AAd?$AAl?$AAl?$AA?$AA@ 100427c0     LIBCMT:crt0dat.obj
 0002:000047d8       ??_C@_0P@MIGLKIOC@CorExitProcess?$AA@ 100427d8     LIBCMT:crt0dat.obj
 0002:00004874       ??_C@_17LGKOMLJ@?$AA?4?$AA?4?$AA?4?$AA?$AA@ 10042874     LIBCMT:wassert.obj
 0002:0000487c       ??_C@_13LBAGMAIH@?$AA?6?$AA?$AA@ 1004287c     LIBCMT:wassert.obj
 0002:00004880       ??_C@_15IABLJNFO@?$AA?6?$AA?6?$AA?$AA@ 10042880     LIBCMT:wassert.obj
 0002:00004888       ??_C@_1CE@OJBNHDMO@?$AAA?$AAs?$AAs?$AAe?$AAr?$AAt?$AAi?$AAo?$AAn?$AA?5?$AAf?$AAa?$AAi?$AAl?$AAe?$AAd?$AA?$CB?$AA?$AA@ 10042888     LIBCMT:wassert.obj
 0002:000048ac       ??_C@_1BE@PHKBBGE@?$AAP?$AAr?$AAo?$AAg?$AAr?$AAa?$AAm?$AA?3?$AA?5?$AA?$AA@ 100428ac     LIBCMT:wassert.obj
 0002:000048c0       ??_C@_1CO@EAEJAADC@?$AA?$DM?$AAp?$AAr?$AAo?$AAg?$AAr?$AAa?$AAm?$AA?5?$AAn?$AAa?$AAm?$AAe?$AA?5?$AAu?$AAn?$AAk?$AAn?$AAo?$AAw?$AAn?$AA?$DO?$AA?$AA@ 100428c0     LIBCMT:wassert.obj
 0002:000048f0       ??_C@_1O@HEMHKNDC@?$AAF?$AAi?$AAl?$AAe?$AA?3?$AA?5?$AA?$AA@ 100428f0     LIBCMT:wassert.obj
 0002:00004900       ??_C@_1O@KCAFKHJE@?$AAL?$AAi?$AAn?$AAe?$AA?3?$AA?5?$AA?$AA@ 10042900     LIBCMT:wassert.obj
 0002:00004910       ??_C@_1BK@PEDCIPMA@?$AAE?$AAx?$AAp?$AAr?$AAe?$AAs?$AAs?$AAi?$AAo?$AAn?$AA?3?$AA?5?$AA?$AA@ 10042910     LIBCMT:wassert.obj
 0002:00004930       ??_C@_1OA@EGMLFBHJ@?$AAF?$AAo?$AAr?$AA?5?$AAi?$AAn?$AAf?$AAo?$AAr?$AAm?$AAa?$AAt?$AAi?$AAo?$AAn?$AA?5?$AAo?$AAn?$AA?5?$AAh?$AAo?$AAw?$AA?5?$AAy?$AAo?$AAu?$AAr?$AA?5?$AAp?$AAr?$AAo?$AAg@ 10042930     LIBCMT:wassert.obj
 0002:00004a10       ??_C@_1HK@POCJMFGK@?$AA?$CI?$AAP?$AAr?$AAe?$AAs?$AAs?$AA?5?$AAR?$AAe?$AAt?$AAr?$AAy?$AA?5?$AAt?$AAo?$AA?5?$AAd?$AAe?$AAb?$AAu?$AAg?$AA?5?$AAt?$AAh?$AAe?$AA?5?$AAa?$AAp?$AAp?$AAl?$AAi?$AAc@ 10042a10     LIBCMT:wassert.obj
 0002:00004a90       ??_C@_1EK@MBDPDCGA@?$AAM?$AAi?$AAc?$AAr?$AAo?$AAs?$AAo?$AAf?$AAt?$AA?5?$AAV?$AAi?$AAs?$AAu?$AAa?$AAl?$AA?5?$AAC?$AA?$CL?$AA?$CL?$AA?5?$AAR?$AAu?$AAn?$AAt?$AAi?$AAm?$AAe?$AA?5?$AAL?$AAi?$AAb@ 10042a90     LIBCMT:wassert.obj
 0002:00004adc       __pRawDllMain              10042adc     LIBCMT:dllcrt0.obj
 0002:00004adc       __pDefaultRawDllMain       10042adc     LIBCMT:dllcrt0.obj
 0002:00004ae0       ?ProcessDetach@NativeDll@<CrtImplementationDetails>@@0IB 10042ae0     LIBCMT:handler.obj
 0002:00004ae4       ?ProcessAttach@NativeDll@<CrtImplementationDetails>@@0IB 10042ae4     LIBCMT:handler.obj
 0002:00004ae8       ?ThreadAttach@NativeDll@<CrtImplementationDetails>@@0IB 10042ae8     LIBCMT:handler.obj
 0002:00004aec       ?ThreadDetach@NativeDll@<CrtImplementationDetails>@@0IB 10042aec     LIBCMT:handler.obj
 0002:00004af0       ?ProcessVerifier@NativeDll@<CrtImplementationDetails>@@0IB 10042af0     LIBCMT:handler.obj
 0002:00004bb0       ??_C@_1FK@PGACCAFB@?$AAR?$AA6?$AA0?$AA0?$AA2?$AA?$AN?$AA?6?$AA?9?$AA?5?$AAf?$AAl?$AAo?$AAa?$AAt?$AAi?$AAn?$AAg?$AA?5?$AAp?$AAo?$AAi?$AAn?$AAt?$AA?5?$AAs?$AAu?$AAp?$AAp?$AAo?$AAr?$AAt?$AA?5@ 10042bb0     LIBCMT:crt0msg.obj
 0002:00004c10       ??_C@_1FE@LLNEDJMD@?$AAR?$AA6?$AA0?$AA0?$AA8?$AA?$AN?$AA?6?$AA?9?$AA?5?$AAn?$AAo?$AAt?$AA?5?$AAe?$AAn?$AAo?$AAu?$AAg?$AAh?$AA?5?$AAs?$AAp?$AAa?$AAc?$AAe?$AA?5?$AAf?$AAo?$AAr?$AA?5?$AAa?$AAr@ 10042c10     LIBCMT:crt0msg.obj
 0002:00004c68       ??_C@_1FI@HONFMGBI@?$AAR?$AA6?$AA0?$AA0?$AA9?$AA?$AN?$AA?6?$AA?9?$AA?5?$AAn?$AAo?$AAt?$AA?5?$AAe?$AAn?$AAo?$AAu?$AAg?$AAh?$AA?5?$AAs?$AAp?$AAa?$AAc?$AAe?$AA?5?$AAf?$AAo?$AAr?$AA?5?$AAe?$AAn@ 10042c68     LIBCMT:crt0msg.obj
 0002:00004cc0       ??_C@_1EG@BEHAGFJD@?$AAR?$AA6?$AA0?$AA1?$AA0?$AA?$AN?$AA?6?$AA?9?$AA?5?$AAa?$AAb?$AAo?$AAr?$AAt?$AA?$CI?$AA?$CJ?$AA?5?$AAh?$AAa?$AAs?$AA?5?$AAb?$AAe?$AAe?$AAn?$AA?5?$AAc?$AAa?$AAl?$AAl?$AAe?$AAd@ 10042cc0     LIBCMT:crt0msg.obj
 0002:00004d08       ??_C@_1FI@LOGNIKDM@?$AAR?$AA6?$AA0?$AA1?$AA6?$AA?$AN?$AA?6?$AA?9?$AA?5?$AAn?$AAo?$AAt?$AA?5?$AAe?$AAn?$AAo?$AAu?$AAg?$AAh?$AA?5?$AAs?$AAp?$AAa?$AAc?$AAe?$AA?5?$AAf?$AAo?$AAr?$AA?5?$AAt?$AAh@ 10042d08     LIBCMT:crt0msg.obj
 0002:00004d60       ??_C@_1FK@BEOGODMC@?$AAR?$AA6?$AA0?$AA1?$AA7?$AA?$AN?$AA?6?$AA?9?$AA?5?$AAu?$AAn?$AAe?$AAx?$AAp?$AAe?$AAc?$AAt?$AAe?$AAd?$AA?5?$AAm?$AAu?$AAl?$AAt?$AAi?$AAt?$AAh?$AAr?$AAe?$AAa?$AAd?$AA?5@ 10042d60     LIBCMT:crt0msg.obj
 0002:00004dc0       ??_C@_1EC@JIBHAOPH@?$AAR?$AA6?$AA0?$AA1?$AA8?$AA?$AN?$AA?6?$AA?9?$AA?5?$AAu?$AAn?$AAe?$AAx?$AAp?$AAe?$AAc?$AAt?$AAe?$AAd?$AA?5?$AAh?$AAe?$AAa?$AAp?$AA?5?$AAe?$AAr?$AAr?$AAo?$AAr?$AA?$AN?$AA?6@ 10042dc0     LIBCMT:crt0msg.obj
 0002:00004e08       ??_C@_1FC@ECHBIFBC@?$AAR?$AA6?$AA0?$AA1?$AA9?$AA?$AN?$AA?6?$AA?9?$AA?5?$AAu?$AAn?$AAa?$AAb?$AAl?$AAe?$AA?5?$AAt?$AAo?$AA?5?$AAo?$AAp?$AAe?$AAn?$AA?5?$AAc?$AAo?$AAn?$AAs?$AAo?$AAl?$AAe?$AA?5@ 10042e08     LIBCMT:crt0msg.obj
 0002:00004e60       ??_C@_1GK@FHCKBEFA@?$AAR?$AA6?$AA0?$AA2?$AA4?$AA?$AN?$AA?6?$AA?9?$AA?5?$AAn?$AAo?$AAt?$AA?5?$AAe?$AAn?$AAo?$AAu?$AAg?$AAh?$AA?5?$AAs?$AAp?$AAa?$AAc?$AAe?$AA?5?$AAf?$AAo?$AAr?$AA?5?$AA_?$AAo@ 10042e60     LIBCMT:crt0msg.obj
 0002:00004ed0       ??_C@_1EM@MAADIHMB@?$AAR?$AA6?$AA0?$AA2?$AA5?$AA?$AN?$AA?6?$AA?9?$AA?5?$AAp?$AAu?$AAr?$AAe?$AA?5?$AAv?$AAi?$AAr?$AAt?$AAu?$AAa?$AAl?$AA?5?$AAf?$AAu?$AAn?$AAc?$AAt?$AAi?$AAo?$AAn?$AA?5?$AAc@ 10042ed0     LIBCMT:crt0msg.obj
 0002:00004f20       ??_C@_1GK@MCAAGJMO@?$AAR?$AA6?$AA0?$AA2?$AA6?$AA?$AN?$AA?6?$AA?9?$AA?5?$AAn?$AAo?$AAt?$AA?5?$AAe?$AAn?$AAo?$AAu?$AAg?$AAh?$AA?5?$AAs?$AAp?$AAa?$AAc?$AAe?$AA?5?$AAf?$AAo?$AAr?$AA?5?$AAs?$AAt@ 10042f20     LIBCMT:crt0msg.obj
 0002:00004f90       ??_C@_1GK@MFGOKLAG@?$AAR?$AA6?$AA0?$AA2?$AA7?$AA?$AN?$AA?6?$AA?9?$AA?5?$AAn?$AAo?$AAt?$AA?5?$AAe?$AAn?$AAo?$AAu?$AAg?$AAh?$AA?5?$AAs?$AAp?$AAa?$AAc?$AAe?$AA?5?$AAf?$AAo?$AAr?$AA?5?$AAl?$AAo@ 10042f90     LIBCMT:crt0msg.obj
 0002:00005000       ??_C@_1EK@HHFLMAOL@?$AAR?$AA6?$AA0?$AA2?$AA8?$AA?$AN?$AA?6?$AA?9?$AA?5?$AAu?$AAn?$AAa?$AAb?$AAl?$AAe?$AA?5?$AAt?$AAo?$AA?5?$AAi?$AAn?$AAi?$AAt?$AAi?$AAa?$AAl?$AAi?$AAz?$AAe?$AA?5?$AAh?$AAe@ 10043000     LIBCMT:crt0msg.obj
 0002:0000504c       ??_C@_1DO@BMFCDCD@?$AAR?$AA6?$AA0?$AA3?$AA0?$AA?$AN?$AA?6?$AA?9?$AA?5?$AAC?$AAR?$AAT?$AA?5?$AAn?$AAo?$AAt?$AA?5?$AAi?$AAn?$AAi?$AAt?$AAi?$AAa?$AAl?$AAi?$AAz?$AAe?$AAd?$AA?$AN?$AA?6?$AA?$AA@ 1004304c     LIBCMT:crt0msg.obj
 0002:00005090       ??_C@_1MG@ENCOOIDF@?$AAR?$AA6?$AA0?$AA3?$AA1?$AA?$AN?$AA?6?$AA?9?$AA?5?$AAA?$AAt?$AAt?$AAe?$AAm?$AAp?$AAt?$AA?5?$AAt?$AAo?$AA?5?$AAi?$AAn?$AAi?$AAt?$AAi?$AAa?$AAl?$AAi?$AAz?$AAe?$AA?5?$AAt@ 10043090     LIBCMT:crt0msg.obj
 0002:00005158       ??_C@_1GG@GOPILAJP@?$AAR?$AA6?$AA0?$AA3?$AA2?$AA?$AN?$AA?6?$AA?9?$AA?5?$AAn?$AAo?$AAt?$AA?5?$AAe?$AAn?$AAo?$AAu?$AAg?$AAh?$AA?5?$AAs?$AAp?$AAa?$AAc?$AAe?$AA?5?$AAf?$AAo?$AAr?$AA?5?$AAl?$AAo@ 10043158     LIBCMT:crt0msg.obj
 0002:000051c0       ??_C@_1BOO@KGEDBGAJ@?$AAR?$AA6?$AA0?$AA3?$AA3?$AA?$AN?$AA?6?$AA?9?$AA?5?$AAA?$AAt?$AAt?$AAe?$AAm?$AAp?$AAt?$AA?5?$AAt?$AAo?$AA?5?$AAu?$AAs?$AAe?$AA?5?$AAM?$AAS?$AAI?$AAL?$AA?5?$AAc?$AAo?$AAd@ 100431c0     LIBCMT:crt0msg.obj
 0002:000053b0       ??_C@_1GG@MKFPEKFO@?$AAR?$AA6?$AA0?$AA3?$AA4?$AA?$AN?$AA?6?$AA?9?$AA?5?$AAi?$AAn?$AAc?$AAo?$AAn?$AAs?$AAi?$AAs?$AAt?$AAe?$AAn?$AAt?$AA?5?$AAo?$AAn?$AAe?$AAx?$AAi?$AAt?$AA?5?$AAb?$AAe?$AAg@ 100433b0     LIBCMT:crt0msg.obj
 0002:00005418       ??_C@_1BO@BFCDCGC@?$AAD?$AAO?$AAM?$AAA?$AAI?$AAN?$AA?5?$AAe?$AAr?$AAr?$AAo?$AAr?$AA?$AN?$AA?6?$AA?$AA@ 10043418     LIBCMT:crt0msg.obj
 0002:00005438       ??_C@_1BK@KMOMNAAI@?$AAS?$AAI?$AAN?$AAG?$AA?5?$AAe?$AAr?$AAr?$AAo?$AAr?$AA?$AN?$AA?6?$AA?$AA@ 10043438     LIBCMT:crt0msg.obj
 0002:00005454       ??_C@_1BM@JBBEPPHI@?$AAT?$AAL?$AAO?$AAS?$AAS?$AA?5?$AAe?$AAr?$AAr?$AAo?$AAr?$AA?$AN?$AA?6?$AA?$AA@ 10043454     LIBCMT:crt0msg.obj
 0002:00005470       ??_C@_15JNBOKNOG@?$AA?$AN?$AA?6?$AA?$AA@ 10043470     LIBCMT:crt0msg.obj
 0002:00005478       ??_C@_1BO@BKOMIGKJ@?$AAr?$AAu?$AAn?$AAt?$AAi?$AAm?$AAe?$AA?5?$AAe?$AAr?$AAr?$AAo?$AAr?$AA?5?$AA?$AA@ 10043478     LIBCMT:crt0msg.obj
 0002:00005498       ??_C@_1DE@JNGNBFGO@?$AAR?$AAu?$AAn?$AAt?$AAi?$AAm?$AAe?$AA?5?$AAE?$AAr?$AAr?$AAo?$AAr?$AA?$CB?$AA?6?$AA?6?$AAP?$AAr?$AAo?$AAg?$AAr?$AAa?$AAm?$AA?3?$AA?5?$AA?$AA@ 10043498     LIBCMT:crt0msg.obj
 0002:000054cc       ??_C@_05KLBDPFGC@e?$CL000?$AA@ 100434cc     LIBCMT:cvt.obj
 0002:000054d4       ??_C@_1BK@MGMFAEKH@?$AAk?$AAe?$AAr?$AAn?$AAe?$AAl?$AA3?$AA2?$AA?4?$AAd?$AAl?$AAl?$AA?$AA@ 100434d4     LIBCMT:winapisupp.obj
 0002:000054f0       ??_C@_08KNHFBNJ@FlsAlloc?$AA@ 100434f0     LIBCMT:winapisupp.obj
 0002:000054fc       ??_C@_07PEJMOBNF@FlsFree?$AA@ 100434fc     LIBCMT:winapisupp.obj
 0002:00005504       ??_C@_0M@GDNOONDI@FlsGetValue?$AA@ 10043504     LIBCMT:winapisupp.obj
 0002:00005510       ??_C@_0M@JCPCPOEF@FlsSetValue?$AA@ 10043510     LIBCMT:winapisupp.obj
 0002:0000551c       ??_C@_0BM@HCFOFFN@InitializeCriticalSectionEx?$AA@ 1004351c     LIBCMT:winapisupp.obj
 0002:00005538       ??_C@_0P@DLHPPCNH@CreateEventExW?$AA@ 10043538     LIBCMT:winapisupp.obj
 0002:00005548       ??_C@_0BD@KIEEOEEH@CreateSemaphoreExW?$AA@ 10043548     LIBCMT:winapisupp.obj
 0002:0000555c       ??_C@_0BI@BKLFFAPO@SetThreadStackGuarantee?$AA@ 1004355c     LIBCMT:winapisupp.obj
 0002:00005574       ??_C@_0BG@OGFAJCKC@CreateThreadpoolTimer?$AA@ 10043574     LIBCMT:winapisupp.obj
 0002:0000558c       ??_C@_0BD@LPLEMMDI@SetThreadpoolTimer?$AA@ 1004358c     LIBCMT:winapisupp.obj
 0002:000055a0       ??_C@_0CA@FMNJENH@WaitForThreadpoolTimerCallbacks?$AA@ 100435a0     LIBCMT:winapisupp.obj
 0002:000055c0       ??_C@_0BF@DCFCCNOC@CloseThreadpoolTimer?$AA@ 100435c0     LIBCMT:winapisupp.obj
 0002:000055d8       ??_C@_0BF@FLABGKKM@CreateThreadpoolWait?$AA@ 100435d8     LIBCMT:winapisupp.obj
 0002:000055f0       ??_C@_0BC@MGCOHNA@SetThreadpoolWait?$AA@ 100435f0     LIBCMT:winapisupp.obj
 0002:00005604       ??_C@_0BE@OCIOMIMP@CloseThreadpoolWait?$AA@ 10043604     LIBCMT:winapisupp.obj
 0002:00005618       ??_C@_0BJ@LKGHFHBO@FlushProcessWriteBuffers?$AA@ 10043618     LIBCMT:winapisupp.obj
 0002:00005634       ??_C@_0BP@KALKKPMO@FreeLibraryWhenCallbackReturns?$AA@ 10043634     LIBCMT:winapisupp.obj
 0002:00005654       ??_C@_0BK@DFNBACLA@GetCurrentProcessorNumber?$AA@ 10043654     LIBCMT:winapisupp.obj
 0002:00005670       ??_C@_0BP@KHGALBC@GetLogicalProcessorInformation?$AA@ 10043670     LIBCMT:winapisupp.obj
 0002:00005690       ??_C@_0BE@FKKLLFLM@CreateSymbolicLinkW?$AA@ 10043690     LIBCMT:winapisupp.obj
 0002:000056a4       ??_C@_0BJ@OHNKDLIJ@SetDefaultDllDirectories?$AA@ 100436a4     LIBCMT:winapisupp.obj
 0002:000056c0       ??_C@_0BE@LJANKFHF@EnumSystemLocalesEx?$AA@ 100436c0     LIBCMT:winapisupp.obj
 0002:000056d4       ??_C@_0BA@IHGNDAEB@CompareStringEx?$AA@ 100436d4     LIBCMT:winapisupp.obj
 0002:000056e4       ??_C@_0BA@EPCJIIPD@GetDateFormatEx?$AA@ 100436e4     LIBCMT:winapisupp.obj
 0002:000056f4       ??_C@_0BA@ONOKGCMP@GetLocaleInfoEx?$AA@ 100436f4     LIBCMT:winapisupp.obj
 0002:00005704       ??_C@_0BA@CIJJKCJJ@GetTimeFormatEx?$AA@ 10043704     LIBCMT:winapisupp.obj
 0002:00005714       ??_C@_0BJ@PBCCBIPI@GetUserDefaultLocaleName?$AA@ 10043714     LIBCMT:winapisupp.obj
 0002:00005730       ??_C@_0BC@CELBKLLA@IsValidLocaleName?$AA@ 10043730     LIBCMT:winapisupp.obj
 0002:00005744       ??_C@_0O@KKBNKAPF@LCMapStringEx?$AA@ 10043744     LIBCMT:winapisupp.obj
 0002:00005754       ??_C@_0BE@JOGNEJCI@GetCurrentPackageId?$AA@ 10043754     LIBCMT:winapisupp.obj
 0002:00005768       ??_C@_0P@CDHHOHKP@GetTickCount64?$AA@ 10043768     LIBCMT:winapisupp.obj
 0002:00005778       ??_C@_0BO@KPCLFDJJ@GetFileInformationByHandleExW?$AA@ 10043778     LIBCMT:winapisupp.obj
 0002:00005798       ??_C@_0BM@MHIDLABK@SetFileInformationByHandleW?$AA@ 10043798     LIBCMT:winapisupp.obj
 0002:000057b4       ??_C@_1BK@GAEMIDIL@?$AAA?$AAD?$AAV?$AAA?$AAP?$AAI?$AA3?$AA2?$AA?4?$AAD?$AAL?$AAL?$AA?$AA@ 100437b4     LIBCMT:rand_s.obj
 0002:000057d0       ??_C@_0BC@JEAENNKH@SystemFunction036?$AA@ 100437d0     LIBCMT:rand_s.obj
 0002:000057f4       ??_C@_1M@HPNHIDJI@?$AAj?$AAa?$AA?9?$AAJ?$AAP?$AA?$AA@ 100437f4     LIBCMT:mbctype.obj
 0002:00005800       ??_C@_1M@BIBDDEMK@?$AAz?$AAh?$AA?9?$AAC?$AAN?$AA?$AA@ 10043800     LIBCMT:mbctype.obj
 0002:0000580c       ??_C@_1M@JLOOOEGK@?$AAk?$AAo?$AA?9?$AAK?$AAR?$AA?$AA@ 1004380c     LIBCMT:mbctype.obj
 0002:00005818       ??_C@_1M@CLNBBOPM@?$AAz?$AAh?$AA?9?$AAT?$AAW?$AA?$AA@ 10043818     LIBCMT:mbctype.obj
 0002:00005844       ??_C@_06OJHGLDPL@?$CInull?$CJ?$AA@ 10043844     LIBCMT:output.obj
 0002:0000584c       ??_C@_1O@CEDCILHN@?$AA?$CI?$AAn?$AAu?$AAl?$AAl?$AA?$CJ?$AA?$AA@ 1004384c     LIBCMT:output.obj
 0002:00005860       ___lookuptable             10043860     LIBCMT:output.obj
 0002:000058bc       ??_C@_04FJHINJAO@tanh?$AA@ 100438bc     LIBCMT:fpexcept.obj
 0002:000058c4       ??_C@_04FIHNOPOL@asin?$AA@ 100438c4     LIBCMT:fpexcept.obj
 0002:000058cc       ??_C@_04PDIFKINK@acos?$AA@ 100438cc     LIBCMT:fpexcept.obj
 0002:000058d4       ??_C@_04MLLJIGOK@atan?$AA@ 100438d4     LIBCMT:fpexcept.obj
 0002:000058dc       ??_C@_05KNGEOGJB@atan2?$AA@ 100438dc     LIBCMT:fpexcept.obj
 0002:000058e4       ??_C@_04EIAKFFMI@sqrt?$AA@ 100438e4     LIBCMT:fpexcept.obj
 0002:000058ec       ??_C@_03BLEJJJBH@sin?$AA@  100438ec     LIBCMT:fpexcept.obj
 0002:000058f0       ??_C@_03LALBNOCG@cos?$AA@  100438f0     LIBCMT:fpexcept.obj
 0002:000058f4       ??_C@_03IIINPABG@tan?$AA@  100438f4     LIBCMT:fpexcept.obj
 0002:000058f8       ??_C@_04GFPJNGEK@ceil?$AA@ 100438f8     LIBCMT:fpexcept.obj
 0002:00005900       ??_C@_05PBJFFIGL@floor?$AA@ 10043900     LIBCMT:fpexcept.obj
 0002:00005908       ??_C@_04ODHECPBC@fabs?$AA@ 10043908     LIBCMT:fpexcept.obj
 0002:00005910       ??_C@_04EHEDPDJG@modf?$AA@ 10043910     LIBCMT:fpexcept.obj
 0002:00005918       ??_C@_05CEJMAHNP@ldexp?$AA@ 10043918     LIBCMT:fpexcept.obj
 0002:00005920       ??_C@_05KBKMEMPO@_cabs?$AA@ 10043920     LIBCMT:fpexcept.obj
 0002:00005928       ??_C@_06MEIMCGCF@_hypot?$AA@ 10043928     LIBCMT:fpexcept.obj
 0002:00005930       ??_C@_04KEPJIHGP@fmod?$AA@ 10043930     LIBCMT:fpexcept.obj
 0002:00005938       ??_C@_05GKKHEGJL@frexp?$AA@ 10043938     LIBCMT:fpexcept.obj
 0002:00005940       ??_C@_03MJLDFKDL@_y0?$AA@  10043940     LIBCMT:fpexcept.obj
 0002:00005944       ??_C@_03NAKIGLHK@_y1?$AA@  10043944     LIBCMT:fpexcept.obj
 0002:00005948       ??_C@_03ONILCKOB@_yn?$AA@  10043948     LIBCMT:fpexcept.obj
 0002:0000594c       ??_C@_05JGDBENOH@_logb?$AA@ 1004394c     LIBCMT:fpexcept.obj
 0002:00005954       ??_C@_0L@KDOEJCKC@_nextafter?$AA@ 10043954     LIBCMT:fpexcept.obj
 0002:00005960       ??_C@_03KHJOGHMM@exp?$AA@  10043960     LIBCMT:fpexcept.obj
 0002:00005964       ??_C@_03JGHBODFD@pow?$AA@  10043964     LIBCMT:fpexcept.obj
 0002:00005968       ??_C@_03MGHMBJCF@log?$AA@  10043968     LIBCMT:fpexcept.obj
 0002:0000596c       ??_C@_05HGHHAHAP@log10?$AA@ 1004396c     LIBCMT:fpexcept.obj
 0002:00005974       ??_C@_04COOMCNPB@sinh?$AA@ 10043974     LIBCMT:fpexcept.obj
 0002:0000597c       ??_C@_04HPJJNFIM@cosh?$AA@ 1004397c     LIBCMT:fpexcept.obj
 0002:00005984       ??_C@_1BG@GOEBHBDC@?$AAU?$AAS?$AAE?$AAR?$AA3?$AA2?$AA?4?$AAD?$AAL?$AAL?$AA?$AA@ 10043984     LIBCMT:crtmboxw.obj
 0002:0000599c       ??_C@_0M@DLDCCGNP@MessageBoxW?$AA@ 1004399c     LIBCMT:crtmboxw.obj
 0002:000059a8       ??_C@_0BA@HNOPNCHB@GetActiveWindow?$AA@ 100439a8     LIBCMT:crtmboxw.obj
 0002:000059b8       ??_C@_0BD@HHGDFDBJ@GetLastActivePopup?$AA@ 100439b8     LIBCMT:crtmboxw.obj
 0002:000059cc       ??_C@_0BK@DEKFELLI@GetUserObjectInformationW?$AA@ 100439cc     LIBCMT:crtmboxw.obj
 0002:000059e8       ??_C@_0BI@DFKBFLJE@GetProcessWindowStation?$AA@ 100439e8     LIBCMT:crtmboxw.obj
 0002:00005a00       __XcptActTab               10043a00     LIBCMT:winxfltr.obj
 0002:00005a90       __XcptActTabCount          10043a90     LIBCMT:winxfltr.obj
 0002:00005a94       __XcptActTabSize           10043a94     LIBCMT:winxfltr.obj
 0002:00005a98       __First_FPE_Indx           10043a98     LIBCMT:winxfltr.obj
 0002:00005a9c       __Num_FPE                  10043a9c     LIBCMT:winxfltr.obj
 0002:00005aa0       ??_C@_03KOEHGMDN@Sun?$AA@  10043aa0     LIBCMT:nlsdata.obj
 0002:00005aa4       ??_C@_03PDAGKDH@Mon?$AA@   10043aa4     LIBCMT:nlsdata.obj
 0002:00005aa8       ??_C@_03NAGEINEP@Tue?$AA@  10043aa8     LIBCMT:nlsdata.obj
 0002:00005aac       ??_C@_03MHOMLAJA@Wed?$AA@  10043aac     LIBCMT:nlsdata.obj
 0002:00005ab0       ??_C@_03IOFIKPDN@Thu?$AA@  10043ab0     LIBCMT:nlsdata.obj
 0002:00005ab4       ??_C@_03IDIOELNC@Fri?$AA@  10043ab4     LIBCMT:nlsdata.obj
 0002:00005ab8       ??_C@_03FEFJNEK@Sat?$AA@   10043ab8     LIBCMT:nlsdata.obj
 0002:00005abc       ??_C@_06OOPIFAJ@Sunday?$AA@ 10043abc     LIBCMT:nlsdata.obj
 0002:00005ac4       ??_C@_06JLEDEDGH@Monday?$AA@ 10043ac4     LIBCMT:nlsdata.obj
 0002:00005acc       ??_C@_07BAAGCFCM@Tuesday?$AA@ 10043acc     LIBCMT:nlsdata.obj
 0002:00005ad4       ??_C@_09DLIGFAKA@Wednesday?$AA@ 10043ad4     LIBCMT:nlsdata.obj
 0002:00005ae0       ??_C@_08HACCIKIA@Thursday?$AA@ 10043ae0     LIBCMT:nlsdata.obj
 0002:00005aec       ??_C@_06JECMNKMI@Friday?$AA@ 10043aec     LIBCMT:nlsdata.obj
 0002:00005af4       ??_C@_08INBOOONO@Saturday?$AA@ 10043af4     LIBCMT:nlsdata.obj
 0002:00005b00       ??_C@_03JIHJHPIE@Jan?$AA@  10043b00     LIBCMT:nlsdata.obj
 0002:00005b04       ??_C@_03HJBDCHOM@Feb?$AA@  10043b04     LIBCMT:nlsdata.obj
 0002:00005b08       ??_C@_03ODNJBKGA@Mar?$AA@  10043b08     LIBCMT:nlsdata.obj
 0002:00005b0c       ??_C@_03LEOLGMJP@Apr?$AA@  10043b0c     LIBCMT:nlsdata.obj
 0002:00005b10       ??_C@_03CNMDKL@May?$AA@    10043b10     LIBCMT:nlsdata.obj
 0002:00005b14       ??_C@_03IDFGHECI@Jun?$AA@  10043b14     LIBCMT:nlsdata.obj
 0002:00005b18       ??_C@_03LBGABGKK@Jul?$AA@  10043b18     LIBCMT:nlsdata.obj
 0002:00005b1c       ??_C@_03IFJFEIGA@Aug?$AA@  10043b1c     LIBCMT:nlsdata.obj
 0002:00005b20       ??_C@_03GGCAPAJC@Sep?$AA@  10043b20     LIBCMT:nlsdata.obj
 0002:00005b24       ??_C@_03BMAOKBAD@Oct?$AA@  10043b24     LIBCMT:nlsdata.obj
 0002:00005b28       ??_C@_03JPJOFNIA@Nov?$AA@  10043b28     LIBCMT:nlsdata.obj
 0002:00005b2c       ??_C@_03MKABNOCG@Dec?$AA@  10043b2c     LIBCMT:nlsdata.obj
 0002:00005b30       ??_C@_07CGJPFGJA@January?$AA@ 10043b30     LIBCMT:nlsdata.obj
 0002:00005b38       ??_C@_08GNJGEPFN@February?$AA@ 10043b38     LIBCMT:nlsdata.obj
 0002:00005b44       ??_C@_05HPCKOFNC@March?$AA@ 10043b44     LIBCMT:nlsdata.obj
 0002:00005b4c       ??_C@_05DMJDNLEJ@April?$AA@ 10043b4c     LIBCMT:nlsdata.obj
 0002:00005b54       ??_C@_04CNLMGBGM@June?$AA@ 10043b54     LIBCMT:nlsdata.obj
 0002:00005b5c       ??_C@_04MIEPOIFP@July?$AA@ 10043b5c     LIBCMT:nlsdata.obj
 0002:00005b64       ??_C@_06LBBHFDDG@August?$AA@ 10043b64     LIBCMT:nlsdata.obj
 0002:00005b6c       ??_C@_09BHHEALKD@September?$AA@ 10043b6c     LIBCMT:nlsdata.obj
 0002:00005b78       ??_C@_07JJNFCEND@October?$AA@ 10043b78     LIBCMT:nlsdata.obj
 0002:00005b80       ??_C@_08HCHEGEOA@November?$AA@ 10043b80     LIBCMT:nlsdata.obj
 0002:00005b8c       ??_C@_08EDHMEBNP@December?$AA@ 10043b8c     LIBCMT:nlsdata.obj
 0002:00005b98       ??_C@_02DEDBPAFC@AM?$AA@   10043b98     LIBCMT:nlsdata.obj
 0002:00005b9c       ??_C@_02CJNFDJBF@PM?$AA@   10043b9c     LIBCMT:nlsdata.obj
 0002:00005ba0       ??_C@_08BPBNCDIB@MM?1dd?1yy?$AA@ 10043ba0     LIBCMT:nlsdata.obj
 0002:00005bac       ??_C@_0BE@CKGJFCPC@dddd?0?5MMMM?5dd?0?5yyyy?$AA@ 10043bac     LIBCMT:nlsdata.obj
 0002:00005bc0       ??_C@_08JCCMCCIL@HH?3mm?3ss?$AA@ 10043bc0     LIBCMT:nlsdata.obj
 0002:00005bcc       ??_C@_17MBGCMIPB@?$AAS?$AAu?$AAn?$AA?$AA@ 10043bcc     LIBCMT:nlsdata.obj
 0002:00005bd4       ??_C@_17KBOMKBF@?$AAM?$AAo?$AAn?$AA?$AA@ 10043bd4     LIBCMT:nlsdata.obj
 0002:00005bdc       ??_C@_17BMKGEGOJ@?$AAT?$AAu?$AAe?$AA?$AA@ 10043bdc     LIBCMT:nlsdata.obj
 0002:00005be4       ??_C@_17CJEDCEPE@?$AAW?$AAe?$AAd?$AA?$AA@ 10043be4     LIBCMT:nlsdata.obj
 0002:00005bec       ??_C@_17PDPHAADD@?$AAT?$AAh?$AAu?$AA?$AA@ 10043bec     LIBCMT:nlsdata.obj
 0002:00005bf4       ??_C@_17HFOLPPLP@?$AAF?$AAr?$AAi?$AA?$AA@ 10043bf4     LIBCMT:nlsdata.obj
 0002:00005bfc       ??_C@_17GGIBDPIH@?$AAS?$AAa?$AAt?$AA?$AA@ 10043bfc     LIBCMT:nlsdata.obj
 0002:00005c04       ??_C@_1O@IHNHDHPB@?$AAS?$AAu?$AAn?$AAd?$AAa?$AAy?$AA?$AA@ 10043c04     LIBCMT:nlsdata.obj
 0002:00005c14       ??_C@_1O@MMNBFLIA@?$AAM?$AAo?$AAn?$AAd?$AAa?$AAy?$AA?$AA@ 10043c14     LIBCMT:nlsdata.obj
 0002:00005c24       ??_C@_1BA@ENFBFFEK@?$AAT?$AAu?$AAe?$AAs?$AAd?$AAa?$AAy?$AA?$AA@ 10043c24     LIBCMT:nlsdata.obj
 0002:00005c34       ??_C@_1BE@EBOGMDOH@?$AAW?$AAe?$AAd?$AAn?$AAe?$AAs?$AAd?$AAa?$AAy?$AA?$AA@ 10043c34     LIBCMT:nlsdata.obj
 0002:00005c48       ??_C@_1BC@HHMNLIHE@?$AAT?$AAh?$AAu?$AAr?$AAs?$AAd?$AAa?$AAy?$AA?$AA@ 10043c48     LIBCMT:nlsdata.obj
 0002:00005c5c       ??_C@_1O@PDICJHAG@?$AAF?$AAr?$AAi?$AAd?$AAa?$AAy?$AA?$AA@ 10043c5c     LIBCMT:nlsdata.obj
 0002:00005c6c       ??_C@_1BC@ENMNNPAJ@?$AAS?$AAa?$AAt?$AAu?$AAr?$AAd?$AAa?$AAy?$AA?$AA@ 10043c6c     LIBCMT:nlsdata.obj
 0002:00005c80       ??_C@_17DKNBKCHM@?$AAJ?$AAa?$AAn?$AA?$AA@ 10043c80     LIBCMT:nlsdata.obj
 0002:00005c88       ??_C@_17LMDJEKJN@?$AAF?$AAe?$AAb?$AA?$AA@ 10043c88     LIBCMT:nlsdata.obj
 0002:00005c90       ??_C@_17CKNLEDEC@?$AAM?$AAa?$AAr?$AA?$AA@ 10043c90     LIBCMT:nlsdata.obj
 0002:00005c98       ??_C@_17LFPOIHDD@?$AAA?$AAp?$AAr?$AA?$AA@ 10043c98     LIBCMT:nlsdata.obj
 0002:00005ca0       ??_C@_17PNNKMEED@?$AAM?$AAa?$AAy?$AA?$AA@ 10043ca0     LIBCMT:nlsdata.obj
 0002:00005ca8       ??_C@_17KCJGOCPB@?$AAJ?$AAu?$AAn?$AA?$AA@ 10043ca8     LIBCMT:nlsdata.obj
 0002:00005cb0       ??_C@_17IJPCKHK@?$AAJ?$AAu?$AAl?$AA?$AA@ 10043cb0     LIBCMT:nlsdata.obj
 0002:00005cb8       ??_C@_17ICPELBCN@?$AAA?$AAu?$AAg?$AA?$AA@ 10043cb8     LIBCMT:nlsdata.obj
 0002:00005cc0       ??_C@_17HCHCOKMG@?$AAS?$AAe?$AAp?$AA?$AA@ 10043cc0     LIBCMT:nlsdata.obj
 0002:00005cc8       ??_C@_17FNLKOI@?$AAO?$AAc?$AAt?$AA?$AA@ 10043cc8     LIBCMT:nlsdata.obj
 0002:00005cd0       ??_C@_17BBDMLCIG@?$AAN?$AAo?$AAv?$AA?$AA@ 10043cd0     LIBCMT:nlsdata.obj
 0002:00005cd8       ??_C@_17EGKACKIF@?$AAD?$AAe?$AAc?$AA?$AA@ 10043cd8     LIBCMT:nlsdata.obj
 0002:00005ce0       ??_C@_1BA@EFMEIEBA@?$AAJ?$AAa?$AAn?$AAu?$AAa?$AAr?$AAy?$AA?$AA@ 10043ce0     LIBCMT:nlsdata.obj
 0002:00005cf0       ??_C@_1BC@JGDDFFAM@?$AAF?$AAe?$AAb?$AAr?$AAu?$AAa?$AAr?$AAy?$AA?$AA@ 10043cf0     LIBCMT:nlsdata.obj
 0002:00005d04       ??_C@_1M@IKEENEDF@?$AAM?$AAa?$AAr?$AAc?$AAh?$AA?$AA@ 10043d04     LIBCMT:nlsdata.obj
 0002:00005d10       ??_C@_1M@GJNLMHFD@?$AAA?$AAp?$AAr?$AAi?$AAl?$AA?$AA@ 10043d10     LIBCMT:nlsdata.obj
 0002:00005d1c       ??_C@_19EPFLPGAP@?$AAJ?$AAu?$AAn?$AAe?$AA?$AA@ 10043d1c     LIBCMT:nlsdata.obj
 0002:00005d28       ??_C@_19BIFMLPCD@?$AAJ?$AAu?$AAl?$AAy?$AA?$AA@ 10043d28     LIBCMT:nlsdata.obj
 0002:00005d34       ??_C@_1O@PAHLKOAC@?$AAA?$AAu?$AAg?$AAu?$AAs?$AAt?$AA?$AA@ 10043d34     LIBCMT:nlsdata.obj
 0002:00005d44       ??_C@_1BE@DKAAMBJL@?$AAS?$AAe?$AAp?$AAt?$AAe?$AAm?$AAb?$AAe?$AAr?$AA?$AA@ 10043d44     LIBCMT:nlsdata.obj
 0002:00005d58       ??_C@_1BA@EPANDLNG@?$AAO?$AAc?$AAt?$AAo?$AAb?$AAe?$AAr?$AA?$AA@ 10043d58     LIBCMT:nlsdata.obj
 0002:00005d68       ??_C@_1BC@BGLIFPF@?$AAN?$AAo?$AAv?$AAe?$AAm?$AAb?$AAe?$AAr?$AA?$AA@ 10043d68     LIBCMT:nlsdata.obj
 0002:00005d7c       ??_C@_1BC@FEMKIFH@?$AAD?$AAe?$AAc?$AAe?$AAm?$AAb?$AAe?$AAr?$AA?$AA@ 10043d7c     LIBCMT:nlsdata.obj
 0002:00005d90       ??_C@_15ODEHAHHF@?$AAA?$AAM?$AA?$AA@ 10043d90     LIBCMT:nlsdata.obj
 0002:00005d98       ??_C@_15CLMNNGEL@?$AAP?$AAM?$AA?$AA@ 10043d98     LIBCMT:nlsdata.obj
 0002:00005da0       ??_C@_1BC@IEBCMHCM@?$AAM?$AAM?$AA?1?$AAd?$AAd?$AA?1?$AAy?$AAy?$AA?$AA@ 10043da0     LIBCMT:nlsdata.obj
 0002:00005db4       ??_C@_1CI@KNAKOEBC@?$AAd?$AAd?$AAd?$AAd?$AA?0?$AA?5?$AAM?$AAM?$AAM?$AAM?$AA?5?$AAd?$AAd?$AA?0?$AA?5?$AAy?$AAy?$AAy?$AAy?$AA?$AA@ 10043db4     LIBCMT:nlsdata.obj
 0002:00005ddc       ??_C@_1BC@GDGBMEMK@?$AAH?$AAH?$AA?3?$AAm?$AAm?$AA?3?$AAs?$AAs?$AA?$AA@ 10043ddc     LIBCMT:nlsdata.obj
 0002:00005df0       ??_C@_1M@BMHNFIME@?$AAe?$AAn?$AA?9?$AAU?$AAS?$AA?$AA@ 10043df0     LIBCMT:nlsdata.obj
 0002:00005e00       _LcidToLocaleNameTable     10043e00     LIBCMT:winapinls.obj
 0002:00006520       _LocaleNameToIndexTable    10044520     LIBCMT:winapinls.obj
 0002:00006c40       ??_C@_15EMKDOKLE@?$AAa?$AAr?$AA?$AA@ 10044c40     LIBCMT:winapinls.obj
 0002:00006c48       ??_C@_15KNPADPLH@?$AAb?$AAg?$AA?$AA@ 10044c48     LIBCMT:winapinls.obj
 0002:00006c50       ??_C@_15EDMHLDMO@?$AAc?$AAa?$AA?$AA@ 10044c50     LIBCMT:winapinls.obj
 0002:00006c58       ??_C@_1O@BPEAJADD@?$AAz?$AAh?$AA?9?$AAC?$AAH?$AAS?$AA?$AA@ 10044c58     LIBCMT:winapinls.obj
 0002:00006c68       ??_C@_15LJNHCMNK@?$AAc?$AAs?$AA?$AA@ 10044c68     LIBCMT:winapinls.obj
 0002:00006c70       ??_C@_15FOMCIDHG@?$AAd?$AAa?$AA?$AA@ 10044c70     LIBCMT:winapinls.obj
 0002:00006c78       ??_C@_15NBKABECB@?$AAd?$AAe?$AA?$AA@ 10044c78     LIBCMT:winapinls.obj
 0002:00006c80       ??_C@_15GHPEIIAO@?$AAe?$AAl?$AA?$AA@ 10044c80     LIBCMT:winapinls.obj
 0002:00006c88       ??_C@_15MNPNEAIF@?$AAe?$AAn?$AA?$AA@ 10044c88     LIBCMT:winapinls.obj
 0002:00006c90       ??_C@_15GPIOMPMH@?$AAe?$AAs?$AA?$AA@ 10044c90     LIBCMT:winapinls.obj
 0002:00006c98       ??_C@_15NGLOAKJC@?$AAf?$AAi?$AA?$AA@ 10044c98     LIBCMT:winapinls.obj
 0002:00006ca0       ??_C@_15FBKGNKAM@?$AAf?$AAr?$AA?$AA@ 10044ca0     LIBCMT:winapinls.obj
 0002:00006ca8       ??_C@_15KGGCNEFK@?$AAh?$AAe?$AA?$AA@ 10044ca8     LIBCMT:winapinls.obj
 0002:00006cb0       ??_C@_15PGHLIDMF@?$AAh?$AAu?$AA?$AA@ 10044cb0     LIBCMT:winapinls.obj
 0002:00006cb8       ??_C@_15BIEMAPLM@?$AAi?$AAs?$AA?$AA@ 10044cb8     LIBCMT:winapinls.obj
 0002:00006cc0       ??_C@_15IFJLDHAF@?$AAi?$AAt?$AA?$AA@ 10044cc0     LIBCMT:winapinls.obj
 0002:00006cc8       ??_C@_15GEMIOCAG@?$AAj?$AAa?$AA?$AA@ 10044cc8     LIBCMT:winapinls.obj
 0002:00006cd0       ??_C@_15EPELEGJA@?$AAk?$AAo?$AA?$AA@ 10044cd0     LIBCMT:winapinls.obj
 0002:00006cd8       ??_C@_15NDDHIMN@?$AAn?$AAl?$AA?$AA@ 10044cd8     LIBCMT:winapinls.obj
 0002:00006ce0       ??_C@_15BPIGNHCD@?$AAn?$AAo?$AA?$AA@ 10044ce0     LIBCMT:winapinls.obj
 0002:00006ce8       ??_C@_15DEOPBLCG@?$AAp?$AAl?$AA?$AA@ 10044ce8     LIBCMT:winapinls.obj
 0002:00006cf0       ??_C@_15KBECGEFG@?$AAp?$AAt?$AA?$AA@ 10044cf0     LIBCMT:winapinls.obj
 0002:00006cf8       ??_C@_15GLJCBFMD@?$AAr?$AAo?$AA?$AA@ 10044cf8     LIBCMT:winapinls.obj
 0002:00006d00       ??_C@_15FEDGKCDI@?$AAr?$AAu?$AA?$AA@ 10044d00     LIBCMT:winapinls.obj
 0002:00006d08       ??_C@_15GLKMLLHM@?$AAh?$AAr?$AA?$AA@ 10044d08     LIBCMT:winapinls.obj
 0002:00006d10       ??_C@_15CPKMFBDB@?$AAs?$AAk?$AA?$AA@ 10044d10     LIBCMT:winapinls.obj
 0002:00006d18       ??_C@_15BAAIOGMK@?$AAs?$AAq?$AA?$AA@ 10044d18     LIBCMT:winapinls.obj
 0002:00006d20       ??_C@_15INNPNOHD@?$AAs?$AAv?$AA?$AA@ 10044d20     LIBCMT:winapinls.obj
 0002:00006d28       ??_C@_15CABMMOGH@?$AAt?$AAh?$AA?$AA@ 10044d28     LIBCMT:winapinls.obj
 0002:00006d30       ??_C@_15BPLIHJJM@?$AAt?$AAr?$AA?$AA@ 10044d30     LIBCMT:winapinls.obj
 0002:00006d38       ??_C@_15NEOEKKDJ@?$AAu?$AAr?$AA?$AA@ 10044d38     LIBCMT:winapinls.obj
 0002:00006d40       ??_C@_15NFICGAJK@?$AAi?$AAd?$AA?$AA@ 10044d40     LIBCMT:winapinls.obj
 0002:00006d48       ??_C@_15PJPFLCCM@?$AAu?$AAk?$AA?$AA@ 10044d48     LIBCMT:winapinls.obj
 0002:00006d50       ??_C@_15HPJPHDM@?$AAb?$AAe?$AA?$AA@ 10044d50     LIBCMT:winapinls.obj
 0002:00006d58       ??_C@_15LCHLGJII@?$AAs?$AAl?$AA?$AA@ 10044d58     LIBCMT:winapinls.obj
 0002:00006d60       ??_C@_15PCFJPHHO@?$AAe?$AAt?$AA?$AA@ 10044d60     LIBCMT:winapinls.obj
 0002:00006d68       ??_C@_15HPFPGODN@?$AAl?$AAv?$AA?$AA@ 10044d68     LIBCMT:winapinls.obj
 0002:00006d70       ??_C@_15NFFGKGLG@?$AAl?$AAt?$AA?$AA@ 10044d70     LIBCMT:winapinls.obj
 0002:00006d78       ??_C@_15BDAKCCHN@?$AAf?$AAa?$AA?$AA@ 10044d78     LIBCMT:winapinls.obj
 0002:00006d80       ??_C@_15NFGIAIAJ@?$AAv?$AAi?$AA?$AA@ 10044d80     LIBCMT:winapinls.obj
 0002:00006d88       ??_C@_15LMKNDMHN@?$AAh?$AAy?$AA?$AA@ 10044d88     LIBCMT:winapinls.obj
 0002:00006d90       ??_C@_15IJBHMCFL@?$AAa?$AAz?$AA?$AA@ 10044d90     LIBCMT:winapinls.obj
 0002:00006d98       ??_C@_15EKOFJABL@?$AAe?$AAu?$AA?$AA@ 10044d98     LIBCMT:winapinls.obj
 0002:00006da0       ??_C@_15BGHADCNK@?$AAm?$AAk?$AA?$AA@ 10044da0     LIBCMT:winapinls.obj
 0002:00006da8       ??_C@_15JDNICKHM@?$AAa?$AAf?$AA?$AA@ 10044da8     LIBCMT:winapinls.obj
 0002:00006db0       ??_C@_15KPJEDBKD@?$AAk?$AAa?$AA?$AA@ 10044db0     LIBCMT:winapinls.obj
 0002:00006db8       ??_C@_15PDNFFFEO@?$AAf?$AAo?$AA?$AA@ 10044db8     LIBCMT:winapinls.obj
 0002:00006dc0       ??_C@_15OMLEGLOC@?$AAh?$AAi?$AA?$AA@ 10044dc0     LIBCMT:winapinls.obj
 0002:00006dc8       ??_C@_15IDNNENKK@?$AAm?$AAs?$AA?$AA@ 10044dc8     LIBCMT:winapinls.obj
 0002:00006dd0       ??_C@_15MACJNBMH@?$AAk?$AAk?$AA?$AA@ 10044dd0     LIBCMT:winapinls.obj
 0002:00006dd8       ??_C@_15DKDJEOND@?$AAk?$AAy?$AA?$AA@ 10044dd8     LIBCMT:winapinls.obj
 0002:00006de0       ??_C@_15DFGDLJBG@?$AAs?$AAw?$AA?$AA@ 10044de0     LIBCMT:winapinls.obj
 0002:00006de8       ??_C@_15BBFAICNG@?$AAu?$AAz?$AA?$AA@ 10044de8     LIBCMT:winapinls.obj
 0002:00006df0       ??_C@_15DKNDCGEA@?$AAt?$AAt?$AA?$AA@ 10044df0     LIBCMT:winapinls.obj
 0002:00006df8       ??_C@_15MGIFMDPL@?$AAp?$AAa?$AA?$AA@ 10044df8     LIBCMT:winapinls.obj
 0002:00006e00       ??_C@_15HCNDBBA@?$AAg?$AAu?$AA?$AA@ 10044e00     LIBCMT:winapinls.obj
 0002:00006e08       ??_C@_15FNBEIBON@?$AAt?$AAa?$AA?$AA@ 10044e08     LIBCMT:winapinls.obj
 0002:00006e10       ??_C@_15NCHGBGLK@?$AAt?$AAe?$AA?$AA@ 10044e10     LIBCMT:winapinls.obj
 0002:00006e18       ??_C@_15PHPHCBPF@?$AAk?$AAn?$AA?$AA@ 10044e18     LIBCMT:winapinls.obj
 0002:00006e20       ??_C@_15DLGBCKMP@?$AAm?$AAr?$AA?$AA@ 10044e20     LIBCMT:winapinls.obj
 0002:00006e28       ??_C@_15EABBLBFF@?$AAs?$AAa?$AA?$AA@ 10044e28     LIBCMT:winapinls.obj
 0002:00006e30       ??_C@_15CBKOMCOI@?$AAm?$AAn?$AA?$AA@ 10044e30     LIBCMT:winapinls.obj
 0002:00006e38       ??_C@_15CKDMCJAF@?$AAg?$AAl?$AA?$AA@ 10044e38     LIBCMT:winapinls.obj
 0002:00006e40       ??_C@_17CNJFBPG@?$AAk?$AAo?$AAk?$AA?$AA@ 10044e40     LIBCMT:winapinls.obj
 0002:00006e48       ??_C@_17FFBJICPL@?$AAs?$AAy?$AAr?$AA?$AA@ 10044e48     LIBCMT:winapinls.obj
 0002:00006e50       ??_C@_17KPNDCPAF@?$AAd?$AAi?$AAv?$AA?$AA@ 10044e50     LIBCMT:winapinls.obj
 0002:00006e58       ??_C@_11LOCGONAA@?$AA?$AA@ 10044e58     LIBCMT:winapinls.obj
 0002:00006e5c       ??_C@_1M@OKAHONE@?$AAa?$AAr?$AA?9?$AAS?$AAA?$AA?$AA@ 10044e5c     LIBCMT:winapinls.obj
 0002:00006e68       ??_C@_1M@FFFIGIGK@?$AAb?$AAg?$AA?9?$AAB?$AAG?$AA?$AA@ 10044e68     LIBCMT:winapinls.obj
 0002:00006e74       ??_C@_1M@BJNKEDC@?$AAc?$AAa?$AA?9?$AAE?$AAS?$AA?$AA@ 10044e74     LIBCMT:winapinls.obj
 0002:00006e80       ??_C@_1M@IJJHFJHA@?$AAc?$AAs?$AA?9?$AAC?$AAZ?$AA?$AA@ 10044e80     LIBCMT:winapinls.obj
 0002:00006e8c       ??_C@_1M@CLPEOBGI@?$AAd?$AAa?$AA?9?$AAD?$AAK?$AA?$AA@ 10044e8c     LIBCMT:winapinls.obj
 0002:00006e98       ??_C@_1M@MCMADGCB@?$AAd?$AAe?$AA?9?$AAD?$AAE?$AA?$AA@ 10044e98     LIBCMT:winapinls.obj
 0002:00006ea4       ??_C@_1M@OOCKEMAM@?$AAe?$AAl?$AA?9?$AAG?$AAR?$AA?$AA@ 10044ea4     LIBCMT:winapinls.obj
 0002:00006eb0       ??_C@_1M@DDNJFGID@?$AAf?$AAi?$AA?9?$AAF?$AAI?$AA?$AA@ 10044eb0     LIBCMT:winapinls.obj
 0002:00006ebc       ??_C@_1M@GLIPPMAC@?$AAf?$AAr?$AA?9?$AAF?$AAR?$AA?$AA@ 10044ebc     LIBCMT:winapinls.obj
 0002:00006ec8       ??_C@_1M@GFMCHPE@?$AAh?$AAe?$AA?9?$AAI?$AAL?$AA?$AA@ 10044ec8     LIBCMT:winapinls.obj
 0002:00006ed4       ??_C@_1M@MHLPGNKM@?$AAh?$AAu?$AA?9?$AAH?$AAU?$AA?$AA@ 10044ed4     LIBCMT:winapinls.obj
 0002:00006ee0       ??_C@_1M@LPDDNNPN@?$AAi?$AAs?$AA?9?$AAI?$AAS?$AA?$AA@ 10044ee0     LIBCMT:winapinls.obj
 0002:00006eec       ??_C@_1M@MADIPODN@?$AAi?$AAt?$AA?9?$AAI?$AAT?$AA?$AA@ 10044eec     LIBCMT:winapinls.obj
 0002:00006ef8       ??_C@_1M@IHBJJGG@?$AAn?$AAl?$AA?9?$AAN?$AAL?$AA?$AA@ 10044ef8     LIBCMT:winapinls.obj
 0002:00006f04       ??_C@_1M@EANAGDL@?$AAn?$AAb?$AA?9?$AAN?$AAO?$AA?$AA@ 10044f04     LIBCMT:winapinls.obj
 0002:00006f10       ??_C@_1M@NEIEMEGP@?$AAp?$AAl?$AA?9?$AAP?$AAL?$AA?$AA@ 10044f10     LIBCMT:winapinls.obj
 0002:00006f1c       ??_C@_1M@BOCFIGEP@?$AAp?$AAt?$AA?9?$AAB?$AAR?$AA?$AA@ 10044f1c     LIBCMT:winapinls.obj
 0002:00006f28       ??_C@_1M@IMPFOPBG@?$AAr?$AAo?$AA?9?$AAR?$AAO?$AA?$AA@ 10044f28     LIBCMT:winapinls.obj
 0002:00006f34       ??_C@_1M@IDNNEJMM@?$AAr?$AAu?$AA?9?$AAR?$AAU?$AA?$AA@ 10044f34     LIBCMT:winapinls.obj
 0002:00006f40       ??_C@_1M@LILEEOGM@?$AAh?$AAr?$AA?9?$AAH?$AAR?$AA?$AA@ 10044f40     LIBCMT:winapinls.obj
 0002:00006f4c       ??_C@_1M@FKIFEHPB@?$AAs?$AAk?$AA?9?$AAS?$AAK?$AA?$AA@ 10044f4c     LIBCMT:winapinls.obj
 0002:00006f58       ??_C@_1M@LJMAMNPJ@?$AAs?$AAq?$AA?9?$AAA?$AAL?$AA?$AA@ 10044f58     LIBCMT:winapinls.obj
 0002:00006f64       ??_C@_1M@GIAKDKJK@?$AAs?$AAv?$AA?9?$AAS?$AAE?$AA?$AA@ 10044f64     LIBCMT:winapinls.obj
 0002:00006f70       ??_C@_1M@MKJKIKCL@?$AAt?$AAh?$AA?9?$AAT?$AAH?$AA?$AA@ 10044f70     LIBCMT:winapinls.obj
 0002:00006f7c       ??_C@_1M@MFLCCMPB@?$AAt?$AAr?$AA?9?$AAT?$AAR?$AA?$AA@ 10044f7c     LIBCMT:winapinls.obj
 0002:00006f88       ??_C@_1M@OIJHDKJN@?$AAu?$AAr?$AA?9?$AAP?$AAK?$AA?$AA@ 10044f88     LIBCMT:winapinls.obj
 0002:00006f94       ??_C@_1M@LHIPCIEK@?$AAi?$AAd?$AA?9?$AAI?$AAD?$AA?$AA@ 10044f94     LIBCMT:winapinls.obj
 0002:00006fa0       ??_C@_1M@MFMOBGI@?$AAu?$AAk?$AA?9?$AAU?$AAA?$AA?$AA@ 10044fa0     LIBCMT:winapinls.obj
 0002:00006fac       ??_C@_1M@OBGLJIPL@?$AAb?$AAe?$AA?9?$AAB?$AAY?$AA?$AA@ 10044fac     LIBCMT:winapinls.obj
 0002:00006fb8       ??_C@_1M@BCFAJEAD@?$AAs?$AAl?$AA?9?$AAS?$AAI?$AA?$AA@ 10044fb8     LIBCMT:winapinls.obj
 0002:00006fc4       ??_C@_1M@FKFFEDDN@?$AAe?$AAt?$AA?9?$AAE?$AAE?$AA?$AA@ 10044fc4     LIBCMT:winapinls.obj
 0002:00006fd0       ??_C@_1M@KGKKAACI@?$AAl?$AAv?$AA?9?$AAL?$AAV?$AA?$AA@ 10044fd0     LIBCMT:winapinls.obj
 0002:00006fdc       ??_C@_1M@IFGBIJO@?$AAl?$AAt?$AA?9?$AAL?$AAT?$AA?$AA@ 10044fdc     LIBCMT:winapinls.obj
 0002:00006fe8       ??_C@_1M@FGEAHEDM@?$AAf?$AAa?$AA?9?$AAI?$AAR?$AA?$AA@ 10044fe8     LIBCMT:winapinls.obj
 0002:00006ff4       ??_C@_1M@KBMAIBFN@?$AAv?$AAi?$AA?9?$AAV?$AAN?$AA?$AA@ 10044ff4     LIBCMT:winapinls.obj
 0002:00007000       ??_C@_1M@GPCBKDJK@?$AAh?$AAy?$AA?9?$AAA?$AAM?$AA?$AA@ 10045000     LIBCMT:winapinls.obj
 0002:0000700c       ??_C@_1BG@BECMDDJB@?$AAa?$AAz?$AA?9?$AAA?$AAZ?$AA?9?$AAL?$AAa?$AAt?$AAn?$AA?$AA@ 1004500c     LIBCMT:winapinls.obj
 0002:00007024       ??_C@_1M@MAOFCAEA@?$AAe?$AAu?$AA?9?$AAE?$AAS?$AA?$AA@ 10045024     LIBCMT:winapinls.obj
 0002:00007030       ??_C@_1M@IGHABKPI@?$AAm?$AAk?$AA?9?$AAM?$AAK?$AA?$AA@ 10045030     LIBCMT:winapinls.obj
 0002:0000703c       ??_C@_1M@IAIGNEJG@?$AAt?$AAn?$AA?9?$AAZ?$AAA?$AA?$AA@ 1004503c     LIBCMT:winapinls.obj
 0002:00007048       ??_C@_1M@IIJCOJFA@?$AAx?$AAh?$AA?9?$AAZ?$AAA?$AA?$AA@ 10045048     LIBCMT:winapinls.obj
 0002:00007054       ??_C@_1M@LGPJHNJH@?$AAz?$AAu?$AA?9?$AAZ?$AAA?$AA?$AA@ 10045054     LIBCMT:winapinls.obj
 0002:00007060       ??_C@_1M@HOKAOIO@?$AAa?$AAf?$AA?9?$AAZ?$AAA?$AA?$AA@ 10045060     LIBCMT:winapinls.obj
 0002:0000706c       ??_C@_1M@DPCLHLIE@?$AAk?$AAa?$AA?9?$AAG?$AAE?$AA?$AA@ 1004506c     LIBCMT:winapinls.obj
 0002:00007078       ??_C@_1M@BLKMHJBI@?$AAf?$AAo?$AA?9?$AAF?$AAO?$AA?$AA@ 10045078     LIBCMT:winapinls.obj
 0002:00007084       ??_C@_1M@LGGJAPPB@?$AAh?$AAi?$AA?9?$AAI?$AAN?$AA?$AA@ 10045084     LIBCMT:winapinls.obj
 0002:00007090       ??_C@_1M@FIKPIHFE@?$AAm?$AAt?$AA?9?$AAM?$AAT?$AA?$AA@ 10045090     LIBCMT:winapinls.obj
 0002:0000709c       ??_C@_1M@HEGGPBFA@?$AAs?$AAe?$AA?9?$AAN?$AAO?$AA?$AA@ 1004509c     LIBCMT:winapinls.obj
 0002:000070a8       ??_C@_1M@EIBJEEPA@?$AAm?$AAs?$AA?9?$AAM?$AAY?$AA?$AA@ 100450a8     LIBCMT:winapinls.obj
 0002:000070b4       ??_C@_1M@FHLBGMPP@?$AAk?$AAk?$AA?9?$AAK?$AAZ?$AA?$AA@ 100450b4     LIBCMT:winapinls.obj
 0002:000070c0       ??_C@_1M@NGJJLCGI@?$AAk?$AAy?$AA?9?$AAK?$AAG?$AA?$AA@ 100450c0     LIBCMT:winapinls.obj
 0002:000070cc       ??_C@_1M@GIENNBFC@?$AAs?$AAw?$AA?9?$AAK?$AAE?$AA?$AA@ 100450cc     LIBCMT:winapinls.obj
 0002:000070d8       ??_C@_1BG@NDGMJIMJ@?$AAu?$AAz?$AA?9?$AAU?$AAZ?$AA?9?$AAL?$AAa?$AAt?$AAn?$AA?$AA@ 100450d8     LIBCMT:winapinls.obj
 0002:000070f0       ??_C@_1M@IDCCIHBC@?$AAt?$AAt?$AA?9?$AAR?$AAU?$AA?$AA@ 100450f0     LIBCMT:winapinls.obj
 0002:000070fc       ??_C@_1M@LOICPMOJ@?$AAb?$AAn?$AA?9?$AAI?$AAN?$AA?$AA@ 100450fc     LIBCMT:winapinls.obj
 0002:00007108       ??_C@_1M@KPKKNEAH@?$AAp?$AAa?$AA?9?$AAI?$AAN?$AA?$AA@ 10045108     LIBCMT:winapinls.obj
 0002:00007114       ??_C@_1M@PJGPPBOG@?$AAg?$AAu?$AA?9?$AAI?$AAN?$AA?$AA@ 10045114     LIBCMT:winapinls.obj
 0002:00007120       ??_C@_1M@KMKMOPHI@?$AAt?$AAa?$AA?9?$AAI?$AAN?$AA?$AA@ 10045120     LIBCMT:winapinls.obj
 0002:0000712c       ??_C@_1M@KFEHEPAC@?$AAt?$AAe?$AA?9?$AAI?$AAN?$AA?$AA@ 1004512c     LIBCMT:winapinls.obj
 0002:00007138       ??_C@_1M@CDCLMGHI@?$AAk?$AAn?$AA?9?$AAI?$AAN?$AA?$AA@ 10045138     LIBCMT:winapinls.obj
 0002:00007144       ??_C@_1M@MIODLDKF@?$AAm?$AAl?$AA?9?$AAI?$AAN?$AA?$AA@ 10045144     LIBCMT:winapinls.obj
 0002:00007150       ??_C@_1M@PBIEACPO@?$AAm?$AAr?$AA?9?$AAI?$AAN?$AA?$AA@ 10045150     LIBCMT:winapinls.obj
 0002:0000715c       ??_C@_1M@NIDEAGPH@?$AAs?$AAa?$AA?9?$AAI?$AAN?$AA?$AA@ 1004515c     LIBCMT:winapinls.obj
 0002:00007168       ??_C@_1M@FHIHCBIO@?$AAm?$AAn?$AA?9?$AAM?$AAN?$AA?$AA@ 10045168     LIBCMT:winapinls.obj
 0002:00007174       ??_C@_1M@JAIJPENP@?$AAc?$AAy?$AA?9?$AAG?$AAB?$AA?$AA@ 10045174     LIBCMT:winapinls.obj
 0002:00007180       ??_C@_1M@PHGFBEPN@?$AAg?$AAl?$AA?9?$AAE?$AAS?$AA?$AA@ 10045180     LIBCMT:winapinls.obj
 0002:0000718c       ??_C@_1O@KPIPDNCP@?$AAk?$AAo?$AAk?$AA?9?$AAI?$AAN?$AA?$AA@ 1004518c     LIBCMT:winapinls.obj
 0002:0000719c       ??_C@_1O@KNHJLDJA@?$AAs?$AAy?$AAr?$AA?9?$AAS?$AAY?$AA?$AA@ 1004519c     LIBCMT:winapinls.obj
 0002:000071ac       ??_C@_1O@MKEKBLAH@?$AAd?$AAi?$AAv?$AA?9?$AAM?$AAV?$AA?$AA@ 100451ac     LIBCMT:winapinls.obj
 0002:000071bc       ??_C@_1O@OHDCKDDF@?$AAq?$AAu?$AAz?$AA?9?$AAB?$AAO?$AA?$AA@ 100451bc     LIBCMT:winapinls.obj
 0002:000071cc       ??_C@_1M@LEPJNLFD@?$AAn?$AAs?$AA?9?$AAZ?$AAA?$AA?$AA@ 100451cc     LIBCMT:winapinls.obj
 0002:000071d8       ??_C@_1M@OMLEIIJB@?$AAm?$AAi?$AA?9?$AAN?$AAZ?$AA?$AA@ 100451d8     LIBCMT:winapinls.obj
 0002:000071e4       ??_C@_1M@PMPEAILG@?$AAa?$AAr?$AA?9?$AAI?$AAQ?$AA?$AA@ 100451e4     LIBCMT:winapinls.obj
 0002:000071f0       ??_C@_1M@CNKPNOEE@?$AAd?$AAe?$AA?9?$AAC?$AAH?$AA?$AA@ 100451f0     LIBCMT:winapinls.obj
 0002:000071fc       ??_C@_1M@LKMGMLKO@?$AAe?$AAn?$AA?9?$AAG?$AAB?$AA?$AA@ 100451fc     LIBCMT:winapinls.obj
 0002:00007208       ??_C@_1M@PGKJFFGL@?$AAe?$AAs?$AA?9?$AAM?$AAX?$AA?$AA@ 10045208     LIBCMT:winapinls.obj
 0002:00007214       ??_C@_1M@DNNANBDC@?$AAf?$AAr?$AA?9?$AAB?$AAE?$AA?$AA@ 10045214     LIBCMT:winapinls.obj
 0002:00007220       ??_C@_1M@HLGMDFHM@?$AAi?$AAt?$AA?9?$AAC?$AAH?$AA?$AA@ 10045220     LIBCMT:winapinls.obj
 0002:0000722c       ??_C@_1M@CLLBGJH@?$AAn?$AAl?$AA?9?$AAB?$AAE?$AA?$AA@ 1004522c     LIBCMT:winapinls.obj
 0002:00007238       ??_C@_1M@BODBOGLF@?$AAn?$AAn?$AA?9?$AAN?$AAO?$AA?$AA@ 10045238     LIBCMT:winapinls.obj
 0002:00007244       ??_C@_1M@HFFAHKAD@?$AAp?$AAt?$AA?9?$AAP?$AAT?$AA?$AA@ 10045244     LIBCMT:winapinls.obj
 0002:00007250       ??_C@_1BG@LNOAKHIE@?$AAs?$AAr?$AA?9?$AAS?$AAP?$AA?9?$AAL?$AAa?$AAt?$AAn?$AA?$AA@ 10045250     LIBCMT:winapinls.obj
 0002:00007268       ??_C@_1M@HBMHBGAK@?$AAs?$AAv?$AA?9?$AAF?$AAI?$AA?$AA@ 10045268     LIBCMT:winapinls.obj
 0002:00007274       ??_C@_1BG@DGCJGJBE@?$AAa?$AAz?$AA?9?$AAA?$AAZ?$AA?9?$AAC?$AAy?$AAr?$AAl?$AA?$AA@ 10045274     LIBCMT:winapinls.obj
 0002:0000728c       ??_C@_1M@KEJDAAHB@?$AAs?$AAe?$AA?9?$AAS?$AAE?$AA?$AA@ 1004528c     LIBCMT:winapinls.obj
 0002:00007298       ??_C@_1M@HEIBJJAD@?$AAm?$AAs?$AA?9?$AAB?$AAN?$AA?$AA@ 10045298     LIBCMT:winapinls.obj
 0002:000072a4       ??_C@_1BG@PBGJMCEM@?$AAu?$AAz?$AA?9?$AAU?$AAZ?$AA?9?$AAC?$AAy?$AAr?$AAl?$AA?$AA@ 100452a4     LIBCMT:winapinls.obj
 0002:000072bc       ??_C@_1O@LAOBCMDF@?$AAq?$AAu?$AAz?$AA?9?$AAE?$AAC?$AA?$AA@ 100452bc     LIBCMT:winapinls.obj
 0002:000072cc       ??_C@_1M@POEEMAIO@?$AAa?$AAr?$AA?9?$AAE?$AAG?$AA?$AA@ 100452cc     LIBCMT:winapinls.obj
 0002:000072d8       ??_C@_1M@EFAKDEDL@?$AAz?$AAh?$AA?9?$AAH?$AAK?$AA?$AA@ 100452d8     LIBCMT:winapinls.obj
 0002:000072e4       ??_C@_1M@HKKIJHGI@?$AAd?$AAe?$AA?9?$AAA?$AAT?$AA?$AA@ 100452e4     LIBCMT:winapinls.obj
 0002:000072f0       ??_C@_1M@KBFBEHJF@?$AAe?$AAn?$AA?9?$AAA?$AAU?$AA?$AA@ 100452f0     LIBCMT:winapinls.obj
 0002:000072fc       ??_C@_1M@MNPLFAAH@?$AAe?$AAs?$AA?9?$AAE?$AAS?$AA?$AA@ 100452fc     LIBCMT:winapinls.obj
 0002:00007308       ??_C@_1M@HJOOJFMA@?$AAf?$AAr?$AA?9?$AAC?$AAA?$AA?$AA@ 10045308     LIBCMT:winapinls.obj
 0002:00007314       ??_C@_1BG@JPOFPNAB@?$AAs?$AAr?$AA?9?$AAS?$AAP?$AA?9?$AAC?$AAy?$AAr?$AAl?$AA?$AA@ 10045314     LIBCMT:winapinls.obj
 0002:0000732c       ??_C@_1M@LNFOCMOB@?$AAs?$AAe?$AA?9?$AAF?$AAI?$AA?$AA@ 1004532c     LIBCMT:winapinls.obj
 0002:00007338       ??_C@_1O@MGJBOAMB@?$AAq?$AAu?$AAz?$AA?9?$AAP?$AAE?$AA?$AA@ 10045338     LIBCMT:winapinls.obj
 0002:00007348       ??_C@_1M@GJINLBOK@?$AAa?$AAr?$AA?9?$AAL?$AAY?$AA?$AA@ 10045348     LIBCMT:winapinls.obj
 0002:00007354       ??_C@_1M@GGMNHJNL@?$AAz?$AAh?$AA?9?$AAS?$AAG?$AA?$AA@ 10045354     LIBCMT:winapinls.obj
 0002:00007360       ??_C@_1M@HOIKODND@?$AAd?$AAe?$AA?9?$AAL?$AAU?$AA?$AA@ 10045360     LIBCMT:winapinls.obj
 0002:0000736c       ??_C@_1M@DDOCCGFG@?$AAe?$AAn?$AA?9?$AAC?$AAA?$AA?$AA@ 1004536c     LIBCMT:winapinls.obj
 0002:00007378       ??_C@_1M@BNOEMJLF@?$AAe?$AAs?$AA?9?$AAG?$AAT?$AA?$AA@ 10045378     LIBCMT:winapinls.obj
 0002:00007384       ??_C@_1M@EOGNKEK@?$AAf?$AAr?$AA?9?$AAC?$AAH?$AA?$AA@ 10045384     LIBCMT:winapinls.obj
 0002:00007390       ??_C@_1M@FLIDJFHL@?$AAh?$AAr?$AA?9?$AAB?$AAA?$AA?$AA@ 10045390     LIBCMT:winapinls.obj
 0002:0000739c       ??_C@_1O@FMCELNAJ@?$AAs?$AAm?$AAj?$AA?9?$AAN?$AAO?$AA?$AA@ 1004539c     LIBCMT:winapinls.obj
 0002:000073ac       ??_C@_1M@JHGLJMGJ@?$AAa?$AAr?$AA?9?$AAD?$AAZ?$AA?$AA@ 100453ac     LIBCMT:winapinls.obj
 0002:000073b8       ??_C@_1M@JKKFDCNP@?$AAz?$AAh?$AA?9?$AAM?$AAO?$AA?$AA@ 100453b8     LIBCMT:winapinls.obj
 0002:000073c4       ??_C@_1M@GEEFALPE@?$AAd?$AAe?$AA?9?$AAL?$AAI?$AA?$AA@ 100453c4     LIBCMT:winapinls.obj
 0002:000073d0       ??_C@_1M@IGEOFBG@?$AAe?$AAn?$AA?9?$AAN?$AAZ?$AA?$AA@ 100453d0     LIBCMT:winapinls.obj
 0002:000073dc       ??_C@_1M@KDBONEHP@?$AAe?$AAs?$AA?9?$AAC?$AAR?$AA?$AA@ 100453dc     LIBCMT:winapinls.obj
 0002:000073e8       ??_C@_1M@FHMDOHNN@?$AAf?$AAr?$AA?9?$AAL?$AAU?$AA?$AA@ 100453e8     LIBCMT:winapinls.obj
 0002:000073f4       ??_C@_1BG@NFKKMAFG@?$AAb?$AAs?$AA?9?$AAB?$AAA?$AA?9?$AAL?$AAa?$AAt?$AAn?$AA?$AA@ 100453f4     LIBCMT:winapinls.obj
 0002:0000740c       ??_C@_1O@IMNBEMCI@?$AAs?$AAm?$AAj?$AA?9?$AAS?$AAE?$AA?$AA@ 1004540c     LIBCMT:winapinls.obj
 0002:0000741c       ??_C@_1M@DHHMBNDP@?$AAa?$AAr?$AA?9?$AAM?$AAA?$AA?$AA@ 1004541c     LIBCMT:winapinls.obj
 0002:00007428       ??_C@_1M@BNBLJCGH@?$AAe?$AAn?$AA?9?$AAI?$AAE?$AA?$AA@ 10045428     LIBCMT:winapinls.obj
 0002:00007434       ??_C@_1M@GEPAFMDL@?$AAe?$AAs?$AA?9?$AAP?$AAA?$AA?$AA@ 10045434     LIBCMT:winapinls.obj
 0002:00007440       ??_C@_1M@OJONDMDL@?$AAf?$AAr?$AA?9?$AAM?$AAC?$AA?$AA@ 10045440     LIBCMT:winapinls.obj
 0002:0000744c       ??_C@_1BG@OBCNFJB@?$AAs?$AAr?$AA?9?$AAB?$AAA?$AA?9?$AAL?$AAa?$AAt?$AAn?$AA?$AA@ 1004544c     LIBCMT:winapinls.obj
 0002:00007464       ??_C@_1O@KEMEEGPO@?$AAs?$AAm?$AAa?$AA?9?$AAN?$AAO?$AA?$AA@ 10045464     LIBCMT:winapinls.obj
 0002:00007474       ??_C@_1M@ELMGFODK@?$AAa?$AAr?$AA?9?$AAT?$AAN?$AA?$AA@ 10045474     LIBCMT:winapinls.obj
 0002:00007480       ??_C@_1M@BHDLHFAF@?$AAe?$AAn?$AA?9?$AAZ?$AAA?$AA?$AA@ 10045480     LIBCMT:winapinls.obj
 0002:0000748c       ??_C@_1M@BMGIGLIF@?$AAe?$AAs?$AA?9?$AAD?$AAO?$AA?$AA@ 1004548c     LIBCMT:winapinls.obj
 0002:00007498       ??_C@_1BG@CMBHIPBE@?$AAs?$AAr?$AA?9?$AAB?$AAA?$AA?9?$AAC?$AAy?$AAr?$AAl?$AA?$AA@ 10045498     LIBCMT:winapinls.obj
 0002:000074b0       ??_C@_1O@HEDBLHNP@?$AAs?$AAm?$AAa?$AA?9?$AAS?$AAE?$AA?$AA@ 100454b0     LIBCMT:winapinls.obj
 0002:000074c0       ??_C@_1M@DAGCADIM@?$AAa?$AAr?$AA?9?$AAO?$AAM?$AA?$AA@ 100454c0     LIBCMT:winapinls.obj
 0002:000074cc       ??_C@_1M@FODLMICG@?$AAe?$AAn?$AA?9?$AAJ?$AAM?$AA?$AA@ 100454cc     LIBCMT:winapinls.obj
 0002:000074d8       ??_C@_1M@DNMLCIHB@?$AAe?$AAs?$AA?9?$AAV?$AAE?$AA?$AA@ 100454d8     LIBCMT:winapinls.obj
 0002:000074e4       ??_C@_1O@EOKHMKJK@?$AAs?$AAm?$AAs?$AA?9?$AAF?$AAI?$AA?$AA@ 100454e4     LIBCMT:winapinls.obj
 0002:000074f4       ??_C@_1M@CAFJMKOF@?$AAa?$AAr?$AA?9?$AAY?$AAE?$AA?$AA@ 100454f4     LIBCMT:winapinls.obj
 0002:00007500       ??_C@_1M@CBFHIJLI@?$AAe?$AAn?$AA?9?$AAC?$AAB?$AA?$AA@ 10045500     LIBCMT:winapinls.obj
 0002:0000750c       ??_C@_1M@BGNFLDN@?$AAe?$AAs?$AA?9?$AAC?$AAO?$AA?$AA@ 1004550c     LIBCMT:winapinls.obj
 0002:00007518       ??_C@_1O@JMPHMAMC@?$AAs?$AAm?$AAn?$AA?9?$AAF?$AAI?$AA?$AA@ 10045518     LIBCMT:winapinls.obj
 0002:00007528       ??_C@_1M@JLANABKE@?$AAa?$AAr?$AA?9?$AAS?$AAY?$AA?$AA@ 10045528     LIBCMT:winapinls.obj
 0002:00007534       ??_C@_1M@HPKGCFGN@?$AAe?$AAn?$AA?9?$AAB?$AAZ?$AA?$AA@ 10045534     LIBCMT:winapinls.obj
 0002:00007540       ??_C@_1M@OLJCMLGM@?$AAe?$AAs?$AA?9?$AAP?$AAE?$AA?$AA@ 10045540     LIBCMT:winapinls.obj
 0002:0000754c       ??_C@_1M@MKKGFKLE@?$AAa?$AAr?$AA?9?$AAJ?$AAO?$AA?$AA@ 1004554c     LIBCMT:winapinls.obj
 0002:00007558       ??_C@_1M@EKPGLDNI@?$AAe?$AAn?$AA?9?$AAT?$AAT?$AA?$AA@ 10045558     LIBCMT:winapinls.obj
 0002:00007564       ??_C@_1M@OONGHFHE@?$AAe?$AAs?$AA?9?$AAA?$AAR?$AA?$AA@ 10045564     LIBCMT:winapinls.obj
 0002:00007570       ??_C@_1M@OOJFGBHE@?$AAa?$AAr?$AA?9?$AAL?$AAB?$AA?$AA@ 10045570     LIBCMT:winapinls.obj
 0002:0000757c       ??_C@_1M@GCEJHNEG@?$AAe?$AAn?$AA?9?$AAZ?$AAW?$AA?$AA@ 1004557c     LIBCMT:winapinls.obj
 0002:00007588       ??_C@_1M@JNOCAHJI@?$AAe?$AAs?$AA?9?$AAE?$AAC?$AA?$AA@ 10045588     LIBCMT:winapinls.obj
 0002:00007594       ??_C@_1M@JEFHPGGB@?$AAa?$AAr?$AA?9?$AAK?$AAW?$AA?$AA@ 10045594     LIBCMT:winapinls.obj
 0002:000075a0       ??_C@_1M@MLKIBJOJ@?$AAe?$AAn?$AA?9?$AAP?$AAH?$AA?$AA@ 100455a0     LIBCMT:winapinls.obj
 0002:000075ac       ??_C@_1M@BDNIPEND@?$AAe?$AAs?$AA?9?$AAC?$AAL?$AA?$AA@ 100455ac     LIBCMT:winapinls.obj
 0002:000075b8       ??_C@_1M@MPNMEKBD@?$AAa?$AAr?$AA?9?$AAA?$AAE?$AA?$AA@ 100455b8     LIBCMT:winapinls.obj
 0002:000075c4       ??_C@_1M@KBJALCPI@?$AAe?$AAs?$AA?9?$AAU?$AAY?$AA?$AA@ 100455c4     LIBCMT:winapinls.obj
 0002:000075d0       ??_C@_1M@LLCCOAGA@?$AAa?$AAr?$AA?9?$AAB?$AAH?$AA?$AA@ 100455d0     LIBCMT:winapinls.obj
 0002:000075dc       ??_C@_1M@PBFNCDEL@?$AAe?$AAs?$AA?9?$AAP?$AAY?$AA?$AA@ 100455dc     LIBCMT:winapinls.obj
 0002:000075e8       ??_C@_1M@EDGINPNP@?$AAa?$AAr?$AA?9?$AAQ?$AAA?$AA?$AA@ 100455e8     LIBCMT:winapinls.obj
 0002:000075f4       ??_C@_1M@MKDBIIJI@?$AAe?$AAs?$AA?9?$AAB?$AAO?$AA?$AA@ 100455f4     LIBCMT:winapinls.obj
 0002:00007600       ??_C@_1M@CPKKEBLD@?$AAe?$AAs?$AA?9?$AAS?$AAV?$AA?$AA@ 10045600     LIBCMT:winapinls.obj
 0002:0000760c       ??_C@_1M@NDBGMMJL@?$AAe?$AAs?$AA?9?$AAH?$AAN?$AA?$AA@ 1004560c     LIBCMT:winapinls.obj
 0002:00007618       ??_C@_1M@JIJIBHDP@?$AAe?$AAs?$AA?9?$AAN?$AAI?$AA?$AA@ 10045618     LIBCMT:winapinls.obj
 0002:00007624       ??_C@_1M@CGFMKEEK@?$AAe?$AAs?$AA?9?$AAP?$AAR?$AA?$AA@ 10045624     LIBCMT:winapinls.obj
 0002:00007630       ??_C@_1O@ICJHKIIK@?$AAz?$AAh?$AA?9?$AAC?$AAH?$AAT?$AA?$AA@ 10045630     LIBCMT:winapinls.obj
 0002:00007640       ??_C@_15CLNEJCE@?$AAs?$AAr?$AA?$AA@ 10045640     LIBCMT:winapinls.obj
 0002:00007648       ??_C@_1M@KAHEKEIG@?$AAa?$AAf?$AA?9?$AAz?$AAa?$AA?$AA@ 10045648     LIBCMT:winapinls.obj
 0002:00007654       ??_C@_1M@GIECOABL@?$AAa?$AAr?$AA?9?$AAa?$AAe?$AA?$AA@ 10045654     LIBCMT:winapinls.obj
 0002:00007660       ??_C@_1M@BMLMEKGI@?$AAa?$AAr?$AA?9?$AAb?$AAh?$AA?$AA@ 10045660     LIBCMT:winapinls.obj
 0002:0000766c       ??_C@_1M@DAPFDGGB@?$AAa?$AAr?$AA?9?$AAd?$AAz?$AA?$AA@ 1004566c     LIBCMT:winapinls.obj
 0002:00007678       ??_C@_1M@FJNKGKIG@?$AAa?$AAr?$AA?9?$AAe?$AAg?$AA?$AA@ 10045678     LIBCMT:winapinls.obj
 0002:00007684       ??_C@_1M@FLGKKCLO@?$AAa?$AAr?$AA?9?$AAi?$AAq?$AA?$AA@ 10045684     LIBCMT:winapinls.obj
 0002:00007690       ??_C@_1M@GNDIPALM@?$AAa?$AAr?$AA?9?$AAj?$AAo?$AA?$AA@ 10045690     LIBCMT:winapinls.obj
 0002:0000769c       ??_C@_1M@DDMJFMGJ@?$AAa?$AAr?$AA?9?$AAk?$AAw?$AA?$AA@ 1004569c     LIBCMT:winapinls.obj
 0002:000076a8       ??_C@_1M@EJALMLHM@?$AAa?$AAr?$AA?9?$AAl?$AAb?$AA?$AA@ 100456a8     LIBCMT:winapinls.obj
 0002:000076b4       ??_C@_1M@MOBDBLOC@?$AAa?$AAr?$AA?9?$AAl?$AAy?$AA?$AA@ 100456b4     LIBCMT:winapinls.obj
 0002:000076c0       ??_C@_1M@JAOCLHDH@?$AAa?$AAr?$AA?9?$AAm?$AAa?$AA?$AA@ 100456c0     LIBCMT:winapinls.obj
 0002:000076cc       ??_C@_1M@JHPMKJIE@?$AAa?$AAr?$AA?9?$AAo?$AAm?$AA?$AA@ 100456cc     LIBCMT:winapinls.obj
 0002:000076d8       ??_C@_1M@OEPGHFNH@?$AAa?$AAr?$AA?9?$AAq?$AAa?$AA?$AA@ 100456d8     LIBCMT:winapinls.obj
 0002:000076e4       ??_C@_1M@KJDONENM@?$AAa?$AAr?$AA?9?$AAs?$AAa?$AA?$AA@ 100456e4     LIBCMT:winapinls.obj
 0002:000076f0       ??_C@_1M@DMJDKLKM@?$AAa?$AAr?$AA?9?$AAs?$AAy?$AA?$AA@ 100456f0     LIBCMT:winapinls.obj
 0002:000076fc       ??_C@_1M@OMFIPEDC@?$AAa?$AAr?$AA?9?$AAt?$AAn?$AA?$AA@ 100456fc     LIBCMT:winapinls.obj
 0002:00007708       ??_C@_1M@IHMHGAON@?$AAa?$AAr?$AA?9?$AAy?$AAe?$AA?$AA@ 10045708     LIBCMT:winapinls.obj
 0002:00007714       ??_C@_1BG@KDCPGJGB@?$AAa?$AAz?$AA?9?$AAa?$AAz?$AA?9?$AAc?$AAy?$AAr?$AAl?$AA?$AA@ 10045714     LIBCMT:winapinls.obj
 0002:0000772c       ??_C@_1BG@IBCKDDOE@?$AAa?$AAz?$AA?9?$AAa?$AAz?$AA?9?$AAl?$AAa?$AAt?$AAn?$AA?$AA@ 1004572c     LIBCMT:winapinls.obj
 0002:00007744       ??_C@_1M@EGPFDCPD@?$AAb?$AAe?$AA?9?$AAb?$AAy?$AA?$AA@ 10045744     LIBCMT:winapinls.obj
 0002:00007750       ??_C@_1M@PCMGMCGC@?$AAb?$AAg?$AA?9?$AAb?$AAg?$AA?$AA@ 10045750     LIBCMT:winapinls.obj
 0002:0000775c       ??_C@_1M@BJBMFGOB@?$AAb?$AAn?$AA?9?$AAi?$AAn?$AA?$AA@ 1004575c     LIBCMT:winapinls.obj
 0002:00007768       ??_C@_1BG@EAKMMACD@?$AAb?$AAs?$AA?9?$AAb?$AAa?$AA?9?$AAl?$AAa?$AAt?$AAn?$AA?$AA@ 10045768     LIBCMT:winapinls.obj
 0002:00007780       ??_C@_1M@KGADAODK@?$AAc?$AAa?$AA?9?$AAe?$AAs?$AA?$AA@ 10045780     LIBCMT:winapinls.obj
 0002:0000778c       ??_C@_1M@COAJPDHI@?$AAc?$AAs?$AA?9?$AAc?$AAz?$AA?$AA@ 1004578c     LIBCMT:winapinls.obj
 0002:00007798       ??_C@_1M@DHBHFONH@?$AAc?$AAy?$AA?9?$AAg?$AAb?$AA?$AA@ 10045798     LIBCMT:winapinls.obj
 0002:000077a4       ??_C@_1M@IMGKELGA@?$AAd?$AAa?$AA?9?$AAd?$AAk?$AA?$AA@ 100457a4     LIBCMT:winapinls.obj
 0002:000077b0       ??_C@_1M@NNDGDNGA@?$AAd?$AAe?$AA?9?$AAa?$AAt?$AA?$AA@ 100457b0     LIBCMT:winapinls.obj
 0002:000077bc       ??_C@_1M@IKDBHEEM@?$AAd?$AAe?$AA?9?$AAc?$AAh?$AA?$AA@ 100457bc     LIBCMT:winapinls.obj
 0002:000077c8       ??_C@_1M@GFFOJMCJ@?$AAd?$AAe?$AA?9?$AAd?$AAe?$AA?$AA@ 100457c8     LIBCMT:winapinls.obj
 0002:000077d4       ??_C@_1M@MDNLKBPM@?$AAd?$AAe?$AA?9?$AAl?$AAi?$AA?$AA@ 100457d4     LIBCMT:winapinls.obj
 0002:000077e0       ??_C@_1M@NJBEEJNL@?$AAd?$AAe?$AA?9?$AAl?$AAu?$AA?$AA@ 100457e0     LIBCMT:winapinls.obj
 0002:000077ec       ??_C@_1O@GNNELBAP@?$AAd?$AAi?$AAv?$AA?9?$AAm?$AAv?$AA?$AA@ 100457ec     LIBCMT:winapinls.obj
 0002:000077fc       ??_C@_1M@EJLEOGAE@?$AAe?$AAl?$AA?9?$AAg?$AAr?$AA?$AA@ 100457fc     LIBCMT:winapinls.obj
 0002:00007808       ??_C@_1M@GMPONJN@?$AAe?$AAn?$AA?9?$AAa?$AAu?$AA?$AA@ 10045808     LIBCMT:winapinls.obj
 0002:00007814       ??_C@_1M@NIDIIPGF@?$AAe?$AAn?$AA?9?$AAb?$AAz?$AA?$AA@ 10045814     LIBCMT:winapinls.obj
 0002:00007820       ??_C@_1M@JEHMIMFO@?$AAe?$AAn?$AA?9?$AAc?$AAa?$AA?$AA@ 10045820     LIBCMT:winapinls.obj
 0002:0000782c       ??_C@_1M@IGMJCDLA@?$AAe?$AAn?$AA?9?$AAc?$AAb?$AA?$AA@ 1004582c     LIBCMT:winapinls.obj
 0002:00007838       ??_C@_1M@BNFIGBKG@?$AAe?$AAn?$AA?9?$AAg?$AAb?$AA?$AA@ 10045838     LIBCMT:winapinls.obj
 0002:00007844       ??_C@_1M@LKIFDIGP@?$AAe?$AAn?$AA?9?$AAi?$AAe?$AA?$AA@ 10045844     LIBCMT:winapinls.obj
 0002:00007850       ??_C@_1M@PJKFGCCO@?$AAe?$AAn?$AA?9?$AAj?$AAm?$AA?$AA@ 10045850     LIBCMT:winapinls.obj
 0002:0000785c       ??_C@_1M@KPPKEPBO@?$AAe?$AAn?$AA?9?$AAn?$AAz?$AA?$AA@ 1004585c     LIBCMT:winapinls.obj
 0002:00007868       ??_C@_1M@GMDGLDOB@?$AAe?$AAn?$AA?9?$AAp?$AAh?$AA?$AA@ 10045868     LIBCMT:winapinls.obj
 0002:00007874       ??_C@_1M@ONGIBJNA@?$AAe?$AAn?$AA?9?$AAt?$AAt?$AA?$AA@ 10045874     LIBCMT:winapinls.obj
 0002:00007880       ??_C@_1M@LLODPCMM@?$AAe?$AAn?$AA?9?$AAu?$AAs?$AA?$AA@ 10045880     LIBCMT:winapinls.obj
 0002:0000788c       ??_C@_1M@LAKFNPAN@?$AAe?$AAn?$AA?9?$AAz?$AAa?$AA?$AA@ 1004588c     LIBCMT:winapinls.obj
 0002:00007898       ??_C@_1M@MFNHNHEO@?$AAe?$AAn?$AA?9?$AAz?$AAw?$AA?$AA@ 10045898     LIBCMT:winapinls.obj
 0002:000078a4       ??_C@_1M@EJEINPHM@?$AAe?$AAs?$AA?9?$AAa?$AAr?$AA?$AA@ 100458a4     LIBCMT:winapinls.obj
 0002:000078b0       ??_C@_1M@GNKPCCJA@?$AAe?$AAs?$AA?9?$AAb?$AAo?$AA?$AA@ 100458b0     LIBCMT:winapinls.obj
 0002:000078bc       ??_C@_1M@LEEGFONL@?$AAe?$AAs?$AA?9?$AAc?$AAl?$AA?$AA@ 100458bc     LIBCMT:winapinls.obj
 0002:000078c8       ??_C@_1M@KGPDPBDF@?$AAe?$AAs?$AA?9?$AAc?$AAo?$AA?$AA@ 100458c8     LIBCMT:winapinls.obj
 0002:000078d4       ??_C@_1M@EIAHOHH@?$AAe?$AAs?$AA?9?$AAc?$AAr?$AA?$AA@ 100458d4     LIBCMT:winapinls.obj
 0002:000078e0       ??_C@_1M@LLPGMBIN@?$AAe?$AAs?$AA?9?$AAd?$AAo?$AA?$AA@ 100458e0     LIBCMT:winapinls.obj
 0002:000078ec       ??_C@_1M@DKHMKNJA@?$AAe?$AAs?$AA?9?$AAe?$AAc?$AA?$AA@ 100458ec     LIBCMT:winapinls.obj
 0002:000078f8       ??_C@_1M@GKGFPKAP@?$AAe?$AAs?$AA?9?$AAe?$AAs?$AA?$AA@ 100458f8     LIBCMT:winapinls.obj
 0002:00007904       ??_C@_1M@LKHKGDLN@?$AAe?$AAs?$AA?9?$AAg?$AAt?$AA?$AA@ 10045904     LIBCMT:winapinls.obj
 0002:00007910       ??_C@_1M@HEIIGGJD@?$AAe?$AAs?$AA?9?$AAh?$AAn?$AA?$AA@ 10045910     LIBCMT:winapinls.obj
 0002:0000791c       ??_C@_1M@FBDHPPGD@?$AAe?$AAs?$AA?9?$AAm?$AAx?$AA?$AA@ 1004591c     LIBCMT:winapinls.obj
 0002:00007928       ??_C@_1M@DPAGLNDH@?$AAe?$AAs?$AA?9?$AAn?$AAi?$AA?$AA@ 10045928     LIBCMT:winapinls.obj
 0002:00007934       ??_C@_1M@MDGOPGDD@?$AAe?$AAs?$AA?9?$AAp?$AAa?$AA?$AA@ 10045934     LIBCMT:winapinls.obj
 0002:00007940       ??_C@_1M@EMAMGBGE@?$AAe?$AAs?$AA?9?$AAp?$AAe?$AA?$AA@ 10045940     LIBCMT:winapinls.obj
 0002:0000794c       ??_C@_1M@IBMCAOEC@?$AAe?$AAs?$AA?9?$AAp?$AAr?$AA?$AA@ 1004594c     LIBCMT:winapinls.obj
 0002:00007958       ??_C@_1M@FGMDIJED@?$AAe?$AAs?$AA?9?$AAp?$AAy?$AA?$AA@ 10045958     LIBCMT:winapinls.obj
 0002:00007964       ??_C@_1M@IIDEOLLL@?$AAe?$AAs?$AA?9?$AAs?$AAv?$AA?$AA@ 10045964     LIBCMT:winapinls.obj
 0002:00007970       ??_C@_1M@GAOBIPA@?$AAe?$AAs?$AA?9?$AAu?$AAy?$AA?$AA@ 10045970     LIBCMT:winapinls.obj
 0002:0000797c       ??_C@_1M@JKFFICHJ@?$AAe?$AAs?$AA?9?$AAv?$AAe?$AA?$AA@ 1004597c     LIBCMT:winapinls.obj
 0002:00007988       ??_C@_1M@PNMLOJDF@?$AAe?$AAt?$AA?9?$AAe?$AAe?$AA?$AA@ 10045988     LIBCMT:winapinls.obj
 0002:00007994       ??_C@_1M@GHHLIKEI@?$AAe?$AAu?$AA?9?$AAe?$AAs?$AA?$AA@ 10045994     LIBCMT:winapinls.obj
 0002:000079a0       ??_C@_1M@PBNONODE@?$AAf?$AAa?$AA?9?$AAi?$AAr?$AA?$AA@ 100459a0     LIBCMT:winapinls.obj
 0002:000079ac       ??_C@_1M@JEEHPMIL@?$AAf?$AAi?$AA?9?$AAf?$AAi?$AA?$AA@ 100459ac     LIBCMT:winapinls.obj
 0002:000079b8       ??_C@_1M@LMDCNDBA@?$AAf?$AAo?$AA?9?$AAf?$AAo?$AA?$AA@ 100459b8     LIBCMT:winapinls.obj
 0002:000079c4       ??_C@_1M@JKEOHLDK@?$AAf?$AAr?$AA?9?$AAb?$AAe?$AA?$AA@ 100459c4     LIBCMT:winapinls.obj
 0002:000079d0       ??_C@_1M@NOHADPMI@?$AAf?$AAr?$AA?9?$AAc?$AAa?$AA?$AA@ 100459d0     LIBCMT:winapinls.obj
 0002:000079dc       ??_C@_1M@KDHIHAEC@?$AAf?$AAr?$AA?9?$AAc?$AAh?$AA?$AA@ 100459dc     LIBCMT:winapinls.obj
 0002:000079e8       ??_C@_1M@MMBBFGAK@?$AAf?$AAr?$AA?9?$AAf?$AAr?$AA?$AA@ 100459e8     LIBCMT:winapinls.obj
 0002:000079f4       ??_C@_1M@PAFNENNF@?$AAf?$AAr?$AA?9?$AAl?$AAu?$AA?$AA@ 100459f4     LIBCMT:winapinls.obj
 0002:00007a00       ??_C@_1M@EOHDJGDD@?$AAf?$AAr?$AA?9?$AAm?$AAc?$AA?$AA@ 10045a00     LIBCMT:winapinls.obj
 0002:00007a0c       ??_C@_1M@FAPLLOPF@?$AAg?$AAl?$AA?9?$AAe?$AAs?$AA?$AA@ 10045a0c     LIBCMT:winapinls.obj
 0002:00007a18       ??_C@_1M@FOPBFLOO@?$AAg?$AAu?$AA?9?$AAi?$AAn?$AA?$AA@ 10045a18     LIBCMT:winapinls.obj
 0002:00007a24       ??_C@_1M@KBMCINPM@?$AAh?$AAe?$AA?9?$AAi?$AAl?$AA?$AA@ 10045a24     LIBCMT:winapinls.obj
 0002:00007a30       ??_C@_1M@BBPHKFPJ@?$AAh?$AAi?$AA?9?$AAi?$AAn?$AA?$AA@ 10045a30     LIBCMT:winapinls.obj
 0002:00007a3c       ??_C@_1M@PMBNDPHD@?$AAh?$AAr?$AA?9?$AAb?$AAa?$AA?$AA@ 10045a3c     LIBCMT:winapinls.obj
 0002:00007a48       ??_C@_1M@BPCKOEGE@?$AAh?$AAr?$AA?9?$AAh?$AAr?$AA?$AA@ 10045a48     LIBCMT:winapinls.obj
 0002:00007a54       ??_C@_1M@GACBMHKE@?$AAh?$AAu?$AA?9?$AAh?$AAu?$AA?$AA@ 10045a54     LIBCMT:winapinls.obj
 0002:00007a60       ??_C@_1M@MILPAJJC@?$AAh?$AAy?$AA?9?$AAa?$AAm?$AA?$AA@ 10045a60     LIBCMT:winapinls.obj
 0002:00007a6c       ??_C@_1M@BABBICEC@?$AAi?$AAd?$AA?9?$AAi?$AAd?$AA?$AA@ 10045a6c     LIBCMT:winapinls.obj
 0002:00007a78       ??_C@_1M@BIKNHHPF@?$AAi?$AAs?$AA?9?$AAi?$AAs?$AA?$AA@ 10045a78     LIBCMT:winapinls.obj
 0002:00007a84       ??_C@_1M@NMPCJPHE@?$AAi?$AAt?$AA?9?$AAc?$AAh?$AA?$AA@ 10045a84     LIBCMT:winapinls.obj
 0002:00007a90       ??_C@_1M@GHKGFEDF@?$AAi?$AAt?$AA?9?$AAi?$AAt?$AA?$AA@ 10045a90     LIBCMT:winapinls.obj
 0002:00007a9c       ??_C@_1M@NIEJCJJA@?$AAj?$AAa?$AA?9?$AAj?$AAp?$AA?$AA@ 10045a9c     LIBCMT:winapinls.obj
 0002:00007aa8       ??_C@_1M@JILFNBIM@?$AAk?$AAa?$AA?9?$AAg?$AAe?$AA?$AA@ 10045aa8     LIBCMT:winapinls.obj
 0002:00007ab4       ??_C@_1M@PACPMGPH@?$AAk?$AAk?$AA?9?$AAk?$AAz?$AA?$AA@ 10045ab4     LIBCMT:winapinls.obj
 0002:00007ac0       ??_C@_1M@IELFGMHA@?$AAk?$AAn?$AA?9?$AAi?$AAn?$AA?$AA@ 10045ac0     LIBCMT:winapinls.obj
 0002:00007acc       ??_C@_1O@IBBJHCH@?$AAk?$AAo?$AAk?$AA?9?$AAi?$AAn?$AA?$AA@ 10045acc     LIBCMT:winapinls.obj
 0002:00007adc       ??_C@_1M@DMHAEOGC@?$AAk?$AAo?$AA?9?$AAk?$AAr?$AA?$AA@ 10045adc     LIBCMT:winapinls.obj
 0002:00007ae8       ??_C@_1M@HBAHBIGA@?$AAk?$AAy?$AA?9?$AAk?$AAg?$AA?$AA@ 10045ae8     LIBCMT:winapinls.obj
 0002:00007af4       ??_C@_1M@KPMILCJG@?$AAl?$AAt?$AA?9?$AAl?$AAt?$AA?$AA@ 10045af4     LIBCMT:winapinls.obj
 0002:00007b00       ??_C@_1M@BDEKKCA@?$AAl?$AAv?$AA?9?$AAl?$AAv?$AA?$AA@ 10045b00     LIBCMT:winapinls.obj
 0002:00007b0c       ??_C@_1M@ELCKCCJJ@?$AAm?$AAi?$AA?9?$AAn?$AAz?$AA?$AA@ 10045b0c     LIBCMT:winapinls.obj
 0002:00007b18       ??_C@_1M@CBOOLAPA@?$AAm?$AAk?$AA?9?$AAm?$AAk?$AA?$AA@ 10045b18     LIBCMT:winapinls.obj
 0002:00007b24       ??_C@_1M@GPHNBJKN@?$AAm?$AAl?$AA?9?$AAi?$AAn?$AA?$AA@ 10045b24     LIBCMT:winapinls.obj
 0002:00007b30       ??_C@_1M@PABJILIG@?$AAm?$AAn?$AA?9?$AAm?$AAn?$AA?$AA@ 10045b30     LIBCMT:winapinls.obj
 0002:00007b3c       ??_C@_1M@FGBKKIPG@?$AAm?$AAr?$AA?9?$AAi?$AAn?$AA?$AA@ 10045b3c     LIBCMT:winapinls.obj
 0002:00007b48       ??_C@_1M@NDBPDDAL@?$AAm?$AAs?$AA?9?$AAb?$AAn?$AA?$AA@ 10045b48     LIBCMT:winapinls.obj
 0002:00007b54       ??_C@_1M@OPIHOOPI@?$AAm?$AAs?$AA?9?$AAm?$AAy?$AA?$AA@ 10045b54     LIBCMT:winapinls.obj
 0002:00007b60       ??_C@_1M@PPDBCNFM@?$AAm?$AAt?$AA?9?$AAm?$AAt?$AA?$AA@ 10045b60     LIBCMT:winapinls.obj
 0002:00007b6c       ??_C@_1M@KDJDKMDD@?$AAn?$AAb?$AA?9?$AAn?$AAo?$AA?$AA@ 10045b6c     LIBCMT:winapinls.obj
 0002:00007b78       ??_C@_1M@KFCFLMJP@?$AAn?$AAl?$AA?9?$AAb?$AAe?$AA?$AA@ 10045b78     LIBCMT:winapinls.obj
 0002:00007b84       ??_C@_1M@KPOPDDGO@?$AAn?$AAl?$AA?9?$AAn?$AAl?$AA?$AA@ 10045b84     LIBCMT:winapinls.obj
 0002:00007b90       ??_C@_1M@LJKPEMLN@?$AAn?$AAn?$AA?9?$AAn?$AAo?$AA?$AA@ 10045b90     LIBCMT:winapinls.obj
 0002:00007b9c       ??_C@_1M@BDGHHBFL@?$AAn?$AAs?$AA?9?$AAz?$AAa?$AA?$AA@ 10045b9c     LIBCMT:winapinls.obj
 0002:00007ba8       ??_C@_1M@IDEHOAP@?$AAp?$AAa?$AA?9?$AAi?$AAn?$AA?$AA@ 10045ba8     LIBCMT:winapinls.obj
 0002:00007bb4       ??_C@_1M@HDBKGOGH@?$AAp?$AAl?$AA?9?$AAp?$AAl?$AA?$AA@ 10045bb4     LIBCMT:winapinls.obj
 0002:00007bc0       ??_C@_1M@LJLLCMEH@?$AAp?$AAt?$AA?9?$AAb?$AAr?$AA?$AA@ 10045bc0     LIBCMT:winapinls.obj
 0002:00007bcc       ??_C@_1M@NCMONAAL@?$AAp?$AAt?$AA?9?$AAp?$AAt?$AA?$AA@ 10045bcc     LIBCMT:winapinls.obj
 0002:00007bd8       ??_C@_1O@EAKMAJDN@?$AAq?$AAu?$AAz?$AA?9?$AAb?$AAo?$AA?$AA@ 10045bd8     LIBCMT:winapinls.obj
 0002:00007be8       ??_C@_1O@BHHPIGDN@?$AAq?$AAu?$AAz?$AA?9?$AAe?$AAc?$AA?$AA@ 10045be8     LIBCMT:winapinls.obj
 0002:00007bf8       ??_C@_1O@GBAPEKMJ@?$AAq?$AAu?$AAz?$AA?9?$AAp?$AAe?$AA?$AA@ 10045bf8     LIBCMT:winapinls.obj
 0002:00007c08       ??_C@_1M@CLGLEFBO@?$AAr?$AAo?$AA?9?$AAr?$AAo?$AA?$AA@ 10045c08     LIBCMT:winapinls.obj
 0002:00007c14       ??_C@_1M@CEEDODME@?$AAr?$AAu?$AA?9?$AAr?$AAu?$AA?$AA@ 10045c14     LIBCMT:winapinls.obj
 0002:00007c20       ??_C@_1M@HPKKKMPP@?$AAs?$AAa?$AA?9?$AAi?$AAn?$AA?$AA@ 10045c20     LIBCMT:winapinls.obj
 0002:00007c2c       ??_C@_1M@BKMAIGOJ@?$AAs?$AAe?$AA?9?$AAf?$AAi?$AA?$AA@ 10045c2c     LIBCMT:winapinls.obj
 0002:00007c38       ??_C@_1M@NDPIFLFI@?$AAs?$AAe?$AA?9?$AAn?$AAo?$AA?$AA@ 10045c38     LIBCMT:winapinls.obj
 0002:00007c44       ??_C@_1M@DANKKHJ@?$AAs?$AAe?$AA?9?$AAs?$AAe?$AA?$AA@ 10045c44     LIBCMT:winapinls.obj
 0002:00007c50       ??_C@_1M@PNBLONPJ@?$AAs?$AAk?$AA?9?$AAs?$AAk?$AA?$AA@ 10045c50     LIBCMT:winapinls.obj
 0002:00007c5c       ??_C@_1M@LFMODOAL@?$AAs?$AAl?$AA?9?$AAs?$AAi?$AA?$AA@ 10045c5c     LIBCMT:winapinls.obj
 0002:00007c68       ??_C@_1O@DFKOMPG@?$AAs?$AAm?$AAa?$AA?9?$AAn?$AAo?$AA?$AA@ 10045c68     LIBCMT:winapinls.obj
 0002:00007c78       ??_C@_1O@NDKPBNNH@?$AAs?$AAm?$AAa?$AA?9?$AAs?$AAe?$AA?$AA@ 10045c78     LIBCMT:winapinls.obj
 0002:00007c88       ??_C@_1O@PLLKBHAB@?$AAs?$AAm?$AAj?$AA?9?$AAn?$AAo?$AA?$AA@ 10045c88     LIBCMT:winapinls.obj
 0002:00007c98       ??_C@_1O@CLEPOGCA@?$AAs?$AAm?$AAj?$AA?9?$AAs?$AAe?$AA?$AA@ 10045c98     LIBCMT:winapinls.obj
 0002:00007ca8       ??_C@_1O@DLGJGKMK@?$AAs?$AAm?$AAn?$AA?9?$AAf?$AAi?$AA?$AA@ 10045ca8     LIBCMT:winapinls.obj
 0002:00007cb8       ??_C@_1O@OJDJGAJC@?$AAs?$AAm?$AAs?$AA?9?$AAf?$AAi?$AA?$AA@ 10045cb8     LIBCMT:winapinls.obj
 0002:00007cc8       ??_C@_1M@BOFOGHPB@?$AAs?$AAq?$AA?9?$AAa?$AAl?$AA?$AA@ 10045cc8     LIBCMT:winapinls.obj
 0002:00007cd4       ??_C@_1BG@LJBBIPGB@?$AAs?$AAr?$AA?9?$AAb?$AAa?$AA?9?$AAc?$AAy?$AAr?$AAl?$AA?$AA@ 10045cd4     LIBCMT:winapinls.obj
 0002:00007cec       ??_C@_1BG@JLBENFOE@?$AAs?$AAr?$AA?9?$AAb?$AAa?$AA?9?$AAl?$AAa?$AAt?$AAn?$AA?$AA@ 10045cec     LIBCMT:winapinls.obj
 0002:00007d04       ??_C@_1BG@KODPNHE@?$AAs?$AAr?$AA?9?$AAs?$AAp?$AA?9?$AAc?$AAy?$AAr?$AAl?$AA?$AA@ 10045d04     LIBCMT:winapinls.obj
 0002:00007d1c       ??_C@_1BG@CIOGKHPB@?$AAs?$AAr?$AA?9?$AAs?$AAp?$AA?9?$AAl?$AAa?$AAt?$AAn?$AA?$AA@ 10045d1c     LIBCMT:winapinls.obj
 0002:00007d34       ??_C@_1M@NGFJLMAC@?$AAs?$AAv?$AA?9?$AAf?$AAi?$AA?$AA@ 10045d34     LIBCMT:winapinls.obj
 0002:00007d40       ??_C@_1M@MPJEJAJC@?$AAs?$AAv?$AA?9?$AAs?$AAe?$AA?$AA@ 10045d40     LIBCMT:winapinls.obj
 0002:00007d4c       ??_C@_1M@MPNDHLFK@?$AAs?$AAw?$AA?9?$AAk?$AAe?$AA?$AA@ 10045d4c     LIBCMT:winapinls.obj
 0002:00007d58       ??_C@_1O@KOHBJJI@?$AAs?$AAy?$AAr?$AA?9?$AAs?$AAy?$AA?$AA@ 10045d58     LIBCMT:winapinls.obj
 0002:00007d68       ??_C@_1M@LDCEFHA@?$AAt?$AAa?$AA?9?$AAi?$AAn?$AA?$AA@ 10045d68     LIBCMT:winapinls.obj
 0002:00007d74       ??_C@_1M@CNJOFAK@?$AAt?$AAe?$AA?9?$AAi?$AAn?$AA?$AA@ 10045d74     LIBCMT:winapinls.obj
 0002:00007d80       ??_C@_1M@GNAECACD@?$AAt?$AAh?$AA?9?$AAt?$AAh?$AA?$AA@ 10045d80     LIBCMT:winapinls.obj
 0002:00007d8c       ??_C@_1M@CHBIHOJO@?$AAt?$AAn?$AA?9?$AAz?$AAa?$AA?$AA@ 10045d8c     LIBCMT:winapinls.obj
 0002:00007d98       ??_C@_1M@GCCMIGPJ@?$AAt?$AAr?$AA?9?$AAt?$AAr?$AA?$AA@ 10045d98     LIBCMT:winapinls.obj
 0002:00007da4       ??_C@_1M@CELMCNBK@?$AAt?$AAt?$AA?9?$AAr?$AAu?$AA?$AA@ 10045da4     LIBCMT:winapinls.obj
 0002:00007db0       ??_C@_1M@KLMCELGA@?$AAu?$AAk?$AA?9?$AAu?$AAa?$AA?$AA@ 10045db0     LIBCMT:winapinls.obj
 0002:00007dbc       ??_C@_1M@EPAJJAJF@?$AAu?$AAr?$AA?9?$AAp?$AAk?$AA?$AA@ 10045dbc     LIBCMT:winapinls.obj
 0002:00007dc8       ??_C@_1BG@GEGPMCDJ@?$AAu?$AAz?$AA?9?$AAu?$AAz?$AA?9?$AAc?$AAy?$AAr?$AAl?$AA?$AA@ 10045dc8     LIBCMT:winapinls.obj
 0002:00007de0       ??_C@_1BG@EGGKJILM@?$AAu?$AAz?$AA?9?$AAu?$AAz?$AA?9?$AAl?$AAa?$AAt?$AAn?$AA?$AA@ 10045de0     LIBCMT:winapinls.obj
 0002:00007df8       ??_C@_1M@GFOCLFF@?$AAv?$AAi?$AA?9?$AAv?$AAn?$AA?$AA@ 10045df8     LIBCMT:winapinls.obj
 0002:00007e04       ??_C@_1M@CPAMEDFI@?$AAx?$AAh?$AA?9?$AAz?$AAa?$AA?$AA@ 10045e04     LIBCMT:winapinls.obj
 0002:00007e10       ??_C@_1O@EBKIFIGN@?$AAz?$AAh?$AA?9?$AAc?$AAh?$AAs?$AA?$AA@ 10045e10     LIBCMT:winapinls.obj
 0002:00007e20       ??_C@_1O@NMHPGANE@?$AAz?$AAh?$AA?9?$AAc?$AAh?$AAt?$AA?$AA@ 10045e20     LIBCMT:winapinls.obj
 0002:00007e30       ??_C@_1M@LPINJOMC@?$AAz?$AAh?$AA?9?$AAc?$AAn?$AA?$AA@ 10045e30     LIBCMT:winapinls.obj
 0002:00007e3c       ??_C@_1M@OCJEJODD@?$AAz?$AAh?$AA?9?$AAh?$AAk?$AA?$AA@ 10045e3c     LIBCMT:winapinls.obj
 0002:00007e48       ??_C@_1M@DNDLJINH@?$AAz?$AAh?$AA?9?$AAm?$AAo?$AA?$AA@ 10045e48     LIBCMT:winapinls.obj
 0002:00007e54       ??_C@_1M@MBFDNDND@?$AAz?$AAh?$AA?9?$AAs?$AAg?$AA?$AA@ 10045e54     LIBCMT:winapinls.obj
 0002:00007e60       ??_C@_1M@IMEPLEPE@?$AAz?$AAh?$AA?9?$AAt?$AAw?$AA?$AA@ 10045e60     LIBCMT:winapinls.obj
 0002:00007e6c       ??_C@_1M@BBGHNHJP@?$AAz?$AAu?$AA?9?$AAz?$AAa?$AA?$AA@ 10045e6c     LIBCMT:winapinls.obj
 0002:00007e78       ___lookuptable_s           10045e78     LIBCMT:outputs.obj
 0002:00007ed8       ___lc_category             10045ed8     LIBCMT:wsetloca.obj
 0002:00007f20       ??_C@_1O@GIFLHMA@?$AAL?$AAC?$AA_?$AAA?$AAL?$AAL?$AA?$AA@ 10045f20     LIBCMT:wsetloca.obj
 0002:00007f30       ??_C@_1BG@PPOMIBNJ@?$AAL?$AAC?$AA_?$AAC?$AAO?$AAL?$AAL?$AAA?$AAT?$AAE?$AA?$AA@ 10045f30     LIBCMT:wsetloca.obj
 0002:00007f48       ??_C@_1BC@FFJGAPJM@?$AAL?$AAC?$AA_?$AAC?$AAT?$AAY?$AAP?$AAE?$AA?$AA@ 10045f48     LIBCMT:wsetloca.obj
 0002:00007f5c       ??_C@_1BI@PCKFNJFB@?$AAL?$AAC?$AA_?$AAM?$AAO?$AAN?$AAE?$AAT?$AAA?$AAR?$AAY?$AA?$AA@ 10045f5c     LIBCMT:wsetloca.obj
 0002:00007f74       ??_C@_1BG@ENIEDKID@?$AAL?$AAC?$AA_?$AAN?$AAU?$AAM?$AAE?$AAR?$AAI?$AAC?$AA?$AA@ 10045f74     LIBCMT:wsetloca.obj
 0002:00007f8c       ??_C@_1BA@HAAOMIIG@?$AAL?$AAC?$AA_?$AAT?$AAI?$AAM?$AAE?$AA?$AA@ 10045f8c     LIBCMT:wsetloca.obj
 0002:00008020       ??_C@_15NBPDDFIP@?$AA?$DN?$AA?$DL?$AA?$AA@ 10046020     LIBCMT:wsetloca.obj
 0002:00008028       ??_C@_13PJJBFPED@?$AA?$DL?$AA?$AA@ 10046028     LIBCMT:wsetloca.obj
 0002:0000802c       ??_C@_13NMPKAAJP@?$AA?$DN?$AA?$AA@ 1004602c     LIBCMT:wsetloca.obj
 0002:00008030       ??_C@_13FHBKNHDA@?$AAC?$AA?$AA@ 10046030     LIBCMT:wsetloca.obj
 0002:00008034       ??_C@_17MBJJLFDM@?$AA_?$AA?4?$AA?0?$AA?$AA@ 10046034     LIBCMT:wsetloca.obj
 0002:0000803c       ??_C@_13ENNFDPBH@?$AA_?$AA?$AA@ 1004603c     LIBCMT:wsetloca.obj
 0002:00008040       ??_C@_13JOFGPIOO@?$AA?4?$AA?$AA@ 10046040     LIBCMT:wsetloca.obj
 0002:00008044       ??_C@_06PGGFOGJG@1?$CDSNAN?$AA@ 10046044     LIBCMT:x10fout.obj
 0002:0000804c       ??_C@_05PHHOCPM@1?$CDIND?$AA@ 1004604c     LIBCMT:x10fout.obj
 0002:00008054       ??_C@_05DNEBIAHO@1?$CDINF?$AA@ 10046054     LIBCMT:x10fout.obj
 0002:0000805c       ??_C@_06IMKFLFPG@1?$CDQNAN?$AA@ 1004605c     LIBCMT:x10fout.obj
 0002:00008068       ___newctype                10046068     LIBCMT:ctype.obj
 0002:00008368       __wctype                   10046368     LIBCMT:ctype.obj
 0002:00008570       ___newclmap                10046570     LIBCMT:ctype.obj
 0002:000086f0       ___newcumap                100466f0     LIBCMT:ctype.obj
 0002:00008870       ??_C@_0M@HHGEPIBF@CreateFile2?$AA@ 10046870     LIBCMT:wopen.obj
 0002:0000887c       ??_C@_1BA@BALFACEM@?$AAC?$AAO?$AAN?$AAO?$AAU?$AAT?$AA$?$AA?$AA@ 1004687c     LIBCMT:initcon.obj
 0002:00008890       ___rg_language             10046890     LIBCMT:getqloc.obj
 0002:00008b9c       ??_C@_1BC@LLOKLNP@?$AAa?$AAm?$AAe?$AAr?$AAi?$AAc?$AAa?$AAn?$AA?$AA@ 10046b9c     LIBCMT:getqloc.obj
 0002:00008bb0       ??_C@_1CC@HEIGCDGG@?$AAa?$AAm?$AAe?$AAr?$AAi?$AAc?$AAa?$AAn?$AA?5?$AAe?$AAn?$AAg?$AAl?$AAi?$AAs?$AAh?$AA?$AA@ 10046bb0     LIBCMT:getqloc.obj
 0002:00008bd4       ??_C@_1CC@IHCNOMIN@?$AAa?$AAm?$AAe?$AAr?$AAi?$AAc?$AAa?$AAn?$AA?9?$AAe?$AAn?$AAg?$AAl?$AAi?$AAs?$AAh?$AA?$AA@ 10046bd4     LIBCMT:getqloc.obj
 0002:00008bf8       ??_C@_1BG@GKAGPCGG@?$AAa?$AAu?$AAs?$AAt?$AAr?$AAa?$AAl?$AAi?$AAa?$AAn?$AA?$AA@ 10046bf8     LIBCMT:getqloc.obj
 0002:00008c10       ??_C@_1BA@GMENCENF@?$AAb?$AAe?$AAl?$AAg?$AAi?$AAa?$AAn?$AA?$AA@ 10046c10     LIBCMT:getqloc.obj
 0002:00008c20       ??_C@_1BC@PJMIIAAN@?$AAc?$AAa?$AAn?$AAa?$AAd?$AAi?$AAa?$AAn?$AA?$AA@ 10046c20     LIBCMT:getqloc.obj
 0002:00008c34       ??_C@_17NOIMNFBF@?$AAc?$AAh?$AAh?$AA?$AA@ 10046c34     LIBCMT:getqloc.obj
 0002:00008c3c       ??_C@_17GGDALCHA@?$AAc?$AAh?$AAi?$AA?$AA@ 10046c3c     LIBCMT:getqloc.obj
 0002:00008c44       ??_C@_1BA@NPNJKIBL@?$AAc?$AAh?$AAi?$AAn?$AAe?$AAs?$AAe?$AA?$AA@ 10046c44     LIBCMT:getqloc.obj
 0002:00008c54       ??_C@_1CC@DINBAMMJ@?$AAc?$AAh?$AAi?$AAn?$AAe?$AAs?$AAe?$AA?9?$AAh?$AAo?$AAn?$AAg?$AAk?$AAo?$AAn?$AAg?$AA?$AA@ 10046c54     LIBCMT:getqloc.obj
 0002:00008c78       ??_C@_1CG@IOBJPACO@?$AAc?$AAh?$AAi?$AAn?$AAe?$AAs?$AAe?$AA?9?$AAs?$AAi?$AAm?$AAp?$AAl?$AAi?$AAf?$AAi?$AAe?$AAd?$AA?$AA@ 10046c78     LIBCMT:getqloc.obj
 0002:00008ca0       ??_C@_1CE@GAJNDCKG@?$AAc?$AAh?$AAi?$AAn?$AAe?$AAs?$AAe?$AA?9?$AAs?$AAi?$AAn?$AAg?$AAa?$AAp?$AAo?$AAr?$AAe?$AA?$AA@ 10046ca0     LIBCMT:getqloc.obj
 0002:00008cc4       ??_C@_1CI@PAJPIOOD@?$AAc?$AAh?$AAi?$AAn?$AAe?$AAs?$AAe?$AA?9?$AAt?$AAr?$AAa?$AAd?$AAi?$AAt?$AAi?$AAo?$AAn?$AAa?$AAl?$AA?$AA@ 10046cc4     LIBCMT:getqloc.obj
 0002:00008cec       ??_C@_1BM@NILJBMMD@?$AAd?$AAu?$AAt?$AAc?$AAh?$AA?9?$AAb?$AAe?$AAl?$AAg?$AAi?$AAa?$AAn?$AA?$AA@ 10046cec     LIBCMT:getqloc.obj
 0002:00008d08       ??_C@_1CC@OOJPJNEJ@?$AAe?$AAn?$AAg?$AAl?$AAi?$AAs?$AAh?$AA?9?$AAa?$AAm?$AAe?$AAr?$AAi?$AAc?$AAa?$AAn?$AA?$AA@ 10046d08     LIBCMT:getqloc.obj
 0002:00008d2c       ??_C@_1BI@IOLFEEM@?$AAe?$AAn?$AAg?$AAl?$AAi?$AAs?$AAh?$AA?9?$AAa?$AAu?$AAs?$AA?$AA@ 10046d2c     LIBCMT:getqloc.obj
 0002:00008d44       ??_C@_1BO@HFFNLENJ@?$AAe?$AAn?$AAg?$AAl?$AAi?$AAs?$AAh?$AA?9?$AAb?$AAe?$AAl?$AAi?$AAz?$AAe?$AA?$AA@ 10046d44     LIBCMT:getqloc.obj
 0002:00008d64       ??_C@_1BI@HAPKJMPO@?$AAe?$AAn?$AAg?$AAl?$AAi?$AAs?$AAh?$AA?9?$AAc?$AAa?$AAn?$AA?$AA@ 10046d64     LIBCMT:getqloc.obj
 0002:00008d7c       ??_C@_1CE@HLNDMIOJ@?$AAe?$AAn?$AAg?$AAl?$AAi?$AAs?$AAh?$AA?9?$AAc?$AAa?$AAr?$AAi?$AAb?$AAb?$AAe?$AAa?$AAn?$AA?$AA@ 10046d7c     LIBCMT:getqloc.obj
 0002:00008da0       ??_C@_1BI@LDHJHHAC@?$AAe?$AAn?$AAg?$AAl?$AAi?$AAs?$AAh?$AA?9?$AAi?$AAr?$AAe?$AA?$AA@ 10046da0     LIBCMT:getqloc.obj
 0002:00008db8       ??_C@_1CA@NJMMCFOC@?$AAe?$AAn?$AAg?$AAl?$AAi?$AAs?$AAh?$AA?9?$AAj?$AAa?$AAm?$AAa?$AAi?$AAc?$AAa?$AA?$AA@ 10046db8     LIBCMT:getqloc.obj
 0002:00008dd8       ??_C@_1BG@BHJEBBGG@?$AAe?$AAn?$AAg?$AAl?$AAi?$AAs?$AAh?$AA?9?$AAn?$AAz?$AA?$AA@ 10046dd8     LIBCMT:getqloc.obj
 0002:00008df0       ??_C@_1CK@FGOEJJCO@?$AAe?$AAn?$AAg?$AAl?$AAi?$AAs?$AAh?$AA?9?$AAs?$AAo?$AAu?$AAt?$AAh?$AA?5?$AAa?$AAf?$AAr?$AAi?$AAc?$AAa?$AA?$AA@ 10046df0     LIBCMT:getqloc.obj
 0002:00008e1c       ??_C@_1DE@PDBJPCJ@?$AAe?$AAn?$AAg?$AAl?$AAi?$AAs?$AAh?$AA?9?$AAt?$AAr?$AAi?$AAn?$AAi?$AAd?$AAa?$AAd?$AA?5?$AAy?$AA?5?$AAt?$AAo?$AAb?$AAa?$AAg?$AAo?$AA?$AA@ 10046e1c     LIBCMT:getqloc.obj
 0002:00008e50       ??_C@_1BG@JGCANDME@?$AAe?$AAn?$AAg?$AAl?$AAi?$AAs?$AAh?$AA?9?$AAu?$AAk?$AA?$AA@ 10046e50     LIBCMT:getqloc.obj
 0002:00008e68       ??_C@_1BG@DINKMLE@?$AAe?$AAn?$AAg?$AAl?$AAi?$AAs?$AAh?$AA?9?$AAu?$AAs?$AA?$AA@ 10046e68     LIBCMT:getqloc.obj
 0002:00008e80       ??_C@_1BI@NMFDBHJE@?$AAe?$AAn?$AAg?$AAl?$AAi?$AAs?$AAh?$AA?9?$AAu?$AAs?$AAa?$AA?$AA@ 10046e80     LIBCMT:getqloc.obj
 0002:00008e98       ??_C@_1BO@OIHKJKII@?$AAf?$AAr?$AAe?$AAn?$AAc?$AAh?$AA?9?$AAb?$AAe?$AAl?$AAg?$AAi?$AAa?$AAn?$AA?$AA@ 10046e98     LIBCMT:getqloc.obj
 0002:00008eb8       ??_C@_1CA@NKAELJKI@?$AAf?$AAr?$AAe?$AAn?$AAc?$AAh?$AA?9?$AAc?$AAa?$AAn?$AAa?$AAd?$AAi?$AAa?$AAn?$AA?$AA@ 10046eb8     LIBCMT:getqloc.obj
 0002:00008ed8       ??_C@_1CE@MGKCNLGN@?$AAf?$AAr?$AAe?$AAn?$AAc?$AAh?$AA?9?$AAl?$AAu?$AAx?$AAe?$AAm?$AAb?$AAo?$AAu?$AAr?$AAg?$AA?$AA@ 10046ed8     LIBCMT:getqloc.obj
 0002:00008efc       ??_C@_1BK@CEGEAILM@?$AAf?$AAr?$AAe?$AAn?$AAc?$AAh?$AA?9?$AAs?$AAw?$AAi?$AAs?$AAs?$AA?$AA@ 10046efc     LIBCMT:getqloc.obj
 0002:00008f18       ??_C@_1CA@PAFKEOCC@?$AAg?$AAe?$AAr?$AAm?$AAa?$AAn?$AA?9?$AAa?$AAu?$AAs?$AAt?$AAr?$AAi?$AAa?$AAn?$AA?$AA@ 10046f18     LIBCMT:getqloc.obj
 0002:00008f38       ??_C@_1CI@HCFHGOFD@?$AAg?$AAe?$AAr?$AAm?$AAa?$AAn?$AA?9?$AAl?$AAi?$AAc?$AAh?$AAt?$AAe?$AAn?$AAs?$AAt?$AAe?$AAi?$AAn?$AA?$AA@ 10046f38     LIBCMT:getqloc.obj
 0002:00008f60       ??_C@_1CE@FEDDNPDG@?$AAg?$AAe?$AAr?$AAm?$AAa?$AAn?$AA?9?$AAl?$AAu?$AAx?$AAe?$AAm?$AAb?$AAo?$AAu?$AAr?$AAg?$AA?$AA@ 10046f60     LIBCMT:getqloc.obj
 0002:00008f84       ??_C@_1BK@LIMINNMN@?$AAg?$AAe?$AAr?$AAm?$AAa?$AAn?$AA?9?$AAs?$AAw?$AAi?$AAs?$AAs?$AA?$AA@ 10046f84     LIBCMT:getqloc.obj
 0002:00008fa0       ??_C@_1BM@LGMDBEPD@?$AAi?$AAr?$AAi?$AAs?$AAh?$AA?9?$AAe?$AAn?$AAg?$AAl?$AAi?$AAs?$AAh?$AA?$AA@ 10046fa0     LIBCMT:getqloc.obj
 0002:00008fbc       ??_C@_1BM@NNCFBAEE@?$AAi?$AAt?$AAa?$AAl?$AAi?$AAa?$AAn?$AA?9?$AAs?$AAw?$AAi?$AAs?$AAs?$AA?$AA@ 10046fbc     LIBCMT:getqloc.obj
 0002:00008fd8       ??_C@_1BE@FEDJNPIB@?$AAn?$AAo?$AAr?$AAw?$AAe?$AAg?$AAi?$AAa?$AAn?$AA?$AA@ 10046fd8     LIBCMT:getqloc.obj
 0002:00008fec       ??_C@_1CC@CILKDEIE@?$AAn?$AAo?$AAr?$AAw?$AAe?$AAg?$AAi?$AAa?$AAn?$AA?9?$AAb?$AAo?$AAk?$AAm?$AAa?$AAl?$AA?$AA@ 10046fec     LIBCMT:getqloc.obj
 0002:00009010       ??_C@_1CE@DHMMHEPL@?$AAn?$AAo?$AAr?$AAw?$AAe?$AAg?$AAi?$AAa?$AAn?$AA?9?$AAn?$AAy?$AAn?$AAo?$AAr?$AAs?$AAk?$AA?$AA@ 10047010     LIBCMT:getqloc.obj
 0002:00009034       ??_C@_1CK@OPNMHECD@?$AAp?$AAo?$AAr?$AAt?$AAu?$AAg?$AAu?$AAe?$AAs?$AAe?$AA?9?$AAb?$AAr?$AAa?$AAz?$AAi?$AAl?$AAi?$AAa?$AAn?$AA?$AA@ 10047034     LIBCMT:getqloc.obj
 0002:00009060       ??_C@_1CE@KEEHCDB@?$AAs?$AAp?$AAa?$AAn?$AAi?$AAs?$AAh?$AA?9?$AAa?$AAr?$AAg?$AAe?$AAn?$AAt?$AAi?$AAn?$AAa?$AA?$AA@ 10047060     LIBCMT:getqloc.obj
 0002:00009084       ??_C@_1CA@GIAOLHJD@?$AAs?$AAp?$AAa?$AAn?$AAi?$AAs?$AAh?$AA?9?$AAb?$AAo?$AAl?$AAi?$AAv?$AAi?$AAa?$AA?$AA@ 10047084     LIBCMT:getqloc.obj
 0002:000090a4       ??_C@_1BM@OJNDFNPD@?$AAs?$AAp?$AAa?$AAn?$AAi?$AAs?$AAh?$AA?9?$AAc?$AAh?$AAi?$AAl?$AAe?$AA?$AA@ 100470a4     LIBCMT:getqloc.obj
 0002:000090c0       ??_C@_1CC@OCOLPALL@?$AAs?$AAp?$AAa?$AAn?$AAi?$AAs?$AAh?$AA?9?$AAc?$AAo?$AAl?$AAo?$AAm?$AAb?$AAi?$AAa?$AA?$AA@ 100470c0     LIBCMT:getqloc.obj
 0002:000090e4       ??_C@_1CG@BPOFMKBB@?$AAs?$AAp?$AAa?$AAn?$AAi?$AAs?$AAh?$AA?9?$AAc?$AAo?$AAs?$AAt?$AAa?$AA?5?$AAr?$AAi?$AAc?$AAa?$AA?$AA@ 100470e4     LIBCMT:getqloc.obj
 0002:0000910c       ??_C@_1DG@IGOBAPBB@?$AAs?$AAp?$AAa?$AAn?$AAi?$AAs?$AAh?$AA?9?$AAd?$AAo?$AAm?$AAi?$AAn?$AAi?$AAc?$AAa?$AAn?$AA?5?$AAr?$AAe?$AAp?$AAu?$AAb?$AAl?$AAi?$AAc?$AA?$AA@ 1004710c     LIBCMT:getqloc.obj
 0002:00009144       ??_C@_1CA@JHAPGEGI@?$AAs?$AAp?$AAa?$AAn?$AAi?$AAs?$AAh?$AA?9?$AAe?$AAc?$AAu?$AAa?$AAd?$AAo?$AAr?$AA?$AA@ 10047144     LIBCMT:getqloc.obj
 0002:00009164       ??_C@_1CI@LAPALJPP@?$AAs?$AAp?$AAa?$AAn?$AAi?$AAs?$AAh?$AA?9?$AAe?$AAl?$AA?5?$AAs?$AAa?$AAl?$AAv?$AAa?$AAd?$AAo?$AAr?$AA?$AA@ 10047164     LIBCMT:getqloc.obj
 0002:0000918c       ??_C@_1CE@PDGBOFOM@?$AAs?$AAp?$AAa?$AAn?$AAi?$AAs?$AAh?$AA?9?$AAg?$AAu?$AAa?$AAt?$AAe?$AAm?$AAa?$AAl?$AAa?$AA?$AA@ 1004718c     LIBCMT:getqloc.obj
 0002:000091b0       ??_C@_1CC@NBEBAODI@?$AAs?$AAp?$AAa?$AAn?$AAi?$AAs?$AAh?$AA?9?$AAh?$AAo?$AAn?$AAd?$AAu?$AAr?$AAa?$AAs?$AA?$AA@ 100471b0     LIBCMT:getqloc.obj
 0002:000091d4       ??_C@_1CA@LLKGHBMF@?$AAs?$AAp?$AAa?$AAn?$AAi?$AAs?$AAh?$AA?9?$AAm?$AAe?$AAx?$AAi?$AAc?$AAa?$AAn?$AA?$AA@ 100471d4     LIBCMT:getqloc.obj
 0002:000091f4       ??_C@_1BO@LKNDOIGD@?$AAs?$AAp?$AAa?$AAn?$AAi?$AAs?$AAh?$AA?9?$AAm?$AAo?$AAd?$AAe?$AAr?$AAn?$AA?$AA@ 100471f4     LIBCMT:getqloc.obj
 0002:00009214       ??_C@_1CE@NMDMOEEB@?$AAs?$AAp?$AAa?$AAn?$AAi?$AAs?$AAh?$AA?9?$AAn?$AAi?$AAc?$AAa?$AAr?$AAa?$AAg?$AAu?$AAa?$AA?$AA@ 10047214     LIBCMT:getqloc.obj
 0002:00009238       ??_C@_1BO@LLCBEJGB@?$AAs?$AAp?$AAa?$AAn?$AAi?$AAs?$AAh?$AA?9?$AAp?$AAa?$AAn?$AAa?$AAm?$AAa?$AA?$AA@ 10047238     LIBCMT:getqloc.obj
 0002:00009258       ??_C@_1CC@FKPGGIHO@?$AAs?$AAp?$AAa?$AAn?$AAi?$AAs?$AAh?$AA?9?$AAp?$AAa?$AAr?$AAa?$AAg?$AAu?$AAa?$AAy?$AA?$AA@ 10047258     LIBCMT:getqloc.obj
 0002:0000927c       ??_C@_1BK@CDEIHOOP@?$AAs?$AAp?$AAa?$AAn?$AAi?$AAs?$AAh?$AA?9?$AAp?$AAe?$AAr?$AAu?$AA?$AA@ 1004727c     LIBCMT:getqloc.obj
 0002:00009298       ??_C@_1CI@GAHAKKGP@?$AAs?$AAp?$AAa?$AAn?$AAi?$AAs?$AAh?$AA?9?$AAp?$AAu?$AAe?$AAr?$AAt?$AAo?$AA?5?$AAr?$AAi?$AAc?$AAo?$AA?$AA@ 10047298     LIBCMT:getqloc.obj
 0002:000092c0       ??_C@_1CA@NKJBCAGP@?$AAs?$AAp?$AAa?$AAn?$AAi?$AAs?$AAh?$AA?9?$AAu?$AAr?$AAu?$AAg?$AAu?$AAa?$AAy?$AA?$AA@ 100472c0     LIBCMT:getqloc.obj
 0002:000092e0       ??_C@_1CE@ODILCONM@?$AAs?$AAp?$AAa?$AAn?$AAi?$AAs?$AAh?$AA?9?$AAv?$AAe?$AAn?$AAe?$AAz?$AAu?$AAe?$AAl?$AAa?$AA?$AA@ 100472e0     LIBCMT:getqloc.obj
 0002:00009304       ??_C@_1CA@OBNMCGFO@?$AAs?$AAw?$AAe?$AAd?$AAi?$AAs?$AAh?$AA?9?$AAf?$AAi?$AAn?$AAl?$AAa?$AAn?$AAd?$AA?$AA@ 10047304     LIBCMT:getqloc.obj
 0002:00009324       ??_C@_1M@PIPDDPPI@?$AAs?$AAw?$AAi?$AAs?$AAs?$AA?$AA@ 10047324     LIBCMT:getqloc.obj
 0002:00009330       ??_C@_15GMFIMNFM@?$AAu?$AAs?$AA?$AA@ 10047330     LIBCMT:getqloc.obj
 0002:00009338       ??_C@_17HAEBFAGL@?$AAu?$AAs?$AAa?$AA?$AA@ 10047338     LIBCMT:getqloc.obj
 0002:00009340       ___rg_country              10047340     LIBCMT:getqloc.obj
 0002:00009454       ??_C@_1BA@DPFJEPHB@?$AAa?$AAm?$AAe?$AAr?$AAi?$AAc?$AAa?$AA?$AA@ 10047454     LIBCMT:getqloc.obj
 0002:00009464       ??_C@_1BA@ELOGGFK@?$AAb?$AAr?$AAi?$AAt?$AAa?$AAi?$AAn?$AA?$AA@ 10047464     LIBCMT:getqloc.obj
 0002:00009474       ??_C@_1M@GHBGIGDA@?$AAc?$AAh?$AAi?$AAn?$AAa?$AA?$AA@ 10047474     LIBCMT:getqloc.obj
 0002:00009480       ??_C@_1M@NCHEJOPO@?$AAc?$AAz?$AAe?$AAc?$AAh?$AA?$AA@ 10047480     LIBCMT:getqloc.obj
 0002:0000948c       ??_C@_1BA@BKPAPBLA@?$AAe?$AAn?$AAg?$AAl?$AAa?$AAn?$AAd?$AA?$AA@ 1004748c     LIBCMT:getqloc.obj
 0002:0000949c       ??_C@_1BM@HKBCKIPC@?$AAg?$AAr?$AAe?$AAa?$AAt?$AA?5?$AAb?$AAr?$AAi?$AAt?$AAa?$AAi?$AAn?$AA?$AA@ 1004749c     LIBCMT:getqloc.obj
 0002:000094b8       ??_C@_1BA@PPCHPGJB@?$AAh?$AAo?$AAl?$AAl?$AAa?$AAn?$AAd?$AA?$AA@ 100474b8     LIBCMT:getqloc.obj
 0002:000094c8       ??_C@_1BE@JBMPEGDG@?$AAh?$AAo?$AAn?$AAg?$AA?9?$AAk?$AAo?$AAn?$AAg?$AA?$AA@ 100474c8     LIBCMT:getqloc.obj
 0002:000094dc       ??_C@_1BI@KOELBBPJ@?$AAn?$AAe?$AAw?$AA?9?$AAz?$AAe?$AAa?$AAl?$AAa?$AAn?$AAd?$AA?$AA@ 100474dc     LIBCMT:getqloc.obj
 0002:000094f4       ??_C@_15HIEBHAIO@?$AAn?$AAz?$AA?$AA@ 100474f4     LIBCMT:getqloc.obj
 0002:000094fc       ??_C@_1BC@CHBCPFPI@?$AAp?$AAr?$AA?5?$AAc?$AAh?$AAi?$AAn?$AAa?$AA?$AA@ 100474fc     LIBCMT:getqloc.obj
 0002:00009510       ??_C@_1BC@JAOIIFKD@?$AAp?$AAr?$AA?9?$AAc?$AAh?$AAi?$AAn?$AAa?$AA?$AA@ 10047510     LIBCMT:getqloc.obj
 0002:00009524       ??_C@_1BI@BEHPPHKC@?$AAp?$AAu?$AAe?$AAr?$AAt?$AAo?$AA?9?$AAr?$AAi?$AAc?$AAo?$AA?$AA@ 10047524     LIBCMT:getqloc.obj
 0002:0000953c       ??_C@_1O@PAEOFKDI@?$AAs?$AAl?$AAo?$AAv?$AAa?$AAk?$AA?$AA@ 1004753c     LIBCMT:getqloc.obj
 0002:0000954c       ??_C@_1BK@FIHMCKAM@?$AAs?$AAo?$AAu?$AAt?$AAh?$AA?5?$AAa?$AAf?$AAr?$AAi?$AAc?$AAa?$AA?$AA@ 1004754c     LIBCMT:getqloc.obj
 0002:00009568       ??_C@_1BI@NAEOODKB@?$AAs?$AAo?$AAu?$AAt?$AAh?$AA?5?$AAk?$AAo?$AAr?$AAe?$AAa?$AA?$AA@ 10047568     LIBCMT:getqloc.obj
 0002:00009580       ??_C@_1BK@FBDGGIFF@?$AAs?$AAo?$AAu?$AAt?$AAh?$AA?9?$AAa?$AAf?$AAr?$AAi?$AAc?$AAa?$AA?$AA@ 10047580     LIBCMT:getqloc.obj
 0002:0000959c       ??_C@_1BI@GHLEJDPK@?$AAs?$AAo?$AAu?$AAt?$AAh?$AA?9?$AAk?$AAo?$AAr?$AAe?$AAa?$AA?$AA@ 1004759c     LIBCMT:getqloc.obj
 0002:000095b4       ??_C@_1CE@PLHLOMJF@?$AAt?$AAr?$AAi?$AAn?$AAi?$AAd?$AAa?$AAd?$AA?5?$AA?$CG?$AA?5?$AAt?$AAo?$AAb?$AAa?$AAg?$AAo?$AA?$AA@ 100475b4     LIBCMT:getqloc.obj
 0002:000095d8       ??_C@_1BO@MODIMHHI@?$AAu?$AAn?$AAi?$AAt?$AAe?$AAd?$AA?9?$AAk?$AAi?$AAn?$AAg?$AAd?$AAo?$AAm?$AA?$AA@ 100475d8     LIBCMT:getqloc.obj
 0002:000095f8       ??_C@_1BM@FFHJONBJ@?$AAu?$AAn?$AAi?$AAt?$AAe?$AAd?$AA?9?$AAs?$AAt?$AAa?$AAt?$AAe?$AAs?$AA?$AA@ 100475f8     LIBCMT:getqloc.obj
 0002:00009614       ___rg_language_count       10047614     LIBCMT:getqloc.obj
 0002:00009618       ___rg_country_count        10047618     LIBCMT:getqloc.obj
 0002:0000961c       ??_C@_17DNCLJFIF@?$AAA?$AAC?$AAP?$AA?$AA@ 1004761c     LIBCMT:getqloc.obj
 0002:00009624       ??_C@_17CIKBIHLH@?$AAO?$AAC?$AAP?$AA?$AA@ 10047624     LIBCMT:getqloc.obj
 0002:0000962c       ___rglangidNotDefault      1004762c     LIBCMT:getqloc_downlevel.obj
 0002:00009640       __real@00000000            10047640     LIBCMT:wcstoq.obj
 0002:00009648       __load_config_used         10047648     LIBCMT:loadcfg.obj
 0002:0000acf0       ___safe_se_handler_table   10048cf0     <linker-defined>
 0002:0000ae00       ___rtc_iaa                 10048e00     LIBCMT:initsect.obj
 0002:0000af04       ___rtc_izz                 10048f04     LIBCMT:initsect.obj
 0002:0000b008       ___rtc_taa                 10049008     LIBCMT:initsect.obj
 0002:0000b10c       ___rtc_tzz                 1004910c     LIBCMT:initsect.obj
 0003:00000168       _backup_test1_P            1004a168     backup_test1_data.obj
 0003:000006c0       _pci20041digout            1004a6c0     xpctarget.obj
 0003:000006c4       _nipcdio24cnfg             1004a6c4     xpctarget.obj
 0003:000006c8       _rtddm6604cnfg             1004a6c8     xpctarget.obj
 0003:000007ec       _DefaultCOMIOBase          1004a7ec     xpcruntime:xpcimports.obj
 0003:000007fc       _DefaultCOMIRQ             1004a7fc     xpcruntime:xpcimports.obj
 0003:00000810       __fltused                  1004a810     LIBCMT:fpinit.obj
 0003:00000814       __ldused                   1004a814     LIBCMT:fpinit.obj
 0003:00000820       __iob                      1004a820     LIBCMT:_file.obj
 0003:00000aa0       ___isa_enabled             1004aaa0     LIBCMT:cpu_disp.obj
 0003:00000aa4       ___security_cookie         1004aaa4     LIBCMT:gs_cookie.obj
 0003:00000aa8       ___security_cookie_complement 1004aaa8     LIBCMT:gs_cookie.obj
 0003:00000c80       __cfltcvt_tab              1004ac80     LIBCMT:cmiscdat.obj
 0003:00000dd0       __mbctype                  1004add0     LIBCMT:mbctype.obj
 0003:00000ed8       __mbcasemap                1004aed8     LIBCMT:mbctype.obj
 0003:00000fd8       ___initialmbcinfo          1004afd8     LIBCMT:mbctype.obj
 0003:000011fc       ___ptmbcinfo               1004b1fc     LIBCMT:mbctype.obj
 0003:000012f0       ___nullstring              1004b2f0     LIBCMT:output.obj
 0003:000012f4       ___wnullstring             1004b2f4     LIBCMT:output.obj
 0003:000012f8       ___badioinfo               1004b2f8     LIBCMT:ioinit.obj
 0003:00001338       __lookuptrailbytes         1004b338     LIBCMT:read.obj
 0003:00001438       __d_inf                    1004b438     LIBCMT:util.obj
 0003:00001440       __d_ind                    1004b440     LIBCMT:util.obj
 0003:00001448       __d_max                    1004b448     LIBCMT:util.obj
 0003:00001450       __d_min                    1004b450     LIBCMT:util.obj
 0003:00001458       __d_mzero                  1004b458     LIBCMT:util.obj
 0003:00001564       ___abort_behavior          1004b564     LIBCMT:abort.obj
 0003:00001568       ___flsindex                1004b568     LIBCMT:tidtable.obj
 0003:00001570       ___mb_cur_max              1004b570     LIBCMT:nlsdata.obj
 0003:00001574       ___wclocalestr             1004b574     LIBCMT:nlsdata.obj
 0003:00001578       ___lc_time_c               1004b578     LIBCMT:nlsdata.obj
 0003:000016dc       ___ptlocinfo               1004b6dc     LIBCMT:nlsdata.obj
 0003:000016e0       ___initiallocinfo          1004b6e0     LIBCMT:nlsdata.obj
 0003:00001798       ___initiallocalestructinfo 1004b798     LIBCMT:nlsdata.obj
 0003:000017a0       ___globallocalestatus      1004b7a0     LIBCMT:glstatus.obj
 0003:000017b0       __NLG_Destination          1004b7b0     LIBCMT:exsup.obj
 0003:000017c0       __matherr_flag             1004b7c0     LIBCMT:matherr.obj
 0003:000017c8       ___lconv                   1004b7c8     LIBCMT:lconv.obj
 0003:000017cc       ___lconv_static_decimal    1004b7cc     LIBCMT:lconv.obj
 0003:000017d0       ___lconv_c                 1004b7d0     LIBCMT:lconv.obj
 0003:00001820       ___lconv_static_W_decimal  1004b820     LIBCMT:lconv.obj
 0003:00001858       __pctype                   1004b858     LIBCMT:ctype.obj
 0003:0000185c       __pwctype                  1004b85c     LIBCMT:ctype.obj
 0003:00001860       __confh                    1004b860     LIBCMT:initcon.obj
 0003:00001868       __pow10pos                 1004b868     LIBCMT:constpow.obj
 0003:000019c8       __pow10neg                 1004b9c8     LIBCMT:constpow.obj
 0003:00001b30       __HUGE                     1004bb30     LIBCMT:huge.obj
 0003:0000207c       ___isa_available_default   1004c07c     rt_logging.obj
 0003:0000208c       _pci20098PortA             1004c08c     xpctarget.obj
 0003:00002090       _pci20098PortB             1004c090     xpctarget.obj
 0003:00002094       _siepowercan_firmware_initialized 1004c094     xpctarget.obj
 0003:00002098       _siepowercan_port1_configured 1004c098     xpctarget.obj
 0003:0000209c       _siepowercan_port2_configured 1004c09c     xpctarget.obj
 0003:000020a0       _CANAC2_FIRMWARE_LOADED    1004c0a0     xpctarget.obj
 0003:000020a4       _rs232ports                1004c0a4     xpctarget.obj
 0003:000020b4       _NI_AT_MIO_16F_5_commreg2  1004c0b4     xpctarget.obj
 0003:000020b8       _RTD_DM6430_init           1004c0b8     xpctarget.obj
 0003:000020bc       _RTD_DM6420_init           1004c0bc     xpctarget.obj
 0003:000020c0       _CANAC2_FIRMWARE_LOADED_mb1 1004c0c0     xpctarget.obj
 0003:000020c4       _CANAC2_FIRMWARE_LOADED_mb2 1004c0c4     xpctarget.obj
 0003:000020c8       _CANAC2_FIRMWARE_LOADED_mb3 1004c0c8     xpctarget.obj
 0003:000020cc       _xmlsize                   1004c0cc     xpctarget.obj
 0003:0000248c       ___fastflag                1004c48c     LIBCMT:fpinit.obj
 0003:000027b0       __C_Exit_Done              1004c7b0     LIBCMT:crt0dat.obj
 0003:000027b4       ___argc                    1004c7b4     LIBCMT:crt0dat.obj
 0003:000027b8       ___argv                    1004c7b8     LIBCMT:crt0dat.obj
 0003:000027bc       ___wargv                   1004c7bc     LIBCMT:crt0dat.obj
 0003:000027c0       __environ                  1004c7c0     LIBCMT:crt0dat.obj
 0003:000027c4       __wenviron                 1004c7c4     LIBCMT:crt0dat.obj
 0003:000027c8       __pgmptr                   1004c7c8     LIBCMT:crt0dat.obj
 0003:000027cc       __wpgmptr                  1004c7cc     LIBCMT:crt0dat.obj
 0003:000027d0       __umaskval                 1004c7d0     LIBCMT:crt0dat.obj
 0003:000027d4       __exitflag                 1004c7d4     LIBCMT:crt0dat.obj
 0003:000027d8       __C_Termination_Done       1004c7d8     LIBCMT:crt0dat.obj
 0003:000027dc       ___winitenv                1004c7dc     LIBCMT:crt0dat.obj
 0003:000027e0       ___initenv                 1004c7e0     LIBCMT:crt0dat.obj
 0003:000027e4       __cflush                   1004c7e4     LIBCMT:_file.obj
 0003:000027ec       ___isa_available           1004c7ec     LIBCMT:cpu_disp.obj
 0003:000027f0       ___favor                   1004c7f0     LIBCMT:cpu_disp.obj
 0003:000027f8       __aenvptr                  1004c7f8     LIBCMT:dllcrt0.obj
 0003:000027fc       __wenvptr                  1004c7fc     LIBCMT:dllcrt0.obj
 0003:00002800       ?_pnhHeap@@3P6AHI@ZA       1004c800     LIBCMT:handler.obj
 0003:00002808       ___app_type                1004c808     LIBCMT:crt0msg.obj
 0003:00002e38       __newmode                  1004ce38     LIBCMT:_newmode.obj
 0003:00002e3c       __crtheap                  1004ce3c     LIBCMT:heapinit.obj
 0003:00002e40       ___pInvalidArgHandler      1004ce40     LIBCMT:invarg.obj
 0003:00002f98       __maxwait                  1004cf98     LIBCMT:crtheap.obj
 0003:00002f9c       ?__pInconsistency@@3P6AXXZA 1004cf9c     LIBCMT:hooks.obj
 0003:00002fa0       ___pPurecall               1004cfa0     LIBCMT:inithelp.obj
 0003:00002fbc       ___mbcodepage              1004cfbc     LIBCMT:mbctype.obj
 0003:00002fc0       ___ismbcodepage            1004cfc0     LIBCMT:mbctype.obj
 0003:00002fc4       ___mbulinfo                1004cfc4     LIBCMT:mbctype.obj
 0003:00002fd0       ___mblocalename            1004cfd0     LIBCMT:mbctype.obj
 0003:00002fd8       __stdbuf                   1004cfd8     LIBCMT:_sftbuf.obj
 0003:00002fe0       ___pioinfo                 1004cfe0     LIBCMT:ioinit.obj
 0003:000030e0       ___error_mode              1004d0e0     LIBCMT:errmode.obj
 0003:00003200       __outputformat             1004d200     LIBCMT:outputformat.obj
 0003:00003208       __commode                  1004d208     LIBCMT:ncommode.obj
 0003:0000320c       ___lconv_static_null       1004d20c     LIBCMT:lconv.obj
 0003:00003210       ___lconv_static_W_null     1004d210     LIBCMT:lconv.obj
 0003:00003214       ___locale_changed          1004d214     LIBCMT:wsetloca.obj
 0003:00003218       __fmode                    1004d218     LIBCMT:txtmode.obj
 0003:00003220       _CANAC2_2_receiveindex_mb3 1004d220     <common>
 0003:000062f4       _CANAC2_2_receivemaxindex_mb3 100502f4     <common>
 0003:00006300       _CANAC2_2_sendindex_mb3    10050300     <common>
 0003:00006620       _CANAC2_2_sendmaxindex_mb3 10050620     <common>
 0003:00006640       _CANAC2_1_receiveindex_mb3 10050640     <common>
 0003:00006960       _CANAC2_1_receivemaxindex_mb3 10050960     <common>
 0003:00006980       _CANAC2_1_sendindex_mb3    10050980     <common>
 0003:00006ca0       _CANAC2_1_sendmaxindex_mb3 10050ca0     <common>
 0003:00006cc0       _CANAC2_2_receive_mb3      10050cc0     <common>
 0003:00006fe0       _CANAC2_2_send_mb3         10050fe0     <common>
 0003:00007300       _CANAC2_1_receive_mb3      10051300     <common>
 0003:00007620       _CANAC2_1_send_mb3         10051620     <common>
 0003:00007940       _CANAC2_2_receiveindex_mb2 10051940     <common>
 0003:00007c60       _CANAC2_2_receivemaxindex_mb2 10051c60     <common>
 0003:00007c80       _CANAC2_2_sendindex_mb2    10051c80     <common>
 0003:00007fa0       _CANAC2_2_sendmaxindex_mb2 10051fa0     <common>
 0003:00007fc0       _CANAC2_1_receiveindex_mb2 10051fc0     <common>
 0003:000082e0       _CANAC2_1_receivemaxindex_mb2 100522e0     <common>
 0003:00008300       _CANAC2_1_sendindex_mb2    10052300     <common>
 0003:00008620       _CANAC2_1_sendmaxindex_mb2 10052620     <common>
 0003:00008640       _CANAC2_2_receive_mb2      10052640     <common>
 0003:00008960       _CANAC2_2_send_mb2         10052960     <common>
 0003:00008c80       _CANAC2_1_receive_mb2      10052c80     <common>
 0003:00008fa0       _CANAC2_1_send_mb2         10052fa0     <common>
 0003:000092c0       _CANAC2_2_receiveindex_mb1 100532c0     <common>
 0003:000095e0       _CANAC2_2_receivemaxindex_mb1 100535e0     <common>
 0003:00009600       _CANAC2_2_sendindex_mb1    10053600     <common>
 0003:00009920       _CANAC2_2_sendmaxindex_mb1 10053920     <common>
 0003:00009940       _CANAC2_1_receiveindex_mb1 10053940     <common>
 0003:00009c60       _CANAC2_1_receivemaxindex_mb1 10053c60     <common>
 0003:00009c80       _CANAC2_1_sendindex_mb1    10053c80     <common>
 0003:00009fa0       _CANAC2_1_sendmaxindex_mb1 10053fa0     <common>
 0003:00009fc0       _CANAC2_2_receive_mb1      10053fc0     <common>
 0003:0000a2e0       _CANAC2_2_send_mb1         100542e0     <common>
 0003:0000a600       _CANAC2_1_receive_mb1      10054600     <common>
 0003:0000a920       _CANAC2_1_send_mb1         10054920     <common>
 0003:0000ac40       _CANAC2_2_receiveindex     10054c40     <common>
 0003:0000af60       _CANAC2_2_receivemaxindex  10054f60     <common>
 0003:0000af80       _CANAC2_2_sendindex        10054f80     <common>
 0003:0000b2a0       _CANAC2_2_sendmaxindex     100552a0     <common>
 0003:0000b2c0       _CANAC2_1_receiveindex     100552c0     <common>
 0003:0000b5e0       _CANAC2_1_receivemaxindex  100555e0     <common>
 0003:0000b600       _CANAC2_1_sendindex        10055600     <common>
 0003:0000b920       _CANAC2_1_sendmaxindex     10055920     <common>
 0003:0000b940       _CANAC2_2_receive          10055940     <common>
 0003:0000bc60       _CANAC2_2_send             10055c60     <common>
 0003:0000bf80       _CANAC2_1_receive          10055f80     <common>
 0003:0000c2a0       _CANAC2_1_send             100562a0     <common>
 0003:0000c5c0       _siepowercan_can_object_buffer_port2 100565c0     <common>
 0003:000105e0       _siepowercan_can_object_buffer_port1 1005a5e0     <common>
 0003:000145e0       _rtNaNF                    1005e5e0     <common>
 0003:000145f4       _rtMinusInfF               1005e5f4     <common>
 0003:000145f8       _rtInfF                    1005e5f8     <common>
 0003:00014600       _rtNaN                     1005e600     <common>
 0003:00014608       _rtMinusInf                1005e608     <common>
 0003:00014610       _rtInf                     1005e610     <common>
 0003:00014620       _backup_test1_M_           1005e620     <common>
 0003:00016360       _backup_test1_DW           10060360     <common>
 0003:00016420       _backup_test1_B            10060420     <common>
 0003:00016438       _xpceaddEvent              10060438     <common>
 0003:00016488       _xpceDeRegisterISR         10060488     <common>
 0003:0001648c       _xpceRegisterISR           1006048c     <common>
 0003:00016490       _xpcIsModelInit            10060490     <common>
 0003:00016494       _xpcGetElapsedTime         10060494     <common>
 0003:00016498       _xpcBusyWait               10060498     <common>
 0003:0001649c       _xpcFreePhysicalMemory     1006049c     <common>
 0003:000164a0       _xpcAllocPhysicalMemory    100604a0     <common>
 0003:000164a4       _xpcReserveMemoryRegion    100604a4     <common>
 0003:000164a8       _xpcOutpB                  100604a8     <common>
 0003:000164ac       _xpcOutpW                  100604ac     <common>
 0003:000164b0       _xpcOutpDW                 100604b0     <common>
 0003:000164b4       _xpcInpB                   100604b4     <common>
 0003:000164b8       _xpcInpW                   100604b8     <common>
 0003:000164bc       _xpcInpDW                  100604bc     <common>
 0003:000164c0       _slTestRegAssessment       100604c0     <common>
 0003:000164c4       _slTestTerminate           100604c4     <common>
 0003:000164c8       _slTestEvalOnFail          100604c8     <common>
 0003:000164cc       _slTestLogAssessments      100604cc     <common>
 0003:000164d0       _slTestInitialize          100604d0     <common>
 0003:000164d4       _unRegisterPTPTimeRead     100604d4     <common>
 0003:000164d8       _registerPTPTimeRead       100604d8     <common>
 0003:000164dc       _slrteGetCurrentStepSize   100604dc     <common>
 0003:000164e0       _slrteSetStepSizeDelta     100604e0     <common>
 0003:000164e4       _xpceGetIntTimerGranularityNS 100604e4     <common>
 0003:000164e8       _sendToAsyncQueueTgtAppSvc 100604e8     <common>
 0003:000164ec       _terminateToAsyncQueueTgtAppSvc 100604ec     <common>
 0003:000164f0       _startToAsyncQueueTgtAppSvc 100604f0     <common>
 0003:000164f4       _getStatusFlags            100604f4     <common>
 0003:000164f8       _getCommService            100604f8     <common>
 0003:000164fc       _getMemoryService          100604fc     <common>
 0003:00016500       _StreamVideo               10060500     <common>
 0003:00016504       _StopVideoDisplay          10060504     <common>
 0003:00016508       _StartVideoDisplay         10060508     <common>
 0003:0001650c       _DestroyVideoDisplay       1006050c     <common>
 0003:00016510       _CreateVideoDisplay        10060510     <common>
 0003:00016514       _ConvertUImage             10060514     <common>
 0003:00016518       _StopVideo                 10060518     <common>
 0003:0001651c       _ReadFrameBuffer           1006051c     <common>
 0003:00016520       _StartVideo                10060520     <common>
 0003:00016524       _GetVideoConfigs           10060524     <common>
 0003:00016528       _FindUsbVideoDevice        10060528     <common>
 0003:0001652c       _xpceDeleteSemaphore       1006052c     <common>
 0003:00016530       _xpceSignalSemaphore       10060530     <common>
 0003:00016534       _xpceWaitSemaphore         10060534     <common>
 0003:00016538       _xpceCreateSemaphore       10060538     <common>
 0003:0001653c       _TBGiveSpinFast            1006053c     <common>
 0003:00016540       _TBTakeSpinFast            10060540     <common>
 0003:00016544       _TBDeleteSpin              10060544     <common>
 0003:00016548       _TBCreateSpin              10060548     <common>
 0003:0001654c       _xpceScopeAcqOK            1006054c     <common>
 0003:00016550       _rl32eRestartAcquisition   10060550     <common>
 0003:00016554       _rl32eSetTargetScopeSigFt  10060554     <common>
 0003:00016558       _rl32eSetTargetScope       10060558     <common>
 0003:0001655c       _xpceFSScopeSet            1006055c     <common>
 0003:00016560       _rl32eSetScope             10060560     <common>
 0003:00016564       _rl32eAddSignal            10060564     <common>
 0003:00016568       _rl32eGetSignalNo          10060568     <common>
 0003:0001656c       _rl32eDefScope             1006056c     <common>
 0003:00016570       _rl32eScopeExists          10060570     <common>
 0003:00016574       _xpceUDPClose              10060574     <common>
 0003:00016578       _xpceUDPReceive            10060578     <common>
 0003:0001657c       _xpceUDPSend               1006057c     <common>
 0003:00016580       _xpceUDPOpenReceive        10060580     <common>
 0003:00016584       _xpceUDPOpenSend           10060584     <common>
 0003:00016588       _rl32eSendBlock            10060588     <common>
 0003:0001658c       _rl32eLineStatus           1006058c     <common>
 0003:00016590       _rl32eReceiveBufferCount   10060590     <common>
 0003:00016594       _rl32eReceiveChar          10060594     <common>
 0003:00016598       _rl32eSendChar             10060598     <common>
 0003:0001659c       _rl32eCloseCOMPort         1006059c     <common>
 0003:000165a0       _rl32eInitCOMPort          100605a0     <common>
 0003:000165a4       _xpceGetParamDims          100605a4     <common>
 0003:000165a8       _xpceGetParameter          100605a8     <common>
 0003:000165ac       _xpceSetParameter          100605ac     <common>
 0003:000165b0       _xpceGetSignalValue        100605b0     <common>
 0003:000165b4       _xpceAssignPCIInterrupt    100605b4     <common>
 0003:000165b8       _rl32eGetPCIInfoAtSlot     100605b8     <common>
 0003:000165bc       _rl32eGetPCIInfo           100605bc     <common>
 0003:000165c0       _rl32eShowPCIInfo          100605c0     <common>
 0003:000165c4       _rl32eShowPCIDev           100605c4     <common>
 0003:000165c8       _xpceGetTET                100605c8     <common>
 0003:000165cc       _xpceFTSubtract            100605cc     <common>
 0003:000165d0       _xpceFTAdd                 100605d0     <common>
 0003:000165d4       _xpceFTReadTime            100605d4     <common>
 0003:000165d8       ___unguarded_readlc_active 100605d8     <common>
 0003:000165e8       ___setlc_active            100605e8     <common>
 0003:000165ec       __nhandle                  100605ec     <common>
 0003:000165f8       __pDestructExceptionObject 100605f8     <common>
 0003:00016620       _encodedKERNEL32Functions  10060620     <common>
 0003:000166c8       __debugger_hook_dummy      100606c8     <common>
 0003:000166d4       __acmdln                   100606d4     <common>
 0003:000166e0       __bufin                    100606e0     <common>
 0003:00017a1c       ___piob                    10061a1c     <common>
 0003:00017a20       __nstream                  10061a20     <common>
 0003:00017a24       ___dyn_tls_init_callback   10061a24     <common>
 0003:00017a34       ___onexitend               10061a34     <common>
 0003:00017a38       ___onexitbegin             10061a38     <common>
 0003:00017a3c       ___mbctype_initialized     10061a3c     <common>
 0003:00017a40       ___env_initialized         10061a40     <common>
 0004:00000000       __imp__GetModuleHandleA@4  10062000     kernel32:KERNEL32.dll
 0004:00000004       __imp__GetProcAddress@8    10062004     kernel32:KERNEL32.dll
 0004:00000008       __imp__HeapAlloc@12        10062008     kernel32:KERNEL32.dll
 0004:0000000c       __imp__IsDebuggerPresent@0 1006200c     kernel32:KERNEL32.dll
 0004:00000010       __imp__IsProcessorFeaturePresent@4 10062010     kernel32:KERNEL32.dll
 0004:00000014       __imp__EncodePointer@4     10062014     kernel32:KERNEL32.dll
 0004:00000018       __imp__DecodePointer@4     10062018     kernel32:KERNEL32.dll
 0004:0000001c       __imp__GetLastError@0      1006201c     kernel32:KERNEL32.dll
 0004:00000020       __imp__ExitProcess@4       10062020     kernel32:KERNEL32.dll
 0004:00000024       __imp__GetModuleHandleExW@12 10062024     kernel32:KERNEL32.dll
 0004:00000028       __imp__AreFileApisANSI@0   10062028     kernel32:KERNEL32.dll
 0004:0000002c       __imp__MultiByteToWideChar@24 1006202c     kernel32:KERNEL32.dll
 0004:00000030       __imp__WideCharToMultiByte@32 10062030     kernel32:KERNEL32.dll
 0004:00000034       __imp__HeapFree@12         10062034     kernel32:KERNEL32.dll
 0004:00000038       __imp__HeapReAlloc@16      10062038     kernel32:KERNEL32.dll
 0004:0000003c       __imp__EnterCriticalSection@4 1006203c     kernel32:KERNEL32.dll
 0004:00000040       __imp__LeaveCriticalSection@4 10062040     kernel32:KERNEL32.dll
 0004:00000044       __imp__GetStdHandle@4      10062044     kernel32:KERNEL32.dll
 0004:00000048       __imp__GetFileType@4       10062048     kernel32:KERNEL32.dll
 0004:0000004c       __imp__GetModuleFileNameW@12 1006204c     kernel32:KERNEL32.dll
 0004:00000050       __imp__WriteConsoleW@20    10062050     kernel32:KERNEL32.dll
 0004:00000054       __imp__GetCommandLineA@0   10062054     kernel32:KERNEL32.dll
 0004:00000058       __imp__GetCurrentThreadId@0 10062058     kernel32:KERNEL32.dll
 0004:0000005c       __imp__WriteFile@20        1006205c     kernel32:KERNEL32.dll
 0004:00000060       __imp__GetProcessHeap@0    10062060     kernel32:KERNEL32.dll
 0004:00000064       __imp__UnhandledExceptionFilter@4 10062064     kernel32:KERNEL32.dll
 0004:00000068       __imp__SetUnhandledExceptionFilter@4 10062068     kernel32:KERNEL32.dll
 0004:0000006c       __imp__SetLastError@4      1006206c     kernel32:KERNEL32.dll
 0004:00000070       __imp__InitializeCriticalSectionAndSpinCount@8 10062070     kernel32:KERNEL32.dll
 0004:00000074       __imp__CreateEventW@16     10062074     kernel32:KERNEL32.dll
 0004:00000078       __imp__Sleep@4             10062078     kernel32:KERNEL32.dll
 0004:0000007c       __imp__GetCurrentProcess@0 1006207c     kernel32:KERNEL32.dll
 0004:00000080       __imp__TerminateProcess@8  10062080     kernel32:KERNEL32.dll
 0004:00000084       __imp__TlsAlloc@0          10062084     kernel32:KERNEL32.dll
 0004:00000088       __imp__TlsGetValue@4       10062088     kernel32:KERNEL32.dll
 0004:0000008c       __imp__TlsSetValue@8       1006208c     kernel32:KERNEL32.dll
 0004:00000090       __imp__TlsFree@4           10062090     kernel32:KERNEL32.dll
 0004:00000094       __imp__GetStartupInfoW@4   10062094     kernel32:KERNEL32.dll
 0004:00000098       __imp__GetTickCount@0      10062098     kernel32:KERNEL32.dll
 0004:0000009c       __imp__GetModuleHandleW@4  1006209c     kernel32:KERNEL32.dll
 0004:000000a0       __imp__CreateSemaphoreW@16 100620a0     kernel32:KERNEL32.dll
 0004:000000a4       __imp__DeleteCriticalSection@4 100620a4     kernel32:KERNEL32.dll
 0004:000000a8       __imp__FatalAppExitA@8     100620a8     kernel32:KERNEL32.dll
 0004:000000ac       __imp__SetConsoleCtrlHandler@8 100620ac     kernel32:KERNEL32.dll
 0004:000000b0       __imp__FreeLibrary@4       100620b0     kernel32:KERNEL32.dll
 0004:000000b4       __imp__LoadLibraryExW@12   100620b4     kernel32:KERNEL32.dll
 0004:000000b8       __imp__IsValidCodePage@4   100620b8     kernel32:KERNEL32.dll
 0004:000000bc       __imp__GetACP@0            100620bc     kernel32:KERNEL32.dll
 0004:000000c0       __imp__GetOEMCP@0          100620c0     kernel32:KERNEL32.dll
 0004:000000c4       __imp__GetCPInfo@8         100620c4     kernel32:KERNEL32.dll
 0004:000000c8       __imp__CloseHandle@4       100620c8     kernel32:KERNEL32.dll
 0004:000000cc       __imp__RtlUnwind@16        100620cc     kernel32:KERNEL32.dll
 0004:000000d0       __imp__ReadFile@20         100620d0     kernel32:KERNEL32.dll
 0004:000000d4       __imp__GetConsoleMode@8    100620d4     kernel32:KERNEL32.dll
 0004:000000d8       __imp__ReadConsoleW@20     100620d8     kernel32:KERNEL32.dll
 0004:000000dc       __imp__GetConsoleCP@0      100620dc     kernel32:KERNEL32.dll
 0004:000000e0       __imp__DeleteFileW@4       100620e0     kernel32:KERNEL32.dll
 0004:000000e4       __imp__SetFilePointerEx@20 100620e4     kernel32:KERNEL32.dll
 0004:000000e8       __imp__RaiseException@16   100620e8     kernel32:KERNEL32.dll
 0004:000000ec       __imp__OutputDebugStringW@4 100620ec     kernel32:KERNEL32.dll
 0004:000000f0       __imp__GetCurrentThread@0  100620f0     kernel32:KERNEL32.dll
 0004:000000f4       __imp__GetModuleFileNameA@12 100620f4     kernel32:KERNEL32.dll
 0004:000000f8       __imp__QueryPerformanceCounter@4 100620f8     kernel32:KERNEL32.dll
 0004:000000fc       __imp__GetCurrentProcessId@0 100620fc     kernel32:KERNEL32.dll
 0004:00000100       __imp__GetSystemTimeAsFileTime@4 10062100     kernel32:KERNEL32.dll
 0004:00000104       __imp__GetEnvironmentStringsW@0 10062104     kernel32:KERNEL32.dll
 0004:00000108       __imp__FreeEnvironmentStringsW@4 10062108     kernel32:KERNEL32.dll
 0004:0000010c       __imp__HeapSize@12         1006210c     kernel32:KERNEL32.dll
 0004:00000110       __imp__GetDateFormatW@24   10062110     kernel32:KERNEL32.dll
 0004:00000114       __imp__GetTimeFormatW@24   10062114     kernel32:KERNEL32.dll
 0004:00000118       __imp__CompareStringW@24   10062118     kernel32:KERNEL32.dll
 0004:0000011c       __imp__LCMapStringW@24     1006211c     kernel32:KERNEL32.dll
 0004:00000120       __imp__GetLocaleInfoW@16   10062120     kernel32:KERNEL32.dll
 0004:00000124       __imp__IsValidLocale@8     10062124     kernel32:KERNEL32.dll
 0004:00000128       __imp__GetUserDefaultLCID@0 10062128     kernel32:KERNEL32.dll
 0004:0000012c       __imp__EnumSystemLocalesW@8 1006212c     kernel32:KERNEL32.dll
 0004:00000130       __imp__GetStringTypeW@16   10062130     kernel32:KERNEL32.dll
 0004:00000134       __imp__FlushFileBuffers@4  10062134     kernel32:KERNEL32.dll
 0004:00000138       __imp__SetStdHandle@8      10062138     kernel32:KERNEL32.dll
 0004:0000013c       __imp__CreateFileW@28      1006213c     kernel32:KERNEL32.dll
 0004:00000140       __imp__SetEndOfFile@4      10062140     kernel32:KERNEL32.dll
 0004:00000144       \177KERNEL32_NULL_THUNK_DATA 10062144     kernel32:KERNEL32.dll
 0004:000001b0       __IMPORT_DESCRIPTOR_KERNEL32 100621b0     kernel32:KERNEL32.dll
 0004:000001c4       __NULL_IMPORT_DESCRIPTOR   100621c4     kernel32:KERNEL32.dll

 entry point at        0001:00012843

